
flash_uart_accelerometer.elf:     file format elf32-littlenios2
flash_uart_accelerometer.elf
architecture: nios2:r1, flags 0x00000112:
EXEC_P, HAS_SYMS, D_PAGED
start address 0x00120234

Program Header:
    LOAD off    0x00001000 vaddr 0x00120000 paddr 0x00120000 align 2**12
         filesz 0x00000020 memsz 0x00000020 flags r-x
    LOAD off    0x00001020 vaddr 0x00120020 paddr 0x00120020 align 2**12
         filesz 0x00019a1c memsz 0x00019a1c flags r-x
    LOAD off    0x0001aa3c vaddr 0x00139a3c paddr 0x0013b734 align 2**12
         filesz 0x00001cf8 memsz 0x00001cf8 flags rw-
    LOAD off    0x0001d42c vaddr 0x0013d42c paddr 0x0013d42c align 2**12
         filesz 0x00000000 memsz 0x0000016c flags rw-

Sections:
Idx Name          Size      VMA       LMA       File off  Algn
  0 .entry        00000020  00120000  00120000  00001000  2**5
                  CONTENTS, ALLOC, LOAD, READONLY, CODE
  1 .exceptions   00000214  00120020  00120020  00001020  2**2
                  CONTENTS, ALLOC, LOAD, READONLY, CODE
  2 .text         00018e00  00120234  00120234  00001234  2**2
                  CONTENTS, ALLOC, LOAD, READONLY, CODE
  3 .rodata       00000a08  00139034  00139034  0001a034  2**2
                  CONTENTS, ALLOC, LOAD, READONLY, DATA
  4 .rwdata       00001cf8  00139a3c  0013b734  0001aa3c  2**2
                  CONTENTS, ALLOC, LOAD, DATA, SMALL_DATA
  5 .bss          0000016c  0013d42c  0013d42c  0001d42c  2**2
                  ALLOC, SMALL_DATA
  6 .onchip_flash_data 00000000  00080000  00080000  0001c734  2**0
                  CONTENTS
  7 .onchip_memory 00000000  0013d598  0013d598  0001c734  2**0
                  CONTENTS
  8 .comment      00000023  00000000  00000000  0001c734  2**0
                  CONTENTS, READONLY
  9 .debug_aranges 000012c0  00000000  00000000  0001c758  2**3
                  CONTENTS, READONLY, DEBUGGING
 10 .debug_info   0002eade  00000000  00000000  0001da18  2**0
                  CONTENTS, READONLY, DEBUGGING
 11 .debug_abbrev 0000bb56  00000000  00000000  0004c4f6  2**0
                  CONTENTS, READONLY, DEBUGGING
 12 .debug_line   0000f993  00000000  00000000  0005804c  2**0
                  CONTENTS, READONLY, DEBUGGING
 13 .debug_frame  00002d70  00000000  00000000  000679e0  2**2
                  CONTENTS, READONLY, DEBUGGING
 14 .debug_str    00004dd7  00000000  00000000  0006a750  2**0
                  CONTENTS, READONLY, DEBUGGING
 15 .debug_loc    000205a2  00000000  00000000  0006f527  2**0
                  CONTENTS, READONLY, DEBUGGING
 16 .debug_alt_sim_info 00000040  00000000  00000000  0008facc  2**2
                  CONTENTS, READONLY, DEBUGGING
 17 .debug_ranges 00001de8  00000000  00000000  0008fb10  2**3
                  CONTENTS, READONLY, DEBUGGING
 18 .thread_model 00000003  00000000  00000000  000958c4  2**0
                  CONTENTS, READONLY
 19 .cpu          00000003  00000000  00000000  000958c7  2**0
                  CONTENTS, READONLY
 20 .qsys         00000001  00000000  00000000  000958ca  2**0
                  CONTENTS, READONLY
 21 .simulation_enabled 00000001  00000000  00000000  000958cb  2**0
                  CONTENTS, READONLY
 22 .sysid_hash   00000004  00000000  00000000  000958cc  2**0
                  CONTENTS, READONLY
 23 .sysid_base   00000004  00000000  00000000  000958d0  2**0
                  CONTENTS, READONLY
 24 .sysid_time   00000004  00000000  00000000  000958d4  2**0
                  CONTENTS, READONLY
 25 .stderr_dev   00000009  00000000  00000000  000958d8  2**0
                  CONTENTS, READONLY
 26 .stdin_dev    00000009  00000000  00000000  000958e1  2**0
                  CONTENTS, READONLY
 27 .stdout_dev   00000009  00000000  00000000  000958ea  2**0
                  CONTENTS, READONLY
 28 .sopc_system_name 0000000c  00000000  00000000  000958f3  2**0
                  CONTENTS, READONLY
 29 .sopcinfo     0008ca77  00000000  00000000  000958ff  2**0
                  CONTENTS, READONLY
SYMBOL TABLE:
00120000 l    d  .entry	00000000 .entry
00120020 l    d  .exceptions	00000000 .exceptions
00120234 l    d  .text	00000000 .text
00139034 l    d  .rodata	00000000 .rodata
00139a3c l    d  .rwdata	00000000 .rwdata
0013d42c l    d  .bss	00000000 .bss
00080000 l    d  .onchip_flash_data	00000000 .onchip_flash_data
0013d598 l    d  .onchip_memory	00000000 .onchip_memory
00000000 l    d  .comment	00000000 .comment
00000000 l    d  .debug_aranges	00000000 .debug_aranges
00000000 l    d  .debug_info	00000000 .debug_info
00000000 l    d  .debug_abbrev	00000000 .debug_abbrev
00000000 l    d  .debug_line	00000000 .debug_line
00000000 l    d  .debug_frame	00000000 .debug_frame
00000000 l    d  .debug_str	00000000 .debug_str
00000000 l    d  .debug_loc	00000000 .debug_loc
00000000 l    d  .debug_alt_sim_info	00000000 .debug_alt_sim_info
00000000 l    d  .debug_ranges	00000000 .debug_ranges
00000000 l    df *ABS*	00000000 ../uart_accel_flash_bsp/obj/HAL/src/crt0.o
0012026c l       .text	00000000 alt_after_alt_main
00000000 l    df *ABS*	00000000 alt_irq_handler.c
00000000 l    df *ABS*	00000000 alt_instruction_exception_entry.c
00000000 l    df *ABS*	00000000 uart_accelerometer.c
00000000 l    df *ABS*	00000000 lib2-divmod.c
00000000 l    df *ABS*	00000000 lib2-mul.c
00000000 l    df *ABS*	00000000 memcpy.c
00000000 l    df *ABS*	00000000 memset.c
00000000 l    df *ABS*	00000000 sprintf.c
00000000 l    df *ABS*	00000000 sscanf.c
00000000 l    df *ABS*	00000000 stdio.c
00000000 l    df *ABS*	00000000 strlen.c
00000000 l    df *ABS*	00000000 strstr.c
0012198c l     F .text	00000104 critical_factorization
00121a90 l     F .text	000003b0 two_way_long_needle
00000000 l    df *ABS*	00000000 vfprintf.c
0013931e l     O .rodata	00000010 zeroes.4389
0013932e l     O .rodata	00000010 blanks.4388
00000000 l    df *ABS*	00000000 vfscanf.c
00139346 l     O .rodata	00000022 basefix.4340
00000000 l    df *ABS*	00000000 writer.c
00000000 l    df *ABS*	00000000 closer.c
00000000 l    df *ABS*	00000000 ctype_.c
00139469 l     O .rodata	00000180 _ctype_b
00000000 l    df *ABS*	00000000 dtoa.c
00125eec l     F .text	00000228 quorem
00000000 l    df *ABS*	00000000 impure.c
00139a3c l     O .rwdata	00000424 impure_data
00000000 l    df *ABS*	00000000 int_errno.c
00000000 l    df *ABS*	00000000 iswspace.c
00000000 l    df *ABS*	00000000 locale.c
00139e80 l     O .rwdata	00000020 lc_ctype_charset
00139e60 l     O .rwdata	00000020 lc_message_charset
00139ea0 l     O .rwdata	00000038 lconv
00000000 l    df *ABS*	00000000 lseekr.c
00000000 l    df *ABS*	00000000 mallocr.c
00000000 l    df *ABS*	00000000 mbrtowc.c
00000000 l    df *ABS*	00000000 mbtowc_r.c
00000000 l    df *ABS*	00000000 memchr.c
00000000 l    df *ABS*	00000000 memcmp.c
00000000 l    df *ABS*	00000000 mprec.c
0013960c l     O .rodata	0000000c p05.2768
00000000 l    df *ABS*	00000000 readr.c
00000000 l    df *ABS*	00000000 s_fpclassify.c
00000000 l    df *ABS*	00000000 sbrkr.c
00000000 l    df *ABS*	00000000 sccl.c
00000000 l    df *ABS*	00000000 sf_nan.c
00000000 l    df *ABS*	00000000 strchr.c
00000000 l    df *ABS*	00000000 strcmp.c
00000000 l    df *ABS*	00000000 strtod.c
00129990 l     F .text	00000064 sulp
00139740 l     O .rodata	00000014 fpinan.2773
00139754 l     O .rodata	00000014 fpi.2737
00139768 l     O .rodata	00000028 tinytens
00000000 l    df *ABS*	00000000 strtol.c
00000000 l    df *ABS*	00000000 strtoll_r.c
00000000 l    df *ABS*	00000000 strtoul.c
00000000 l    df *ABS*	00000000 strtoull_r.c
00000000 l    df *ABS*	00000000 vfprintf.c
00139790 l     O .rodata	00000010 zeroes.4333
001397a0 l     O .rodata	00000010 blanks.4332
00000000 l    df *ABS*	00000000 vfscanf.c
001397b0 l     O .rodata	00000022 basefix.3791
00000000 l    df *ABS*	00000000 ungetc.c
00000000 l    df *ABS*	00000000 mallocr.c
00000000 l    df *ABS*	00000000 fflush.c
00000000 l    df *ABS*	00000000 findfp.c
0012eb54 l     F .text	00000008 __fp_unlock
0012eb68 l     F .text	0000019c __sinit.part.1
0012ed04 l     F .text	00000008 __fp_lock
00000000 l    df *ABS*	00000000 mallocr.c
00000000 l    df *ABS*	00000000 fwalk.c
00000000 l    df *ABS*	00000000 gdtoa-gethex.c
0012f4c0 l     F .text	00000100 rshift
00000000 l    df *ABS*	00000000 gdtoa-hexnan.c
00000000 l    df *ABS*	00000000 memmove.c
00000000 l    df *ABS*	00000000 mallocr.c
00000000 l    df *ABS*	00000000 strncmp.c
00000000 l    df *ABS*	00000000 fclose.c
00000000 l    df *ABS*	00000000 libgcc2.c
00000000 l    df *ABS*	00000000 libgcc2.c
00000000 l    df *ABS*	00000000 libgcc2.c
00000000 l    df *ABS*	00000000 libgcc2.c
00000000 l    df *ABS*	00000000 eqsf2.c
00000000 l    df *ABS*	00000000 gesf2.c
00000000 l    df *ABS*	00000000 lesf2.c
00000000 l    df *ABS*	00000000 adddf3.c
00000000 l    df *ABS*	00000000 divdf3.c
00000000 l    df *ABS*	00000000 eqdf2.c
00000000 l    df *ABS*	00000000 gedf2.c
00000000 l    df *ABS*	00000000 ledf2.c
00000000 l    df *ABS*	00000000 muldf3.c
00000000 l    df *ABS*	00000000 subdf3.c
00000000 l    df *ABS*	00000000 fixdfsi.c
00000000 l    df *ABS*	00000000 floatsidf.c
00000000 l    df *ABS*	00000000 floatunsidf.c
00000000 l    df *ABS*	00000000 truncdfsf2.c
00000000 l    df *ABS*	00000000 libgcc2.c
00000000 l    df *ABS*	00000000 libgcc2.c
00000000 l    df *ABS*	00000000 alt_close.c
00134288 l     F .text	0000003c alt_get_errno
00000000 l    df *ABS*	00000000 alt_dev.c
0013439c l     F .text	0000002c alt_dev_null_write
00000000 l    df *ABS*	00000000 alt_errno.c
00000000 l    df *ABS*	00000000 alt_irq_register.c
00000000 l    df *ABS*	00000000 alt_irq_vars.c
00000000 l    df *ABS*	00000000 alt_load.c
00134548 l     F .text	00000068 alt_load_section
00000000 l    df *ABS*	00000000 alt_lseek.c
00134634 l     F .text	0000003c alt_get_errno
00000000 l    df *ABS*	00000000 alt_main.c
00000000 l    df *ABS*	00000000 alt_malloc_lock.c
00000000 l    df *ABS*	00000000 alt_open.c
00134810 l     F .text	0000003c alt_get_errno
0013484c l     F .text	000000ec alt_file_locked
00000000 l    df *ABS*	00000000 alt_putstr.c
00000000 l    df *ABS*	00000000 alt_read.c
00134ad0 l     F .text	0000003c alt_get_errno
00000000 l    df *ABS*	00000000 alt_release_fd.c
00000000 l    df *ABS*	00000000 alt_sbrk.c
0013b718 l     O .rwdata	00000004 heap_end
00000000 l    df *ABS*	00000000 alt_write.c
00134d44 l     F .text	0000003c alt_get_errno
00000000 l    df *ABS*	00000000 alt_sys_init.c
00134e80 l     F .text	00000034 alt_dev_reg
0013a488 l     O .rwdata	00001060 jtag_uart
0013b4e8 l     O .rwdata	000000c4 uart
0013b5ac l     O .rwdata	00000100 onchip_flash
0013b6ac l     O .rwdata	0000002c accelerometer_spi
00000000 l    df *ABS*	00000000 altera_avalon_jtag_uart_fd.c
00000000 l    df *ABS*	00000000 altera_avalon_jtag_uart_init.c
001351a0 l     F .text	00000210 altera_avalon_jtag_uart_irq
001353b0 l     F .text	000000a0 altera_avalon_jtag_uart_timeout
00000000 l    df *ABS*	00000000 altera_avalon_jtag_uart_ioctl.c
00000000 l    df *ABS*	00000000 altera_avalon_jtag_uart_read.c
00000000 l    df *ABS*	00000000 altera_avalon_jtag_uart_write.c
00000000 l    df *ABS*	00000000 altera_avalon_timer_sc.c
001359e8 l     F .text	0000007c alt_avalon_timer_sc_irq
00000000 l    df *ABS*	00000000 altera_avalon_uart_fd.c
00000000 l    df *ABS*	00000000 altera_avalon_uart_init.c
00135c8c l     F .text	000000a0 altera_avalon_uart_irq
00135d2c l     F .text	000000e4 altera_avalon_uart_rxirq
00135e10 l     F .text	00000148 altera_avalon_uart_txirq
00000000 l    df *ABS*	00000000 altera_avalon_uart_read.c
00135fac l     F .text	0000003c alt_get_errno
00000000 l    df *ABS*	00000000 altera_avalon_uart_write.c
001361c4 l     F .text	0000003c alt_get_errno
00000000 l    df *ABS*	00000000 altera_onchip_flash.c
001363ac l     F .text	00000034 alt_flash_device_register
00000000 l    df *ABS*	00000000 altera_up_avalon_accelerometer_spi.c
00000000 l    df *ABS*	00000000 alt_alarm_start.c
00000000 l    df *ABS*	00000000 alt_busy_sleep.c
00000000 l    df *ABS*	00000000 alt_dcache_flush.c
00000000 l    df *ABS*	00000000 alt_dcache_flush_all.c
00000000 l    df *ABS*	00000000 alt_dev_llist_insert.c
00137968 l     F .text	0000003c alt_get_errno
00000000 l    df *ABS*	00000000 alt_do_ctors.c
00000000 l    df *ABS*	00000000 alt_do_dtors.c
00000000 l    df *ABS*	00000000 alt_find_dev.c
00000000 l    df *ABS*	00000000 alt_find_file.c
00000000 l    df *ABS*	00000000 alt_flash_dev.c
00000000 l    df *ABS*	00000000 alt_get_fd.c
00000000 l    df *ABS*	00000000 alt_icache_flush_all.c
00000000 l    df *ABS*	00000000 alt_io_redirect.c
00137e40 l     F .text	000000e4 alt_open_fd
00000000 l    df *ABS*	00000000 alt_tick.c
00000000 l    df *ABS*	00000000 altera_nios2_gen2_irq.c
00000000 l    df *ABS*	00000000 atexit.c
00000000 l    df *ABS*	00000000 exit.c
00000000 l    df *ABS*	00000000 fputs.c
00000000 l    df *ABS*	00000000 fvwrite.c
00000000 l    df *ABS*	00000000 wsetup.c
00000000 l    df *ABS*	00000000 __atexit.c
00000000 l    df *ABS*	00000000 __call_atexit.c
00000000 l    df *ABS*	00000000 makebuf.c
00000000 l    df *ABS*	00000000 fstatr.c
00000000 l    df *ABS*	00000000 isattyr.c
00000000 l    df *ABS*	00000000 alt_exit.c
00000000 l    df *ABS*	00000000 alt_fstat.c
00138e58 l     F .text	0000003c alt_get_errno
00000000 l    df *ABS*	00000000 alt_isatty.c
00138f4c l     F .text	0000003c alt_get_errno
0013d46c g     O .bss	00000004 alt_instruction_exception_handler
00080000 g       *ABS*	00000000 __alt_mem_onchip_flash_data
001293d8 g     F .text	00000074 _mprec_log10
001294c4 g     F .text	0000008c __any_on
00138dd0 g     F .text	00000054 _isatty_r
00139618 g     O .rodata	00000028 __mprec_tinytens
0013474c g     F .text	0000007c alt_main
0013d498 g     O .bss	00000100 alt_irq
001278a8 g     F .text	00000060 _lseek_r
0013b734 g       *ABS*	00000000 __flash_rwdata_start
00132ab8 g     F .text	00000088 .hidden __eqdf2
0013d598 g       *ABS*	00000000 __alt_heap_start
00121890 g     F .text	0000005c __sseek
0012eeb4 g     F .text	00000010 __sinit
001277cc g     F .text	0000007c _setlocale_r
0012ed0c g     F .text	00000078 __sfmoreglue
0012e7b8 g     F .text	00000018 ungetc
001347ec g     F .text	00000024 __malloc_unlock
001299f4 g     F .text	000015e4 _strtod_r
0012d304 g     F .text	00000100 _sfread_r
0013006c g     F .text	0000015c memmove
0012ee9c g     F .text	00000018 _cleanup
00128498 g     F .text	000000a8 _Balloc
00134a94 g     F .text	0000003c alt_putstr
00132b40 g     F .text	000000dc .hidden __gtdf2
00138144 g     F .text	00000024 altera_nios2_gen2_irq_init
00120000 g     F .entry	0000000c __reset
00137438 g     F .text	000000cc alt_up_accelerometer_spi_read_x_axis
00120020 g       *ABS*	00000000 __flash_exceptions_start
00138d74 g     F .text	0000005c _fstat_r
0013d438 g     O .bss	00000004 errno
0012180c g     F .text	00000008 __seofread
0012bdec g     F .text	000013a0 ___svfiprintf_internal_r
0013d434 g     O .bss	00000004 transmission
0013d45c g     O .bss	00000004 alt_argv
001436d8 g       *ABS*	00000000 _gp
0013725c g     F .text	00000090 alt_onchip_flash_poll_for_status_write_passed
0013a308 g     O .rwdata	00000180 alt_fd_list
00137b08 g     F .text	00000090 alt_find_dev
00121390 g     F .text	00000148 memcpy
0012fe10 g     F .text	0000025c __hexnan
0012073c g     F .text	0000004c uart_wait_trdy
0012eb5c g     F .text	0000000c _cleanup_r
00133ef8 g     F .text	000000dc .hidden __floatsidf
00137f24 g     F .text	0000007c alt_io_redirect
00132c1c g     F .text	000000f4 .hidden __ltdf2
00139034 g       *ABS*	00000000 __DTOR_END__
0013b6dc g     O .rwdata	00000004 timer_main_period_ms
00138168 g     F .text	0000009c alt_exception_cause_generated_bad_addr
001281c0 g     F .text	000000d8 mbrtowc
001295b0 g     F .text	00000074 __fpclassifyd
00129334 g     F .text	000000a4 __ratio
001355a8 g     F .text	0000021c altera_avalon_jtag_uart_read
001212ac g     F .text	00000064 .hidden __udivsi3
00138f88 g     F .text	000000ac isatty
0012779c g     F .text	00000030 iswspace
001371cc g     F .text	00000090 alt_onchip_flash_poll_for_status_erase_passed
00139668 g     O .rodata	000000c8 __mprec_tens
00127848 g     F .text	0000000c __locale_charset
00131774 g     F .text	000000c8 .hidden __lesf2
00120500 g     F .text	000000c8 init_timer
00130a0c g     F .text	00000074 .hidden __fixunsdfsi
0013d450 g     O .bss	00000004 __malloc_top_pad
0013b71c g     O .rwdata	00000008 altera_onchip_flash_list
0012d294 g     F .text	00000070 __ssrefill_r
0012b8e0 g     F .text	0000001c strtoul
0013b6ec g     O .rwdata	00000004 __mb_cur_max
00127878 g     F .text	0000000c _localeconv_r
0012b8fc g     F .text	00000320 _strtoull_r
00138304 g     F .text	000004c8 __sfvwrite_r
001288cc g     F .text	0000003c __i2b
00129624 g     F .text	00000054 _sbrk_r
0013b6d8 g     O .rwdata	00000004 timer_poll_period_ms
00129550 g     F .text	00000060 _read_r
00137920 g     F .text	00000028 alt_dcache_flush
00136548 g     F .text	00000168 alt_onchip_flash_erase_block
0013b70c g     O .rwdata	00000004 alt_max_fd
001307fc g     F .text	000000f0 _fclose_r
0012eb24 g     F .text	00000030 fflush
0013d44c g     O .bss	00000004 __malloc_max_sbrked_mem
001343c8 g     F .text	00000180 alt_irq_register
001244ac g     F .text	0000198c __ssvfscanf_r
0013183c g     F .text	000008ac .hidden __adddf3
00131640 g     F .text	00000078 .hidden __nesf2
001290dc g     F .text	0000010c __b2d
0013107c g     F .text	000005c4 .hidden __umoddi3
00134670 g     F .text	000000dc lseek
0013b6e4 g     O .rwdata	00000004 _global_impure_ptr
001301c8 g     F .text	00000564 _realloc_r
0013d598 g       *ABS*	00000000 __bss_end
0013803c g     F .text	00000108 alt_tick
001397d2 g     O .rodata	00000100 __hexdig
00130a80 g     F .text	000005fc .hidden __udivdi3
00139640 g     O .rodata	00000028 __mprec_bigtens
001286b0 g     F .text	00000104 __s2b
00133fd4 g     F .text	000000a8 .hidden __floatunsidf
00128e1c g     F .text	00000060 __mcmp
00135be8 g     F .text	000000a4 altera_avalon_uart_init
0012eed4 g     F .text	00000018 __fp_lock_all
00120788 g     F .text	000006ac process_buffer
00137fa0 g     F .text	0000009c alt_alarm_stop
0012b348 g     F .text	0000001c strtol
0013d454 g     O .bss	00000004 alt_irq_active
001200fc g     F .exceptions	000000d8 alt_irq_handler
0013a2e0 g     O .rwdata	00000028 alt_dev_null
00137948 g     F .text	00000020 alt_dcache_flush_all
001287b4 g     F .text	00000068 __hi0bits
00133e78 g     F .text	00000080 .hidden __fixdfsi
00120604 g     F .text	0000003c timer_poll_isr
0012afd8 g     F .text	00000018 strtod
0013b734 g       *ABS*	00000000 __ram_rwdata_end
00120000 g       *ABS*	00000000 __alt_mem_onchip_memory
0013b704 g     O .rwdata	00000008 alt_dev_list
00134d80 g     F .text	00000100 write
001316b8 g     F .text	000000bc .hidden __gtsf2
00139a3c g       *ABS*	00000000 __ram_rodata_end
00138e94 g     F .text	000000b8 fstat
00132c1c g     F .text	000000f4 .hidden __ledf2
00128b94 g     F .text	00000140 __pow5mult
0013d444 g     O .bss	00000004 __nlocale_changed
00121310 g     F .text	00000058 .hidden __umodsi3
00120640 g     F .text	00000060 setup_button_interrupts
0013d598 g       *ABS*	00000000 end
00136200 g     F .text	000001ac altera_avalon_uart_write
001350ec g     F .text	000000b4 altera_avalon_jtag_uart_init
001201d4 g     F .exceptions	00000060 alt_instruction_exception_entry
00139034 g       *ABS*	00000000 __CTOR_LIST__
0013f720 g       *ABS*	00000000 __alt_stack_pointer
00135a64 g     F .text	00000074 alt_avalon_timer_sc_init
00135b38 g     F .text	00000060 altera_avalon_uart_write_fd
00134224 g     F .text	00000064 .hidden __clzsi2
00135b98 g     F .text	00000050 altera_avalon_uart_close_fd
001357c4 g     F .text	00000224 altera_avalon_jtag_uart_write
0012eec4 g     F .text	00000004 __sfp_lock_acquire
00128338 g     F .text	000000e4 memchr
00121600 g     F .text	00000058 _sprintf_r
001364ac g     F .text	0000009c alt_onchip_flash_get_info
0012f028 g     F .text	00000310 _free_r
00127854 g     F .text	00000010 __locale_mb_cur_max
00138a38 g     F .text	00000180 __call_exitprocs
0012d18c g     F .text	00000108 _sungetc_r
0013d440 g     O .bss	00000004 __mlocale_changed
0013b6f0 g     O .rwdata	00000004 __malloc_sbrk_base
00120234 g     F .text	0000003c _start
0013d464 g     O .bss	00000004 _alt_tick_rate
00121e40 g     F .text	000003b0 strstr
0012b364 g     F .text	00000304 _strtoll_r
00128cd4 g     F .text	00000148 __lshift
0013d468 g     O .bss	00000004 _alt_nticks
00134b0c g     F .text	00000104 read
00134eec g     F .text	0000009c alt_sys_init
00137328 g     F .text	00000044 alt_up_accelerometer_spi_read_address_register
0012bc1c g     F .text	000001d0 __ssprint_r
00138920 g     F .text	00000118 __register_exitproc
0013072c g     F .text	000000d0 strncmp
00128908 g     F .text	0000028c __multiply
00135450 g     F .text	00000068 altera_avalon_jtag_uart_close
00121368 g     F .text	00000028 .hidden __mulsi3
00139a3c g       *ABS*	00000000 __ram_rwdata_start
00139034 g       *ABS*	00000000 __ram_rodata_start
0013d470 g     O .bss	00000028 __malloc_current_mallinfo
00131640 g     F .text	00000078 .hidden __eqsf2
001291e8 g     F .text	0000014c __d2b
0013d42c g     O .bss	00000004 poll_uart
00134f88 g     F .text	00000060 altera_avalon_jtag_uart_read_fd
0012b668 g     F .text	00000278 _strtoul_r
00137d5c g     F .text	000000c4 alt_get_fd
001377c8 g     F .text	00000158 alt_busy_sleep
00137504 g     F .text	000000cc alt_up_accelerometer_spi_read_y_axis
00125e98 g     F .text	00000054 _close_r
0012841c g     F .text	0000007c memcmp
00135048 g     F .text	00000050 altera_avalon_jtag_uart_close_fd
0013d598 g       *ABS*	00000000 __alt_stack_base
00135098 g     F .text	00000054 altera_avalon_jtag_uart_ioctl_fd
001216c4 g     F .text	0000007c sscanf
001387cc g     F .text	00000154 __swsetup_r
001320e8 g     F .text	000009d0 .hidden __divdf3
001363e0 g     F .text	000000cc alt_onchip_flash_read
0012ed84 g     F .text	00000118 __sfp
0012944c g     F .text	00000078 __copybits
00139ed8 g     O .rwdata	00000408 __malloc_av_
0012eed0 g     F .text	00000004 __sinit_lock_release
00132d10 g     F .text	0000086c .hidden __muldf3
001217b8 g     F .text	00000054 __sread
00137b98 g     F .text	00000108 alt_find_file
001379a4 g     F .text	000000a4 alt_dev_llist_insert
001347c8 g     F .text	00000024 __malloc_lock
00134c94 g     F .text	000000b0 sbrk
001221f0 g     F .text	000022bc ___svfprintf_internal_r
0012eac8 g     F .text	0000005c _fflush_r
0012e7d0 g     F .text	000000dc _calloc_r
0013b724 g     O .rwdata	00000008 alt_flash_dev_list
0013d42c g       *ABS*	00000000 __bss_start
001214d8 g     F .text	00000128 memset
00120e34 g     F .text	00000380 main
0013d460 g     O .bss	00000004 alt_envp
0013d448 g     O .bss	00000004 __malloc_max_total_mem
00134fe8 g     F .text	00000060 altera_avalon_jtag_uart_write_fd
00131774 g     F .text	000000c8 .hidden __ltsf2
001218ec g     F .text	00000008 __sclose
0013f720 g       *ABS*	00000000 __alt_heap_limit
001308ec g     F .text	00000014 fclose
0012b0f0 g     F .text	00000258 _strtol_r
0013407c g     F .text	000001a8 .hidden __truncdfsf2
00126114 g     F .text	00001688 _dtoa_r
00127908 g     F .text	0000080c _malloc_r
0013b710 g     O .rwdata	00000004 alt_errno
0012e550 g     F .text	000000d4 __submore
0013713c g     F .text	00000090 alt_onchip_flash_poll_for_status_to_go_idle
0012f338 g     F .text	000000c4 _fwalk
001282dc g     F .text	0000005c _mbtowc_r
001211b4 g     F .text	00000084 .hidden __divsi3
0012ef04 g     F .text	00000124 _malloc_trim_r
00139034 g       *ABS*	00000000 __CTOR_END__
00136c60 g     F .text	000004dc altera_onchip_flash_init
001298b4 g     F .text	000000dc strcmp
00139034 g       *ABS*	00000000 __flash_rodata_start
00139034 g       *ABS*	00000000 __DTOR_LIST__
00132ab8 g     F .text	00000088 .hidden __nedf2
00134eb4 g     F .text	00000038 alt_irq_init
00134c10 g     F .text	00000084 alt_release_fd
00121658 g     F .text	0000006c sprintf
001398d2 g     O .rodata	00000100 .hidden __clz_tab
0013d43c g     O .bss	00000004 _PathLocale
0012aff0 g     F .text	00000100 strtof
00138204 g     F .text	00000014 atexit
001316b8 g     F .text	000000bc .hidden __gesf2
00125e38 g     F .text	00000060 _write_r
00127884 g     F .text	00000018 setlocale
00120334 g     F .text	000001cc convolve
00129748 g     F .text	00000008 nanf
0013b6e8 g     O .rwdata	00000004 _impure_ptr
0013d458 g     O .bss	00000004 alt_argc
0012e8ac g     F .text	0000021c __sflush_r
00128114 g     F .text	000000ac _mbrtowc_r
00137aa8 g     F .text	00000060 _do_dtors
00127870 g     F .text	00000008 __locale_cjk_lang
00120020 g       .exceptions	00000000 alt_irq_entry
00128298 g     F .text	00000044 __ascii_mbtowc
00129078 g     F .text	00000064 __ulp
0012eeec g     F .text	00000018 __fp_unlock_all
0013b6fc g     O .rwdata	00000008 alt_fs_list
001366b0 g     F .text	000002d8 alt_onchip_flash_write_block
0012d404 g     F .text	0000114c __ssvfiscanf_r
00120020 g       *ABS*	00000000 __ram_exceptions_start
001372ec g     F .text	0000003c alt_up_accelerometer_spi_open_dev
0012789c g     F .text	0000000c localeconv
001206a0 g     F .text	0000009c button_isr
00121740 g     F .text	00000078 _sscanf_r
0013b734 g       *ABS*	00000000 _edata
00135ad8 g     F .text	00000060 altera_avalon_uart_read_fd
00136988 g     F .text	000002d8 alt_onchip_flash_write
0013d598 g       *ABS*	00000000 _end
00137ca0 g     F .text	00000068 alt_flash_open_dev
00120234 g       *ABS*	00000000 __ram_exceptions_end
001354b8 g     F .text	000000f0 altera_avalon_jtag_uart_ioctl
00138250 g     F .text	0000009c _fputs_r
00121814 g     F .text	0000007c __swrite
0013b6f4 g     O .rwdata	00000004 __malloc_trim_threshold
00127864 g     F .text	0000000c __locale_msgcharset
00138218 g     F .text	00000038 exit
0012f3fc g     F .text	000000c4 _fwalk_reent
00128e7c g     F .text	000001fc __mdiff
00137d08 g     F .text	00000054 alt_flash_close_dev
001205c8 g     F .text	0000003c timer_main_isr
00121238 g     F .text	00000074 .hidden __modsi3
0013b6e0 g     O .rwdata	00000004 __ctype_ptr__
001375d0 g     F .text	000000cc alt_up_accelerometer_spi_read_z_axis
0013f720 g       *ABS*	00000000 __alt_data_end
00120020 g     F .exceptions	00000000 alt_exception
0012eec8 g     F .text	00000004 __sfp_lock_release
00129678 g     F .text	000000d0 __sccl
00139368 g     O .rodata	00000101 _ctype_
0013b6f8 g     O .rwdata	00000004 __mbtowc
00135f58 g     F .text	00000054 altera_avalon_uart_close
00138e24 g     F .text	00000034 _exit
0013769c g     F .text	0000012c alt_alarm_start
0013736c g     F .text	00000068 alt_up_accelerometer_spi_read
001373d4 g     F .text	00000064 alt_up_accelerometer_spi_write
00130900 g     F .text	0000010c .hidden __muldi3
00138bb8 g     F .text	000001bc __smakebuf_r
00120270 g     F .text	000000c4 push_to_buffers
001218f4 g     F .text	00000098 strlen
0013d430 g     O .bss	00000004 timer_main
00134938 g     F .text	0000015c open
00132b40 g     F .text	000000dc .hidden __gedf2
0012f5c0 g     F .text	00000850 __gethex
00137e20 g     F .text	00000020 alt_icache_flush_all
00129750 g     F .text	00000164 strchr
001382ec g     F .text	00000018 fputs
0013b714 g     O .rwdata	00000004 alt_priority_mask
00135fe8 g     F .text	000001dc altera_avalon_uart_read
0013357c g     F .text	000008fc .hidden __subdf3
0012881c g     F .text	000000b0 __lo0bits
0013b72c g     O .rwdata	00000008 alt_alarm_list
0012e624 g     F .text	00000194 _ungetc_r
00137a48 g     F .text	00000060 _do_ctors
001342c4 g     F .text	000000d8 close
001345b0 g     F .text	00000084 alt_load
0012eecc g     F .text	00000004 __sinit_lock_acquire
00128568 g     F .text	00000148 __multadd
00128540 g     F .text	00000028 _Bfree



Disassembly of section .entry:

00120000 <__reset>:
  120000:	004004b4 	movhi	at,18
  120004:	08408d14 	ori	at,at,564
  120008:	0800683a 	jmp	at
	...

Disassembly of section .exceptions:

00120020 <alt_exception>:
  120020:	deffed04 	addi	sp,sp,-76
  120024:	dfc00015 	stw	ra,0(sp)
  120028:	d8400215 	stw	at,8(sp)
  12002c:	d8800315 	stw	r2,12(sp)
  120030:	d8c00415 	stw	r3,16(sp)
  120034:	d9000515 	stw	r4,20(sp)
  120038:	d9400615 	stw	r5,24(sp)
  12003c:	d9800715 	stw	r6,28(sp)
  120040:	d9c00815 	stw	r7,32(sp)
  120044:	000b307a 	rdctl	r5,estatus
  120048:	da000915 	stw	r8,36(sp)
  12004c:	da400a15 	stw	r9,40(sp)
  120050:	da800b15 	stw	r10,44(sp)
  120054:	dac00c15 	stw	r11,48(sp)
  120058:	db000d15 	stw	r12,52(sp)
  12005c:	db400e15 	stw	r13,56(sp)
  120060:	db800f15 	stw	r14,60(sp)
  120064:	dbc01015 	stw	r15,64(sp)
  120068:	d9401115 	stw	r5,68(sp)
  12006c:	ebffff04 	addi	r15,ea,-4
  120070:	dbc01215 	stw	r15,72(sp)
  120074:	0009313a 	rdctl	r4,ipending
  120078:	2880004c 	andi	r2,r5,1
  12007c:	10000326 	beq	r2,zero,12008c <alt_exception+0x6c>
  120080:	20000226 	beq	r4,zero,12008c <alt_exception+0x6c>
  120084:	01200fc0 	call	1200fc <alt_irq_handler>
  120088:	00000706 	br	1200a8 <alt_exception+0x88>
  12008c:	df401215 	stw	ea,72(sp)
  120090:	e8bfff17 	ldw	r2,-4(ea)
  120094:	e93fff04 	addi	r4,ea,-4
  120098:	01201d40 	call	1201d4 <alt_instruction_exception_entry>
  12009c:	1000021e 	bne	r2,zero,1200a8 <alt_exception+0x88>
  1200a0:	ebffff04 	addi	r15,ea,-4
  1200a4:	dbc01215 	stw	r15,72(sp)
  1200a8:	d9401117 	ldw	r5,68(sp)
  1200ac:	df401217 	ldw	ea,72(sp)
  1200b0:	dfc00017 	ldw	ra,0(sp)
  1200b4:	2801707a 	wrctl	estatus,r5
  1200b8:	d8400217 	ldw	at,8(sp)
  1200bc:	d8800317 	ldw	r2,12(sp)
  1200c0:	d8c00417 	ldw	r3,16(sp)
  1200c4:	d9000517 	ldw	r4,20(sp)
  1200c8:	d9400617 	ldw	r5,24(sp)
  1200cc:	d9800717 	ldw	r6,28(sp)
  1200d0:	d9c00817 	ldw	r7,32(sp)
  1200d4:	da000917 	ldw	r8,36(sp)
  1200d8:	da400a17 	ldw	r9,40(sp)
  1200dc:	da800b17 	ldw	r10,44(sp)
  1200e0:	dac00c17 	ldw	r11,48(sp)
  1200e4:	db000d17 	ldw	r12,52(sp)
  1200e8:	db400e17 	ldw	r13,56(sp)
  1200ec:	db800f17 	ldw	r14,60(sp)
  1200f0:	dbc01017 	ldw	r15,64(sp)
  1200f4:	dec01304 	addi	sp,sp,76
  1200f8:	ef80083a 	eret

001200fc <alt_irq_handler>:
  1200fc:	defff904 	addi	sp,sp,-28
  120100:	dfc00615 	stw	ra,24(sp)
  120104:	df000515 	stw	fp,20(sp)
  120108:	df000504 	addi	fp,sp,20
  12010c:	0001883a 	nop
  120110:	0005313a 	rdctl	r2,ipending
  120114:	e0bffe15 	stw	r2,-8(fp)
  120118:	e0bffe17 	ldw	r2,-8(fp)
  12011c:	e0bffb15 	stw	r2,-20(fp)
  120120:	e03ffd15 	stw	zero,-12(fp)
  120124:	00800044 	movi	r2,1
  120128:	e0bffc15 	stw	r2,-16(fp)
  12012c:	e0fffb17 	ldw	r3,-20(fp)
  120130:	e0bffc17 	ldw	r2,-16(fp)
  120134:	1884703a 	and	r2,r3,r2
  120138:	10001526 	beq	r2,zero,120190 <alt_irq_handler+0x94>
  12013c:	00800534 	movhi	r2,20
  120140:	10b52604 	addi	r2,r2,-11112
  120144:	e0fffd17 	ldw	r3,-12(fp)
  120148:	180690fa 	slli	r3,r3,3
  12014c:	10c5883a 	add	r2,r2,r3
  120150:	10c00017 	ldw	r3,0(r2)
  120154:	00800534 	movhi	r2,20
  120158:	10b52604 	addi	r2,r2,-11112
  12015c:	e13ffd17 	ldw	r4,-12(fp)
  120160:	200890fa 	slli	r4,r4,3
  120164:	1105883a 	add	r2,r2,r4
  120168:	10800104 	addi	r2,r2,4
  12016c:	10800017 	ldw	r2,0(r2)
  120170:	e17ffd17 	ldw	r5,-12(fp)
  120174:	1009883a 	mov	r4,r2
  120178:	183ee83a 	callr	r3
  12017c:	0001883a 	nop
  120180:	0005313a 	rdctl	r2,ipending
  120184:	e0bfff15 	stw	r2,-4(fp)
  120188:	e0bfff17 	ldw	r2,-4(fp)
  12018c:	00000706 	br	1201ac <alt_irq_handler+0xb0>
  120190:	e0bffc17 	ldw	r2,-16(fp)
  120194:	1085883a 	add	r2,r2,r2
  120198:	e0bffc15 	stw	r2,-16(fp)
  12019c:	e0bffd17 	ldw	r2,-12(fp)
  1201a0:	10800044 	addi	r2,r2,1
  1201a4:	e0bffd15 	stw	r2,-12(fp)
  1201a8:	003fe006 	br	12012c <_gp+0xfffdca54>
  1201ac:	e0bffb15 	stw	r2,-20(fp)
  1201b0:	e0bffb17 	ldw	r2,-20(fp)
  1201b4:	103fda1e 	bne	r2,zero,120120 <_gp+0xfffdca48>
  1201b8:	0001883a 	nop
  1201bc:	0001883a 	nop
  1201c0:	e037883a 	mov	sp,fp
  1201c4:	dfc00117 	ldw	ra,4(sp)
  1201c8:	df000017 	ldw	fp,0(sp)
  1201cc:	dec00204 	addi	sp,sp,8
  1201d0:	f800283a 	ret

001201d4 <alt_instruction_exception_entry>:
  1201d4:	defffb04 	addi	sp,sp,-20
  1201d8:	dfc00415 	stw	ra,16(sp)
  1201dc:	df000315 	stw	fp,12(sp)
  1201e0:	df000304 	addi	fp,sp,12
  1201e4:	e13fff15 	stw	r4,-4(fp)
  1201e8:	00bfffc4 	movi	r2,-1
  1201ec:	e0bffd15 	stw	r2,-12(fp)
  1201f0:	e03ffe15 	stw	zero,-8(fp)
  1201f4:	d0a76517 	ldw	r2,-25196(gp)
  1201f8:	10000726 	beq	r2,zero,120218 <alt_instruction_exception_entry+0x44>
  1201fc:	d0a76517 	ldw	r2,-25196(gp)
  120200:	e0fffd17 	ldw	r3,-12(fp)
  120204:	e1bffe17 	ldw	r6,-8(fp)
  120208:	e17fff17 	ldw	r5,-4(fp)
  12020c:	1809883a 	mov	r4,r3
  120210:	103ee83a 	callr	r2
  120214:	00000206 	br	120220 <alt_instruction_exception_entry+0x4c>
  120218:	003da03a 	break	0
  12021c:	0005883a 	mov	r2,zero
  120220:	e037883a 	mov	sp,fp
  120224:	dfc00117 	ldw	ra,4(sp)
  120228:	df000017 	ldw	fp,0(sp)
  12022c:	dec00204 	addi	sp,sp,8
  120230:	f800283a 	ret

Disassembly of section .text:

00120234 <_start>:
  120234:	06c004f4 	movhi	sp,19
  120238:	defdc814 	ori	sp,sp,63264
  12023c:	06800534 	movhi	gp,20
  120240:	d68db614 	ori	gp,gp,14040
  120244:	008004f4 	movhi	r2,19
  120248:	10b50b14 	ori	r2,r2,54316
  12024c:	00c004f4 	movhi	r3,19
  120250:	18f56614 	ori	r3,r3,54680
  120254:	10c00326 	beq	r2,r3,120264 <_start+0x30>
  120258:	10000015 	stw	zero,0(r2)
  12025c:	10800104 	addi	r2,r2,4
  120260:	10fffd36 	bltu	r2,r3,120258 <_gp+0xfffdcb80>
  120264:	01345b00 	call	1345b0 <alt_load>
  120268:	013474c0 	call	13474c <alt_main>

0012026c <alt_after_alt_main>:
  12026c:	003fff06 	br	12026c <_gp+0xfffdcb94>

00120270 <push_to_buffers>:
  120270:	defffa04 	addi	sp,sp,-24
  120274:	dfc00515 	stw	ra,20(sp)
  120278:	df000415 	stw	fp,16(sp)
  12027c:	df000404 	addi	fp,sp,16
  120280:	e13ffc15 	stw	r4,-16(fp)
  120284:	e17ffd15 	stw	r5,-12(fp)
  120288:	e1bffe15 	stw	r6,-8(fp)
  12028c:	e1ffff15 	stw	r7,-4(fp)
  120290:	e0bffc17 	ldw	r2,-16(fp)
  120294:	1080ac17 	ldw	r2,688(r2)
  120298:	e0fffc17 	ldw	r3,-16(fp)
  12029c:	1085883a 	add	r2,r2,r2
  1202a0:	1085883a 	add	r2,r2,r2
  1202a4:	1885883a 	add	r2,r3,r2
  1202a8:	e0fffd17 	ldw	r3,-12(fp)
  1202ac:	10c00015 	stw	r3,0(r2)
  1202b0:	e0bffc17 	ldw	r2,-16(fp)
  1202b4:	1080ac17 	ldw	r2,688(r2)
  1202b8:	e0fffc17 	ldw	r3,-16(fp)
  1202bc:	10800c44 	addi	r2,r2,49
  1202c0:	1085883a 	add	r2,r2,r2
  1202c4:	1085883a 	add	r2,r2,r2
  1202c8:	1885883a 	add	r2,r3,r2
  1202cc:	e0fffe17 	ldw	r3,-8(fp)
  1202d0:	10c00015 	stw	r3,0(r2)
  1202d4:	e0bffc17 	ldw	r2,-16(fp)
  1202d8:	1080ac17 	ldw	r2,688(r2)
  1202dc:	e0fffc17 	ldw	r3,-16(fp)
  1202e0:	10801884 	addi	r2,r2,98
  1202e4:	1085883a 	add	r2,r2,r2
  1202e8:	1085883a 	add	r2,r2,r2
  1202ec:	1885883a 	add	r2,r3,r2
  1202f0:	e0ffff17 	ldw	r3,-4(fp)
  1202f4:	10c00015 	stw	r3,0(r2)
  1202f8:	e0bffc17 	ldw	r2,-16(fp)
  1202fc:	1080ac17 	ldw	r2,688(r2)
  120300:	10800044 	addi	r2,r2,1
  120304:	01400c44 	movi	r5,49
  120308:	1009883a 	mov	r4,r2
  12030c:	01212380 	call	121238 <__modsi3>
  120310:	1007883a 	mov	r3,r2
  120314:	e0bffc17 	ldw	r2,-16(fp)
  120318:	10c0ac15 	stw	r3,688(r2)
  12031c:	0001883a 	nop
  120320:	e037883a 	mov	sp,fp
  120324:	dfc00117 	ldw	ra,4(sp)
  120328:	df000017 	ldw	fp,0(sp)
  12032c:	dec00204 	addi	sp,sp,8
  120330:	f800283a 	ret

00120334 <convolve>:
  120334:	defff404 	addi	sp,sp,-48
  120338:	dfc00b15 	stw	ra,44(sp)
  12033c:	df000a15 	stw	fp,40(sp)
  120340:	df000a04 	addi	fp,sp,40
  120344:	e13ffc15 	stw	r4,-16(fp)
  120348:	e17ffd15 	stw	r5,-12(fp)
  12034c:	e1bffe15 	stw	r6,-8(fp)
  120350:	e1ffff15 	stw	r7,-4(fp)
  120354:	e03ff615 	stw	zero,-40(fp)
  120358:	e03ff715 	stw	zero,-36(fp)
  12035c:	e03ff815 	stw	zero,-32(fp)
  120360:	e03ff915 	stw	zero,-28(fp)
  120364:	00005106 	br	1204ac <convolve+0x178>
  120368:	e0bffc17 	ldw	r2,-16(fp)
  12036c:	10c0ac17 	ldw	r3,688(r2)
  120370:	e0bff917 	ldw	r2,-28(fp)
  120374:	1885883a 	add	r2,r3,r2
  120378:	10bfffc4 	addi	r2,r2,-1
  12037c:	01400c44 	movi	r5,49
  120380:	1009883a 	mov	r4,r2
  120384:	01212380 	call	121238 <__modsi3>
  120388:	e0bffa15 	stw	r2,-24(fp)
  12038c:	00c00c44 	movi	r3,49
  120390:	e0bff917 	ldw	r2,-28(fp)
  120394:	1885c83a 	sub	r2,r3,r2
  120398:	e0bffb15 	stw	r2,-20(fp)
  12039c:	e0fffc17 	ldw	r3,-16(fp)
  1203a0:	e0bffa17 	ldw	r2,-24(fp)
  1203a4:	1085883a 	add	r2,r2,r2
  1203a8:	1085883a 	add	r2,r2,r2
  1203ac:	1885883a 	add	r2,r3,r2
  1203b0:	11000017 	ldw	r4,0(r2)
  1203b4:	e0fffc17 	ldw	r3,-16(fp)
  1203b8:	e0bffb17 	ldw	r2,-20(fp)
  1203bc:	10804984 	addi	r2,r2,294
  1203c0:	1085883a 	add	r2,r2,r2
  1203c4:	1885883a 	add	r2,r3,r2
  1203c8:	1080000b 	ldhu	r2,0(r2)
  1203cc:	10bfffcc 	andi	r2,r2,65535
  1203d0:	10a0001c 	xori	r2,r2,32768
  1203d4:	10a00004 	addi	r2,r2,-32768
  1203d8:	100b883a 	mov	r5,r2
  1203dc:	01213680 	call	121368 <__mulsi3>
  1203e0:	1007883a 	mov	r3,r2
  1203e4:	e0bff617 	ldw	r2,-40(fp)
  1203e8:	10c5883a 	add	r2,r2,r3
  1203ec:	e0bff615 	stw	r2,-40(fp)
  1203f0:	e0fffc17 	ldw	r3,-16(fp)
  1203f4:	e0bffa17 	ldw	r2,-24(fp)
  1203f8:	10800c44 	addi	r2,r2,49
  1203fc:	1085883a 	add	r2,r2,r2
  120400:	1085883a 	add	r2,r2,r2
  120404:	1885883a 	add	r2,r3,r2
  120408:	11000017 	ldw	r4,0(r2)
  12040c:	e0fffc17 	ldw	r3,-16(fp)
  120410:	e0bffb17 	ldw	r2,-20(fp)
  120414:	10804984 	addi	r2,r2,294
  120418:	1085883a 	add	r2,r2,r2
  12041c:	1885883a 	add	r2,r3,r2
  120420:	1080000b 	ldhu	r2,0(r2)
  120424:	10bfffcc 	andi	r2,r2,65535
  120428:	10a0001c 	xori	r2,r2,32768
  12042c:	10a00004 	addi	r2,r2,-32768
  120430:	100b883a 	mov	r5,r2
  120434:	01213680 	call	121368 <__mulsi3>
  120438:	1007883a 	mov	r3,r2
  12043c:	e0bff717 	ldw	r2,-36(fp)
  120440:	10c5883a 	add	r2,r2,r3
  120444:	e0bff715 	stw	r2,-36(fp)
  120448:	e0fffc17 	ldw	r3,-16(fp)
  12044c:	e0bffa17 	ldw	r2,-24(fp)
  120450:	10801884 	addi	r2,r2,98
  120454:	1085883a 	add	r2,r2,r2
  120458:	1085883a 	add	r2,r2,r2
  12045c:	1885883a 	add	r2,r3,r2
  120460:	11000017 	ldw	r4,0(r2)
  120464:	e0fffc17 	ldw	r3,-16(fp)
  120468:	e0bffb17 	ldw	r2,-20(fp)
  12046c:	10804984 	addi	r2,r2,294
  120470:	1085883a 	add	r2,r2,r2
  120474:	1885883a 	add	r2,r3,r2
  120478:	1080000b 	ldhu	r2,0(r2)
  12047c:	10bfffcc 	andi	r2,r2,65535
  120480:	10a0001c 	xori	r2,r2,32768
  120484:	10a00004 	addi	r2,r2,-32768
  120488:	100b883a 	mov	r5,r2
  12048c:	01213680 	call	121368 <__mulsi3>
  120490:	1007883a 	mov	r3,r2
  120494:	e0bff817 	ldw	r2,-32(fp)
  120498:	10c5883a 	add	r2,r2,r3
  12049c:	e0bff815 	stw	r2,-32(fp)
  1204a0:	e0bff917 	ldw	r2,-28(fp)
  1204a4:	10800044 	addi	r2,r2,1
  1204a8:	e0bff915 	stw	r2,-28(fp)
  1204ac:	e0bff917 	ldw	r2,-28(fp)
  1204b0:	10800c50 	cmplti	r2,r2,49
  1204b4:	103fac1e 	bne	r2,zero,120368 <_gp+0xfffdcc90>
  1204b8:	e0bff617 	ldw	r2,-40(fp)
  1204bc:	1007d43a 	srai	r3,r2,16
  1204c0:	e0bffd17 	ldw	r2,-12(fp)
  1204c4:	10c00015 	stw	r3,0(r2)
  1204c8:	e0bff717 	ldw	r2,-36(fp)
  1204cc:	1007d43a 	srai	r3,r2,16
  1204d0:	e0bffe17 	ldw	r2,-8(fp)
  1204d4:	10c00015 	stw	r3,0(r2)
  1204d8:	e0bff817 	ldw	r2,-32(fp)
  1204dc:	1007d43a 	srai	r3,r2,16
  1204e0:	e0bfff17 	ldw	r2,-4(fp)
  1204e4:	10c00015 	stw	r3,0(r2)
  1204e8:	0001883a 	nop
  1204ec:	e037883a 	mov	sp,fp
  1204f0:	dfc00117 	ldw	ra,4(sp)
  1204f4:	df000017 	ldw	fp,0(sp)
  1204f8:	dec00204 	addi	sp,sp,8
  1204fc:	f800283a 	ret

00120500 <init_timer>:
  120500:	defff804 	addi	sp,sp,-32
  120504:	dfc00715 	stw	ra,28(sp)
  120508:	df000615 	stw	fp,24(sp)
  12050c:	df000604 	addi	fp,sp,24
  120510:	e13ffc15 	stw	r4,-16(fp)
  120514:	e17ffd15 	stw	r5,-12(fp)
  120518:	e1bffe15 	stw	r6,-8(fp)
  12051c:	e1ffff15 	stw	r7,-4(fp)
  120520:	e0bffe17 	ldw	r2,-8(fp)
  120524:	e0c00317 	ldw	r3,12(fp)
  120528:	180d883a 	mov	r6,r3
  12052c:	000b883a 	mov	r5,zero
  120530:	1009883a 	mov	r4,r2
  120534:	01343c80 	call	1343c8 <alt_irq_register>
  120538:	0080bef4 	movhi	r2,763
  12053c:	10bc2004 	addi	r2,r2,-3968
  120540:	e0bffa15 	stw	r2,-24(fp)
  120544:	e0bffa17 	ldw	r2,-24(fp)
  120548:	0140fa04 	movi	r5,1000
  12054c:	1009883a 	mov	r4,r2
  120550:	01212ac0 	call	1212ac <__udivsi3>
  120554:	1007883a 	mov	r3,r2
  120558:	e0800217 	ldw	r2,8(fp)
  12055c:	100b883a 	mov	r5,r2
  120560:	1809883a 	mov	r4,r3
  120564:	01213680 	call	121368 <__mulsi3>
  120568:	e0bffb15 	stw	r2,-20(fp)
  12056c:	e0bffc17 	ldw	r2,-16(fp)
  120570:	10800204 	addi	r2,r2,8
  120574:	1007883a 	mov	r3,r2
  120578:	e0bffb17 	ldw	r2,-20(fp)
  12057c:	10bfffcc 	andi	r2,r2,65535
  120580:	18800035 	stwio	r2,0(r3)
  120584:	e0bffc17 	ldw	r2,-16(fp)
  120588:	10800304 	addi	r2,r2,12
  12058c:	1007883a 	mov	r3,r2
  120590:	e0bffb17 	ldw	r2,-20(fp)
  120594:	1004d43a 	srli	r2,r2,16
  120598:	18800035 	stwio	r2,0(r3)
  12059c:	e0bffc17 	ldw	r2,-16(fp)
  1205a0:	10800104 	addi	r2,r2,4
  1205a4:	1007883a 	mov	r3,r2
  1205a8:	008001c4 	movi	r2,7
  1205ac:	18800035 	stwio	r2,0(r3)
  1205b0:	0001883a 	nop
  1205b4:	e037883a 	mov	sp,fp
  1205b8:	dfc00117 	ldw	ra,4(sp)
  1205bc:	df000017 	ldw	fp,0(sp)
  1205c0:	dec00204 	addi	sp,sp,8
  1205c4:	f800283a 	ret

001205c8 <timer_main_isr>:
  1205c8:	defffe04 	addi	sp,sp,-8
  1205cc:	df000115 	stw	fp,4(sp)
  1205d0:	df000104 	addi	fp,sp,4
  1205d4:	e13fff15 	stw	r4,-4(fp)
  1205d8:	00c00044 	movi	r3,1
  1205dc:	00800534 	movhi	r2,20
  1205e0:	10840804 	addi	r2,r2,4128
  1205e4:	10c00035 	stwio	r3,0(r2)
  1205e8:	00800044 	movi	r2,1
  1205ec:	d0a75615 	stw	r2,-25256(gp)
  1205f0:	0001883a 	nop
  1205f4:	e037883a 	mov	sp,fp
  1205f8:	df000017 	ldw	fp,0(sp)
  1205fc:	dec00104 	addi	sp,sp,4
  120600:	f800283a 	ret

00120604 <timer_poll_isr>:
  120604:	defffe04 	addi	sp,sp,-8
  120608:	df000115 	stw	fp,4(sp)
  12060c:	df000104 	addi	fp,sp,4
  120610:	e13fff15 	stw	r4,-4(fp)
  120614:	00c00044 	movi	r3,1
  120618:	00800534 	movhi	r2,20
  12061c:	10840004 	addi	r2,r2,4096
  120620:	10c00035 	stwio	r3,0(r2)
  120624:	00800044 	movi	r2,1
  120628:	d0a75515 	stw	r2,-25260(gp)
  12062c:	0001883a 	nop
  120630:	e037883a 	mov	sp,fp
  120634:	df000017 	ldw	fp,0(sp)
  120638:	dec00104 	addi	sp,sp,4
  12063c:	f800283a 	ret

00120640 <setup_button_interrupts>:
  120640:	defffd04 	addi	sp,sp,-12
  120644:	dfc00215 	stw	ra,8(sp)
  120648:	df000115 	stw	fp,4(sp)
  12064c:	df000104 	addi	fp,sp,4
  120650:	e13fff15 	stw	r4,-4(fp)
  120654:	00c03fc4 	movi	r3,255
  120658:	00800534 	movhi	r2,20
  12065c:	10843b04 	addi	r2,r2,4332
  120660:	10c00035 	stwio	r3,0(r2)
  120664:	00c000c4 	movi	r3,3
  120668:	00800534 	movhi	r2,20
  12066c:	10843a04 	addi	r2,r2,4328
  120670:	10c00035 	stwio	r3,0(r2)
  120674:	e0bfff17 	ldw	r2,-4(fp)
  120678:	100d883a 	mov	r6,r2
  12067c:	000b883a 	mov	r5,zero
  120680:	010000c4 	movi	r4,3
  120684:	01343c80 	call	1343c8 <alt_irq_register>
  120688:	0001883a 	nop
  12068c:	e037883a 	mov	sp,fp
  120690:	dfc00117 	ldw	ra,4(sp)
  120694:	df000017 	ldw	fp,0(sp)
  120698:	dec00204 	addi	sp,sp,8
  12069c:	f800283a 	ret

001206a0 <button_isr>:
  1206a0:	defffc04 	addi	sp,sp,-16
  1206a4:	dfc00315 	stw	ra,12(sp)
  1206a8:	df000215 	stw	fp,8(sp)
  1206ac:	df000204 	addi	fp,sp,8
  1206b0:	e13fff15 	stw	r4,-4(fp)
  1206b4:	00800534 	movhi	r2,20
  1206b8:	10843b04 	addi	r2,r2,4332
  1206bc:	10800037 	ldwio	r2,0(r2)
  1206c0:	e0bffe15 	stw	r2,-8(fp)
  1206c4:	00c03fc4 	movi	r3,255
  1206c8:	00800534 	movhi	r2,20
  1206cc:	10843b04 	addi	r2,r2,4332
  1206d0:	10c00035 	stwio	r3,0(r2)
  1206d4:	e0bffe17 	ldw	r2,-8(fp)
  1206d8:	1080004c 	andi	r2,r2,1
  1206dc:	10000626 	beq	r2,zero,1206f8 <button_isr+0x58>
  1206e0:	00800044 	movi	r2,1
  1206e4:	d0a75715 	stw	r2,-25252(gp)
  1206e8:	01000534 	movhi	r4,20
  1206ec:	21240d04 	addi	r4,r4,-28620
  1206f0:	0134a940 	call	134a94 <alt_putstr>
  1206f4:	00000b06 	br	120724 <button_isr+0x84>
  1206f8:	e0bffe17 	ldw	r2,-8(fp)
  1206fc:	1080008c 	andi	r2,r2,2
  120700:	10000526 	beq	r2,zero,120718 <button_isr+0x78>
  120704:	d0275715 	stw	zero,-25252(gp)
  120708:	01000534 	movhi	r4,20
  12070c:	21241604 	addi	r4,r4,-28584
  120710:	0134a940 	call	134a94 <alt_putstr>
  120714:	00000306 	br	120724 <button_isr+0x84>
  120718:	01000534 	movhi	r4,20
  12071c:	21241f04 	addi	r4,r4,-28548
  120720:	0134a940 	call	134a94 <alt_putstr>
  120724:	0001883a 	nop
  120728:	e037883a 	mov	sp,fp
  12072c:	dfc00117 	ldw	ra,4(sp)
  120730:	df000017 	ldw	fp,0(sp)
  120734:	dec00204 	addi	sp,sp,8
  120738:	f800283a 	ret

0012073c <uart_wait_trdy>:
  12073c:	defffe04 	addi	sp,sp,-8
  120740:	dfc00115 	stw	ra,4(sp)
  120744:	df000015 	stw	fp,0(sp)
  120748:	d839883a 	mov	fp,sp
  12074c:	00000306 	br	12075c <uart_wait_trdy+0x20>
  120750:	01000534 	movhi	r4,20
  120754:	21242604 	addi	r4,r4,-28520
  120758:	0134a940 	call	134a94 <alt_putstr>
  12075c:	00800534 	movhi	r2,20
  120760:	10841204 	addi	r2,r2,4168
  120764:	10800037 	ldwio	r2,0(r2)
  120768:	1080100c 	andi	r2,r2,64
  12076c:	103ff826 	beq	r2,zero,120750 <_gp+0xfffdd078>
  120770:	0001883a 	nop
  120774:	e037883a 	mov	sp,fp
  120778:	dfc00117 	ldw	ra,4(sp)
  12077c:	df000017 	ldw	fp,0(sp)
  120780:	dec00204 	addi	sp,sp,8
  120784:	f800283a 	ret

00120788 <process_buffer>:
  120788:	deffe904 	addi	sp,sp,-92
  12078c:	dfc01615 	stw	ra,88(sp)
  120790:	df001515 	stw	fp,84(sp)
  120794:	df001504 	addi	fp,sp,84
  120798:	e13ffe15 	stw	r4,-8(fp)
  12079c:	e17fff15 	stw	r5,-4(fp)
  1207a0:	e0bffe17 	ldw	r2,-8(fp)
  1207a4:	1000231e 	bne	r2,zero,120834 <process_buffer+0xac>
  1207a8:	e0bfed04 	addi	r2,fp,-76
  1207ac:	00d49074 	movhi	r3,21057
  1207b0:	18d556c4 	addi	r3,r3,21851
  1207b4:	10c00015 	stw	r3,0(r2)
  1207b8:	00c80eb4 	movhi	r3,8250
  1207bc:	18d75504 	addi	r3,r3,23892
  1207c0:	10c00115 	stw	r3,4(r2)
  1207c4:	00d3d4b4 	movhi	r3,20306
  1207c8:	18d49144 	addi	r3,r3,21061
  1207cc:	10c00215 	stw	r3,8(r2)
  1207d0:	00dd50b4 	movhi	r3,30018
  1207d4:	18c81484 	addi	r3,r3,8274
  1207d8:	10c00315 	stw	r3,12(r2)
  1207dc:	00dc9974 	movhi	r3,29285
  1207e0:	18d99984 	addi	r3,r3,26214
  1207e4:	10c00415 	stw	r3,16(r2)
  1207e8:	00c81cf4 	movhi	r3,8307
  1207ec:	18da4804 	addi	r3,r3,26912
  1207f0:	10c00515 	stw	r3,20(r2)
  1207f4:	00d31334 	movhi	r3,19532
  1207f8:	18d55384 	addi	r3,r3,21838
  1207fc:	10c00615 	stw	r3,24(r2)
  120800:	00c28b84 	movi	r3,2606
  120804:	10c0070d 	sth	r3,28(r2)
  120808:	10000785 	stb	zero,30(r2)
  12080c:	e0bfed04 	addi	r2,fp,-76
  120810:	1009883a 	mov	r4,r2
  120814:	01218f40 	call	1218f4 <strlen>
  120818:	1007883a 	mov	r3,r2
  12081c:	e0bfed04 	addi	r2,fp,-76
  120820:	180d883a 	mov	r6,r3
  120824:	100b883a 	mov	r5,r2
  120828:	e13fff17 	ldw	r4,-4(fp)
  12082c:	0134d800 	call	134d80 <write>
  120830:	00017b06 	br	120e20 <process_buffer+0x698>
  120834:	01400534 	movhi	r5,20
  120838:	29642704 	addi	r5,r5,-28516
  12083c:	e13ffe17 	ldw	r4,-8(fp)
  120840:	0121e400 	call	121e40 <strstr>
  120844:	10001926 	beq	r2,zero,1208ac <process_buffer+0x124>
  120848:	00800534 	movhi	r2,20
  12084c:	10843404 	addi	r2,r2,4304
  120850:	10800037 	ldwio	r2,0(r2)
  120854:	e0bfeb15 	stw	r2,-84(fp)
  120858:	e0bfeb17 	ldw	r2,-84(fp)
  12085c:	1080004c 	andi	r2,r2,1
  120860:	e0bfeb15 	stw	r2,-84(fp)
  120864:	e0bfeb17 	ldw	r2,-84(fp)
  120868:	10c00044 	addi	r3,r2,1
  12086c:	e0bfed04 	addi	r2,fp,-76
  120870:	180d883a 	mov	r6,r3
  120874:	01400534 	movhi	r5,20
  120878:	29642804 	addi	r5,r5,-28512
  12087c:	1009883a 	mov	r4,r2
  120880:	01216580 	call	121658 <sprintf>
  120884:	e0bfed04 	addi	r2,fp,-76
  120888:	1009883a 	mov	r4,r2
  12088c:	01218f40 	call	1218f4 <strlen>
  120890:	1007883a 	mov	r3,r2
  120894:	e0bfed04 	addi	r2,fp,-76
  120898:	180d883a 	mov	r6,r3
  12089c:	100b883a 	mov	r5,r2
  1208a0:	e13fff17 	ldw	r4,-4(fp)
  1208a4:	0134d800 	call	134d80 <write>
  1208a8:	00015d06 	br	120e20 <process_buffer+0x698>
  1208ac:	01400534 	movhi	r5,20
  1208b0:	29642a04 	addi	r5,r5,-28504
  1208b4:	e13ffe17 	ldw	r4,-8(fp)
  1208b8:	0121e400 	call	121e40 <strstr>
  1208bc:	10009926 	beq	r2,zero,120b24 <process_buffer+0x39c>
  1208c0:	e0bfed04 	addi	r2,fp,-76
  1208c4:	00d49074 	movhi	r3,21057
  1208c8:	18d556c4 	addi	r3,r3,21851
  1208cc:	10c00015 	stw	r3,0(r2)
  1208d0:	00c80eb4 	movhi	r3,8250
  1208d4:	18d75504 	addi	r3,r3,23892
  1208d8:	10c00115 	stw	r3,4(r2)
  1208dc:	00d95d34 	movhi	r3,25972
  1208e0:	18d95104 	addi	r3,r3,25924
  1208e4:	10c00215 	stw	r3,8(r2)
  1208e8:	00d91974 	movhi	r3,25701
  1208ec:	18dd18c4 	addi	r3,r3,29795
  1208f0:	10c00315 	stw	r3,12(r2)
  1208f4:	00d85cb4 	movhi	r3,24946
  1208f8:	18d80804 	addi	r3,r3,24608
  1208fc:	10c00415 	stw	r3,16(r2)
  120900:	00c81834 	movhi	r3,8288
  120904:	18d95d04 	addi	r3,r3,25972
  120908:	10c00515 	stw	r3,20(r2)
  12090c:	00db5b74 	movhi	r3,28013
  120910:	18dbd8c4 	addi	r3,r3,28515
  120914:	10c00615 	stw	r3,24(r2)
  120918:	00cb9934 	movhi	r3,11876
  12091c:	18db9844 	addi	r3,r3,28257
  120920:	10c00715 	stw	r3,28(r2)
  120924:	00c00804 	movi	r3,32
  120928:	10c0080d 	sth	r3,32(r2)
  12092c:	e0bfed04 	addi	r2,fp,-76
  120930:	1009883a 	mov	r4,r2
  120934:	01218f40 	call	1218f4 <strlen>
  120938:	1007883a 	mov	r3,r2
  12093c:	e0bfed04 	addi	r2,fp,-76
  120940:	180d883a 	mov	r6,r3
  120944:	100b883a 	mov	r5,r2
  120948:	e13fff17 	ldw	r4,-4(fp)
  12094c:	0134d800 	call	134d80 <write>
  120950:	012073c0 	call	12073c <uart_wait_trdy>
  120954:	e03ffd15 	stw	zero,-12(fp)
  120958:	e0bffd04 	addi	r2,fp,-12
  12095c:	100d883a 	mov	r6,r2
  120960:	01400534 	movhi	r5,20
  120964:	29642c04 	addi	r5,r5,-28496
  120968:	e13ffe17 	ldw	r4,-8(fp)
  12096c:	01216c40 	call	1216c4 <sscanf>
  120970:	e0bfec15 	stw	r2,-80(fp)
  120974:	e0bfec17 	ldw	r2,-80(fp)
  120978:	10001826 	beq	r2,zero,1209dc <process_buffer+0x254>
  12097c:	e0bffd17 	ldw	r2,-12(fp)
  120980:	10001626 	beq	r2,zero,1209dc <process_buffer+0x254>
  120984:	e0fffd17 	ldw	r3,-12(fp)
  120988:	e0bfed04 	addi	r2,fp,-76
  12098c:	180d883a 	mov	r6,r3
  120990:	01400534 	movhi	r5,20
  120994:	29642e04 	addi	r5,r5,-28488
  120998:	1009883a 	mov	r4,r2
  12099c:	01216580 	call	121658 <sprintf>
  1209a0:	e0bfed04 	addi	r2,fp,-76
  1209a4:	1009883a 	mov	r4,r2
  1209a8:	01218f40 	call	1218f4 <strlen>
  1209ac:	1007883a 	mov	r3,r2
  1209b0:	e0bfed04 	addi	r2,fp,-76
  1209b4:	180d883a 	mov	r6,r3
  1209b8:	100b883a 	mov	r5,r2
  1209bc:	e13fff17 	ldw	r4,-4(fp)
  1209c0:	0134d800 	call	134d80 <write>
  1209c4:	e0bffd17 	ldw	r2,-12(fp)
  1209c8:	100b883a 	mov	r5,r2
  1209cc:	0100fa04 	movi	r4,1000
  1209d0:	01211b40 	call	1211b4 <__divsi3>
  1209d4:	d0a00115 	stw	r2,-32764(gp)
  1209d8:	00011106 	br	120e20 <process_buffer+0x698>
  1209dc:	e0bfed04 	addi	r2,fp,-76
  1209e0:	00d89874 	movhi	r3,25185
  1209e4:	18db9544 	addi	r3,r3,28245
  1209e8:	10c00015 	stw	r3,0(r2)
  1209ec:	00dd0834 	movhi	r3,29728
  1209f0:	18d95b04 	addi	r3,r3,25964
  1209f4:	10c00115 	stw	r3,4(r2)
  1209f8:	00d85c34 	movhi	r3,24944
  1209fc:	18c81bc4 	addi	r3,r3,8303
  120a00:	10c00215 	stw	r3,8(r2)
  120a04:	00c81974 	movhi	r3,8293
  120a08:	18dcdc84 	addi	r3,r3,29554
  120a0c:	10c00315 	stw	r3,12(r2)
  120a10:	00d85db4 	movhi	r3,24950
  120a14:	18c81844 	addi	r3,r3,8289
  120a18:	10c00415 	stw	r3,16(r2)
  120a1c:	00c81934 	movhi	r3,8292
  120a20:	18da5b04 	addi	r3,r3,26988
  120a24:	10c00515 	stw	r3,20(r2)
  120a28:	00dc1b74 	movhi	r3,28781
  120a2c:	18d85cc4 	addi	r3,r3,24947
  120a30:	10c00615 	stw	r3,24(r2)
  120a34:	00dc8834 	movhi	r3,29216
  120a38:	18d95b04 	addi	r3,r3,25964
  120a3c:	10c00715 	stw	r3,28(r2)
  120a40:	00cb9974 	movhi	r3,11877
  120a44:	18dd1844 	addi	r3,r3,29793
  120a48:	10c00815 	stw	r3,32(r2)
  120a4c:	00c00804 	movi	r3,32
  120a50:	10c0090d 	sth	r3,36(r2)
  120a54:	e0bfed04 	addi	r2,fp,-76
  120a58:	1009883a 	mov	r4,r2
  120a5c:	01218f40 	call	1218f4 <strlen>
  120a60:	1007883a 	mov	r3,r2
  120a64:	e0bfed04 	addi	r2,fp,-76
  120a68:	180d883a 	mov	r6,r3
  120a6c:	100b883a 	mov	r5,r2
  120a70:	e13fff17 	ldw	r4,-4(fp)
  120a74:	0134d800 	call	134d80 <write>
  120a78:	012073c0 	call	12073c <uart_wait_trdy>
  120a7c:	e0bfed04 	addi	r2,fp,-76
  120a80:	00d85974 	movhi	r3,24933
  120a84:	18db1404 	addi	r3,r3,27728
  120a88:	10c00015 	stw	r3,0(r2)
  120a8c:	00d98834 	movhi	r3,26144
  120a90:	18d95cc4 	addi	r3,r3,25971
  120a94:	10c00115 	stw	r3,4(r2)
  120a98:	00d85b74 	movhi	r3,24941
  120a9c:	18dc9bc4 	addi	r3,r3,29295
  120aa0:	10c00215 	stw	r3,8(r2)
  120aa4:	00dcd874 	movhi	r3,29537
  120aa8:	18c81d04 	addi	r3,r3,8308
  120aac:	10c00315 	stw	r3,12(r2)
  120ab0:	00d85cb4 	movhi	r3,24946
  120ab4:	18d80804 	addi	r3,r3,24608
  120ab8:	10c00415 	stw	r3,16(r2)
  120abc:	00cf0834 	movhi	r3,15392
  120ac0:	18d95d04 	addi	r3,r3,25972
  120ac4:	10c00515 	stw	r3,20(r2)
  120ac8:	00d89b74 	movhi	r3,25197
  120acc:	18dd5b84 	addi	r3,r3,30062
  120ad0:	10c00615 	stw	r3,24(r2)
  120ad4:	00d80fb4 	movhi	r3,24638
  120ad8:	18dc9944 	addi	r3,r3,29285
  120adc:	10c00715 	stw	r3,28(r2)
  120ae0:	00c81bb4 	movhi	r3,8302
  120ae4:	18da4804 	addi	r3,r3,26912
  120ae8:	10c00815 	stw	r3,32(r2)
  120aec:	00c28bb4 	movhi	r3,2606
  120af0:	18de9204 	addi	r3,r3,31304
  120af4:	10c00915 	stw	r3,36(r2)
  120af8:	10000a05 	stb	zero,40(r2)
  120afc:	e0bfed04 	addi	r2,fp,-76
  120b00:	1009883a 	mov	r4,r2
  120b04:	01218f40 	call	1218f4 <strlen>
  120b08:	1007883a 	mov	r3,r2
  120b0c:	e0bfed04 	addi	r2,fp,-76
  120b10:	180d883a 	mov	r6,r3
  120b14:	100b883a 	mov	r5,r2
  120b18:	e13fff17 	ldw	r4,-4(fp)
  120b1c:	0134d800 	call	134d80 <write>
  120b20:	0000bf06 	br	120e20 <process_buffer+0x698>
  120b24:	01400534 	movhi	r5,20
  120b28:	29643a04 	addi	r5,r5,-28440
  120b2c:	e13ffe17 	ldw	r4,-8(fp)
  120b30:	0121e400 	call	121e40 <strstr>
  120b34:	10001526 	beq	r2,zero,120b8c <process_buffer+0x404>
  120b38:	e0ffed04 	addi	r3,fp,-76
  120b3c:	00800534 	movhi	r2,20
  120b40:	10a43c04 	addi	r2,r2,-28432
  120b44:	1009883a 	mov	r4,r2
  120b48:	00800fc4 	movi	r2,63
  120b4c:	100d883a 	mov	r6,r2
  120b50:	200b883a 	mov	r5,r4
  120b54:	1809883a 	mov	r4,r3
  120b58:	01213900 	call	121390 <memcpy>
  120b5c:	e0bfed04 	addi	r2,fp,-76
  120b60:	1009883a 	mov	r4,r2
  120b64:	01218f40 	call	1218f4 <strlen>
  120b68:	1007883a 	mov	r3,r2
  120b6c:	e0bfed04 	addi	r2,fp,-76
  120b70:	180d883a 	mov	r6,r3
  120b74:	100b883a 	mov	r5,r2
  120b78:	e13fff17 	ldw	r4,-4(fp)
  120b7c:	0134d800 	call	134d80 <write>
  120b80:	00800044 	movi	r2,1
  120b84:	d0a75715 	stw	r2,-25252(gp)
  120b88:	0000a506 	br	120e20 <process_buffer+0x698>
  120b8c:	01400534 	movhi	r5,20
  120b90:	29644c04 	addi	r5,r5,-28368
  120b94:	e13ffe17 	ldw	r4,-8(fp)
  120b98:	0121e400 	call	121e40 <strstr>
  120b9c:	10001426 	beq	r2,zero,120bf0 <process_buffer+0x468>
  120ba0:	e0ffed04 	addi	r3,fp,-76
  120ba4:	00800534 	movhi	r2,20
  120ba8:	10a44e04 	addi	r2,r2,-28360
  120bac:	1009883a 	mov	r4,r2
  120bb0:	00800fc4 	movi	r2,63
  120bb4:	100d883a 	mov	r6,r2
  120bb8:	200b883a 	mov	r5,r4
  120bbc:	1809883a 	mov	r4,r3
  120bc0:	01213900 	call	121390 <memcpy>
  120bc4:	e0bfed04 	addi	r2,fp,-76
  120bc8:	1009883a 	mov	r4,r2
  120bcc:	01218f40 	call	1218f4 <strlen>
  120bd0:	1007883a 	mov	r3,r2
  120bd4:	e0bfed04 	addi	r2,fp,-76
  120bd8:	180d883a 	mov	r6,r3
  120bdc:	100b883a 	mov	r5,r2
  120be0:	e13fff17 	ldw	r4,-4(fp)
  120be4:	0134d800 	call	134d80 <write>
  120be8:	d0275715 	stw	zero,-25252(gp)
  120bec:	00008c06 	br	120e20 <process_buffer+0x698>
  120bf0:	01400534 	movhi	r5,20
  120bf4:	29645e04 	addi	r5,r5,-28296
  120bf8:	e13ffe17 	ldw	r4,-8(fp)
  120bfc:	0121e400 	call	121e40 <strstr>
  120c00:	10004b26 	beq	r2,zero,120d30 <process_buffer+0x5a8>
  120c04:	e0bfed04 	addi	r2,fp,-76
  120c08:	00d49074 	movhi	r3,21057
  120c0c:	18d556c4 	addi	r3,r3,21851
  120c10:	10c00015 	stw	r3,0(r2)
  120c14:	00c80eb4 	movhi	r3,8250
  120c18:	18d75504 	addi	r3,r3,23892
  120c1c:	10c00115 	stw	r3,4(r2)
  120c20:	00d95d34 	movhi	r3,25972
  120c24:	18d95104 	addi	r3,r3,25924
  120c28:	10c00215 	stw	r3,8(r2)
  120c2c:	00d91974 	movhi	r3,25701
  120c30:	18dd18c4 	addi	r3,r3,29795
  120c34:	10c00315 	stw	r3,12(r2)
  120c38:	00db9a74 	movhi	r3,28265
  120c3c:	18d80804 	addi	r3,r3,24608
  120c40:	10c00415 	stw	r3,16(r2)
  120c44:	00c81834 	movhi	r3,8288
  120c48:	18dbd984 	addi	r3,r3,28518
  120c4c:	10c00515 	stw	r3,20(r2)
  120c50:	00db5b74 	movhi	r3,28013
  120c54:	18dbd8c4 	addi	r3,r3,28515
  120c58:	10c00615 	stw	r3,24(r2)
  120c5c:	00cb9934 	movhi	r3,11876
  120c60:	18db9844 	addi	r3,r3,28257
  120c64:	10c00715 	stw	r3,28(r2)
  120c68:	00c00804 	movi	r3,32
  120c6c:	10c0080d 	sth	r3,32(r2)
  120c70:	e0bfed04 	addi	r2,fp,-76
  120c74:	1009883a 	mov	r4,r2
  120c78:	01218f40 	call	1218f4 <strlen>
  120c7c:	1007883a 	mov	r3,r2
  120c80:	e0bfed04 	addi	r2,fp,-76
  120c84:	180d883a 	mov	r6,r3
  120c88:	100b883a 	mov	r5,r2
  120c8c:	e13fff17 	ldw	r4,-4(fp)
  120c90:	0134d800 	call	134d80 <write>
  120c94:	012073c0 	call	12073c <uart_wait_trdy>
  120c98:	d0e75717 	ldw	r3,-25252(gp)
  120c9c:	d1200117 	ldw	r4,-32764(gp)
  120ca0:	e0bfed04 	addi	r2,fp,-76
  120ca4:	200f883a 	mov	r7,r4
  120ca8:	180d883a 	mov	r6,r3
  120cac:	01400534 	movhi	r5,20
  120cb0:	29646004 	addi	r5,r5,-28288
  120cb4:	1009883a 	mov	r4,r2
  120cb8:	01216580 	call	121658 <sprintf>
  120cbc:	e0bfed04 	addi	r2,fp,-76
  120cc0:	1009883a 	mov	r4,r2
  120cc4:	01218f40 	call	1218f4 <strlen>
  120cc8:	1007883a 	mov	r3,r2
  120ccc:	e0bfed04 	addi	r2,fp,-76
  120cd0:	180d883a 	mov	r6,r3
  120cd4:	100b883a 	mov	r5,r2
  120cd8:	e13fff17 	ldw	r4,-4(fp)
  120cdc:	0134d800 	call	134d80 <write>
  120ce0:	012073c0 	call	12073c <uart_wait_trdy>
  120ce4:	e0bfed04 	addi	r2,fp,-76
  120ce8:	01c0bef4 	movhi	r7,763
  120cec:	39fc2004 	addi	r7,r7,-3968
  120cf0:	018000b4 	movhi	r6,2
  120cf4:	31b08004 	addi	r6,r6,-15872
  120cf8:	01400534 	movhi	r5,20
  120cfc:	29646d04 	addi	r5,r5,-28236
  120d00:	1009883a 	mov	r4,r2
  120d04:	01216580 	call	121658 <sprintf>
  120d08:	e0bfed04 	addi	r2,fp,-76
  120d0c:	1009883a 	mov	r4,r2
  120d10:	01218f40 	call	1218f4 <strlen>
  120d14:	1007883a 	mov	r3,r2
  120d18:	e0bfed04 	addi	r2,fp,-76
  120d1c:	180d883a 	mov	r6,r3
  120d20:	100b883a 	mov	r5,r2
  120d24:	e13fff17 	ldw	r4,-4(fp)
  120d28:	0134d800 	call	134d80 <write>
  120d2c:	00003c06 	br	120e20 <process_buffer+0x698>
  120d30:	01400534 	movhi	r5,20
  120d34:	29647604 	addi	r5,r5,-28200
  120d38:	e13ffe17 	ldw	r4,-8(fp)
  120d3c:	0121e400 	call	121e40 <strstr>
  120d40:	10003726 	beq	r2,zero,120e20 <process_buffer+0x698>
  120d44:	e0bfed04 	addi	r2,fp,-76
  120d48:	00d49074 	movhi	r3,21057
  120d4c:	18d556c4 	addi	r3,r3,21851
  120d50:	10c00015 	stw	r3,0(r2)
  120d54:	00c80eb4 	movhi	r3,8250
  120d58:	18d75504 	addi	r3,r3,23892
  120d5c:	10c00115 	stw	r3,4(r2)
  120d60:	00d95d34 	movhi	r3,25972
  120d64:	18d95104 	addi	r3,r3,25924
  120d68:	10c00215 	stw	r3,8(r2)
  120d6c:	00d91974 	movhi	r3,25701
  120d70:	18dd18c4 	addi	r3,r3,29795
  120d74:	10c00315 	stw	r3,12(r2)
  120d78:	00d95a34 	movhi	r3,25960
  120d7c:	18d80804 	addi	r3,r3,24608
  120d80:	10c00415 	stw	r3,16(r2)
  120d84:	00c81834 	movhi	r3,8288
  120d88:	18dc1b04 	addi	r3,r3,28780
  120d8c:	10c00515 	stw	r3,20(r2)
  120d90:	00db5b74 	movhi	r3,28013
  120d94:	18dbd8c4 	addi	r3,r3,28515
  120d98:	10c00615 	stw	r3,24(r2)
  120d9c:	00cb9934 	movhi	r3,11876
  120da0:	18db9844 	addi	r3,r3,28257
  120da4:	10c00715 	stw	r3,28(r2)
  120da8:	00c00804 	movi	r3,32
  120dac:	10c0080d 	sth	r3,32(r2)
  120db0:	e0bfed04 	addi	r2,fp,-76
  120db4:	1009883a 	mov	r4,r2
  120db8:	01218f40 	call	1218f4 <strlen>
  120dbc:	1007883a 	mov	r3,r2
  120dc0:	e0bfed04 	addi	r2,fp,-76
  120dc4:	180d883a 	mov	r6,r3
  120dc8:	100b883a 	mov	r5,r2
  120dcc:	e13fff17 	ldw	r4,-4(fp)
  120dd0:	0134d800 	call	134d80 <write>
  120dd4:	012073c0 	call	12073c <uart_wait_trdy>
  120dd8:	e0ffed04 	addi	r3,fp,-76
  120ddc:	00800534 	movhi	r2,20
  120de0:	10a47804 	addi	r2,r2,-28192
  120de4:	1009883a 	mov	r4,r2
  120de8:	00800f44 	movi	r2,61
  120dec:	100d883a 	mov	r6,r2
  120df0:	200b883a 	mov	r5,r4
  120df4:	1809883a 	mov	r4,r3
  120df8:	01213900 	call	121390 <memcpy>
  120dfc:	e0bfed04 	addi	r2,fp,-76
  120e00:	1009883a 	mov	r4,r2
  120e04:	01218f40 	call	1218f4 <strlen>
  120e08:	1007883a 	mov	r3,r2
  120e0c:	e0bfed04 	addi	r2,fp,-76
  120e10:	180d883a 	mov	r6,r3
  120e14:	100b883a 	mov	r5,r2
  120e18:	e13fff17 	ldw	r4,-4(fp)
  120e1c:	0134d800 	call	134d80 <write>
  120e20:	e037883a 	mov	sp,fp
  120e24:	dfc00117 	ldw	ra,4(sp)
  120e28:	df000017 	ldw	fp,0(sp)
  120e2c:	dec00204 	addi	sp,sp,8
  120e30:	f800283a 	ret

00120e34 <main>:
  120e34:	deff2604 	addi	sp,sp,-872
  120e38:	dfc0d915 	stw	ra,868(sp)
  120e3c:	df00d815 	stw	fp,864(sp)
  120e40:	df00d804 	addi	fp,sp,864
  120e44:	e0bf3304 	addi	r2,fp,-820
  120e48:	00c0ad04 	movi	r3,692
  120e4c:	180d883a 	mov	r6,r3
  120e50:	000b883a 	mov	r5,zero
  120e54:	1009883a 	mov	r4,r2
  120e58:	01214d80 	call	1214d8 <memset>
  120e5c:	00bff104 	movi	r2,-60
  120e60:	e0bfc60d 	sth	r2,-232(fp)
  120e64:	00bfd304 	movi	r2,-180
  120e68:	e0bfc68d 	sth	r2,-230(fp)
  120e6c:	00bfd644 	movi	r2,-167
  120e70:	e0bfc70d 	sth	r2,-228(fp)
  120e74:	00803a44 	movi	r2,233
  120e78:	e0bfc78d 	sth	r2,-226(fp)
  120e7c:	0080de04 	movi	r2,888
  120e80:	e0bfc80d 	sth	r2,-224(fp)
  120e84:	00811bc4 	movi	r2,1135
  120e88:	e0bfc88d 	sth	r2,-222(fp)
  120e8c:	00807e44 	movi	r2,505
  120e90:	e0bfc90d 	sth	r2,-220(fp)
  120e94:	00bf9584 	movi	r2,-426
  120e98:	e0bfc98d 	sth	r2,-218(fp)
  120e9c:	00bf8244 	movi	r2,-503
  120ea0:	e0bfca0d 	sth	r2,-216(fp)
  120ea4:	008063c4 	movi	r2,399
  120ea8:	e0bfca8d 	sth	r2,-214(fp)
  120eac:	0080e384 	movi	r2,910
  120eb0:	e0bfcb0d 	sth	r2,-212(fp)
  120eb4:	00800684 	movi	r2,26
  120eb8:	e0bfcb8d 	sth	r2,-210(fp)
  120ebc:	00beeb84 	movi	r2,-1106
  120ec0:	e0bfcc0d 	sth	r2,-208(fp)
  120ec4:	00bf6dc4 	movi	r2,-585
  120ec8:	e0bfcc8d 	sth	r2,-206(fp)
  120ecc:	00811d44 	movi	r2,1141
  120ed0:	e0bfcd0d 	sth	r2,-204(fp)
  120ed4:	00815404 	movi	r2,1360
  120ed8:	e0bfcd8d 	sth	r2,-202(fp)
  120edc:	00bf3704 	movi	r2,-804
  120ee0:	e0bfce0d 	sth	r2,-200(fp)
  120ee4:	00bdcf04 	movi	r2,-2244
  120ee8:	e0bfce8d 	sth	r2,-198(fp)
  120eec:	00bfee84 	movi	r2,-70
  120ef0:	e0bfcf0d 	sth	r2,-196(fp)
  120ef4:	00830ec4 	movi	r2,3131
  120ef8:	e0bfcf8d 	sth	r2,-194(fp)
  120efc:	0081c0c4 	movi	r2,1795
  120f00:	e0bfd00d 	sth	r2,-192(fp)
  120f04:	00bc3384 	movi	r2,-3890
  120f08:	e0bfd08d 	sth	r2,-190(fp)
  120f0c:	00babb44 	movi	r2,-5395
  120f10:	e0bfd10d 	sth	r2,-188(fp)
  120f14:	00844c44 	movi	r2,4401
  120f18:	e0bfd18d 	sth	r2,-186(fp)
  120f1c:	0093d784 	movi	r2,20318
  120f20:	e0bfd20d 	sth	r2,-184(fp)
  120f24:	009b8684 	movi	r2,28186
  120f28:	e0bfd28d 	sth	r2,-182(fp)
  120f2c:	0093d784 	movi	r2,20318
  120f30:	e0bfd30d 	sth	r2,-180(fp)
  120f34:	00844c44 	movi	r2,4401
  120f38:	e0bfd38d 	sth	r2,-178(fp)
  120f3c:	00babb44 	movi	r2,-5395
  120f40:	e0bfd40d 	sth	r2,-176(fp)
  120f44:	00bc3384 	movi	r2,-3890
  120f48:	e0bfd48d 	sth	r2,-174(fp)
  120f4c:	0081c0c4 	movi	r2,1795
  120f50:	e0bfd50d 	sth	r2,-172(fp)
  120f54:	00830ec4 	movi	r2,3131
  120f58:	e0bfd58d 	sth	r2,-170(fp)
  120f5c:	00bfee84 	movi	r2,-70
  120f60:	e0bfd60d 	sth	r2,-168(fp)
  120f64:	00bdcf04 	movi	r2,-2244
  120f68:	e0bfd68d 	sth	r2,-166(fp)
  120f6c:	00bf3704 	movi	r2,-804
  120f70:	e0bfd70d 	sth	r2,-164(fp)
  120f74:	00815404 	movi	r2,1360
  120f78:	e0bfd78d 	sth	r2,-162(fp)
  120f7c:	00811d44 	movi	r2,1141
  120f80:	e0bfd80d 	sth	r2,-160(fp)
  120f84:	00bf6dc4 	movi	r2,-585
  120f88:	e0bfd88d 	sth	r2,-158(fp)
  120f8c:	00beeb84 	movi	r2,-1106
  120f90:	e0bfd90d 	sth	r2,-156(fp)
  120f94:	00800684 	movi	r2,26
  120f98:	e0bfd98d 	sth	r2,-154(fp)
  120f9c:	0080e384 	movi	r2,910
  120fa0:	e0bfda0d 	sth	r2,-152(fp)
  120fa4:	008063c4 	movi	r2,399
  120fa8:	e0bfda8d 	sth	r2,-150(fp)
  120fac:	00bf8244 	movi	r2,-503
  120fb0:	e0bfdb0d 	sth	r2,-148(fp)
  120fb4:	00bf9584 	movi	r2,-426
  120fb8:	e0bfdb8d 	sth	r2,-146(fp)
  120fbc:	00807e44 	movi	r2,505
  120fc0:	e0bfdc0d 	sth	r2,-144(fp)
  120fc4:	00811bc4 	movi	r2,1135
  120fc8:	e0bfdc8d 	sth	r2,-142(fp)
  120fcc:	0080de04 	movi	r2,888
  120fd0:	e0bfdd0d 	sth	r2,-140(fp)
  120fd4:	00803a44 	movi	r2,233
  120fd8:	e0bfdd8d 	sth	r2,-138(fp)
  120fdc:	00bfd644 	movi	r2,-167
  120fe0:	e0bfde0d 	sth	r2,-136(fp)
  120fe4:	01000534 	movhi	r4,20
  120fe8:	21248804 	addi	r4,r4,-28128
  120fec:	01372ec0 	call	1372ec <alt_up_accelerometer_spi_open_dev>
  120ff0:	e0bf2a15 	stw	r2,-856(fp)
  120ff4:	01500084 	movi	r5,16386
  120ff8:	01000534 	movhi	r4,20
  120ffc:	21248e04 	addi	r4,r4,-28104
  121000:	01349380 	call	134938 <open>
  121004:	e0bf2b15 	stw	r2,-852(fp)
  121008:	e0bf2b17 	ldw	r2,-852(fp)
  12100c:	10000226 	beq	r2,zero,121018 <main+0x1e4>
  121010:	e0bf2a17 	ldw	r2,-856(fp)
  121014:	1000041e 	bne	r2,zero,121028 <main+0x1f4>
  121018:	01000534 	movhi	r4,20
  12101c:	21249104 	addi	r4,r4,-28092
  121020:	0134a940 	call	134a94 <alt_putstr>
  121024:	00000306 	br	121034 <main+0x200>
  121028:	01000534 	movhi	r4,20
  12102c:	2124a204 	addi	r4,r4,-28024
  121030:	0134a940 	call	134a94 <alt_putstr>
  121034:	d0e00117 	ldw	r3,-32764(gp)
  121038:	008004b4 	movhi	r2,18
  12103c:	10817204 	addi	r2,r2,1480
  121040:	d8800115 	stw	r2,4(sp)
  121044:	d8c00015 	stw	r3,0(sp)
  121048:	01800184 	movi	r6,6
  12104c:	000f883a 	mov	r7,zero
  121050:	01000534 	movhi	r4,20
  121054:	21040804 	addi	r4,r4,4128
  121058:	000b883a 	mov	r5,zero
  12105c:	01205000 	call	120500 <init_timer>
  121060:	d0e00017 	ldw	r3,-32768(gp)
  121064:	008004b4 	movhi	r2,18
  121068:	10818104 	addi	r2,r2,1540
  12106c:	d8800115 	stw	r2,4(sp)
  121070:	d8c00015 	stw	r3,0(sp)
  121074:	018001c4 	movi	r6,7
  121078:	000f883a 	mov	r7,zero
  12107c:	01000534 	movhi	r4,20
  121080:	21040004 	addi	r4,r4,4096
  121084:	000b883a 	mov	r5,zero
  121088:	01205000 	call	120500 <init_timer>
  12108c:	010004b4 	movhi	r4,18
  121090:	2101a804 	addi	r4,r4,1696
  121094:	01206400 	call	120640 <setup_button_interrupts>
  121098:	d0a75517 	ldw	r2,-25260(gp)
  12109c:	10000d26 	beq	r2,zero,1210d4 <main+0x2a0>
  1210a0:	e0bfe004 	addi	r2,fp,-128
  1210a4:	01800fc4 	movi	r6,63
  1210a8:	100b883a 	mov	r5,r2
  1210ac:	e13f2b17 	ldw	r4,-852(fp)
  1210b0:	0134b0c0 	call	134b0c <read>
  1210b4:	e0bf2c15 	stw	r2,-848(fp)
  1210b8:	e0bf2c17 	ldw	r2,-848(fp)
  1210bc:	0080040e 	bge	zero,r2,1210d0 <main+0x29c>
  1210c0:	e0bfe004 	addi	r2,fp,-128
  1210c4:	e17f2b17 	ldw	r5,-852(fp)
  1210c8:	1009883a 	mov	r4,r2
  1210cc:	01207880 	call	120788 <process_buffer>
  1210d0:	d0275515 	stw	zero,-25260(gp)
  1210d4:	e0bf2d04 	addi	r2,fp,-844
  1210d8:	100b883a 	mov	r5,r2
  1210dc:	e13f2a17 	ldw	r4,-856(fp)
  1210e0:	01374380 	call	137438 <alt_up_accelerometer_spi_read_x_axis>
  1210e4:	e0bf2f04 	addi	r2,fp,-836
  1210e8:	100b883a 	mov	r5,r2
  1210ec:	e13f2a17 	ldw	r4,-856(fp)
  1210f0:	01375040 	call	137504 <alt_up_accelerometer_spi_read_y_axis>
  1210f4:	e0bf3104 	addi	r2,fp,-828
  1210f8:	100b883a 	mov	r5,r2
  1210fc:	e13f2a17 	ldw	r4,-856(fp)
  121100:	01375d00 	call	1375d0 <alt_up_accelerometer_spi_read_z_axis>
  121104:	e0ff2d17 	ldw	r3,-844(fp)
  121108:	e13f2f17 	ldw	r4,-836(fp)
  12110c:	e17f3117 	ldw	r5,-828(fp)
  121110:	e0bf3304 	addi	r2,fp,-820
  121114:	280f883a 	mov	r7,r5
  121118:	200d883a 	mov	r6,r4
  12111c:	180b883a 	mov	r5,r3
  121120:	1009883a 	mov	r4,r2
  121124:	01202700 	call	120270 <push_to_buffers>
  121128:	d0a75617 	ldw	r2,-25256(gp)
  12112c:	103fda26 	beq	r2,zero,121098 <_gp+0xfffdd9c0>
  121130:	d0a75717 	ldw	r2,-25252(gp)
  121134:	103fd826 	beq	r2,zero,121098 <_gp+0xfffdd9c0>
  121138:	e17f3204 	addi	r5,fp,-824
  12113c:	e13f3004 	addi	r4,fp,-832
  121140:	e0ff2e04 	addi	r3,fp,-840
  121144:	e0bf3304 	addi	r2,fp,-820
  121148:	280f883a 	mov	r7,r5
  12114c:	200d883a 	mov	r6,r4
  121150:	180b883a 	mov	r5,r3
  121154:	1009883a 	mov	r4,r2
  121158:	01203340 	call	120334 <convolve>
  12115c:	e13f2e17 	ldw	r4,-840(fp)
  121160:	e17f3017 	ldw	r5,-832(fp)
  121164:	e0bf3217 	ldw	r2,-824(fp)
  121168:	e0fff004 	addi	r3,fp,-64
  12116c:	d8800015 	stw	r2,0(sp)
  121170:	280f883a 	mov	r7,r5
  121174:	200d883a 	mov	r6,r4
  121178:	01400534 	movhi	r5,20
  12117c:	2964b404 	addi	r5,r5,-27952
  121180:	1809883a 	mov	r4,r3
  121184:	01216580 	call	121658 <sprintf>
  121188:	e0bff004 	addi	r2,fp,-64
  12118c:	1009883a 	mov	r4,r2
  121190:	01218f40 	call	1218f4 <strlen>
  121194:	1007883a 	mov	r3,r2
  121198:	e0bff004 	addi	r2,fp,-64
  12119c:	180d883a 	mov	r6,r3
  1211a0:	100b883a 	mov	r5,r2
  1211a4:	e13f2b17 	ldw	r4,-852(fp)
  1211a8:	0134d800 	call	134d80 <write>
  1211ac:	d0275615 	stw	zero,-25256(gp)
  1211b0:	003fb906 	br	121098 <_gp+0xfffdd9c0>

001211b4 <__divsi3>:
  1211b4:	20001b16 	blt	r4,zero,121224 <__divsi3+0x70>
  1211b8:	000f883a 	mov	r7,zero
  1211bc:	28001616 	blt	r5,zero,121218 <__divsi3+0x64>
  1211c0:	200d883a 	mov	r6,r4
  1211c4:	29001a2e 	bgeu	r5,r4,121230 <__divsi3+0x7c>
  1211c8:	00800804 	movi	r2,32
  1211cc:	00c00044 	movi	r3,1
  1211d0:	00000106 	br	1211d8 <__divsi3+0x24>
  1211d4:	10000d26 	beq	r2,zero,12120c <__divsi3+0x58>
  1211d8:	294b883a 	add	r5,r5,r5
  1211dc:	10bfffc4 	addi	r2,r2,-1
  1211e0:	18c7883a 	add	r3,r3,r3
  1211e4:	293ffb36 	bltu	r5,r4,1211d4 <_gp+0xfffddafc>
  1211e8:	0005883a 	mov	r2,zero
  1211ec:	18000726 	beq	r3,zero,12120c <__divsi3+0x58>
  1211f0:	0005883a 	mov	r2,zero
  1211f4:	31400236 	bltu	r6,r5,121200 <__divsi3+0x4c>
  1211f8:	314dc83a 	sub	r6,r6,r5
  1211fc:	10c4b03a 	or	r2,r2,r3
  121200:	1806d07a 	srli	r3,r3,1
  121204:	280ad07a 	srli	r5,r5,1
  121208:	183ffa1e 	bne	r3,zero,1211f4 <_gp+0xfffddb1c>
  12120c:	38000126 	beq	r7,zero,121214 <__divsi3+0x60>
  121210:	0085c83a 	sub	r2,zero,r2
  121214:	f800283a 	ret
  121218:	014bc83a 	sub	r5,zero,r5
  12121c:	39c0005c 	xori	r7,r7,1
  121220:	003fe706 	br	1211c0 <_gp+0xfffddae8>
  121224:	0109c83a 	sub	r4,zero,r4
  121228:	01c00044 	movi	r7,1
  12122c:	003fe306 	br	1211bc <_gp+0xfffddae4>
  121230:	00c00044 	movi	r3,1
  121234:	003fee06 	br	1211f0 <_gp+0xfffddb18>

00121238 <__modsi3>:
  121238:	20001716 	blt	r4,zero,121298 <__modsi3+0x60>
  12123c:	000f883a 	mov	r7,zero
  121240:	2005883a 	mov	r2,r4
  121244:	28001216 	blt	r5,zero,121290 <__modsi3+0x58>
  121248:	2900162e 	bgeu	r5,r4,1212a4 <__modsi3+0x6c>
  12124c:	01800804 	movi	r6,32
  121250:	00c00044 	movi	r3,1
  121254:	00000106 	br	12125c <__modsi3+0x24>
  121258:	30000a26 	beq	r6,zero,121284 <__modsi3+0x4c>
  12125c:	294b883a 	add	r5,r5,r5
  121260:	31bfffc4 	addi	r6,r6,-1
  121264:	18c7883a 	add	r3,r3,r3
  121268:	293ffb36 	bltu	r5,r4,121258 <_gp+0xfffddb80>
  12126c:	18000526 	beq	r3,zero,121284 <__modsi3+0x4c>
  121270:	1806d07a 	srli	r3,r3,1
  121274:	11400136 	bltu	r2,r5,12127c <__modsi3+0x44>
  121278:	1145c83a 	sub	r2,r2,r5
  12127c:	280ad07a 	srli	r5,r5,1
  121280:	183ffb1e 	bne	r3,zero,121270 <_gp+0xfffddb98>
  121284:	38000126 	beq	r7,zero,12128c <__modsi3+0x54>
  121288:	0085c83a 	sub	r2,zero,r2
  12128c:	f800283a 	ret
  121290:	014bc83a 	sub	r5,zero,r5
  121294:	003fec06 	br	121248 <_gp+0xfffddb70>
  121298:	0109c83a 	sub	r4,zero,r4
  12129c:	01c00044 	movi	r7,1
  1212a0:	003fe706 	br	121240 <_gp+0xfffddb68>
  1212a4:	00c00044 	movi	r3,1
  1212a8:	003ff106 	br	121270 <_gp+0xfffddb98>

001212ac <__udivsi3>:
  1212ac:	200d883a 	mov	r6,r4
  1212b0:	2900152e 	bgeu	r5,r4,121308 <__udivsi3+0x5c>
  1212b4:	28001416 	blt	r5,zero,121308 <__udivsi3+0x5c>
  1212b8:	00800804 	movi	r2,32
  1212bc:	00c00044 	movi	r3,1
  1212c0:	00000206 	br	1212cc <__udivsi3+0x20>
  1212c4:	10000e26 	beq	r2,zero,121300 <__udivsi3+0x54>
  1212c8:	28000516 	blt	r5,zero,1212e0 <__udivsi3+0x34>
  1212cc:	294b883a 	add	r5,r5,r5
  1212d0:	10bfffc4 	addi	r2,r2,-1
  1212d4:	18c7883a 	add	r3,r3,r3
  1212d8:	293ffa36 	bltu	r5,r4,1212c4 <_gp+0xfffddbec>
  1212dc:	18000826 	beq	r3,zero,121300 <__udivsi3+0x54>
  1212e0:	0005883a 	mov	r2,zero
  1212e4:	31400236 	bltu	r6,r5,1212f0 <__udivsi3+0x44>
  1212e8:	314dc83a 	sub	r6,r6,r5
  1212ec:	10c4b03a 	or	r2,r2,r3
  1212f0:	1806d07a 	srli	r3,r3,1
  1212f4:	280ad07a 	srli	r5,r5,1
  1212f8:	183ffa1e 	bne	r3,zero,1212e4 <_gp+0xfffddc0c>
  1212fc:	f800283a 	ret
  121300:	0005883a 	mov	r2,zero
  121304:	f800283a 	ret
  121308:	00c00044 	movi	r3,1
  12130c:	003ff406 	br	1212e0 <_gp+0xfffddc08>

00121310 <__umodsi3>:
  121310:	2005883a 	mov	r2,r4
  121314:	2900122e 	bgeu	r5,r4,121360 <__umodsi3+0x50>
  121318:	28001116 	blt	r5,zero,121360 <__umodsi3+0x50>
  12131c:	01800804 	movi	r6,32
  121320:	00c00044 	movi	r3,1
  121324:	00000206 	br	121330 <__umodsi3+0x20>
  121328:	30000c26 	beq	r6,zero,12135c <__umodsi3+0x4c>
  12132c:	28000516 	blt	r5,zero,121344 <__umodsi3+0x34>
  121330:	294b883a 	add	r5,r5,r5
  121334:	31bfffc4 	addi	r6,r6,-1
  121338:	18c7883a 	add	r3,r3,r3
  12133c:	293ffa36 	bltu	r5,r4,121328 <_gp+0xfffddc50>
  121340:	18000626 	beq	r3,zero,12135c <__umodsi3+0x4c>
  121344:	1806d07a 	srli	r3,r3,1
  121348:	11400136 	bltu	r2,r5,121350 <__umodsi3+0x40>
  12134c:	1145c83a 	sub	r2,r2,r5
  121350:	280ad07a 	srli	r5,r5,1
  121354:	183ffb1e 	bne	r3,zero,121344 <_gp+0xfffddc6c>
  121358:	f800283a 	ret
  12135c:	f800283a 	ret
  121360:	00c00044 	movi	r3,1
  121364:	003ff706 	br	121344 <_gp+0xfffddc6c>

00121368 <__mulsi3>:
  121368:	0005883a 	mov	r2,zero
  12136c:	20000726 	beq	r4,zero,12138c <__mulsi3+0x24>
  121370:	20c0004c 	andi	r3,r4,1
  121374:	2008d07a 	srli	r4,r4,1
  121378:	18000126 	beq	r3,zero,121380 <__mulsi3+0x18>
  12137c:	1145883a 	add	r2,r2,r5
  121380:	294b883a 	add	r5,r5,r5
  121384:	203ffa1e 	bne	r4,zero,121370 <_gp+0xfffddc98>
  121388:	f800283a 	ret
  12138c:	f800283a 	ret

00121390 <memcpy>:
  121390:	defffd04 	addi	sp,sp,-12
  121394:	dfc00215 	stw	ra,8(sp)
  121398:	dc400115 	stw	r17,4(sp)
  12139c:	dc000015 	stw	r16,0(sp)
  1213a0:	00c003c4 	movi	r3,15
  1213a4:	2005883a 	mov	r2,r4
  1213a8:	1980452e 	bgeu	r3,r6,1214c0 <memcpy+0x130>
  1213ac:	2906b03a 	or	r3,r5,r4
  1213b0:	18c000cc 	andi	r3,r3,3
  1213b4:	1800441e 	bne	r3,zero,1214c8 <memcpy+0x138>
  1213b8:	347ffc04 	addi	r17,r6,-16
  1213bc:	8822d13a 	srli	r17,r17,4
  1213c0:	28c00104 	addi	r3,r5,4
  1213c4:	23400104 	addi	r13,r4,4
  1213c8:	8820913a 	slli	r16,r17,4
  1213cc:	2b000204 	addi	r12,r5,8
  1213d0:	22c00204 	addi	r11,r4,8
  1213d4:	84000504 	addi	r16,r16,20
  1213d8:	2a800304 	addi	r10,r5,12
  1213dc:	22400304 	addi	r9,r4,12
  1213e0:	2c21883a 	add	r16,r5,r16
  1213e4:	2811883a 	mov	r8,r5
  1213e8:	200f883a 	mov	r7,r4
  1213ec:	41000017 	ldw	r4,0(r8)
  1213f0:	1fc00017 	ldw	ra,0(r3)
  1213f4:	63c00017 	ldw	r15,0(r12)
  1213f8:	39000015 	stw	r4,0(r7)
  1213fc:	53800017 	ldw	r14,0(r10)
  121400:	6fc00015 	stw	ra,0(r13)
  121404:	5bc00015 	stw	r15,0(r11)
  121408:	4b800015 	stw	r14,0(r9)
  12140c:	18c00404 	addi	r3,r3,16
  121410:	39c00404 	addi	r7,r7,16
  121414:	42000404 	addi	r8,r8,16
  121418:	6b400404 	addi	r13,r13,16
  12141c:	63000404 	addi	r12,r12,16
  121420:	5ac00404 	addi	r11,r11,16
  121424:	52800404 	addi	r10,r10,16
  121428:	4a400404 	addi	r9,r9,16
  12142c:	1c3fef1e 	bne	r3,r16,1213ec <_gp+0xfffddd14>
  121430:	89c00044 	addi	r7,r17,1
  121434:	380e913a 	slli	r7,r7,4
  121438:	310003cc 	andi	r4,r6,15
  12143c:	02c000c4 	movi	r11,3
  121440:	11c7883a 	add	r3,r2,r7
  121444:	29cb883a 	add	r5,r5,r7
  121448:	5900212e 	bgeu	r11,r4,1214d0 <memcpy+0x140>
  12144c:	1813883a 	mov	r9,r3
  121450:	2811883a 	mov	r8,r5
  121454:	200f883a 	mov	r7,r4
  121458:	42800017 	ldw	r10,0(r8)
  12145c:	4a400104 	addi	r9,r9,4
  121460:	39ffff04 	addi	r7,r7,-4
  121464:	4abfff15 	stw	r10,-4(r9)
  121468:	42000104 	addi	r8,r8,4
  12146c:	59fffa36 	bltu	r11,r7,121458 <_gp+0xfffddd80>
  121470:	213fff04 	addi	r4,r4,-4
  121474:	2008d0ba 	srli	r4,r4,2
  121478:	318000cc 	andi	r6,r6,3
  12147c:	21000044 	addi	r4,r4,1
  121480:	2109883a 	add	r4,r4,r4
  121484:	2109883a 	add	r4,r4,r4
  121488:	1907883a 	add	r3,r3,r4
  12148c:	290b883a 	add	r5,r5,r4
  121490:	30000626 	beq	r6,zero,1214ac <memcpy+0x11c>
  121494:	198d883a 	add	r6,r3,r6
  121498:	29c00003 	ldbu	r7,0(r5)
  12149c:	18c00044 	addi	r3,r3,1
  1214a0:	29400044 	addi	r5,r5,1
  1214a4:	19ffffc5 	stb	r7,-1(r3)
  1214a8:	19bffb1e 	bne	r3,r6,121498 <_gp+0xfffdddc0>
  1214ac:	dfc00217 	ldw	ra,8(sp)
  1214b0:	dc400117 	ldw	r17,4(sp)
  1214b4:	dc000017 	ldw	r16,0(sp)
  1214b8:	dec00304 	addi	sp,sp,12
  1214bc:	f800283a 	ret
  1214c0:	2007883a 	mov	r3,r4
  1214c4:	003ff206 	br	121490 <_gp+0xfffdddb8>
  1214c8:	2007883a 	mov	r3,r4
  1214cc:	003ff106 	br	121494 <_gp+0xfffdddbc>
  1214d0:	200d883a 	mov	r6,r4
  1214d4:	003fee06 	br	121490 <_gp+0xfffdddb8>

001214d8 <memset>:
  1214d8:	20c000cc 	andi	r3,r4,3
  1214dc:	2005883a 	mov	r2,r4
  1214e0:	18004426 	beq	r3,zero,1215f4 <memset+0x11c>
  1214e4:	31ffffc4 	addi	r7,r6,-1
  1214e8:	30004026 	beq	r6,zero,1215ec <memset+0x114>
  1214ec:	2813883a 	mov	r9,r5
  1214f0:	200d883a 	mov	r6,r4
  1214f4:	2007883a 	mov	r3,r4
  1214f8:	00000406 	br	12150c <memset+0x34>
  1214fc:	3a3fffc4 	addi	r8,r7,-1
  121500:	31800044 	addi	r6,r6,1
  121504:	38003926 	beq	r7,zero,1215ec <memset+0x114>
  121508:	400f883a 	mov	r7,r8
  12150c:	18c00044 	addi	r3,r3,1
  121510:	32400005 	stb	r9,0(r6)
  121514:	1a0000cc 	andi	r8,r3,3
  121518:	403ff81e 	bne	r8,zero,1214fc <_gp+0xfffdde24>
  12151c:	010000c4 	movi	r4,3
  121520:	21c02d2e 	bgeu	r4,r7,1215d8 <memset+0x100>
  121524:	29003fcc 	andi	r4,r5,255
  121528:	200c923a 	slli	r6,r4,8
  12152c:	3108b03a 	or	r4,r6,r4
  121530:	200c943a 	slli	r6,r4,16
  121534:	218cb03a 	or	r6,r4,r6
  121538:	010003c4 	movi	r4,15
  12153c:	21c0182e 	bgeu	r4,r7,1215a0 <memset+0xc8>
  121540:	3b3ffc04 	addi	r12,r7,-16
  121544:	6018d13a 	srli	r12,r12,4
  121548:	1a000104 	addi	r8,r3,4
  12154c:	1ac00204 	addi	r11,r3,8
  121550:	6008913a 	slli	r4,r12,4
  121554:	1a800304 	addi	r10,r3,12
  121558:	1813883a 	mov	r9,r3
  12155c:	21000504 	addi	r4,r4,20
  121560:	1909883a 	add	r4,r3,r4
  121564:	49800015 	stw	r6,0(r9)
  121568:	41800015 	stw	r6,0(r8)
  12156c:	59800015 	stw	r6,0(r11)
  121570:	51800015 	stw	r6,0(r10)
  121574:	42000404 	addi	r8,r8,16
  121578:	4a400404 	addi	r9,r9,16
  12157c:	5ac00404 	addi	r11,r11,16
  121580:	52800404 	addi	r10,r10,16
  121584:	413ff71e 	bne	r8,r4,121564 <_gp+0xfffdde8c>
  121588:	63000044 	addi	r12,r12,1
  12158c:	6018913a 	slli	r12,r12,4
  121590:	39c003cc 	andi	r7,r7,15
  121594:	010000c4 	movi	r4,3
  121598:	1b07883a 	add	r3,r3,r12
  12159c:	21c00e2e 	bgeu	r4,r7,1215d8 <memset+0x100>
  1215a0:	1813883a 	mov	r9,r3
  1215a4:	3811883a 	mov	r8,r7
  1215a8:	010000c4 	movi	r4,3
  1215ac:	49800015 	stw	r6,0(r9)
  1215b0:	423fff04 	addi	r8,r8,-4
  1215b4:	4a400104 	addi	r9,r9,4
  1215b8:	223ffc36 	bltu	r4,r8,1215ac <_gp+0xfffdded4>
  1215bc:	393fff04 	addi	r4,r7,-4
  1215c0:	2008d0ba 	srli	r4,r4,2
  1215c4:	39c000cc 	andi	r7,r7,3
  1215c8:	21000044 	addi	r4,r4,1
  1215cc:	2109883a 	add	r4,r4,r4
  1215d0:	2109883a 	add	r4,r4,r4
  1215d4:	1907883a 	add	r3,r3,r4
  1215d8:	38000526 	beq	r7,zero,1215f0 <memset+0x118>
  1215dc:	19cf883a 	add	r7,r3,r7
  1215e0:	19400005 	stb	r5,0(r3)
  1215e4:	18c00044 	addi	r3,r3,1
  1215e8:	38fffd1e 	bne	r7,r3,1215e0 <_gp+0xfffddf08>
  1215ec:	f800283a 	ret
  1215f0:	f800283a 	ret
  1215f4:	2007883a 	mov	r3,r4
  1215f8:	300f883a 	mov	r7,r6
  1215fc:	003fc706 	br	12151c <_gp+0xfffdde44>

00121600 <_sprintf_r>:
  121600:	deffe404 	addi	sp,sp,-112
  121604:	2807883a 	mov	r3,r5
  121608:	dfc01a15 	stw	ra,104(sp)
  12160c:	d9c01b15 	stw	r7,108(sp)
  121610:	00a00034 	movhi	r2,32768
  121614:	10bfffc4 	addi	r2,r2,-1
  121618:	02008204 	movi	r8,520
  12161c:	d8800215 	stw	r2,8(sp)
  121620:	d8800515 	stw	r2,20(sp)
  121624:	d9c01b04 	addi	r7,sp,108
  121628:	d80b883a 	mov	r5,sp
  12162c:	00bfffc4 	movi	r2,-1
  121630:	d8c00015 	stw	r3,0(sp)
  121634:	d8c00415 	stw	r3,16(sp)
  121638:	da00030d 	sth	r8,12(sp)
  12163c:	d880038d 	sth	r2,14(sp)
  121640:	01221f00 	call	1221f0 <___svfprintf_internal_r>
  121644:	d8c00017 	ldw	r3,0(sp)
  121648:	18000005 	stb	zero,0(r3)
  12164c:	dfc01a17 	ldw	ra,104(sp)
  121650:	dec01c04 	addi	sp,sp,112
  121654:	f800283a 	ret

00121658 <sprintf>:
  121658:	deffe304 	addi	sp,sp,-116
  12165c:	2007883a 	mov	r3,r4
  121660:	dfc01a15 	stw	ra,104(sp)
  121664:	d9801b15 	stw	r6,108(sp)
  121668:	d9c01c15 	stw	r7,112(sp)
  12166c:	01000534 	movhi	r4,20
  121670:	212dba04 	addi	r4,r4,-18712
  121674:	21000017 	ldw	r4,0(r4)
  121678:	00a00034 	movhi	r2,32768
  12167c:	10bfffc4 	addi	r2,r2,-1
  121680:	280d883a 	mov	r6,r5
  121684:	02008204 	movi	r8,520
  121688:	d8800215 	stw	r2,8(sp)
  12168c:	d8800515 	stw	r2,20(sp)
  121690:	d9c01b04 	addi	r7,sp,108
  121694:	d80b883a 	mov	r5,sp
  121698:	00bfffc4 	movi	r2,-1
  12169c:	d8c00015 	stw	r3,0(sp)
  1216a0:	d8c00415 	stw	r3,16(sp)
  1216a4:	da00030d 	sth	r8,12(sp)
  1216a8:	d880038d 	sth	r2,14(sp)
  1216ac:	01221f00 	call	1221f0 <___svfprintf_internal_r>
  1216b0:	d8c00017 	ldw	r3,0(sp)
  1216b4:	18000005 	stb	zero,0(r3)
  1216b8:	dfc01a17 	ldw	ra,104(sp)
  1216bc:	dec01d04 	addi	sp,sp,116
  1216c0:	f800283a 	ret

001216c4 <sscanf>:
  1216c4:	deffe204 	addi	sp,sp,-120
  1216c8:	dc001a15 	stw	r16,104(sp)
  1216cc:	2821883a 	mov	r16,r5
  1216d0:	dfc01b15 	stw	ra,108(sp)
  1216d4:	d9801c15 	stw	r6,112(sp)
  1216d8:	d9c01d15 	stw	r7,116(sp)
  1216dc:	00c08104 	movi	r3,516
  1216e0:	d8c0030d 	sth	r3,12(sp)
  1216e4:	d9000015 	stw	r4,0(sp)
  1216e8:	d9000415 	stw	r4,16(sp)
  1216ec:	01218f40 	call	1218f4 <strlen>
  1216f0:	00c00534 	movhi	r3,20
  1216f4:	18edba04 	addi	r3,r3,-18712
  1216f8:	d8800115 	stw	r2,4(sp)
  1216fc:	d8800515 	stw	r2,20(sp)
  121700:	19000017 	ldw	r4,0(r3)
  121704:	008004b4 	movhi	r2,18
  121708:	10860304 	addi	r2,r2,6156
  12170c:	d8800815 	stw	r2,32(sp)
  121710:	d9c01c04 	addi	r7,sp,112
  121714:	800d883a 	mov	r6,r16
  121718:	d80b883a 	mov	r5,sp
  12171c:	00bfffc4 	movi	r2,-1
  121720:	d8000c15 	stw	zero,48(sp)
  121724:	d8001115 	stw	zero,68(sp)
  121728:	d880038d 	sth	r2,14(sp)
  12172c:	01244ac0 	call	1244ac <__ssvfscanf_r>
  121730:	dfc01b17 	ldw	ra,108(sp)
  121734:	dc001a17 	ldw	r16,104(sp)
  121738:	dec01e04 	addi	sp,sp,120
  12173c:	f800283a 	ret

00121740 <_sscanf_r>:
  121740:	deffe204 	addi	sp,sp,-120
  121744:	dc001b15 	stw	r16,108(sp)
  121748:	2021883a 	mov	r16,r4
  12174c:	dfc01c15 	stw	ra,112(sp)
  121750:	d9c01d15 	stw	r7,116(sp)
  121754:	00808104 	movi	r2,516
  121758:	2809883a 	mov	r4,r5
  12175c:	d9400015 	stw	r5,0(sp)
  121760:	d9400415 	stw	r5,16(sp)
  121764:	d9801a15 	stw	r6,104(sp)
  121768:	d880030d 	sth	r2,12(sp)
  12176c:	01218f40 	call	1218f4 <strlen>
  121770:	d8800115 	stw	r2,4(sp)
  121774:	d8800515 	stw	r2,20(sp)
  121778:	d9801a17 	ldw	r6,104(sp)
  12177c:	008004b4 	movhi	r2,18
  121780:	10860304 	addi	r2,r2,6156
  121784:	d8800815 	stw	r2,32(sp)
  121788:	d9c01d04 	addi	r7,sp,116
  12178c:	d80b883a 	mov	r5,sp
  121790:	8009883a 	mov	r4,r16
  121794:	00bfffc4 	movi	r2,-1
  121798:	d8000c15 	stw	zero,48(sp)
  12179c:	d8001115 	stw	zero,68(sp)
  1217a0:	d880038d 	sth	r2,14(sp)
  1217a4:	01244ac0 	call	1244ac <__ssvfscanf_r>
  1217a8:	dfc01c17 	ldw	ra,112(sp)
  1217ac:	dc001b17 	ldw	r16,108(sp)
  1217b0:	dec01e04 	addi	sp,sp,120
  1217b4:	f800283a 	ret

001217b8 <__sread>:
  1217b8:	defffe04 	addi	sp,sp,-8
  1217bc:	dc000015 	stw	r16,0(sp)
  1217c0:	2821883a 	mov	r16,r5
  1217c4:	2940038f 	ldh	r5,14(r5)
  1217c8:	dfc00115 	stw	ra,4(sp)
  1217cc:	01295500 	call	129550 <_read_r>
  1217d0:	10000716 	blt	r2,zero,1217f0 <__sread+0x38>
  1217d4:	80c01417 	ldw	r3,80(r16)
  1217d8:	1887883a 	add	r3,r3,r2
  1217dc:	80c01415 	stw	r3,80(r16)
  1217e0:	dfc00117 	ldw	ra,4(sp)
  1217e4:	dc000017 	ldw	r16,0(sp)
  1217e8:	dec00204 	addi	sp,sp,8
  1217ec:	f800283a 	ret
  1217f0:	80c0030b 	ldhu	r3,12(r16)
  1217f4:	18fbffcc 	andi	r3,r3,61439
  1217f8:	80c0030d 	sth	r3,12(r16)
  1217fc:	dfc00117 	ldw	ra,4(sp)
  121800:	dc000017 	ldw	r16,0(sp)
  121804:	dec00204 	addi	sp,sp,8
  121808:	f800283a 	ret

0012180c <__seofread>:
  12180c:	0005883a 	mov	r2,zero
  121810:	f800283a 	ret

00121814 <__swrite>:
  121814:	2880030b 	ldhu	r2,12(r5)
  121818:	defffb04 	addi	sp,sp,-20
  12181c:	dcc00315 	stw	r19,12(sp)
  121820:	dc800215 	stw	r18,8(sp)
  121824:	dc400115 	stw	r17,4(sp)
  121828:	dc000015 	stw	r16,0(sp)
  12182c:	dfc00415 	stw	ra,16(sp)
  121830:	10c0400c 	andi	r3,r2,256
  121834:	2821883a 	mov	r16,r5
  121838:	2023883a 	mov	r17,r4
  12183c:	3025883a 	mov	r18,r6
  121840:	3827883a 	mov	r19,r7
  121844:	18000526 	beq	r3,zero,12185c <__swrite+0x48>
  121848:	2940038f 	ldh	r5,14(r5)
  12184c:	01c00084 	movi	r7,2
  121850:	000d883a 	mov	r6,zero
  121854:	01278a80 	call	1278a8 <_lseek_r>
  121858:	8080030b 	ldhu	r2,12(r16)
  12185c:	8140038f 	ldh	r5,14(r16)
  121860:	10bbffcc 	andi	r2,r2,61439
  121864:	980f883a 	mov	r7,r19
  121868:	900d883a 	mov	r6,r18
  12186c:	8809883a 	mov	r4,r17
  121870:	8080030d 	sth	r2,12(r16)
  121874:	dfc00417 	ldw	ra,16(sp)
  121878:	dcc00317 	ldw	r19,12(sp)
  12187c:	dc800217 	ldw	r18,8(sp)
  121880:	dc400117 	ldw	r17,4(sp)
  121884:	dc000017 	ldw	r16,0(sp)
  121888:	dec00504 	addi	sp,sp,20
  12188c:	0125e381 	jmpi	125e38 <_write_r>

00121890 <__sseek>:
  121890:	defffe04 	addi	sp,sp,-8
  121894:	dc000015 	stw	r16,0(sp)
  121898:	2821883a 	mov	r16,r5
  12189c:	2940038f 	ldh	r5,14(r5)
  1218a0:	dfc00115 	stw	ra,4(sp)
  1218a4:	01278a80 	call	1278a8 <_lseek_r>
  1218a8:	00ffffc4 	movi	r3,-1
  1218ac:	10c00826 	beq	r2,r3,1218d0 <__sseek+0x40>
  1218b0:	80c0030b 	ldhu	r3,12(r16)
  1218b4:	80801415 	stw	r2,80(r16)
  1218b8:	18c40014 	ori	r3,r3,4096
  1218bc:	80c0030d 	sth	r3,12(r16)
  1218c0:	dfc00117 	ldw	ra,4(sp)
  1218c4:	dc000017 	ldw	r16,0(sp)
  1218c8:	dec00204 	addi	sp,sp,8
  1218cc:	f800283a 	ret
  1218d0:	80c0030b 	ldhu	r3,12(r16)
  1218d4:	18fbffcc 	andi	r3,r3,61439
  1218d8:	80c0030d 	sth	r3,12(r16)
  1218dc:	dfc00117 	ldw	ra,4(sp)
  1218e0:	dc000017 	ldw	r16,0(sp)
  1218e4:	dec00204 	addi	sp,sp,8
  1218e8:	f800283a 	ret

001218ec <__sclose>:
  1218ec:	2940038f 	ldh	r5,14(r5)
  1218f0:	0125e981 	jmpi	125e98 <_close_r>

001218f4 <strlen>:
  1218f4:	208000cc 	andi	r2,r4,3
  1218f8:	10002026 	beq	r2,zero,12197c <strlen+0x88>
  1218fc:	20800007 	ldb	r2,0(r4)
  121900:	10002026 	beq	r2,zero,121984 <strlen+0x90>
  121904:	2005883a 	mov	r2,r4
  121908:	00000206 	br	121914 <strlen+0x20>
  12190c:	10c00007 	ldb	r3,0(r2)
  121910:	18001826 	beq	r3,zero,121974 <strlen+0x80>
  121914:	10800044 	addi	r2,r2,1
  121918:	10c000cc 	andi	r3,r2,3
  12191c:	183ffb1e 	bne	r3,zero,12190c <_gp+0xfffde234>
  121920:	10c00017 	ldw	r3,0(r2)
  121924:	01ffbff4 	movhi	r7,65279
  121928:	39ffbfc4 	addi	r7,r7,-257
  12192c:	00ca303a 	nor	r5,zero,r3
  121930:	01a02074 	movhi	r6,32897
  121934:	19c7883a 	add	r3,r3,r7
  121938:	31a02004 	addi	r6,r6,-32640
  12193c:	1946703a 	and	r3,r3,r5
  121940:	1986703a 	and	r3,r3,r6
  121944:	1800091e 	bne	r3,zero,12196c <strlen+0x78>
  121948:	10800104 	addi	r2,r2,4
  12194c:	10c00017 	ldw	r3,0(r2)
  121950:	19cb883a 	add	r5,r3,r7
  121954:	00c6303a 	nor	r3,zero,r3
  121958:	28c6703a 	and	r3,r5,r3
  12195c:	1986703a 	and	r3,r3,r6
  121960:	183ff926 	beq	r3,zero,121948 <_gp+0xfffde270>
  121964:	00000106 	br	12196c <strlen+0x78>
  121968:	10800044 	addi	r2,r2,1
  12196c:	10c00007 	ldb	r3,0(r2)
  121970:	183ffd1e 	bne	r3,zero,121968 <_gp+0xfffde290>
  121974:	1105c83a 	sub	r2,r2,r4
  121978:	f800283a 	ret
  12197c:	2005883a 	mov	r2,r4
  121980:	003fe706 	br	121920 <_gp+0xfffde248>
  121984:	0005883a 	mov	r2,zero
  121988:	f800283a 	ret

0012198c <critical_factorization>:
  12198c:	02c00044 	movi	r11,1
  121990:	5811883a 	mov	r8,r11
  121994:	0013883a 	mov	r9,zero
  121998:	00bfffc4 	movi	r2,-1
  12199c:	2087883a 	add	r3,r4,r2
  1219a0:	1a0f883a 	add	r7,r3,r8
  1219a4:	4a07883a 	add	r3,r9,r8
  1219a8:	20d5883a 	add	r10,r4,r3
  1219ac:	1940102e 	bgeu	r3,r5,1219f0 <critical_factorization+0x64>
  1219b0:	52800003 	ldbu	r10,0(r10)
  1219b4:	39c00003 	ldbu	r7,0(r7)
  1219b8:	51c0042e 	bgeu	r10,r7,1219cc <critical_factorization+0x40>
  1219bc:	1897c83a 	sub	r11,r3,r2
  1219c0:	1813883a 	mov	r9,r3
  1219c4:	02000044 	movi	r8,1
  1219c8:	003ff406 	br	12199c <_gp+0xfffde2c4>
  1219cc:	51c00526 	beq	r10,r7,1219e4 <critical_factorization+0x58>
  1219d0:	02c00044 	movi	r11,1
  1219d4:	4805883a 	mov	r2,r9
  1219d8:	5811883a 	mov	r8,r11
  1219dc:	4ad3883a 	add	r9,r9,r11
  1219e0:	003fee06 	br	12199c <_gp+0xfffde2c4>
  1219e4:	42c02226 	beq	r8,r11,121a70 <critical_factorization+0xe4>
  1219e8:	42000044 	addi	r8,r8,1
  1219ec:	003feb06 	br	12199c <_gp+0xfffde2c4>
  1219f0:	03000044 	movi	r12,1
  1219f4:	32c00015 	stw	r11,0(r6)
  1219f8:	6011883a 	mov	r8,r12
  1219fc:	0013883a 	mov	r9,zero
  121a00:	02ffffc4 	movi	r11,-1
  121a04:	22c7883a 	add	r3,r4,r11
  121a08:	1a0f883a 	add	r7,r3,r8
  121a0c:	4a07883a 	add	r3,r9,r8
  121a10:	20d5883a 	add	r10,r4,r3
  121a14:	1940102e 	bgeu	r3,r5,121a58 <critical_factorization+0xcc>
  121a18:	52800003 	ldbu	r10,0(r10)
  121a1c:	39c00003 	ldbu	r7,0(r7)
  121a20:	3a80042e 	bgeu	r7,r10,121a34 <critical_factorization+0xa8>
  121a24:	1ad9c83a 	sub	r12,r3,r11
  121a28:	1813883a 	mov	r9,r3
  121a2c:	02000044 	movi	r8,1
  121a30:	003ff406 	br	121a04 <_gp+0xfffde32c>
  121a34:	51c00526 	beq	r10,r7,121a4c <critical_factorization+0xc0>
  121a38:	03000044 	movi	r12,1
  121a3c:	4817883a 	mov	r11,r9
  121a40:	6011883a 	mov	r8,r12
  121a44:	4b13883a 	add	r9,r9,r12
  121a48:	003fee06 	br	121a04 <_gp+0xfffde32c>
  121a4c:	43000c26 	beq	r8,r12,121a80 <critical_factorization+0xf4>
  121a50:	42000044 	addi	r8,r8,1
  121a54:	003feb06 	br	121a04 <_gp+0xfffde32c>
  121a58:	5ac00044 	addi	r11,r11,1
  121a5c:	10800044 	addi	r2,r2,1
  121a60:	58800236 	bltu	r11,r2,121a6c <critical_factorization+0xe0>
  121a64:	33000015 	stw	r12,0(r6)
  121a68:	5805883a 	mov	r2,r11
  121a6c:	f800283a 	ret
  121a70:	4017883a 	mov	r11,r8
  121a74:	1813883a 	mov	r9,r3
  121a78:	02000044 	movi	r8,1
  121a7c:	003fc706 	br	12199c <_gp+0xfffde2c4>
  121a80:	4019883a 	mov	r12,r8
  121a84:	1813883a 	mov	r9,r3
  121a88:	02000044 	movi	r8,1
  121a8c:	003fdd06 	br	121a04 <_gp+0xfffde32c>

00121a90 <two_way_long_needle>:
  121a90:	defef104 	addi	sp,sp,-1084
  121a94:	dc810715 	stw	r18,1052(sp)
  121a98:	dc410615 	stw	r17,1048(sp)
  121a9c:	dc810004 	addi	r18,sp,1024
  121aa0:	3023883a 	mov	r17,r6
  121aa4:	2807883a 	mov	r3,r5
  121aa8:	ddc10c15 	stw	r23,1072(sp)
  121aac:	900d883a 	mov	r6,r18
  121ab0:	202f883a 	mov	r23,r4
  121ab4:	380b883a 	mov	r5,r7
  121ab8:	8809883a 	mov	r4,r17
  121abc:	dd810b15 	stw	r22,1068(sp)
  121ac0:	dc010515 	stw	r16,1044(sp)
  121ac4:	d8c10415 	stw	r3,1040(sp)
  121ac8:	dfc10e15 	stw	ra,1080(sp)
  121acc:	df010d15 	stw	fp,1076(sp)
  121ad0:	dd410a15 	stw	r21,1064(sp)
  121ad4:	dd010915 	stw	r20,1060(sp)
  121ad8:	dcc10815 	stw	r19,1056(sp)
  121adc:	382d883a 	mov	r22,r7
  121ae0:	012198c0 	call	12198c <critical_factorization>
  121ae4:	d8c10417 	ldw	r3,1040(sp)
  121ae8:	1021883a 	mov	r16,r2
  121aec:	d805883a 	mov	r2,sp
  121af0:	15800015 	stw	r22,0(r2)
  121af4:	10800104 	addi	r2,r2,4
  121af8:	90bffd1e 	bne	r18,r2,121af0 <_gp+0xfffde418>
  121afc:	b0000b26 	beq	r22,zero,121b2c <two_way_long_needle+0x9c>
  121b00:	b17fffc4 	addi	r5,r22,-1
  121b04:	8809883a 	mov	r4,r17
  121b08:	8d8d883a 	add	r6,r17,r22
  121b0c:	20800003 	ldbu	r2,0(r4)
  121b10:	21000044 	addi	r4,r4,1
  121b14:	1085883a 	add	r2,r2,r2
  121b18:	1085883a 	add	r2,r2,r2
  121b1c:	d885883a 	add	r2,sp,r2
  121b20:	11400015 	stw	r5,0(r2)
  121b24:	297fffc4 	addi	r5,r5,-1
  121b28:	21bff81e 	bne	r4,r6,121b0c <_gp+0xfffde434>
  121b2c:	d9410017 	ldw	r5,1024(sp)
  121b30:	800d883a 	mov	r6,r16
  121b34:	8809883a 	mov	r4,r17
  121b38:	894b883a 	add	r5,r17,r5
  121b3c:	d8c10415 	stw	r3,1040(sp)
  121b40:	012841c0 	call	12841c <memcmp>
  121b44:	d8c10417 	ldw	r3,1040(sp)
  121b48:	10006a1e 	bne	r2,zero,121cf4 <two_way_long_needle+0x264>
  121b4c:	84bfffc4 	addi	r18,r16,-1
  121b50:	8c85883a 	add	r2,r17,r18
  121b54:	d8810215 	stw	r2,1032(sp)
  121b58:	00800044 	movi	r2,1
  121b5c:	813fff84 	addi	r4,r16,-2
  121b60:	1405c83a 	sub	r2,r2,r16
  121b64:	0029883a 	mov	r20,zero
  121b68:	0039883a 	mov	fp,zero
  121b6c:	b57fffc4 	addi	r21,r22,-1
  121b70:	d9010115 	stw	r4,1028(sp)
  121b74:	d8810315 	stw	r2,1036(sp)
  121b78:	00000706 	br	121b98 <two_way_long_needle+0x108>
  121b7c:	a0000326 	beq	r20,zero,121b8c <two_way_long_needle+0xfc>
  121b80:	d8c10017 	ldw	r3,1024(sp)
  121b84:	10c0012e 	bgeu	r2,r3,121b8c <two_way_long_needle+0xfc>
  121b88:	b0c5c83a 	sub	r2,r22,r3
  121b8c:	e0b9883a 	add	fp,fp,r2
  121b90:	0029883a 	mov	r20,zero
  121b94:	9807883a 	mov	r3,r19
  121b98:	e5a7883a 	add	r19,fp,r22
  121b9c:	98cdc83a 	sub	r6,r19,r3
  121ba0:	000b883a 	mov	r5,zero
  121ba4:	b8c9883a 	add	r4,r23,r3
  121ba8:	01283380 	call	128338 <memchr>
  121bac:	1000441e 	bne	r2,zero,121cc0 <two_way_long_needle+0x230>
  121bb0:	98004326 	beq	r19,zero,121cc0 <two_way_long_needle+0x230>
  121bb4:	bcc5883a 	add	r2,r23,r19
  121bb8:	10bfffc3 	ldbu	r2,-1(r2)
  121bbc:	1085883a 	add	r2,r2,r2
  121bc0:	1085883a 	add	r2,r2,r2
  121bc4:	d885883a 	add	r2,sp,r2
  121bc8:	10800017 	ldw	r2,0(r2)
  121bcc:	103feb1e 	bne	r2,zero,121b7c <_gp+0xfffde4a4>
  121bd0:	a015883a 	mov	r10,r20
  121bd4:	a400012e 	bgeu	r20,r16,121bdc <two_way_long_needle+0x14c>
  121bd8:	8015883a 	mov	r10,r16
  121bdc:	5540152e 	bgeu	r10,r21,121c34 <two_way_long_needle+0x1a4>
  121be0:	bf05883a 	add	r2,r23,fp
  121be4:	8a87883a 	add	r3,r17,r10
  121be8:	1285883a 	add	r2,r2,r10
  121bec:	18c00003 	ldbu	r3,0(r3)
  121bf0:	10800003 	ldbu	r2,0(r2)
  121bf4:	18802d1e 	bne	r3,r2,121cac <two_way_long_needle+0x21c>
  121bf8:	e1400044 	addi	r5,fp,1
  121bfc:	50800044 	addi	r2,r10,1
  121c00:	2a8b883a 	add	r5,r5,r10
  121c04:	888d883a 	add	r6,r17,r2
  121c08:	b94b883a 	add	r5,r23,r5
  121c0c:	00000706 	br	121c2c <two_way_long_needle+0x19c>
  121c10:	31000003 	ldbu	r4,0(r6)
  121c14:	28c00003 	ldbu	r3,0(r5)
  121c18:	31800044 	addi	r6,r6,1
  121c1c:	21003fcc 	andi	r4,r4,255
  121c20:	29400044 	addi	r5,r5,1
  121c24:	20c0211e 	bne	r4,r3,121cac <two_way_long_needle+0x21c>
  121c28:	10800044 	addi	r2,r2,1
  121c2c:	1015883a 	mov	r10,r2
  121c30:	157ff736 	bltu	r2,r21,121c10 <_gp+0xfffde538>
  121c34:	900d883a 	mov	r6,r18
  121c38:	a4007d2e 	bgeu	r20,r16,121e30 <two_way_long_needle+0x3a0>
  121c3c:	d9410217 	ldw	r5,1032(sp)
  121c40:	bf05883a 	add	r2,r23,fp
  121c44:	1485883a 	add	r2,r2,r18
  121c48:	28c00003 	ldbu	r3,0(r5)
  121c4c:	10800003 	ldbu	r2,0(r2)
  121c50:	1880771e 	bne	r3,r2,121e30 <two_way_long_needle+0x3a0>
  121c54:	d8c10117 	ldw	r3,1028(sp)
  121c58:	a2ffffc4 	addi	r11,r20,-1
  121c5c:	8ad7883a 	add	r11,r17,r11
  121c60:	e0cb883a 	add	r5,fp,r3
  121c64:	88c5883a 	add	r2,r17,r3
  121c68:	b94b883a 	add	r5,r23,r5
  121c6c:	00000706 	br	121c8c <two_way_long_needle+0x1fc>
  121c70:	11000003 	ldbu	r4,0(r2)
  121c74:	28c00003 	ldbu	r3,0(r5)
  121c78:	10bfffc4 	addi	r2,r2,-1
  121c7c:	21003fcc 	andi	r4,r4,255
  121c80:	297fffc4 	addi	r5,r5,-1
  121c84:	20c0031e 	bne	r4,r3,121c94 <two_way_long_needle+0x204>
  121c88:	500d883a 	mov	r6,r10
  121c8c:	32bfffc4 	addi	r10,r6,-1
  121c90:	58bff71e 	bne	r11,r2,121c70 <_gp+0xfffde598>
  121c94:	a2400044 	addi	r9,r20,1
  121c98:	32406736 	bltu	r6,r9,121e38 <two_way_long_needle+0x3a8>
  121c9c:	da410017 	ldw	r9,1024(sp)
  121ca0:	e279883a 	add	fp,fp,r9
  121ca4:	b269c83a 	sub	r20,r22,r9
  121ca8:	003fba06 	br	121b94 <_gp+0xfffde4bc>
  121cac:	d8c10317 	ldw	r3,1036(sp)
  121cb0:	0029883a 	mov	r20,zero
  121cb4:	1f39883a 	add	fp,r3,fp
  121cb8:	e2b9883a 	add	fp,fp,r10
  121cbc:	003fb506 	br	121b94 <_gp+0xfffde4bc>
  121cc0:	0005883a 	mov	r2,zero
  121cc4:	dfc10e17 	ldw	ra,1080(sp)
  121cc8:	df010d17 	ldw	fp,1076(sp)
  121ccc:	ddc10c17 	ldw	r23,1072(sp)
  121cd0:	dd810b17 	ldw	r22,1068(sp)
  121cd4:	dd410a17 	ldw	r21,1064(sp)
  121cd8:	dd010917 	ldw	r20,1060(sp)
  121cdc:	dcc10817 	ldw	r19,1056(sp)
  121ce0:	dc810717 	ldw	r18,1052(sp)
  121ce4:	dc410617 	ldw	r17,1048(sp)
  121ce8:	dc010517 	ldw	r16,1044(sp)
  121cec:	dec10f04 	addi	sp,sp,1084
  121cf0:	f800283a 	ret
  121cf4:	b405c83a 	sub	r2,r22,r16
  121cf8:	14004b36 	bltu	r2,r16,121e28 <two_way_long_needle+0x398>
  121cfc:	10800044 	addi	r2,r2,1
  121d00:	84bfffc4 	addi	r18,r16,-1
  121d04:	d8810015 	stw	r2,1024(sp)
  121d08:	00800044 	movi	r2,1
  121d0c:	8c89883a 	add	r4,r17,r18
  121d10:	817fff84 	addi	r5,r16,-2
  121d14:	1405c83a 	sub	r2,r2,r16
  121d18:	0029883a 	mov	r20,zero
  121d1c:	b73fffc4 	addi	fp,r22,-1
  121d20:	d9010215 	stw	r4,1032(sp)
  121d24:	d9410115 	stw	r5,1028(sp)
  121d28:	8d7fffc4 	addi	r21,r17,-1
  121d2c:	d8810315 	stw	r2,1036(sp)
  121d30:	a5a7883a 	add	r19,r20,r22
  121d34:	98cdc83a 	sub	r6,r19,r3
  121d38:	000b883a 	mov	r5,zero
  121d3c:	b8c9883a 	add	r4,r23,r3
  121d40:	01283380 	call	128338 <memchr>
  121d44:	103fde1e 	bne	r2,zero,121cc0 <_gp+0xfffde5e8>
  121d48:	983fdd26 	beq	r19,zero,121cc0 <_gp+0xfffde5e8>
  121d4c:	bcc5883a 	add	r2,r23,r19
  121d50:	10bfffc3 	ldbu	r2,-1(r2)
  121d54:	1085883a 	add	r2,r2,r2
  121d58:	1085883a 	add	r2,r2,r2
  121d5c:	d885883a 	add	r2,sp,r2
  121d60:	10800017 	ldw	r2,0(r2)
  121d64:	1000291e 	bne	r2,zero,121e0c <two_way_long_needle+0x37c>
  121d68:	bd05883a 	add	r2,r23,r20
  121d6c:	8700142e 	bgeu	r16,fp,121dc0 <two_way_long_needle+0x330>
  121d70:	8c07883a 	add	r3,r17,r16
  121d74:	140b883a 	add	r5,r2,r16
  121d78:	19000003 	ldbu	r4,0(r3)
  121d7c:	28c00003 	ldbu	r3,0(r5)
  121d80:	800d883a 	mov	r6,r16
  121d84:	20c0241e 	bne	r4,r3,121e18 <two_way_long_needle+0x388>
  121d88:	81400044 	addi	r5,r16,1
  121d8c:	a155883a 	add	r10,r20,r5
  121d90:	ba95883a 	add	r10,r23,r10
  121d94:	894b883a 	add	r5,r17,r5
  121d98:	800d883a 	mov	r6,r16
  121d9c:	00000606 	br	121db8 <two_way_long_needle+0x328>
  121da0:	29000003 	ldbu	r4,0(r5)
  121da4:	50c00003 	ldbu	r3,0(r10)
  121da8:	29400044 	addi	r5,r5,1
  121dac:	21003fcc 	andi	r4,r4,255
  121db0:	52800044 	addi	r10,r10,1
  121db4:	20c0181e 	bne	r4,r3,121e18 <two_way_long_needle+0x388>
  121db8:	31800044 	addi	r6,r6,1
  121dbc:	373ff836 	bltu	r6,fp,121da0 <_gp+0xfffde6c8>
  121dc0:	00ffffc4 	movi	r3,-1
  121dc4:	90ffbf26 	beq	r18,r3,121cc4 <_gp+0xfffde5ec>
  121dc8:	d9410217 	ldw	r5,1032(sp)
  121dcc:	1487883a 	add	r3,r2,r18
  121dd0:	18c00003 	ldbu	r3,0(r3)
  121dd4:	29000003 	ldbu	r4,0(r5)
  121dd8:	20c00b1e 	bne	r4,r3,121e08 <two_way_long_needle+0x378>
  121ddc:	d8c10117 	ldw	r3,1028(sp)
  121de0:	a0cd883a 	add	r6,r20,r3
  121de4:	b98d883a 	add	r6,r23,r6
  121de8:	88c7883a 	add	r3,r17,r3
  121dec:	1d7fb526 	beq	r3,r21,121cc4 <_gp+0xfffde5ec>
  121df0:	19400003 	ldbu	r5,0(r3)
  121df4:	31000003 	ldbu	r4,0(r6)
  121df8:	18ffffc4 	addi	r3,r3,-1
  121dfc:	29403fcc 	andi	r5,r5,255
  121e00:	31bfffc4 	addi	r6,r6,-1
  121e04:	293ff926 	beq	r5,r4,121dec <_gp+0xfffde714>
  121e08:	d8810017 	ldw	r2,1024(sp)
  121e0c:	a0a9883a 	add	r20,r20,r2
  121e10:	9807883a 	mov	r3,r19
  121e14:	003fc606 	br	121d30 <_gp+0xfffde658>
  121e18:	d8c10317 	ldw	r3,1036(sp)
  121e1c:	1d11883a 	add	r8,r3,r20
  121e20:	41a9883a 	add	r20,r8,r6
  121e24:	003ffa06 	br	121e10 <_gp+0xfffde738>
  121e28:	8005883a 	mov	r2,r16
  121e2c:	003fb306 	br	121cfc <_gp+0xfffde624>
  121e30:	800d883a 	mov	r6,r16
  121e34:	003f9706 	br	121c94 <_gp+0xfffde5bc>
  121e38:	bf05883a 	add	r2,r23,fp
  121e3c:	003fa106 	br	121cc4 <_gp+0xfffde5ec>

00121e40 <strstr>:
  121e40:	21800007 	ldb	r6,0(r4)
  121e44:	30009226 	beq	r6,zero,122090 <strstr+0x250>
  121e48:	28c00007 	ldb	r3,0(r5)
  121e4c:	18000f26 	beq	r3,zero,121e8c <strstr+0x4c>
  121e50:	280f883a 	mov	r7,r5
  121e54:	2011883a 	mov	r8,r4
  121e58:	02400044 	movi	r9,1
  121e5c:	00000206 	br	121e68 <strstr+0x28>
  121e60:	38c00007 	ldb	r3,0(r7)
  121e64:	18000826 	beq	r3,zero,121e88 <strstr+0x48>
  121e68:	42000044 	addi	r8,r8,1
  121e6c:	1987003a 	cmpeq	r3,r3,r6
  121e70:	41800007 	ldb	r6,0(r8)
  121e74:	39c00044 	addi	r7,r7,1
  121e78:	48d2703a 	and	r9,r9,r3
  121e7c:	303ff81e 	bne	r6,zero,121e60 <_gp+0xfffde788>
  121e80:	38800007 	ldb	r2,0(r7)
  121e84:	1000841e 	bne	r2,zero,122098 <strstr+0x258>
  121e88:	48000226 	beq	r9,zero,121e94 <strstr+0x54>
  121e8c:	2005883a 	mov	r2,r4
  121e90:	f800283a 	ret
  121e94:	defff104 	addi	sp,sp,-60
  121e98:	ddc00c15 	stw	r23,48(sp)
  121e9c:	dd800b15 	stw	r22,44(sp)
  121ea0:	dd400a15 	stw	r21,40(sp)
  121ea4:	dc000515 	stw	r16,20(sp)
  121ea8:	dfc00e15 	stw	ra,56(sp)
  121eac:	df000d15 	stw	fp,52(sp)
  121eb0:	dd000915 	stw	r20,36(sp)
  121eb4:	dcc00815 	stw	r19,32(sp)
  121eb8:	dc800715 	stw	r18,28(sp)
  121ebc:	dc400615 	stw	r17,24(sp)
  121ec0:	282d883a 	mov	r22,r5
  121ec4:	29400007 	ldb	r5,0(r5)
  121ec8:	202b883a 	mov	r21,r4
  121ecc:	21000044 	addi	r4,r4,1
  121ed0:	3da1c83a 	sub	r16,r7,r22
  121ed4:	01297500 	call	129750 <strchr>
  121ed8:	102f883a 	mov	r23,r2
  121edc:	10007526 	beq	r2,zero,1220b4 <strstr+0x274>
  121ee0:	00c00044 	movi	r3,1
  121ee4:	80c00a26 	beq	r16,r3,121f10 <strstr+0xd0>
  121ee8:	ac09883a 	add	r4,r21,r16
  121eec:	20800136 	bltu	r4,r2,121ef4 <strstr+0xb4>
  121ef0:	2087c83a 	sub	r3,r4,r2
  121ef4:	008007c4 	movi	r2,31
  121ef8:	1400112e 	bgeu	r2,r16,121f40 <strstr+0x100>
  121efc:	800f883a 	mov	r7,r16
  121f00:	b00d883a 	mov	r6,r22
  121f04:	180b883a 	mov	r5,r3
  121f08:	b809883a 	mov	r4,r23
  121f0c:	0121a900 	call	121a90 <two_way_long_needle>
  121f10:	dfc00e17 	ldw	ra,56(sp)
  121f14:	df000d17 	ldw	fp,52(sp)
  121f18:	ddc00c17 	ldw	r23,48(sp)
  121f1c:	dd800b17 	ldw	r22,44(sp)
  121f20:	dd400a17 	ldw	r21,40(sp)
  121f24:	dd000917 	ldw	r20,36(sp)
  121f28:	dcc00817 	ldw	r19,32(sp)
  121f2c:	dc800717 	ldw	r18,28(sp)
  121f30:	dc400617 	ldw	r17,24(sp)
  121f34:	dc000517 	ldw	r16,20(sp)
  121f38:	dec00f04 	addi	sp,sp,60
  121f3c:	f800283a 	ret
  121f40:	d80d883a 	mov	r6,sp
  121f44:	800b883a 	mov	r5,r16
  121f48:	b009883a 	mov	r4,r22
  121f4c:	d8c00415 	stw	r3,16(sp)
  121f50:	012198c0 	call	12198c <critical_factorization>
  121f54:	d9400017 	ldw	r5,0(sp)
  121f58:	100d883a 	mov	r6,r2
  121f5c:	b009883a 	mov	r4,r22
  121f60:	b14b883a 	add	r5,r22,r5
  121f64:	1039883a 	mov	fp,r2
  121f68:	012841c0 	call	12841c <memcmp>
  121f6c:	d8c00417 	ldw	r3,16(sp)
  121f70:	1000521e 	bne	r2,zero,1220bc <strstr+0x27c>
  121f74:	e47fffc4 	addi	r17,fp,-1
  121f78:	04c00044 	movi	r19,1
  121f7c:	b445883a 	add	r2,r22,r17
  121f80:	9f27c83a 	sub	r19,r19,fp
  121f84:	0029883a 	mov	r20,zero
  121f88:	002b883a 	mov	r21,zero
  121f8c:	d8800215 	stw	r2,8(sp)
  121f90:	e4bfff84 	addi	r18,fp,-2
  121f94:	dcc00115 	stw	r19,4(sp)
  121f98:	8567883a 	add	r19,r16,r21
  121f9c:	98cdc83a 	sub	r6,r19,r3
  121fa0:	000b883a 	mov	r5,zero
  121fa4:	b8c9883a 	add	r4,r23,r3
  121fa8:	01283380 	call	128338 <memchr>
  121fac:	1000411e 	bne	r2,zero,1220b4 <strstr+0x274>
  121fb0:	98004026 	beq	r19,zero,1220b4 <strstr+0x274>
  121fb4:	e00b883a 	mov	r5,fp
  121fb8:	e500012e 	bgeu	fp,r20,121fc0 <strstr+0x180>
  121fbc:	a00b883a 	mov	r5,r20
  121fc0:	2c00152e 	bgeu	r5,r16,122018 <strstr+0x1d8>
  121fc4:	b947883a 	add	r3,r23,r5
  121fc8:	1d47883a 	add	r3,r3,r21
  121fcc:	b145883a 	add	r2,r22,r5
  121fd0:	18c00003 	ldbu	r3,0(r3)
  121fd4:	10800003 	ldbu	r2,0(r2)
  121fd8:	1880311e 	bne	r3,r2,1220a0 <strstr+0x260>
  121fdc:	a8800044 	addi	r2,r21,1
  121fe0:	28c00044 	addi	r3,r5,1
  121fe4:	1145883a 	add	r2,r2,r5
  121fe8:	b0c9883a 	add	r4,r22,r3
  121fec:	b885883a 	add	r2,r23,r2
  121ff0:	00000706 	br	122010 <strstr+0x1d0>
  121ff4:	21c00003 	ldbu	r7,0(r4)
  121ff8:	11800003 	ldbu	r6,0(r2)
  121ffc:	21000044 	addi	r4,r4,1
  122000:	39c03fcc 	andi	r7,r7,255
  122004:	10800044 	addi	r2,r2,1
  122008:	3980251e 	bne	r7,r6,1220a0 <strstr+0x260>
  12200c:	18c00044 	addi	r3,r3,1
  122010:	180b883a 	mov	r5,r3
  122014:	1c3ff736 	bltu	r3,r16,121ff4 <_gp+0xfffde91c>
  122018:	880d883a 	mov	r6,r17
  12201c:	a700702e 	bgeu	r20,fp,1221e0 <strstr+0x3a0>
  122020:	d9000217 	ldw	r4,8(sp)
  122024:	bd45883a 	add	r2,r23,r21
  122028:	1445883a 	add	r2,r2,r17
  12202c:	20c00003 	ldbu	r3,0(r4)
  122030:	10800003 	ldbu	r2,0(r2)
  122034:	18806a1e 	bne	r3,r2,1221e0 <strstr+0x3a0>
  122038:	954b883a 	add	r5,r18,r21
  12203c:	a2bfffc4 	addi	r10,r20,-1
  122040:	b485883a 	add	r2,r22,r18
  122044:	b94b883a 	add	r5,r23,r5
  122048:	b295883a 	add	r10,r22,r10
  12204c:	00000706 	br	12206c <strstr+0x22c>
  122050:	11000003 	ldbu	r4,0(r2)
  122054:	28c00003 	ldbu	r3,0(r5)
  122058:	10bfffc4 	addi	r2,r2,-1
  12205c:	21003fcc 	andi	r4,r4,255
  122060:	297fffc4 	addi	r5,r5,-1
  122064:	20c0031e 	bne	r4,r3,122074 <strstr+0x234>
  122068:	380d883a 	mov	r6,r7
  12206c:	31ffffc4 	addi	r7,r6,-1
  122070:	12bff71e 	bne	r2,r10,122050 <_gp+0xfffde978>
  122074:	a2000044 	addi	r8,r20,1
  122078:	32005b36 	bltu	r6,r8,1221e8 <strstr+0x3a8>
  12207c:	da000017 	ldw	r8,0(sp)
  122080:	aa2b883a 	add	r21,r21,r8
  122084:	8229c83a 	sub	r20,r16,r8
  122088:	9807883a 	mov	r3,r19
  12208c:	003fc206 	br	121f98 <_gp+0xfffde8c0>
  122090:	28800007 	ldb	r2,0(r5)
  122094:	103f7d26 	beq	r2,zero,121e8c <_gp+0xfffde7b4>
  122098:	0005883a 	mov	r2,zero
  12209c:	f800283a 	ret
  1220a0:	d8c00117 	ldw	r3,4(sp)
  1220a4:	0029883a 	mov	r20,zero
  1220a8:	1d6b883a 	add	r21,r3,r21
  1220ac:	a96b883a 	add	r21,r21,r5
  1220b0:	003ff506 	br	122088 <_gp+0xfffde9b0>
  1220b4:	0005883a 	mov	r2,zero
  1220b8:	003f9506 	br	121f10 <_gp+0xfffde838>
  1220bc:	8705c83a 	sub	r2,r16,fp
  1220c0:	1700012e 	bgeu	r2,fp,1220c8 <strstr+0x288>
  1220c4:	e005883a 	mov	r2,fp
  1220c8:	10800044 	addi	r2,r2,1
  1220cc:	e4bfffc4 	addi	r18,fp,-1
  1220d0:	05000044 	movi	r20,1
  1220d4:	a729c83a 	sub	r20,r20,fp
  1220d8:	d8800015 	stw	r2,0(sp)
  1220dc:	b48b883a 	add	r5,r22,r18
  1220e0:	e0bfff84 	addi	r2,fp,-2
  1220e4:	dd000215 	stw	r20,8(sp)
  1220e8:	002b883a 	mov	r21,zero
  1220ec:	e4400044 	addi	r17,fp,1
  1220f0:	d9400315 	stw	r5,12(sp)
  1220f4:	d8800115 	stw	r2,4(sp)
  1220f8:	b53fffc4 	addi	r20,r22,-1
  1220fc:	8567883a 	add	r19,r16,r21
  122100:	98cdc83a 	sub	r6,r19,r3
  122104:	000b883a 	mov	r5,zero
  122108:	b8c9883a 	add	r4,r23,r3
  12210c:	01283380 	call	128338 <memchr>
  122110:	103fe81e 	bne	r2,zero,1220b4 <_gp+0xfffde9dc>
  122114:	983fe726 	beq	r19,zero,1220b4 <_gp+0xfffde9dc>
  122118:	e400132e 	bgeu	fp,r16,122168 <strstr+0x328>
  12211c:	bf07883a 	add	r3,r23,fp
  122120:	1d47883a 	add	r3,r3,r21
  122124:	b705883a 	add	r2,r22,fp
  122128:	18c00003 	ldbu	r3,0(r3)
  12212c:	10800003 	ldbu	r2,0(r2)
  122130:	1880241e 	bne	r3,r2,1221c4 <strstr+0x384>
  122134:	ac45883a 	add	r2,r21,r17
  122138:	b44b883a 	add	r5,r22,r17
  12213c:	b885883a 	add	r2,r23,r2
  122140:	e009883a 	mov	r4,fp
  122144:	00000606 	br	122160 <strstr+0x320>
  122148:	29800003 	ldbu	r6,0(r5)
  12214c:	10c00003 	ldbu	r3,0(r2)
  122150:	29400044 	addi	r5,r5,1
  122154:	31803fcc 	andi	r6,r6,255
  122158:	10800044 	addi	r2,r2,1
  12215c:	30c01a1e 	bne	r6,r3,1221c8 <strstr+0x388>
  122160:	21000044 	addi	r4,r4,1
  122164:	243ff836 	bltu	r4,r16,122148 <_gp+0xfffdea70>
  122168:	00bfffc4 	movi	r2,-1
  12216c:	bd49883a 	add	r4,r23,r21
  122170:	90801926 	beq	r18,r2,1221d8 <strstr+0x398>
  122174:	d9400317 	ldw	r5,12(sp)
  122178:	2485883a 	add	r2,r4,r18
  12217c:	10800003 	ldbu	r2,0(r2)
  122180:	28c00003 	ldbu	r3,0(r5)
  122184:	18800b1e 	bne	r3,r2,1221b4 <strstr+0x374>
  122188:	d8c00117 	ldw	r3,4(sp)
  12218c:	a8c5883a 	add	r2,r21,r3
  122190:	b885883a 	add	r2,r23,r2
  122194:	b0c7883a 	add	r3,r22,r3
  122198:	1d000f26 	beq	r3,r20,1221d8 <strstr+0x398>
  12219c:	19800003 	ldbu	r6,0(r3)
  1221a0:	11400003 	ldbu	r5,0(r2)
  1221a4:	18ffffc4 	addi	r3,r3,-1
  1221a8:	31803fcc 	andi	r6,r6,255
  1221ac:	10bfffc4 	addi	r2,r2,-1
  1221b0:	317ff926 	beq	r6,r5,122198 <_gp+0xfffdeac0>
  1221b4:	d8800017 	ldw	r2,0(sp)
  1221b8:	a8ab883a 	add	r21,r21,r2
  1221bc:	9807883a 	mov	r3,r19
  1221c0:	003fce06 	br	1220fc <_gp+0xfffdea24>
  1221c4:	e009883a 	mov	r4,fp
  1221c8:	d8c00217 	ldw	r3,8(sp)
  1221cc:	1d4f883a 	add	r7,r3,r21
  1221d0:	392b883a 	add	r21,r7,r4
  1221d4:	003ff906 	br	1221bc <_gp+0xfffdeae4>
  1221d8:	2005883a 	mov	r2,r4
  1221dc:	003f4c06 	br	121f10 <_gp+0xfffde838>
  1221e0:	e00d883a 	mov	r6,fp
  1221e4:	003fa306 	br	122074 <_gp+0xfffde99c>
  1221e8:	bd45883a 	add	r2,r23,r21
  1221ec:	003f4806 	br	121f10 <_gp+0xfffde838>

001221f0 <___svfprintf_internal_r>:
  1221f0:	deffb704 	addi	sp,sp,-292
  1221f4:	dfc04815 	stw	ra,288(sp)
  1221f8:	ddc04615 	stw	r23,280(sp)
  1221fc:	d9402d15 	stw	r5,180(sp)
  122200:	d9003915 	stw	r4,228(sp)
  122204:	302f883a 	mov	r23,r6
  122208:	d9c02e15 	stw	r7,184(sp)
  12220c:	df004715 	stw	fp,284(sp)
  122210:	dd804515 	stw	r22,276(sp)
  122214:	dd404415 	stw	r21,272(sp)
  122218:	dd004315 	stw	r20,268(sp)
  12221c:	dcc04215 	stw	r19,264(sp)
  122220:	dc804115 	stw	r18,260(sp)
  122224:	dc404015 	stw	r17,256(sp)
  122228:	dc003f15 	stw	r16,252(sp)
  12222c:	01278780 	call	127878 <_localeconv_r>
  122230:	10800017 	ldw	r2,0(r2)
  122234:	1009883a 	mov	r4,r2
  122238:	d8803415 	stw	r2,208(sp)
  12223c:	01218f40 	call	1218f4 <strlen>
  122240:	d8c02d17 	ldw	r3,180(sp)
  122244:	d8803815 	stw	r2,224(sp)
  122248:	1880030b 	ldhu	r2,12(r3)
  12224c:	1080200c 	andi	r2,r2,128
  122250:	10000226 	beq	r2,zero,12225c <___svfprintf_internal_r+0x6c>
  122254:	18800417 	ldw	r2,16(r3)
  122258:	1006b126 	beq	r2,zero,123d20 <___svfprintf_internal_r+0x1b30>
  12225c:	dcc03917 	ldw	r19,228(sp)
  122260:	d8c00404 	addi	r3,sp,16
  122264:	05400534 	movhi	r21,20
  122268:	d9001e04 	addi	r4,sp,120
  12226c:	ad64c784 	addi	r21,r21,-27874
  122270:	d8c01e15 	stw	r3,120(sp)
  122274:	d8002015 	stw	zero,128(sp)
  122278:	d8001f15 	stw	zero,124(sp)
  12227c:	d8003315 	stw	zero,204(sp)
  122280:	d8003615 	stw	zero,216(sp)
  122284:	d8003715 	stw	zero,220(sp)
  122288:	1811883a 	mov	r8,r3
  12228c:	d8003a15 	stw	zero,232(sp)
  122290:	d8003b15 	stw	zero,236(sp)
  122294:	d8002f15 	stw	zero,188(sp)
  122298:	d9002815 	stw	r4,160(sp)
  12229c:	b8800007 	ldb	r2,0(r23)
  1222a0:	10027726 	beq	r2,zero,122c80 <___svfprintf_internal_r+0xa90>
  1222a4:	00c00944 	movi	r3,37
  1222a8:	b823883a 	mov	r17,r23
  1222ac:	10c0021e 	bne	r2,r3,1222b8 <___svfprintf_internal_r+0xc8>
  1222b0:	00001406 	br	122304 <___svfprintf_internal_r+0x114>
  1222b4:	10c00326 	beq	r2,r3,1222c4 <___svfprintf_internal_r+0xd4>
  1222b8:	8c400044 	addi	r17,r17,1
  1222bc:	88800007 	ldb	r2,0(r17)
  1222c0:	103ffc1e 	bne	r2,zero,1222b4 <_gp+0xfffdebdc>
  1222c4:	8de1c83a 	sub	r16,r17,r23
  1222c8:	80000e26 	beq	r16,zero,122304 <___svfprintf_internal_r+0x114>
  1222cc:	d8c02017 	ldw	r3,128(sp)
  1222d0:	d8801f17 	ldw	r2,124(sp)
  1222d4:	45c00015 	stw	r23,0(r8)
  1222d8:	1c07883a 	add	r3,r3,r16
  1222dc:	10800044 	addi	r2,r2,1
  1222e0:	d8c02015 	stw	r3,128(sp)
  1222e4:	44000115 	stw	r16,4(r8)
  1222e8:	d8801f15 	stw	r2,124(sp)
  1222ec:	00c001c4 	movi	r3,7
  1222f0:	18809916 	blt	r3,r2,122558 <___svfprintf_internal_r+0x368>
  1222f4:	42000204 	addi	r8,r8,8
  1222f8:	d9402f17 	ldw	r5,188(sp)
  1222fc:	2c0b883a 	add	r5,r5,r16
  122300:	d9402f15 	stw	r5,188(sp)
  122304:	88800007 	ldb	r2,0(r17)
  122308:	10009a26 	beq	r2,zero,122574 <___svfprintf_internal_r+0x384>
  12230c:	8dc00044 	addi	r23,r17,1
  122310:	8c400047 	ldb	r17,1(r17)
  122314:	0021883a 	mov	r16,zero
  122318:	00bfffc4 	movi	r2,-1
  12231c:	0025883a 	mov	r18,zero
  122320:	dc002905 	stb	r16,164(sp)
  122324:	d8002785 	stb	zero,158(sp)
  122328:	d8002b05 	stb	zero,172(sp)
  12232c:	d8802a15 	stw	r2,168(sp)
  122330:	d8003115 	stw	zero,196(sp)
  122334:	05001604 	movi	r20,88
  122338:	05800244 	movi	r22,9
  12233c:	4039883a 	mov	fp,r8
  122340:	9021883a 	mov	r16,r18
  122344:	bdc00044 	addi	r23,r23,1
  122348:	88bff804 	addi	r2,r17,-32
  12234c:	a0831e36 	bltu	r20,r2,122fc8 <___svfprintf_internal_r+0xdd8>
  122350:	100490ba 	slli	r2,r2,2
  122354:	00c004b4 	movhi	r3,18
  122358:	18c8da04 	addi	r3,r3,9064
  12235c:	10c5883a 	add	r2,r2,r3
  122360:	10800017 	ldw	r2,0(r2)
  122364:	1000683a 	jmp	r2
  122368:	00122f10 	cmplti	zero,zero,18620
  12236c:	00122fc8 	cmpgei	zero,zero,18623
  122370:	00122fc8 	cmpgei	zero,zero,18623
  122374:	00122f04 	movi	zero,18620
  122378:	00122fc8 	cmpgei	zero,zero,18623
  12237c:	00122fc8 	cmpgei	zero,zero,18623
  122380:	00122fc8 	cmpgei	zero,zero,18623
  122384:	00122fc8 	cmpgei	zero,zero,18623
  122388:	00122fc8 	cmpgei	zero,zero,18623
  12238c:	00122fc8 	cmpgei	zero,zero,18623
  122390:	001225d0 	cmplti	zero,zero,18583
  122394:	00122e14 	movui	zero,18616
  122398:	00122fc8 	cmpgei	zero,zero,18623
  12239c:	001224dc 	xori	zero,zero,18579
  1223a0:	001225f4 	movhi	zero,18583
  1223a4:	00122fc8 	cmpgei	zero,zero,18623
  1223a8:	00122680 	call	12268 <__alt_mem_onchip_flash_data-0x6dd98>
  1223ac:	00122644 	movi	zero,18585
  1223b0:	00122644 	movi	zero,18585
  1223b4:	00122644 	movi	zero,18585
  1223b8:	00122644 	movi	zero,18585
  1223bc:	00122644 	movi	zero,18585
  1223c0:	00122644 	movi	zero,18585
  1223c4:	00122644 	movi	zero,18585
  1223c8:	00122644 	movi	zero,18585
  1223cc:	00122644 	movi	zero,18585
  1223d0:	00122fc8 	cmpgei	zero,zero,18623
  1223d4:	00122fc8 	cmpgei	zero,zero,18623
  1223d8:	00122fc8 	cmpgei	zero,zero,18623
  1223dc:	00122fc8 	cmpgei	zero,zero,18623
  1223e0:	00122fc8 	cmpgei	zero,zero,18623
  1223e4:	00122fc8 	cmpgei	zero,zero,18623
  1223e8:	00122fc8 	cmpgei	zero,zero,18623
  1223ec:	00122fc8 	cmpgei	zero,zero,18623
  1223f0:	00122fc8 	cmpgei	zero,zero,18623
  1223f4:	00122fc8 	cmpgei	zero,zero,18623
  1223f8:	00122744 	movi	zero,18589
  1223fc:	0012268c 	andi	zero,zero,18586
  122400:	00122fc8 	cmpgei	zero,zero,18623
  122404:	0012268c 	andi	zero,zero,18586
  122408:	00122fc8 	cmpgei	zero,zero,18623
  12240c:	00122fc8 	cmpgei	zero,zero,18623
  122410:	00122fc8 	cmpgei	zero,zero,18623
  122414:	00122fc8 	cmpgei	zero,zero,18623
  122418:	00122738 	rdprs	zero,zero,18588
  12241c:	00122fc8 	cmpgei	zero,zero,18623
  122420:	00122fc8 	cmpgei	zero,zero,18623
  122424:	0012280c 	andi	zero,zero,18592
  122428:	00122fc8 	cmpgei	zero,zero,18623
  12242c:	00122fc8 	cmpgei	zero,zero,18623
  122430:	00122fc8 	cmpgei	zero,zero,18623
  122434:	00122fc8 	cmpgei	zero,zero,18623
  122438:	00122fc8 	cmpgei	zero,zero,18623
  12243c:	00122c88 	cmpgei	zero,zero,18610
  122440:	00122fc8 	cmpgei	zero,zero,18623
  122444:	00122fc8 	cmpgei	zero,zero,18623
  122448:	00122cf4 	movhi	zero,18611
  12244c:	00122fc8 	cmpgei	zero,zero,18623
  122450:	00122fc8 	cmpgei	zero,zero,18623
  122454:	00122fc8 	cmpgei	zero,zero,18623
  122458:	00122fc8 	cmpgei	zero,zero,18623
  12245c:	00122fc8 	cmpgei	zero,zero,18623
  122460:	00122fc8 	cmpgei	zero,zero,18623
  122464:	00122fc8 	cmpgei	zero,zero,18623
  122468:	00122fc8 	cmpgei	zero,zero,18623
  12246c:	00122fc8 	cmpgei	zero,zero,18623
  122470:	00122fc8 	cmpgei	zero,zero,18623
  122474:	00122db0 	cmpltui	zero,zero,18614
  122478:	00122f30 	cmpltui	zero,zero,18620
  12247c:	0012268c 	andi	zero,zero,18586
  122480:	0012268c 	andi	zero,zero,18586
  122484:	0012268c 	andi	zero,zero,18586
  122488:	00122fa4 	muli	zero,zero,18622
  12248c:	00122f30 	cmpltui	zero,zero,18620
  122490:	00122fc8 	cmpgei	zero,zero,18623
  122494:	00122fc8 	cmpgei	zero,zero,18623
  122498:	00122f50 	cmplti	zero,zero,18621
  12249c:	00122fc8 	cmpgei	zero,zero,18623
  1224a0:	00122f64 	muli	zero,zero,18621
  1224a4:	00122df4 	movhi	zero,18615
  1224a8:	001224e8 	cmpgeui	zero,zero,18579
  1224ac:	00122e2c 	andhi	zero,zero,18616
  1224b0:	00122fc8 	cmpgei	zero,zero,18623
  1224b4:	00122e38 	rdprs	zero,zero,18616
  1224b8:	00122fc8 	cmpgei	zero,zero,18623
  1224bc:	00122e9c 	xori	zero,zero,18618
  1224c0:	00122fc8 	cmpgei	zero,zero,18623
  1224c4:	00122fc8 	cmpgei	zero,zero,18623
  1224c8:	00122ebc 	xorhi	zero,zero,18618
  1224cc:	d8c03117 	ldw	r3,196(sp)
  1224d0:	d8802e15 	stw	r2,184(sp)
  1224d4:	00c7c83a 	sub	r3,zero,r3
  1224d8:	d8c03115 	stw	r3,196(sp)
  1224dc:	84000114 	ori	r16,r16,4
  1224e0:	bc400007 	ldb	r17,0(r23)
  1224e4:	003f9706 	br	122344 <_gp+0xfffdec6c>
  1224e8:	00800c04 	movi	r2,48
  1224ec:	d8802705 	stb	r2,156(sp)
  1224f0:	00801e04 	movi	r2,120
  1224f4:	d8802745 	stb	r2,157(sp)
  1224f8:	d9002a17 	ldw	r4,168(sp)
  1224fc:	d8802e17 	ldw	r2,184(sp)
  122500:	d8002785 	stb	zero,158(sp)
  122504:	e011883a 	mov	r8,fp
  122508:	10c00104 	addi	r3,r2,4
  12250c:	15000017 	ldw	r20,0(r2)
  122510:	002d883a 	mov	r22,zero
  122514:	80800094 	ori	r2,r16,2
  122518:	2002b616 	blt	r4,zero,122ff4 <___svfprintf_internal_r+0xe04>
  12251c:	00bfdfc4 	movi	r2,-129
  122520:	80a4703a 	and	r18,r16,r2
  122524:	d8c02e15 	stw	r3,184(sp)
  122528:	94800094 	ori	r18,r18,2
  12252c:	a002a01e 	bne	r20,zero,122fb0 <___svfprintf_internal_r+0xdc0>
  122530:	01400534 	movhi	r5,20
  122534:	2964c004 	addi	r5,r5,-27904
  122538:	d9403a15 	stw	r5,232(sp)
  12253c:	04401e04 	movi	r17,120
  122540:	d8c02a17 	ldw	r3,168(sp)
  122544:	0039883a 	mov	fp,zero
  122548:	1801e626 	beq	r3,zero,122ce4 <___svfprintf_internal_r+0xaf4>
  12254c:	0029883a 	mov	r20,zero
  122550:	002d883a 	mov	r22,zero
  122554:	00020506 	br	122d6c <___svfprintf_internal_r+0xb7c>
  122558:	d9402d17 	ldw	r5,180(sp)
  12255c:	d9801e04 	addi	r6,sp,120
  122560:	9809883a 	mov	r4,r19
  122564:	012bc1c0 	call	12bc1c <__ssprint_r>
  122568:	1000081e 	bne	r2,zero,12258c <___svfprintf_internal_r+0x39c>
  12256c:	da000404 	addi	r8,sp,16
  122570:	003f6106 	br	1222f8 <_gp+0xfffdec20>
  122574:	d8802017 	ldw	r2,128(sp)
  122578:	10000426 	beq	r2,zero,12258c <___svfprintf_internal_r+0x39c>
  12257c:	d9402d17 	ldw	r5,180(sp)
  122580:	d9003917 	ldw	r4,228(sp)
  122584:	d9801e04 	addi	r6,sp,120
  122588:	012bc1c0 	call	12bc1c <__ssprint_r>
  12258c:	d8802d17 	ldw	r2,180(sp)
  122590:	10c0030b 	ldhu	r3,12(r2)
  122594:	d8802f17 	ldw	r2,188(sp)
  122598:	18c0100c 	andi	r3,r3,64
  12259c:	1806251e 	bne	r3,zero,123e34 <___svfprintf_internal_r+0x1c44>
  1225a0:	dfc04817 	ldw	ra,288(sp)
  1225a4:	df004717 	ldw	fp,284(sp)
  1225a8:	ddc04617 	ldw	r23,280(sp)
  1225ac:	dd804517 	ldw	r22,276(sp)
  1225b0:	dd404417 	ldw	r21,272(sp)
  1225b4:	dd004317 	ldw	r20,268(sp)
  1225b8:	dcc04217 	ldw	r19,264(sp)
  1225bc:	dc804117 	ldw	r18,260(sp)
  1225c0:	dc404017 	ldw	r17,256(sp)
  1225c4:	dc003f17 	ldw	r16,252(sp)
  1225c8:	dec04904 	addi	sp,sp,292
  1225cc:	f800283a 	ret
  1225d0:	d9002e17 	ldw	r4,184(sp)
  1225d4:	d9402e17 	ldw	r5,184(sp)
  1225d8:	21000017 	ldw	r4,0(r4)
  1225dc:	28800104 	addi	r2,r5,4
  1225e0:	d9003115 	stw	r4,196(sp)
  1225e4:	203fb916 	blt	r4,zero,1224cc <_gp+0xfffdedf4>
  1225e8:	d8802e15 	stw	r2,184(sp)
  1225ec:	bc400007 	ldb	r17,0(r23)
  1225f0:	003f5406 	br	122344 <_gp+0xfffdec6c>
  1225f4:	bc400007 	ldb	r17,0(r23)
  1225f8:	01000a84 	movi	r4,42
  1225fc:	b8c00044 	addi	r3,r23,1
  122600:	89076926 	beq	r17,r4,1243a8 <___svfprintf_internal_r+0x21b8>
  122604:	8cbff404 	addi	r18,r17,-48
  122608:	b486b936 	bltu	r22,r18,1240f0 <___svfprintf_internal_r+0x1f00>
  12260c:	0009883a 	mov	r4,zero
  122610:	1823883a 	mov	r17,r3
  122614:	01400284 	movi	r5,10
  122618:	01213680 	call	121368 <__mulsi3>
  12261c:	88c00007 	ldb	r3,0(r17)
  122620:	1489883a 	add	r4,r2,r18
  122624:	8dc00044 	addi	r23,r17,1
  122628:	1cbff404 	addi	r18,r3,-48
  12262c:	b823883a 	mov	r17,r23
  122630:	b4bff82e 	bgeu	r22,r18,122614 <_gp+0xfffdef3c>
  122634:	1823883a 	mov	r17,r3
  122638:	20060416 	blt	r4,zero,123e4c <___svfprintf_internal_r+0x1c5c>
  12263c:	d9002a15 	stw	r4,168(sp)
  122640:	003f4106 	br	122348 <_gp+0xfffdec70>
  122644:	8cbff404 	addi	r18,r17,-48
  122648:	d8003115 	stw	zero,196(sp)
  12264c:	0009883a 	mov	r4,zero
  122650:	b823883a 	mov	r17,r23
  122654:	01400284 	movi	r5,10
  122658:	01213680 	call	121368 <__mulsi3>
  12265c:	88c00007 	ldb	r3,0(r17)
  122660:	9089883a 	add	r4,r18,r2
  122664:	bdc00044 	addi	r23,r23,1
  122668:	1cbff404 	addi	r18,r3,-48
  12266c:	b823883a 	mov	r17,r23
  122670:	b4bff82e 	bgeu	r22,r18,122654 <_gp+0xfffdef7c>
  122674:	1823883a 	mov	r17,r3
  122678:	d9003115 	stw	r4,196(sp)
  12267c:	003f3206 	br	122348 <_gp+0xfffdec70>
  122680:	84002014 	ori	r16,r16,128
  122684:	bc400007 	ldb	r17,0(r23)
  122688:	003f2e06 	br	122344 <_gp+0xfffdec6c>
  12268c:	8025883a 	mov	r18,r16
  122690:	dc002903 	ldbu	r16,164(sp)
  122694:	e011883a 	mov	r8,fp
  122698:	84003fcc 	andi	r16,r16,255
  12269c:	8007721e 	bne	r16,zero,124468 <___svfprintf_internal_r+0x2278>
  1226a0:	9080020c 	andi	r2,r18,8
  1226a4:	1004a526 	beq	r2,zero,12393c <___svfprintf_internal_r+0x174c>
  1226a8:	d9002e17 	ldw	r4,184(sp)
  1226ac:	d9402e17 	ldw	r5,184(sp)
  1226b0:	d8802e17 	ldw	r2,184(sp)
  1226b4:	21000017 	ldw	r4,0(r4)
  1226b8:	29400117 	ldw	r5,4(r5)
  1226bc:	10800204 	addi	r2,r2,8
  1226c0:	d9003615 	stw	r4,216(sp)
  1226c4:	d9403715 	stw	r5,220(sp)
  1226c8:	d8802e15 	stw	r2,184(sp)
  1226cc:	d9003617 	ldw	r4,216(sp)
  1226d0:	d9403717 	ldw	r5,220(sp)
  1226d4:	da003e15 	stw	r8,248(sp)
  1226d8:	04000044 	movi	r16,1
  1226dc:	01295b00 	call	1295b0 <__fpclassifyd>
  1226e0:	da003e17 	ldw	r8,248(sp)
  1226e4:	1404731e 	bne	r2,r16,1238b4 <___svfprintf_internal_r+0x16c4>
  1226e8:	d9003617 	ldw	r4,216(sp)
  1226ec:	d9403717 	ldw	r5,220(sp)
  1226f0:	000d883a 	mov	r6,zero
  1226f4:	000f883a 	mov	r7,zero
  1226f8:	0132c1c0 	call	132c1c <__ledf2>
  1226fc:	da003e17 	ldw	r8,248(sp)
  122700:	10061b16 	blt	r2,zero,123f70 <___svfprintf_internal_r+0x1d80>
  122704:	df002783 	ldbu	fp,158(sp)
  122708:	008011c4 	movi	r2,71
  12270c:	1445810e 	bge	r2,r17,123d14 <___svfprintf_internal_r+0x1b24>
  122710:	04000534 	movhi	r16,20
  122714:	8424b804 	addi	r16,r16,-27936
  122718:	00c000c4 	movi	r3,3
  12271c:	00bfdfc4 	movi	r2,-129
  122720:	d8c02915 	stw	r3,164(sp)
  122724:	90a4703a 	and	r18,r18,r2
  122728:	d8c02b15 	stw	r3,172(sp)
  12272c:	d8002a15 	stw	zero,168(sp)
  122730:	d8003215 	stw	zero,200(sp)
  122734:	00006c06 	br	1228e8 <___svfprintf_internal_r+0x6f8>
  122738:	84000214 	ori	r16,r16,8
  12273c:	bc400007 	ldb	r17,0(r23)
  122740:	003f0006 	br	122344 <_gp+0xfffdec6c>
  122744:	8025883a 	mov	r18,r16
  122748:	dc002903 	ldbu	r16,164(sp)
  12274c:	e011883a 	mov	r8,fp
  122750:	84003fcc 	andi	r16,r16,255
  122754:	80073f1e 	bne	r16,zero,124454 <___svfprintf_internal_r+0x2264>
  122758:	94800414 	ori	r18,r18,16
  12275c:	9080080c 	andi	r2,r18,32
  122760:	1003bb26 	beq	r2,zero,123650 <___svfprintf_internal_r+0x1460>
  122764:	d9002e17 	ldw	r4,184(sp)
  122768:	20800117 	ldw	r2,4(r4)
  12276c:	25000017 	ldw	r20,0(r4)
  122770:	21000204 	addi	r4,r4,8
  122774:	d9002e15 	stw	r4,184(sp)
  122778:	102d883a 	mov	r22,r2
  12277c:	1003bd16 	blt	r2,zero,123674 <___svfprintf_internal_r+0x1484>
  122780:	d9002a17 	ldw	r4,168(sp)
  122784:	df002783 	ldbu	fp,158(sp)
  122788:	2003d016 	blt	r4,zero,1236cc <___svfprintf_internal_r+0x14dc>
  12278c:	00ffdfc4 	movi	r3,-129
  122790:	a584b03a 	or	r2,r20,r22
  122794:	90e4703a 	and	r18,r18,r3
  122798:	10015026 	beq	r2,zero,122cdc <___svfprintf_internal_r+0xaec>
  12279c:	b0037026 	beq	r22,zero,123560 <___svfprintf_internal_r+0x1370>
  1227a0:	dc402915 	stw	r17,164(sp)
  1227a4:	dc001e04 	addi	r16,sp,120
  1227a8:	b023883a 	mov	r17,r22
  1227ac:	402d883a 	mov	r22,r8
  1227b0:	a009883a 	mov	r4,r20
  1227b4:	880b883a 	mov	r5,r17
  1227b8:	01800284 	movi	r6,10
  1227bc:	000f883a 	mov	r7,zero
  1227c0:	013107c0 	call	13107c <__umoddi3>
  1227c4:	10800c04 	addi	r2,r2,48
  1227c8:	843fffc4 	addi	r16,r16,-1
  1227cc:	a009883a 	mov	r4,r20
  1227d0:	880b883a 	mov	r5,r17
  1227d4:	80800005 	stb	r2,0(r16)
  1227d8:	01800284 	movi	r6,10
  1227dc:	000f883a 	mov	r7,zero
  1227e0:	0130a800 	call	130a80 <__udivdi3>
  1227e4:	1029883a 	mov	r20,r2
  1227e8:	10c4b03a 	or	r2,r2,r3
  1227ec:	1823883a 	mov	r17,r3
  1227f0:	103fef1e 	bne	r2,zero,1227b0 <_gp+0xfffdf0d8>
  1227f4:	d8c02817 	ldw	r3,160(sp)
  1227f8:	dc402917 	ldw	r17,164(sp)
  1227fc:	b011883a 	mov	r8,r22
  122800:	1c07c83a 	sub	r3,r3,r16
  122804:	d8c02b15 	stw	r3,172(sp)
  122808:	00003106 	br	1228d0 <___svfprintf_internal_r+0x6e0>
  12280c:	8025883a 	mov	r18,r16
  122810:	dc002903 	ldbu	r16,164(sp)
  122814:	e011883a 	mov	r8,fp
  122818:	84003fcc 	andi	r16,r16,255
  12281c:	80070a1e 	bne	r16,zero,124448 <___svfprintf_internal_r+0x2258>
  122820:	94800414 	ori	r18,r18,16
  122824:	9080080c 	andi	r2,r18,32
  122828:	1002f626 	beq	r2,zero,123404 <___svfprintf_internal_r+0x1214>
  12282c:	d9002e17 	ldw	r4,184(sp)
  122830:	d9402a17 	ldw	r5,168(sp)
  122834:	d8002785 	stb	zero,158(sp)
  122838:	20800204 	addi	r2,r4,8
  12283c:	25000017 	ldw	r20,0(r4)
  122840:	25800117 	ldw	r22,4(r4)
  122844:	28043716 	blt	r5,zero,123924 <___svfprintf_internal_r+0x1734>
  122848:	013fdfc4 	movi	r4,-129
  12284c:	a586b03a 	or	r3,r20,r22
  122850:	d8802e15 	stw	r2,184(sp)
  122854:	9124703a 	and	r18,r18,r4
  122858:	1802f71e 	bne	r3,zero,123438 <___svfprintf_internal_r+0x1248>
  12285c:	d9402a17 	ldw	r5,168(sp)
  122860:	0039883a 	mov	fp,zero
  122864:	2806df26 	beq	r5,zero,1243e4 <___svfprintf_internal_r+0x21f4>
  122868:	0029883a 	mov	r20,zero
  12286c:	002d883a 	mov	r22,zero
  122870:	dc001e04 	addi	r16,sp,120
  122874:	a006d0fa 	srli	r3,r20,3
  122878:	b008977a 	slli	r4,r22,29
  12287c:	b02cd0fa 	srli	r22,r22,3
  122880:	a50001cc 	andi	r20,r20,7
  122884:	a0800c04 	addi	r2,r20,48
  122888:	843fffc4 	addi	r16,r16,-1
  12288c:	20e8b03a 	or	r20,r4,r3
  122890:	80800005 	stb	r2,0(r16)
  122894:	a586b03a 	or	r3,r20,r22
  122898:	183ff61e 	bne	r3,zero,122874 <_gp+0xfffdf19c>
  12289c:	90c0004c 	andi	r3,r18,1
  1228a0:	18013f26 	beq	r3,zero,122da0 <___svfprintf_internal_r+0xbb0>
  1228a4:	10803fcc 	andi	r2,r2,255
  1228a8:	1080201c 	xori	r2,r2,128
  1228ac:	10bfe004 	addi	r2,r2,-128
  1228b0:	00c00c04 	movi	r3,48
  1228b4:	10c13a26 	beq	r2,r3,122da0 <___svfprintf_internal_r+0xbb0>
  1228b8:	80ffffc5 	stb	r3,-1(r16)
  1228bc:	d8c02817 	ldw	r3,160(sp)
  1228c0:	80bfffc4 	addi	r2,r16,-1
  1228c4:	1021883a 	mov	r16,r2
  1228c8:	1887c83a 	sub	r3,r3,r2
  1228cc:	d8c02b15 	stw	r3,172(sp)
  1228d0:	d8802b17 	ldw	r2,172(sp)
  1228d4:	d9002a17 	ldw	r4,168(sp)
  1228d8:	1100010e 	bge	r2,r4,1228e0 <___svfprintf_internal_r+0x6f0>
  1228dc:	2005883a 	mov	r2,r4
  1228e0:	d8802915 	stw	r2,164(sp)
  1228e4:	d8003215 	stw	zero,200(sp)
  1228e8:	e7003fcc 	andi	fp,fp,255
  1228ec:	e700201c 	xori	fp,fp,128
  1228f0:	e73fe004 	addi	fp,fp,-128
  1228f4:	e0000326 	beq	fp,zero,122904 <___svfprintf_internal_r+0x714>
  1228f8:	d8c02917 	ldw	r3,164(sp)
  1228fc:	18c00044 	addi	r3,r3,1
  122900:	d8c02915 	stw	r3,164(sp)
  122904:	90c0008c 	andi	r3,r18,2
  122908:	d8c02c15 	stw	r3,176(sp)
  12290c:	18000326 	beq	r3,zero,12291c <___svfprintf_internal_r+0x72c>
  122910:	d8c02917 	ldw	r3,164(sp)
  122914:	18c00084 	addi	r3,r3,2
  122918:	d8c02915 	stw	r3,164(sp)
  12291c:	90c0210c 	andi	r3,r18,132
  122920:	d8c03015 	stw	r3,192(sp)
  122924:	1801c31e 	bne	r3,zero,123034 <___svfprintf_internal_r+0xe44>
  122928:	d9003117 	ldw	r4,196(sp)
  12292c:	d8c02917 	ldw	r3,164(sp)
  122930:	20e9c83a 	sub	r20,r4,r3
  122934:	0501bf0e 	bge	zero,r20,123034 <___svfprintf_internal_r+0xe44>
  122938:	02400404 	movi	r9,16
  12293c:	d8c02017 	ldw	r3,128(sp)
  122940:	d8801f17 	ldw	r2,124(sp)
  122944:	4d053d0e 	bge	r9,r20,123e3c <___svfprintf_internal_r+0x1c4c>
  122948:	01400534 	movhi	r5,20
  12294c:	2964cb84 	addi	r5,r5,-27858
  122950:	dc403c15 	stw	r17,240(sp)
  122954:	d9403515 	stw	r5,212(sp)
  122958:	a023883a 	mov	r17,r20
  12295c:	482d883a 	mov	r22,r9
  122960:	9029883a 	mov	r20,r18
  122964:	070001c4 	movi	fp,7
  122968:	8025883a 	mov	r18,r16
  12296c:	dc002d17 	ldw	r16,180(sp)
  122970:	00000306 	br	122980 <___svfprintf_internal_r+0x790>
  122974:	8c7ffc04 	addi	r17,r17,-16
  122978:	42000204 	addi	r8,r8,8
  12297c:	b440130e 	bge	r22,r17,1229cc <___svfprintf_internal_r+0x7dc>
  122980:	01000534 	movhi	r4,20
  122984:	18c00404 	addi	r3,r3,16
  122988:	10800044 	addi	r2,r2,1
  12298c:	2124cb84 	addi	r4,r4,-27858
  122990:	41000015 	stw	r4,0(r8)
  122994:	45800115 	stw	r22,4(r8)
  122998:	d8c02015 	stw	r3,128(sp)
  12299c:	d8801f15 	stw	r2,124(sp)
  1229a0:	e0bff40e 	bge	fp,r2,122974 <_gp+0xfffdf29c>
  1229a4:	d9801e04 	addi	r6,sp,120
  1229a8:	800b883a 	mov	r5,r16
  1229ac:	9809883a 	mov	r4,r19
  1229b0:	012bc1c0 	call	12bc1c <__ssprint_r>
  1229b4:	103ef51e 	bne	r2,zero,12258c <_gp+0xfffdeeb4>
  1229b8:	8c7ffc04 	addi	r17,r17,-16
  1229bc:	d8c02017 	ldw	r3,128(sp)
  1229c0:	d8801f17 	ldw	r2,124(sp)
  1229c4:	da000404 	addi	r8,sp,16
  1229c8:	b47fed16 	blt	r22,r17,122980 <_gp+0xfffdf2a8>
  1229cc:	9021883a 	mov	r16,r18
  1229d0:	a025883a 	mov	r18,r20
  1229d4:	8829883a 	mov	r20,r17
  1229d8:	dc403c17 	ldw	r17,240(sp)
  1229dc:	d9403517 	ldw	r5,212(sp)
  1229e0:	a0c7883a 	add	r3,r20,r3
  1229e4:	10800044 	addi	r2,r2,1
  1229e8:	41400015 	stw	r5,0(r8)
  1229ec:	45000115 	stw	r20,4(r8)
  1229f0:	d8c02015 	stw	r3,128(sp)
  1229f4:	d8801f15 	stw	r2,124(sp)
  1229f8:	010001c4 	movi	r4,7
  1229fc:	2082c116 	blt	r4,r2,123504 <___svfprintf_internal_r+0x1314>
  122a00:	df002787 	ldb	fp,158(sp)
  122a04:	42000204 	addi	r8,r8,8
  122a08:	e0000c26 	beq	fp,zero,122a3c <___svfprintf_internal_r+0x84c>
  122a0c:	d8801f17 	ldw	r2,124(sp)
  122a10:	d9002784 	addi	r4,sp,158
  122a14:	18c00044 	addi	r3,r3,1
  122a18:	10800044 	addi	r2,r2,1
  122a1c:	41000015 	stw	r4,0(r8)
  122a20:	01000044 	movi	r4,1
  122a24:	41000115 	stw	r4,4(r8)
  122a28:	d8c02015 	stw	r3,128(sp)
  122a2c:	d8801f15 	stw	r2,124(sp)
  122a30:	010001c4 	movi	r4,7
  122a34:	20825a16 	blt	r4,r2,1233a0 <___svfprintf_internal_r+0x11b0>
  122a38:	42000204 	addi	r8,r8,8
  122a3c:	d8802c17 	ldw	r2,176(sp)
  122a40:	10000c26 	beq	r2,zero,122a74 <___svfprintf_internal_r+0x884>
  122a44:	d8801f17 	ldw	r2,124(sp)
  122a48:	d9002704 	addi	r4,sp,156
  122a4c:	18c00084 	addi	r3,r3,2
  122a50:	10800044 	addi	r2,r2,1
  122a54:	41000015 	stw	r4,0(r8)
  122a58:	01000084 	movi	r4,2
  122a5c:	41000115 	stw	r4,4(r8)
  122a60:	d8c02015 	stw	r3,128(sp)
  122a64:	d8801f15 	stw	r2,124(sp)
  122a68:	010001c4 	movi	r4,7
  122a6c:	20825416 	blt	r4,r2,1233c0 <___svfprintf_internal_r+0x11d0>
  122a70:	42000204 	addi	r8,r8,8
  122a74:	d9003017 	ldw	r4,192(sp)
  122a78:	00802004 	movi	r2,128
  122a7c:	2081b926 	beq	r4,r2,123164 <___svfprintf_internal_r+0xf74>
  122a80:	d9402a17 	ldw	r5,168(sp)
  122a84:	d8802b17 	ldw	r2,172(sp)
  122a88:	28adc83a 	sub	r22,r5,r2
  122a8c:	05802f0e 	bge	zero,r22,122b4c <___svfprintf_internal_r+0x95c>
  122a90:	07000404 	movi	fp,16
  122a94:	d8801f17 	ldw	r2,124(sp)
  122a98:	e583e20e 	bge	fp,r22,123a24 <___svfprintf_internal_r+0x1834>
  122a9c:	01400534 	movhi	r5,20
  122aa0:	2964c784 	addi	r5,r5,-27874
  122aa4:	dc402a15 	stw	r17,168(sp)
  122aa8:	d9402c15 	stw	r5,176(sp)
  122aac:	b023883a 	mov	r17,r22
  122ab0:	050001c4 	movi	r20,7
  122ab4:	902d883a 	mov	r22,r18
  122ab8:	8025883a 	mov	r18,r16
  122abc:	dc002d17 	ldw	r16,180(sp)
  122ac0:	00000306 	br	122ad0 <___svfprintf_internal_r+0x8e0>
  122ac4:	8c7ffc04 	addi	r17,r17,-16
  122ac8:	42000204 	addi	r8,r8,8
  122acc:	e440110e 	bge	fp,r17,122b14 <___svfprintf_internal_r+0x924>
  122ad0:	18c00404 	addi	r3,r3,16
  122ad4:	10800044 	addi	r2,r2,1
  122ad8:	45400015 	stw	r21,0(r8)
  122adc:	47000115 	stw	fp,4(r8)
  122ae0:	d8c02015 	stw	r3,128(sp)
  122ae4:	d8801f15 	stw	r2,124(sp)
  122ae8:	a0bff60e 	bge	r20,r2,122ac4 <_gp+0xfffdf3ec>
  122aec:	d9801e04 	addi	r6,sp,120
  122af0:	800b883a 	mov	r5,r16
  122af4:	9809883a 	mov	r4,r19
  122af8:	012bc1c0 	call	12bc1c <__ssprint_r>
  122afc:	103ea31e 	bne	r2,zero,12258c <_gp+0xfffdeeb4>
  122b00:	8c7ffc04 	addi	r17,r17,-16
  122b04:	d8c02017 	ldw	r3,128(sp)
  122b08:	d8801f17 	ldw	r2,124(sp)
  122b0c:	da000404 	addi	r8,sp,16
  122b10:	e47fef16 	blt	fp,r17,122ad0 <_gp+0xfffdf3f8>
  122b14:	9021883a 	mov	r16,r18
  122b18:	b025883a 	mov	r18,r22
  122b1c:	882d883a 	mov	r22,r17
  122b20:	dc402a17 	ldw	r17,168(sp)
  122b24:	d9002c17 	ldw	r4,176(sp)
  122b28:	1d87883a 	add	r3,r3,r22
  122b2c:	10800044 	addi	r2,r2,1
  122b30:	41000015 	stw	r4,0(r8)
  122b34:	45800115 	stw	r22,4(r8)
  122b38:	d8c02015 	stw	r3,128(sp)
  122b3c:	d8801f15 	stw	r2,124(sp)
  122b40:	010001c4 	movi	r4,7
  122b44:	20820e16 	blt	r4,r2,123380 <___svfprintf_internal_r+0x1190>
  122b48:	42000204 	addi	r8,r8,8
  122b4c:	9080400c 	andi	r2,r18,256
  122b50:	10013a1e 	bne	r2,zero,12303c <___svfprintf_internal_r+0xe4c>
  122b54:	d9402b17 	ldw	r5,172(sp)
  122b58:	d8801f17 	ldw	r2,124(sp)
  122b5c:	44000015 	stw	r16,0(r8)
  122b60:	1947883a 	add	r3,r3,r5
  122b64:	10800044 	addi	r2,r2,1
  122b68:	41400115 	stw	r5,4(r8)
  122b6c:	d8c02015 	stw	r3,128(sp)
  122b70:	d8801f15 	stw	r2,124(sp)
  122b74:	010001c4 	movi	r4,7
  122b78:	2081f316 	blt	r4,r2,123348 <___svfprintf_internal_r+0x1158>
  122b7c:	42000204 	addi	r8,r8,8
  122b80:	9480010c 	andi	r18,r18,4
  122b84:	90003226 	beq	r18,zero,122c50 <___svfprintf_internal_r+0xa60>
  122b88:	d9403117 	ldw	r5,196(sp)
  122b8c:	d8802917 	ldw	r2,164(sp)
  122b90:	28a1c83a 	sub	r16,r5,r2
  122b94:	04002e0e 	bge	zero,r16,122c50 <___svfprintf_internal_r+0xa60>
  122b98:	04400404 	movi	r17,16
  122b9c:	d8801f17 	ldw	r2,124(sp)
  122ba0:	8c04db0e 	bge	r17,r16,123f10 <___svfprintf_internal_r+0x1d20>
  122ba4:	01400534 	movhi	r5,20
  122ba8:	2964cb84 	addi	r5,r5,-27858
  122bac:	d9403515 	stw	r5,212(sp)
  122bb0:	048001c4 	movi	r18,7
  122bb4:	dd002d17 	ldw	r20,180(sp)
  122bb8:	00000306 	br	122bc8 <___svfprintf_internal_r+0x9d8>
  122bbc:	843ffc04 	addi	r16,r16,-16
  122bc0:	42000204 	addi	r8,r8,8
  122bc4:	8c00130e 	bge	r17,r16,122c14 <___svfprintf_internal_r+0xa24>
  122bc8:	01000534 	movhi	r4,20
  122bcc:	18c00404 	addi	r3,r3,16
  122bd0:	10800044 	addi	r2,r2,1
  122bd4:	2124cb84 	addi	r4,r4,-27858
  122bd8:	41000015 	stw	r4,0(r8)
  122bdc:	44400115 	stw	r17,4(r8)
  122be0:	d8c02015 	stw	r3,128(sp)
  122be4:	d8801f15 	stw	r2,124(sp)
  122be8:	90bff40e 	bge	r18,r2,122bbc <_gp+0xfffdf4e4>
  122bec:	d9801e04 	addi	r6,sp,120
  122bf0:	a00b883a 	mov	r5,r20
  122bf4:	9809883a 	mov	r4,r19
  122bf8:	012bc1c0 	call	12bc1c <__ssprint_r>
  122bfc:	103e631e 	bne	r2,zero,12258c <_gp+0xfffdeeb4>
  122c00:	843ffc04 	addi	r16,r16,-16
  122c04:	d8c02017 	ldw	r3,128(sp)
  122c08:	d8801f17 	ldw	r2,124(sp)
  122c0c:	da000404 	addi	r8,sp,16
  122c10:	8c3fed16 	blt	r17,r16,122bc8 <_gp+0xfffdf4f0>
  122c14:	d9403517 	ldw	r5,212(sp)
  122c18:	1c07883a 	add	r3,r3,r16
  122c1c:	10800044 	addi	r2,r2,1
  122c20:	41400015 	stw	r5,0(r8)
  122c24:	44000115 	stw	r16,4(r8)
  122c28:	d8c02015 	stw	r3,128(sp)
  122c2c:	d8801f15 	stw	r2,124(sp)
  122c30:	010001c4 	movi	r4,7
  122c34:	2080060e 	bge	r4,r2,122c50 <___svfprintf_internal_r+0xa60>
  122c38:	d9402d17 	ldw	r5,180(sp)
  122c3c:	d9801e04 	addi	r6,sp,120
  122c40:	9809883a 	mov	r4,r19
  122c44:	012bc1c0 	call	12bc1c <__ssprint_r>
  122c48:	103e501e 	bne	r2,zero,12258c <_gp+0xfffdeeb4>
  122c4c:	d8c02017 	ldw	r3,128(sp)
  122c50:	d8803117 	ldw	r2,196(sp)
  122c54:	d9002917 	ldw	r4,164(sp)
  122c58:	1100010e 	bge	r2,r4,122c60 <___svfprintf_internal_r+0xa70>
  122c5c:	2005883a 	mov	r2,r4
  122c60:	d9402f17 	ldw	r5,188(sp)
  122c64:	288b883a 	add	r5,r5,r2
  122c68:	d9402f15 	stw	r5,188(sp)
  122c6c:	1801be1e 	bne	r3,zero,123368 <___svfprintf_internal_r+0x1178>
  122c70:	b8800007 	ldb	r2,0(r23)
  122c74:	d8001f15 	stw	zero,124(sp)
  122c78:	da000404 	addi	r8,sp,16
  122c7c:	103d891e 	bne	r2,zero,1222a4 <_gp+0xfffdebcc>
  122c80:	b823883a 	mov	r17,r23
  122c84:	003d9f06 	br	122304 <_gp+0xfffdec2c>
  122c88:	8025883a 	mov	r18,r16
  122c8c:	dc002903 	ldbu	r16,164(sp)
  122c90:	e011883a 	mov	r8,fp
  122c94:	84003fcc 	andi	r16,r16,255
  122c98:	8005e61e 	bne	r16,zero,124434 <___svfprintf_internal_r+0x2244>
  122c9c:	94800414 	ori	r18,r18,16
  122ca0:	9080080c 	andi	r2,r18,32
  122ca4:	10022026 	beq	r2,zero,123528 <___svfprintf_internal_r+0x1338>
  122ca8:	d9002e17 	ldw	r4,184(sp)
  122cac:	d9402a17 	ldw	r5,168(sp)
  122cb0:	d8002785 	stb	zero,158(sp)
  122cb4:	20c00204 	addi	r3,r4,8
  122cb8:	25000017 	ldw	r20,0(r4)
  122cbc:	25800117 	ldw	r22,4(r4)
  122cc0:	2803ad16 	blt	r5,zero,123b78 <___svfprintf_internal_r+0x1988>
  122cc4:	013fdfc4 	movi	r4,-129
  122cc8:	a584b03a 	or	r2,r20,r22
  122ccc:	d8c02e15 	stw	r3,184(sp)
  122cd0:	9124703a 	and	r18,r18,r4
  122cd4:	0039883a 	mov	fp,zero
  122cd8:	103eb01e 	bne	r2,zero,12279c <_gp+0xfffdf0c4>
  122cdc:	d8802a17 	ldw	r2,168(sp)
  122ce0:	1002e71e 	bne	r2,zero,123880 <___svfprintf_internal_r+0x1690>
  122ce4:	d8002a15 	stw	zero,168(sp)
  122ce8:	d8002b15 	stw	zero,172(sp)
  122cec:	dc001e04 	addi	r16,sp,120
  122cf0:	003ef706 	br	1228d0 <_gp+0xfffdf1f8>
  122cf4:	8025883a 	mov	r18,r16
  122cf8:	dc002903 	ldbu	r16,164(sp)
  122cfc:	e011883a 	mov	r8,fp
  122d00:	84003fcc 	andi	r16,r16,255
  122d04:	8005c81e 	bne	r16,zero,124428 <___svfprintf_internal_r+0x2238>
  122d08:	01000534 	movhi	r4,20
  122d0c:	2124bb04 	addi	r4,r4,-27924
  122d10:	d9003a15 	stw	r4,232(sp)
  122d14:	9080080c 	andi	r2,r18,32
  122d18:	10007226 	beq	r2,zero,122ee4 <___svfprintf_internal_r+0xcf4>
  122d1c:	d9402e17 	ldw	r5,184(sp)
  122d20:	2d000017 	ldw	r20,0(r5)
  122d24:	2d800117 	ldw	r22,4(r5)
  122d28:	29400204 	addi	r5,r5,8
  122d2c:	d9402e15 	stw	r5,184(sp)
  122d30:	9080004c 	andi	r2,r18,1
  122d34:	1001aa26 	beq	r2,zero,1233e0 <___svfprintf_internal_r+0x11f0>
  122d38:	a584b03a 	or	r2,r20,r22
  122d3c:	10032526 	beq	r2,zero,1239d4 <___svfprintf_internal_r+0x17e4>
  122d40:	d8c02a17 	ldw	r3,168(sp)
  122d44:	00800c04 	movi	r2,48
  122d48:	d8802705 	stb	r2,156(sp)
  122d4c:	dc402745 	stb	r17,157(sp)
  122d50:	d8002785 	stb	zero,158(sp)
  122d54:	90800094 	ori	r2,r18,2
  122d58:	1804a316 	blt	r3,zero,123fe8 <___svfprintf_internal_r+0x1df8>
  122d5c:	00bfdfc4 	movi	r2,-129
  122d60:	90a4703a 	and	r18,r18,r2
  122d64:	94800094 	ori	r18,r18,2
  122d68:	0039883a 	mov	fp,zero
  122d6c:	d9003a17 	ldw	r4,232(sp)
  122d70:	dc001e04 	addi	r16,sp,120
  122d74:	a08003cc 	andi	r2,r20,15
  122d78:	b006973a 	slli	r3,r22,28
  122d7c:	2085883a 	add	r2,r4,r2
  122d80:	a028d13a 	srli	r20,r20,4
  122d84:	10800003 	ldbu	r2,0(r2)
  122d88:	b02cd13a 	srli	r22,r22,4
  122d8c:	843fffc4 	addi	r16,r16,-1
  122d90:	1d28b03a 	or	r20,r3,r20
  122d94:	80800005 	stb	r2,0(r16)
  122d98:	a584b03a 	or	r2,r20,r22
  122d9c:	103ff51e 	bne	r2,zero,122d74 <_gp+0xfffdf69c>
  122da0:	d8c02817 	ldw	r3,160(sp)
  122da4:	1c07c83a 	sub	r3,r3,r16
  122da8:	d8c02b15 	stw	r3,172(sp)
  122dac:	003ec806 	br	1228d0 <_gp+0xfffdf1f8>
  122db0:	d8c02e17 	ldw	r3,184(sp)
  122db4:	d9002e17 	ldw	r4,184(sp)
  122db8:	8025883a 	mov	r18,r16
  122dbc:	18800017 	ldw	r2,0(r3)
  122dc0:	21000104 	addi	r4,r4,4
  122dc4:	00c00044 	movi	r3,1
  122dc8:	e011883a 	mov	r8,fp
  122dcc:	d8c02915 	stw	r3,164(sp)
  122dd0:	d8002785 	stb	zero,158(sp)
  122dd4:	d8801405 	stb	r2,80(sp)
  122dd8:	d9002e15 	stw	r4,184(sp)
  122ddc:	d8c02b15 	stw	r3,172(sp)
  122de0:	d8002a15 	stw	zero,168(sp)
  122de4:	d8003215 	stw	zero,200(sp)
  122de8:	dc001404 	addi	r16,sp,80
  122dec:	0039883a 	mov	fp,zero
  122df0:	003ec406 	br	122904 <_gp+0xfffdf22c>
  122df4:	8025883a 	mov	r18,r16
  122df8:	dc002903 	ldbu	r16,164(sp)
  122dfc:	e011883a 	mov	r8,fp
  122e00:	84003fcc 	andi	r16,r16,255
  122e04:	803e8726 	beq	r16,zero,122824 <_gp+0xfffdf14c>
  122e08:	d8c02b03 	ldbu	r3,172(sp)
  122e0c:	d8c02785 	stb	r3,158(sp)
  122e10:	003e8406 	br	122824 <_gp+0xfffdf14c>
  122e14:	00c00044 	movi	r3,1
  122e18:	d8c02905 	stb	r3,164(sp)
  122e1c:	00c00ac4 	movi	r3,43
  122e20:	d8c02b05 	stb	r3,172(sp)
  122e24:	bc400007 	ldb	r17,0(r23)
  122e28:	003d4606 	br	122344 <_gp+0xfffdec6c>
  122e2c:	84000814 	ori	r16,r16,32
  122e30:	bc400007 	ldb	r17,0(r23)
  122e34:	003d4306 	br	122344 <_gp+0xfffdec6c>
  122e38:	d8802e17 	ldw	r2,184(sp)
  122e3c:	8025883a 	mov	r18,r16
  122e40:	d8002785 	stb	zero,158(sp)
  122e44:	14000017 	ldw	r16,0(r2)
  122e48:	e011883a 	mov	r8,fp
  122e4c:	15000104 	addi	r20,r2,4
  122e50:	80042126 	beq	r16,zero,123ed8 <___svfprintf_internal_r+0x1ce8>
  122e54:	d8c02a17 	ldw	r3,168(sp)
  122e58:	1803ee16 	blt	r3,zero,123e14 <___svfprintf_internal_r+0x1c24>
  122e5c:	180d883a 	mov	r6,r3
  122e60:	000b883a 	mov	r5,zero
  122e64:	8009883a 	mov	r4,r16
  122e68:	df003e15 	stw	fp,248(sp)
  122e6c:	01283380 	call	128338 <memchr>
  122e70:	da003e17 	ldw	r8,248(sp)
  122e74:	10046a26 	beq	r2,zero,124020 <___svfprintf_internal_r+0x1e30>
  122e78:	1405c83a 	sub	r2,r2,r16
  122e7c:	d8802b15 	stw	r2,172(sp)
  122e80:	1003ea16 	blt	r2,zero,123e2c <___svfprintf_internal_r+0x1c3c>
  122e84:	df002783 	ldbu	fp,158(sp)
  122e88:	d8802915 	stw	r2,164(sp)
  122e8c:	dd002e15 	stw	r20,184(sp)
  122e90:	d8002a15 	stw	zero,168(sp)
  122e94:	d8003215 	stw	zero,200(sp)
  122e98:	003e9306 	br	1228e8 <_gp+0xfffdf210>
  122e9c:	8025883a 	mov	r18,r16
  122ea0:	dc002903 	ldbu	r16,164(sp)
  122ea4:	e011883a 	mov	r8,fp
  122ea8:	84003fcc 	andi	r16,r16,255
  122eac:	803f7c26 	beq	r16,zero,122ca0 <_gp+0xfffdf5c8>
  122eb0:	d8c02b03 	ldbu	r3,172(sp)
  122eb4:	d8c02785 	stb	r3,158(sp)
  122eb8:	003f7906 	br	122ca0 <_gp+0xfffdf5c8>
  122ebc:	8025883a 	mov	r18,r16
  122ec0:	dc002903 	ldbu	r16,164(sp)
  122ec4:	e011883a 	mov	r8,fp
  122ec8:	84003fcc 	andi	r16,r16,255
  122ecc:	8005741e 	bne	r16,zero,1244a0 <___svfprintf_internal_r+0x22b0>
  122ed0:	01000534 	movhi	r4,20
  122ed4:	2124c004 	addi	r4,r4,-27904
  122ed8:	d9003a15 	stw	r4,232(sp)
  122edc:	9080080c 	andi	r2,r18,32
  122ee0:	103f8e1e 	bne	r2,zero,122d1c <_gp+0xfffdf644>
  122ee4:	9080040c 	andi	r2,r18,16
  122ee8:	1002a726 	beq	r2,zero,123988 <___svfprintf_internal_r+0x1798>
  122eec:	d8802e17 	ldw	r2,184(sp)
  122ef0:	002d883a 	mov	r22,zero
  122ef4:	15000017 	ldw	r20,0(r2)
  122ef8:	10800104 	addi	r2,r2,4
  122efc:	d8802e15 	stw	r2,184(sp)
  122f00:	003f8b06 	br	122d30 <_gp+0xfffdf658>
  122f04:	84000054 	ori	r16,r16,1
  122f08:	bc400007 	ldb	r17,0(r23)
  122f0c:	003d0d06 	br	122344 <_gp+0xfffdec6c>
  122f10:	d8802b07 	ldb	r2,172(sp)
  122f14:	1002a41e 	bne	r2,zero,1239a8 <___svfprintf_internal_r+0x17b8>
  122f18:	00c00044 	movi	r3,1
  122f1c:	d8c02905 	stb	r3,164(sp)
  122f20:	00c00804 	movi	r3,32
  122f24:	d8c02b05 	stb	r3,172(sp)
  122f28:	bc400007 	ldb	r17,0(r23)
  122f2c:	003d0506 	br	122344 <_gp+0xfffdec6c>
  122f30:	8025883a 	mov	r18,r16
  122f34:	dc002903 	ldbu	r16,164(sp)
  122f38:	e011883a 	mov	r8,fp
  122f3c:	84003fcc 	andi	r16,r16,255
  122f40:	803e0626 	beq	r16,zero,12275c <_gp+0xfffdf084>
  122f44:	d8c02b03 	ldbu	r3,172(sp)
  122f48:	d8c02785 	stb	r3,158(sp)
  122f4c:	003e0306 	br	12275c <_gp+0xfffdf084>
  122f50:	bc400007 	ldb	r17,0(r23)
  122f54:	00801b04 	movi	r2,108
  122f58:	88830a26 	beq	r17,r2,123b84 <___svfprintf_internal_r+0x1994>
  122f5c:	84000414 	ori	r16,r16,16
  122f60:	003cf806 	br	122344 <_gp+0xfffdec6c>
  122f64:	8025883a 	mov	r18,r16
  122f68:	dc002903 	ldbu	r16,164(sp)
  122f6c:	e011883a 	mov	r8,fp
  122f70:	84003fcc 	andi	r16,r16,255
  122f74:	8005471e 	bne	r16,zero,124494 <___svfprintf_internal_r+0x22a4>
  122f78:	9080080c 	andi	r2,r18,32
  122f7c:	10028c26 	beq	r2,zero,1239b0 <___svfprintf_internal_r+0x17c0>
  122f80:	d9002e17 	ldw	r4,184(sp)
  122f84:	d9402f17 	ldw	r5,188(sp)
  122f88:	20800017 	ldw	r2,0(r4)
  122f8c:	2807d7fa 	srai	r3,r5,31
  122f90:	21000104 	addi	r4,r4,4
  122f94:	d9002e15 	stw	r4,184(sp)
  122f98:	11400015 	stw	r5,0(r2)
  122f9c:	10c00115 	stw	r3,4(r2)
  122fa0:	003cbe06 	br	12229c <_gp+0xfffdebc4>
  122fa4:	84001014 	ori	r16,r16,64
  122fa8:	bc400007 	ldb	r17,0(r23)
  122fac:	003ce506 	br	122344 <_gp+0xfffdec6c>
  122fb0:	01000534 	movhi	r4,20
  122fb4:	2124c004 	addi	r4,r4,-27904
  122fb8:	0039883a 	mov	fp,zero
  122fbc:	d9003a15 	stw	r4,232(sp)
  122fc0:	04401e04 	movi	r17,120
  122fc4:	003f6906 	br	122d6c <_gp+0xfffdf694>
  122fc8:	8025883a 	mov	r18,r16
  122fcc:	dc002903 	ldbu	r16,164(sp)
  122fd0:	e011883a 	mov	r8,fp
  122fd4:	84003fcc 	andi	r16,r16,255
  122fd8:	8005261e 	bne	r16,zero,124474 <___svfprintf_internal_r+0x2284>
  122fdc:	883d6526 	beq	r17,zero,122574 <_gp+0xfffdee9c>
  122fe0:	00c00044 	movi	r3,1
  122fe4:	d8c02915 	stw	r3,164(sp)
  122fe8:	dc401405 	stb	r17,80(sp)
  122fec:	d8002785 	stb	zero,158(sp)
  122ff0:	003f7a06 	br	122ddc <_gp+0xfffdf704>
  122ff4:	01000534 	movhi	r4,20
  122ff8:	2124c004 	addi	r4,r4,-27904
  122ffc:	d9003a15 	stw	r4,232(sp)
  123000:	d8c02e15 	stw	r3,184(sp)
  123004:	1025883a 	mov	r18,r2
  123008:	04401e04 	movi	r17,120
  12300c:	a584b03a 	or	r2,r20,r22
  123010:	1000fa1e 	bne	r2,zero,1233fc <___svfprintf_internal_r+0x120c>
  123014:	0039883a 	mov	fp,zero
  123018:	00800084 	movi	r2,2
  12301c:	10803fcc 	andi	r2,r2,255
  123020:	00c00044 	movi	r3,1
  123024:	10c21626 	beq	r2,r3,123880 <___svfprintf_internal_r+0x1690>
  123028:	00c00084 	movi	r3,2
  12302c:	10fe0e1e 	bne	r2,r3,122868 <_gp+0xfffdf190>
  123030:	003d4606 	br	12254c <_gp+0xfffdee74>
  123034:	d8c02017 	ldw	r3,128(sp)
  123038:	003e7306 	br	122a08 <_gp+0xfffdf330>
  12303c:	00801944 	movi	r2,101
  123040:	14407c0e 	bge	r2,r17,123234 <___svfprintf_internal_r+0x1044>
  123044:	d9003617 	ldw	r4,216(sp)
  123048:	d9403717 	ldw	r5,220(sp)
  12304c:	000d883a 	mov	r6,zero
  123050:	000f883a 	mov	r7,zero
  123054:	d8c03d15 	stw	r3,244(sp)
  123058:	da003e15 	stw	r8,248(sp)
  12305c:	0132ab80 	call	132ab8 <__eqdf2>
  123060:	d8c03d17 	ldw	r3,244(sp)
  123064:	da003e17 	ldw	r8,248(sp)
  123068:	1000f51e 	bne	r2,zero,123440 <___svfprintf_internal_r+0x1250>
  12306c:	d8801f17 	ldw	r2,124(sp)
  123070:	01000534 	movhi	r4,20
  123074:	2124c704 	addi	r4,r4,-27876
  123078:	18c00044 	addi	r3,r3,1
  12307c:	10800044 	addi	r2,r2,1
  123080:	41000015 	stw	r4,0(r8)
  123084:	01000044 	movi	r4,1
  123088:	41000115 	stw	r4,4(r8)
  12308c:	d8c02015 	stw	r3,128(sp)
  123090:	d8801f15 	stw	r2,124(sp)
  123094:	010001c4 	movi	r4,7
  123098:	20826616 	blt	r4,r2,123a34 <___svfprintf_internal_r+0x1844>
  12309c:	42000204 	addi	r8,r8,8
  1230a0:	d8802617 	ldw	r2,152(sp)
  1230a4:	d9403317 	ldw	r5,204(sp)
  1230a8:	11400216 	blt	r2,r5,1230b4 <___svfprintf_internal_r+0xec4>
  1230ac:	9080004c 	andi	r2,r18,1
  1230b0:	103eb326 	beq	r2,zero,122b80 <_gp+0xfffdf4a8>
  1230b4:	d8803817 	ldw	r2,224(sp)
  1230b8:	d9003417 	ldw	r4,208(sp)
  1230bc:	d9403817 	ldw	r5,224(sp)
  1230c0:	1887883a 	add	r3,r3,r2
  1230c4:	d8801f17 	ldw	r2,124(sp)
  1230c8:	41000015 	stw	r4,0(r8)
  1230cc:	41400115 	stw	r5,4(r8)
  1230d0:	10800044 	addi	r2,r2,1
  1230d4:	d8c02015 	stw	r3,128(sp)
  1230d8:	d8801f15 	stw	r2,124(sp)
  1230dc:	010001c4 	movi	r4,7
  1230e0:	2082af16 	blt	r4,r2,123ba0 <___svfprintf_internal_r+0x19b0>
  1230e4:	42000204 	addi	r8,r8,8
  1230e8:	d8803317 	ldw	r2,204(sp)
  1230ec:	143fffc4 	addi	r16,r2,-1
  1230f0:	043ea30e 	bge	zero,r16,122b80 <_gp+0xfffdf4a8>
  1230f4:	04400404 	movi	r17,16
  1230f8:	d8801f17 	ldw	r2,124(sp)
  1230fc:	8c00860e 	bge	r17,r16,123318 <___svfprintf_internal_r+0x1128>
  123100:	01400534 	movhi	r5,20
  123104:	2964c784 	addi	r5,r5,-27874
  123108:	d9402c15 	stw	r5,176(sp)
  12310c:	058001c4 	movi	r22,7
  123110:	dd002d17 	ldw	r20,180(sp)
  123114:	00000306 	br	123124 <___svfprintf_internal_r+0xf34>
  123118:	42000204 	addi	r8,r8,8
  12311c:	843ffc04 	addi	r16,r16,-16
  123120:	8c00800e 	bge	r17,r16,123324 <___svfprintf_internal_r+0x1134>
  123124:	18c00404 	addi	r3,r3,16
  123128:	10800044 	addi	r2,r2,1
  12312c:	45400015 	stw	r21,0(r8)
  123130:	44400115 	stw	r17,4(r8)
  123134:	d8c02015 	stw	r3,128(sp)
  123138:	d8801f15 	stw	r2,124(sp)
  12313c:	b0bff60e 	bge	r22,r2,123118 <_gp+0xfffdfa40>
  123140:	d9801e04 	addi	r6,sp,120
  123144:	a00b883a 	mov	r5,r20
  123148:	9809883a 	mov	r4,r19
  12314c:	012bc1c0 	call	12bc1c <__ssprint_r>
  123150:	103d0e1e 	bne	r2,zero,12258c <_gp+0xfffdeeb4>
  123154:	d8c02017 	ldw	r3,128(sp)
  123158:	d8801f17 	ldw	r2,124(sp)
  12315c:	da000404 	addi	r8,sp,16
  123160:	003fee06 	br	12311c <_gp+0xfffdfa44>
  123164:	d9403117 	ldw	r5,196(sp)
  123168:	d8802917 	ldw	r2,164(sp)
  12316c:	28adc83a 	sub	r22,r5,r2
  123170:	05be430e 	bge	zero,r22,122a80 <_gp+0xfffdf3a8>
  123174:	07000404 	movi	fp,16
  123178:	d8801f17 	ldw	r2,124(sp)
  12317c:	e583a20e 	bge	fp,r22,124008 <___svfprintf_internal_r+0x1e18>
  123180:	01400534 	movhi	r5,20
  123184:	2964c784 	addi	r5,r5,-27874
  123188:	dc403015 	stw	r17,192(sp)
  12318c:	d9402c15 	stw	r5,176(sp)
  123190:	b023883a 	mov	r17,r22
  123194:	050001c4 	movi	r20,7
  123198:	902d883a 	mov	r22,r18
  12319c:	8025883a 	mov	r18,r16
  1231a0:	dc002d17 	ldw	r16,180(sp)
  1231a4:	00000306 	br	1231b4 <___svfprintf_internal_r+0xfc4>
  1231a8:	8c7ffc04 	addi	r17,r17,-16
  1231ac:	42000204 	addi	r8,r8,8
  1231b0:	e440110e 	bge	fp,r17,1231f8 <___svfprintf_internal_r+0x1008>
  1231b4:	18c00404 	addi	r3,r3,16
  1231b8:	10800044 	addi	r2,r2,1
  1231bc:	45400015 	stw	r21,0(r8)
  1231c0:	47000115 	stw	fp,4(r8)
  1231c4:	d8c02015 	stw	r3,128(sp)
  1231c8:	d8801f15 	stw	r2,124(sp)
  1231cc:	a0bff60e 	bge	r20,r2,1231a8 <_gp+0xfffdfad0>
  1231d0:	d9801e04 	addi	r6,sp,120
  1231d4:	800b883a 	mov	r5,r16
  1231d8:	9809883a 	mov	r4,r19
  1231dc:	012bc1c0 	call	12bc1c <__ssprint_r>
  1231e0:	103cea1e 	bne	r2,zero,12258c <_gp+0xfffdeeb4>
  1231e4:	8c7ffc04 	addi	r17,r17,-16
  1231e8:	d8c02017 	ldw	r3,128(sp)
  1231ec:	d8801f17 	ldw	r2,124(sp)
  1231f0:	da000404 	addi	r8,sp,16
  1231f4:	e47fef16 	blt	fp,r17,1231b4 <_gp+0xfffdfadc>
  1231f8:	9021883a 	mov	r16,r18
  1231fc:	b025883a 	mov	r18,r22
  123200:	882d883a 	mov	r22,r17
  123204:	dc403017 	ldw	r17,192(sp)
  123208:	d9002c17 	ldw	r4,176(sp)
  12320c:	1d87883a 	add	r3,r3,r22
  123210:	10800044 	addi	r2,r2,1
  123214:	41000015 	stw	r4,0(r8)
  123218:	45800115 	stw	r22,4(r8)
  12321c:	d8c02015 	stw	r3,128(sp)
  123220:	d8801f15 	stw	r2,124(sp)
  123224:	010001c4 	movi	r4,7
  123228:	20819a16 	blt	r4,r2,123894 <___svfprintf_internal_r+0x16a4>
  12322c:	42000204 	addi	r8,r8,8
  123230:	003e1306 	br	122a80 <_gp+0xfffdf3a8>
  123234:	d9403317 	ldw	r5,204(sp)
  123238:	00800044 	movi	r2,1
  12323c:	18c00044 	addi	r3,r3,1
  123240:	1141710e 	bge	r2,r5,123808 <___svfprintf_internal_r+0x1618>
  123244:	dc401f17 	ldw	r17,124(sp)
  123248:	00800044 	movi	r2,1
  12324c:	40800115 	stw	r2,4(r8)
  123250:	8c400044 	addi	r17,r17,1
  123254:	44000015 	stw	r16,0(r8)
  123258:	d8c02015 	stw	r3,128(sp)
  12325c:	dc401f15 	stw	r17,124(sp)
  123260:	008001c4 	movi	r2,7
  123264:	14417416 	blt	r2,r17,123838 <___svfprintf_internal_r+0x1648>
  123268:	42000204 	addi	r8,r8,8
  12326c:	d8803817 	ldw	r2,224(sp)
  123270:	d9003417 	ldw	r4,208(sp)
  123274:	8c400044 	addi	r17,r17,1
  123278:	10c7883a 	add	r3,r2,r3
  12327c:	40800115 	stw	r2,4(r8)
  123280:	41000015 	stw	r4,0(r8)
  123284:	d8c02015 	stw	r3,128(sp)
  123288:	dc401f15 	stw	r17,124(sp)
  12328c:	008001c4 	movi	r2,7
  123290:	14417216 	blt	r2,r17,12385c <___svfprintf_internal_r+0x166c>
  123294:	45800204 	addi	r22,r8,8
  123298:	d9003617 	ldw	r4,216(sp)
  12329c:	d9403717 	ldw	r5,220(sp)
  1232a0:	000d883a 	mov	r6,zero
  1232a4:	000f883a 	mov	r7,zero
  1232a8:	d8c03d15 	stw	r3,244(sp)
  1232ac:	0132ab80 	call	132ab8 <__eqdf2>
  1232b0:	d8c03d17 	ldw	r3,244(sp)
  1232b4:	1000b326 	beq	r2,zero,123584 <___svfprintf_internal_r+0x1394>
  1232b8:	d9403317 	ldw	r5,204(sp)
  1232bc:	84000044 	addi	r16,r16,1
  1232c0:	8c400044 	addi	r17,r17,1
  1232c4:	28bfffc4 	addi	r2,r5,-1
  1232c8:	1887883a 	add	r3,r3,r2
  1232cc:	b0800115 	stw	r2,4(r22)
  1232d0:	b4000015 	stw	r16,0(r22)
  1232d4:	d8c02015 	stw	r3,128(sp)
  1232d8:	dc401f15 	stw	r17,124(sp)
  1232dc:	008001c4 	movi	r2,7
  1232e0:	1440d216 	blt	r2,r17,12362c <___svfprintf_internal_r+0x143c>
  1232e4:	b5800204 	addi	r22,r22,8
  1232e8:	d9003b17 	ldw	r4,236(sp)
  1232ec:	df0022c4 	addi	fp,sp,139
  1232f0:	8c400044 	addi	r17,r17,1
  1232f4:	20c7883a 	add	r3,r4,r3
  1232f8:	b7000015 	stw	fp,0(r22)
  1232fc:	b1000115 	stw	r4,4(r22)
  123300:	d8c02015 	stw	r3,128(sp)
  123304:	dc401f15 	stw	r17,124(sp)
  123308:	008001c4 	movi	r2,7
  12330c:	14400e16 	blt	r2,r17,123348 <___svfprintf_internal_r+0x1158>
  123310:	b2000204 	addi	r8,r22,8
  123314:	003e1a06 	br	122b80 <_gp+0xfffdf4a8>
  123318:	01000534 	movhi	r4,20
  12331c:	2124c784 	addi	r4,r4,-27874
  123320:	d9002c15 	stw	r4,176(sp)
  123324:	d9002c17 	ldw	r4,176(sp)
  123328:	1c07883a 	add	r3,r3,r16
  12332c:	44000115 	stw	r16,4(r8)
  123330:	41000015 	stw	r4,0(r8)
  123334:	10800044 	addi	r2,r2,1
  123338:	d8c02015 	stw	r3,128(sp)
  12333c:	d8801f15 	stw	r2,124(sp)
  123340:	010001c4 	movi	r4,7
  123344:	20be0d0e 	bge	r4,r2,122b7c <_gp+0xfffdf4a4>
  123348:	d9402d17 	ldw	r5,180(sp)
  12334c:	d9801e04 	addi	r6,sp,120
  123350:	9809883a 	mov	r4,r19
  123354:	012bc1c0 	call	12bc1c <__ssprint_r>
  123358:	103c8c1e 	bne	r2,zero,12258c <_gp+0xfffdeeb4>
  12335c:	d8c02017 	ldw	r3,128(sp)
  123360:	da000404 	addi	r8,sp,16
  123364:	003e0606 	br	122b80 <_gp+0xfffdf4a8>
  123368:	d9402d17 	ldw	r5,180(sp)
  12336c:	d9801e04 	addi	r6,sp,120
  123370:	9809883a 	mov	r4,r19
  123374:	012bc1c0 	call	12bc1c <__ssprint_r>
  123378:	103e3d26 	beq	r2,zero,122c70 <_gp+0xfffdf598>
  12337c:	003c8306 	br	12258c <_gp+0xfffdeeb4>
  123380:	d9402d17 	ldw	r5,180(sp)
  123384:	d9801e04 	addi	r6,sp,120
  123388:	9809883a 	mov	r4,r19
  12338c:	012bc1c0 	call	12bc1c <__ssprint_r>
  123390:	103c7e1e 	bne	r2,zero,12258c <_gp+0xfffdeeb4>
  123394:	d8c02017 	ldw	r3,128(sp)
  123398:	da000404 	addi	r8,sp,16
  12339c:	003deb06 	br	122b4c <_gp+0xfffdf474>
  1233a0:	d9402d17 	ldw	r5,180(sp)
  1233a4:	d9801e04 	addi	r6,sp,120
  1233a8:	9809883a 	mov	r4,r19
  1233ac:	012bc1c0 	call	12bc1c <__ssprint_r>
  1233b0:	103c761e 	bne	r2,zero,12258c <_gp+0xfffdeeb4>
  1233b4:	d8c02017 	ldw	r3,128(sp)
  1233b8:	da000404 	addi	r8,sp,16
  1233bc:	003d9f06 	br	122a3c <_gp+0xfffdf364>
  1233c0:	d9402d17 	ldw	r5,180(sp)
  1233c4:	d9801e04 	addi	r6,sp,120
  1233c8:	9809883a 	mov	r4,r19
  1233cc:	012bc1c0 	call	12bc1c <__ssprint_r>
  1233d0:	103c6e1e 	bne	r2,zero,12258c <_gp+0xfffdeeb4>
  1233d4:	d8c02017 	ldw	r3,128(sp)
  1233d8:	da000404 	addi	r8,sp,16
  1233dc:	003da506 	br	122a74 <_gp+0xfffdf39c>
  1233e0:	d9402a17 	ldw	r5,168(sp)
  1233e4:	d8002785 	stb	zero,158(sp)
  1233e8:	283f0816 	blt	r5,zero,12300c <_gp+0xfffdf934>
  1233ec:	00ffdfc4 	movi	r3,-129
  1233f0:	a584b03a 	or	r2,r20,r22
  1233f4:	90e4703a 	and	r18,r18,r3
  1233f8:	103c5126 	beq	r2,zero,122540 <_gp+0xfffdee68>
  1233fc:	0039883a 	mov	fp,zero
  123400:	003e5a06 	br	122d6c <_gp+0xfffdf694>
  123404:	9080040c 	andi	r2,r18,16
  123408:	10013d26 	beq	r2,zero,123900 <___svfprintf_internal_r+0x1710>
  12340c:	d8c02e17 	ldw	r3,184(sp)
  123410:	d9002a17 	ldw	r4,168(sp)
  123414:	d8002785 	stb	zero,158(sp)
  123418:	18800104 	addi	r2,r3,4
  12341c:	1d000017 	ldw	r20,0(r3)
  123420:	002d883a 	mov	r22,zero
  123424:	20013f16 	blt	r4,zero,123924 <___svfprintf_internal_r+0x1734>
  123428:	00ffdfc4 	movi	r3,-129
  12342c:	d8802e15 	stw	r2,184(sp)
  123430:	90e4703a 	and	r18,r18,r3
  123434:	a03d0926 	beq	r20,zero,12285c <_gp+0xfffdf184>
  123438:	0039883a 	mov	fp,zero
  12343c:	003d0c06 	br	122870 <_gp+0xfffdf198>
  123440:	dc402617 	ldw	r17,152(sp)
  123444:	0441830e 	bge	zero,r17,123a54 <___svfprintf_internal_r+0x1864>
  123448:	dc403217 	ldw	r17,200(sp)
  12344c:	d8803317 	ldw	r2,204(sp)
  123450:	1440010e 	bge	r2,r17,123458 <___svfprintf_internal_r+0x1268>
  123454:	1023883a 	mov	r17,r2
  123458:	04400a0e 	bge	zero,r17,123484 <___svfprintf_internal_r+0x1294>
  12345c:	d8801f17 	ldw	r2,124(sp)
  123460:	1c47883a 	add	r3,r3,r17
  123464:	44000015 	stw	r16,0(r8)
  123468:	10800044 	addi	r2,r2,1
  12346c:	44400115 	stw	r17,4(r8)
  123470:	d8c02015 	stw	r3,128(sp)
  123474:	d8801f15 	stw	r2,124(sp)
  123478:	010001c4 	movi	r4,7
  12347c:	20827516 	blt	r4,r2,123e54 <___svfprintf_internal_r+0x1c64>
  123480:	42000204 	addi	r8,r8,8
  123484:	88027b16 	blt	r17,zero,123e74 <___svfprintf_internal_r+0x1c84>
  123488:	d9003217 	ldw	r4,200(sp)
  12348c:	2463c83a 	sub	r17,r4,r17
  123490:	0440990e 	bge	zero,r17,1236f8 <___svfprintf_internal_r+0x1508>
  123494:	05800404 	movi	r22,16
  123498:	d8801f17 	ldw	r2,124(sp)
  12349c:	b441530e 	bge	r22,r17,1239ec <___svfprintf_internal_r+0x17fc>
  1234a0:	01000534 	movhi	r4,20
  1234a4:	2124c784 	addi	r4,r4,-27874
  1234a8:	d9002c15 	stw	r4,176(sp)
  1234ac:	070001c4 	movi	fp,7
  1234b0:	dd002d17 	ldw	r20,180(sp)
  1234b4:	00000306 	br	1234c4 <___svfprintf_internal_r+0x12d4>
  1234b8:	42000204 	addi	r8,r8,8
  1234bc:	8c7ffc04 	addi	r17,r17,-16
  1234c0:	b4414d0e 	bge	r22,r17,1239f8 <___svfprintf_internal_r+0x1808>
  1234c4:	18c00404 	addi	r3,r3,16
  1234c8:	10800044 	addi	r2,r2,1
  1234cc:	45400015 	stw	r21,0(r8)
  1234d0:	45800115 	stw	r22,4(r8)
  1234d4:	d8c02015 	stw	r3,128(sp)
  1234d8:	d8801f15 	stw	r2,124(sp)
  1234dc:	e0bff60e 	bge	fp,r2,1234b8 <_gp+0xfffdfde0>
  1234e0:	d9801e04 	addi	r6,sp,120
  1234e4:	a00b883a 	mov	r5,r20
  1234e8:	9809883a 	mov	r4,r19
  1234ec:	012bc1c0 	call	12bc1c <__ssprint_r>
  1234f0:	103c261e 	bne	r2,zero,12258c <_gp+0xfffdeeb4>
  1234f4:	d8c02017 	ldw	r3,128(sp)
  1234f8:	d8801f17 	ldw	r2,124(sp)
  1234fc:	da000404 	addi	r8,sp,16
  123500:	003fee06 	br	1234bc <_gp+0xfffdfde4>
  123504:	d9402d17 	ldw	r5,180(sp)
  123508:	d9801e04 	addi	r6,sp,120
  12350c:	9809883a 	mov	r4,r19
  123510:	012bc1c0 	call	12bc1c <__ssprint_r>
  123514:	103c1d1e 	bne	r2,zero,12258c <_gp+0xfffdeeb4>
  123518:	d8c02017 	ldw	r3,128(sp)
  12351c:	df002787 	ldb	fp,158(sp)
  123520:	da000404 	addi	r8,sp,16
  123524:	003d3806 	br	122a08 <_gp+0xfffdf330>
  123528:	9080040c 	andi	r2,r18,16
  12352c:	10005c26 	beq	r2,zero,1236a0 <___svfprintf_internal_r+0x14b0>
  123530:	d8c02e17 	ldw	r3,184(sp)
  123534:	d9002a17 	ldw	r4,168(sp)
  123538:	d8002785 	stb	zero,158(sp)
  12353c:	18800104 	addi	r2,r3,4
  123540:	1d000017 	ldw	r20,0(r3)
  123544:	002d883a 	mov	r22,zero
  123548:	20005e16 	blt	r4,zero,1236c4 <___svfprintf_internal_r+0x14d4>
  12354c:	00ffdfc4 	movi	r3,-129
  123550:	d8802e15 	stw	r2,184(sp)
  123554:	90e4703a 	and	r18,r18,r3
  123558:	0039883a 	mov	fp,zero
  12355c:	a03ddf26 	beq	r20,zero,122cdc <_gp+0xfffdf604>
  123560:	00800244 	movi	r2,9
  123564:	153c8e36 	bltu	r2,r20,1227a0 <_gp+0xfffdf0c8>
  123568:	a5000c04 	addi	r20,r20,48
  12356c:	dc001dc4 	addi	r16,sp,119
  123570:	dd001dc5 	stb	r20,119(sp)
  123574:	d8c02817 	ldw	r3,160(sp)
  123578:	1c07c83a 	sub	r3,r3,r16
  12357c:	d8c02b15 	stw	r3,172(sp)
  123580:	003cd306 	br	1228d0 <_gp+0xfffdf1f8>
  123584:	d8803317 	ldw	r2,204(sp)
  123588:	143fffc4 	addi	r16,r2,-1
  12358c:	043f560e 	bge	zero,r16,1232e8 <_gp+0xfffdfc10>
  123590:	07000404 	movi	fp,16
  123594:	e403530e 	bge	fp,r16,1242e4 <___svfprintf_internal_r+0x20f4>
  123598:	01400534 	movhi	r5,20
  12359c:	2964c784 	addi	r5,r5,-27874
  1235a0:	d9402c15 	stw	r5,176(sp)
  1235a4:	01c001c4 	movi	r7,7
  1235a8:	dd002d17 	ldw	r20,180(sp)
  1235ac:	00000306 	br	1235bc <___svfprintf_internal_r+0x13cc>
  1235b0:	843ffc04 	addi	r16,r16,-16
  1235b4:	b5800204 	addi	r22,r22,8
  1235b8:	e400130e 	bge	fp,r16,123608 <___svfprintf_internal_r+0x1418>
  1235bc:	18c00404 	addi	r3,r3,16
  1235c0:	8c400044 	addi	r17,r17,1
  1235c4:	b5400015 	stw	r21,0(r22)
  1235c8:	b7000115 	stw	fp,4(r22)
  1235cc:	d8c02015 	stw	r3,128(sp)
  1235d0:	dc401f15 	stw	r17,124(sp)
  1235d4:	3c7ff60e 	bge	r7,r17,1235b0 <_gp+0xfffdfed8>
  1235d8:	d9801e04 	addi	r6,sp,120
  1235dc:	a00b883a 	mov	r5,r20
  1235e0:	9809883a 	mov	r4,r19
  1235e4:	d9c03d15 	stw	r7,244(sp)
  1235e8:	012bc1c0 	call	12bc1c <__ssprint_r>
  1235ec:	d9c03d17 	ldw	r7,244(sp)
  1235f0:	103be61e 	bne	r2,zero,12258c <_gp+0xfffdeeb4>
  1235f4:	843ffc04 	addi	r16,r16,-16
  1235f8:	d8c02017 	ldw	r3,128(sp)
  1235fc:	dc401f17 	ldw	r17,124(sp)
  123600:	dd800404 	addi	r22,sp,16
  123604:	e43fed16 	blt	fp,r16,1235bc <_gp+0xfffdfee4>
  123608:	d8802c17 	ldw	r2,176(sp)
  12360c:	1c07883a 	add	r3,r3,r16
  123610:	8c400044 	addi	r17,r17,1
  123614:	b0800015 	stw	r2,0(r22)
  123618:	b4000115 	stw	r16,4(r22)
  12361c:	d8c02015 	stw	r3,128(sp)
  123620:	dc401f15 	stw	r17,124(sp)
  123624:	008001c4 	movi	r2,7
  123628:	147f2e0e 	bge	r2,r17,1232e4 <_gp+0xfffdfc0c>
  12362c:	d9402d17 	ldw	r5,180(sp)
  123630:	d9801e04 	addi	r6,sp,120
  123634:	9809883a 	mov	r4,r19
  123638:	012bc1c0 	call	12bc1c <__ssprint_r>
  12363c:	103bd31e 	bne	r2,zero,12258c <_gp+0xfffdeeb4>
  123640:	d8c02017 	ldw	r3,128(sp)
  123644:	dc401f17 	ldw	r17,124(sp)
  123648:	dd800404 	addi	r22,sp,16
  12364c:	003f2606 	br	1232e8 <_gp+0xfffdfc10>
  123650:	9080040c 	andi	r2,r18,16
  123654:	1000c326 	beq	r2,zero,123964 <___svfprintf_internal_r+0x1774>
  123658:	d9402e17 	ldw	r5,184(sp)
  12365c:	2d000017 	ldw	r20,0(r5)
  123660:	29400104 	addi	r5,r5,4
  123664:	d9402e15 	stw	r5,184(sp)
  123668:	a02dd7fa 	srai	r22,r20,31
  12366c:	b005883a 	mov	r2,r22
  123670:	103c430e 	bge	r2,zero,122780 <_gp+0xfffdf0a8>
  123674:	d9402a17 	ldw	r5,168(sp)
  123678:	0529c83a 	sub	r20,zero,r20
  12367c:	07000b44 	movi	fp,45
  123680:	a004c03a 	cmpne	r2,r20,zero
  123684:	05adc83a 	sub	r22,zero,r22
  123688:	df002785 	stb	fp,158(sp)
  12368c:	b0adc83a 	sub	r22,r22,r2
  123690:	28022e16 	blt	r5,zero,123f4c <___svfprintf_internal_r+0x1d5c>
  123694:	00bfdfc4 	movi	r2,-129
  123698:	90a4703a 	and	r18,r18,r2
  12369c:	003c3f06 	br	12279c <_gp+0xfffdf0c4>
  1236a0:	9080100c 	andi	r2,r18,64
  1236a4:	d8002785 	stb	zero,158(sp)
  1236a8:	10012526 	beq	r2,zero,123b40 <___svfprintf_internal_r+0x1950>
  1236ac:	d9402e17 	ldw	r5,184(sp)
  1236b0:	d8c02a17 	ldw	r3,168(sp)
  1236b4:	002d883a 	mov	r22,zero
  1236b8:	28800104 	addi	r2,r5,4
  1236bc:	2d00000b 	ldhu	r20,0(r5)
  1236c0:	183fa20e 	bge	r3,zero,12354c <_gp+0xfffdfe74>
  1236c4:	d8802e15 	stw	r2,184(sp)
  1236c8:	0039883a 	mov	fp,zero
  1236cc:	a584b03a 	or	r2,r20,r22
  1236d0:	103c321e 	bne	r2,zero,12279c <_gp+0xfffdf0c4>
  1236d4:	00800044 	movi	r2,1
  1236d8:	003e5006 	br	12301c <_gp+0xfffdf944>
  1236dc:	d9402d17 	ldw	r5,180(sp)
  1236e0:	d9801e04 	addi	r6,sp,120
  1236e4:	9809883a 	mov	r4,r19
  1236e8:	012bc1c0 	call	12bc1c <__ssprint_r>
  1236ec:	103ba71e 	bne	r2,zero,12258c <_gp+0xfffdeeb4>
  1236f0:	d8c02017 	ldw	r3,128(sp)
  1236f4:	da000404 	addi	r8,sp,16
  1236f8:	d9003217 	ldw	r4,200(sp)
  1236fc:	d8802617 	ldw	r2,152(sp)
  123700:	d9403317 	ldw	r5,204(sp)
  123704:	8123883a 	add	r17,r16,r4
  123708:	11400216 	blt	r2,r5,123714 <___svfprintf_internal_r+0x1524>
  12370c:	9100004c 	andi	r4,r18,1
  123710:	20000d26 	beq	r4,zero,123748 <___svfprintf_internal_r+0x1558>
  123714:	d9003817 	ldw	r4,224(sp)
  123718:	d9403417 	ldw	r5,208(sp)
  12371c:	1907883a 	add	r3,r3,r4
  123720:	d9001f17 	ldw	r4,124(sp)
  123724:	41400015 	stw	r5,0(r8)
  123728:	d9403817 	ldw	r5,224(sp)
  12372c:	21000044 	addi	r4,r4,1
  123730:	d8c02015 	stw	r3,128(sp)
  123734:	41400115 	stw	r5,4(r8)
  123738:	d9001f15 	stw	r4,124(sp)
  12373c:	014001c4 	movi	r5,7
  123740:	2901dc16 	blt	r5,r4,123eb4 <___svfprintf_internal_r+0x1cc4>
  123744:	42000204 	addi	r8,r8,8
  123748:	d9003317 	ldw	r4,204(sp)
  12374c:	8121883a 	add	r16,r16,r4
  123750:	2085c83a 	sub	r2,r4,r2
  123754:	8461c83a 	sub	r16,r16,r17
  123758:	1400010e 	bge	r2,r16,123760 <___svfprintf_internal_r+0x1570>
  12375c:	1021883a 	mov	r16,r2
  123760:	04000a0e 	bge	zero,r16,12378c <___svfprintf_internal_r+0x159c>
  123764:	d9001f17 	ldw	r4,124(sp)
  123768:	1c07883a 	add	r3,r3,r16
  12376c:	44400015 	stw	r17,0(r8)
  123770:	21000044 	addi	r4,r4,1
  123774:	44000115 	stw	r16,4(r8)
  123778:	d8c02015 	stw	r3,128(sp)
  12377c:	d9001f15 	stw	r4,124(sp)
  123780:	014001c4 	movi	r5,7
  123784:	2901e616 	blt	r5,r4,123f20 <___svfprintf_internal_r+0x1d30>
  123788:	42000204 	addi	r8,r8,8
  12378c:	8001f616 	blt	r16,zero,123f68 <___svfprintf_internal_r+0x1d78>
  123790:	1421c83a 	sub	r16,r2,r16
  123794:	043cfa0e 	bge	zero,r16,122b80 <_gp+0xfffdf4a8>
  123798:	04400404 	movi	r17,16
  12379c:	d8801f17 	ldw	r2,124(sp)
  1237a0:	8c3edd0e 	bge	r17,r16,123318 <_gp+0xfffdfc40>
  1237a4:	01400534 	movhi	r5,20
  1237a8:	2964c784 	addi	r5,r5,-27874
  1237ac:	d9402c15 	stw	r5,176(sp)
  1237b0:	058001c4 	movi	r22,7
  1237b4:	dd002d17 	ldw	r20,180(sp)
  1237b8:	00000306 	br	1237c8 <___svfprintf_internal_r+0x15d8>
  1237bc:	42000204 	addi	r8,r8,8
  1237c0:	843ffc04 	addi	r16,r16,-16
  1237c4:	8c3ed70e 	bge	r17,r16,123324 <_gp+0xfffdfc4c>
  1237c8:	18c00404 	addi	r3,r3,16
  1237cc:	10800044 	addi	r2,r2,1
  1237d0:	45400015 	stw	r21,0(r8)
  1237d4:	44400115 	stw	r17,4(r8)
  1237d8:	d8c02015 	stw	r3,128(sp)
  1237dc:	d8801f15 	stw	r2,124(sp)
  1237e0:	b0bff60e 	bge	r22,r2,1237bc <_gp+0xfffe00e4>
  1237e4:	d9801e04 	addi	r6,sp,120
  1237e8:	a00b883a 	mov	r5,r20
  1237ec:	9809883a 	mov	r4,r19
  1237f0:	012bc1c0 	call	12bc1c <__ssprint_r>
  1237f4:	103b651e 	bne	r2,zero,12258c <_gp+0xfffdeeb4>
  1237f8:	d8c02017 	ldw	r3,128(sp)
  1237fc:	d8801f17 	ldw	r2,124(sp)
  123800:	da000404 	addi	r8,sp,16
  123804:	003fee06 	br	1237c0 <_gp+0xfffe00e8>
  123808:	9088703a 	and	r4,r18,r2
  12380c:	203e8d1e 	bne	r4,zero,123244 <_gp+0xfffdfb6c>
  123810:	dc401f17 	ldw	r17,124(sp)
  123814:	40800115 	stw	r2,4(r8)
  123818:	44000015 	stw	r16,0(r8)
  12381c:	8c400044 	addi	r17,r17,1
  123820:	d8c02015 	stw	r3,128(sp)
  123824:	dc401f15 	stw	r17,124(sp)
  123828:	008001c4 	movi	r2,7
  12382c:	147f7f16 	blt	r2,r17,12362c <_gp+0xfffdff54>
  123830:	45800204 	addi	r22,r8,8
  123834:	003eac06 	br	1232e8 <_gp+0xfffdfc10>
  123838:	d9402d17 	ldw	r5,180(sp)
  12383c:	d9801e04 	addi	r6,sp,120
  123840:	9809883a 	mov	r4,r19
  123844:	012bc1c0 	call	12bc1c <__ssprint_r>
  123848:	103b501e 	bne	r2,zero,12258c <_gp+0xfffdeeb4>
  12384c:	d8c02017 	ldw	r3,128(sp)
  123850:	dc401f17 	ldw	r17,124(sp)
  123854:	da000404 	addi	r8,sp,16
  123858:	003e8406 	br	12326c <_gp+0xfffdfb94>
  12385c:	d9402d17 	ldw	r5,180(sp)
  123860:	d9801e04 	addi	r6,sp,120
  123864:	9809883a 	mov	r4,r19
  123868:	012bc1c0 	call	12bc1c <__ssprint_r>
  12386c:	103b471e 	bne	r2,zero,12258c <_gp+0xfffdeeb4>
  123870:	d8c02017 	ldw	r3,128(sp)
  123874:	dc401f17 	ldw	r17,124(sp)
  123878:	dd800404 	addi	r22,sp,16
  12387c:	003e8606 	br	123298 <_gp+0xfffdfbc0>
  123880:	0029883a 	mov	r20,zero
  123884:	a5000c04 	addi	r20,r20,48
  123888:	dc001dc4 	addi	r16,sp,119
  12388c:	dd001dc5 	stb	r20,119(sp)
  123890:	003f3806 	br	123574 <_gp+0xfffdfe9c>
  123894:	d9402d17 	ldw	r5,180(sp)
  123898:	d9801e04 	addi	r6,sp,120
  12389c:	9809883a 	mov	r4,r19
  1238a0:	012bc1c0 	call	12bc1c <__ssprint_r>
  1238a4:	103b391e 	bne	r2,zero,12258c <_gp+0xfffdeeb4>
  1238a8:	d8c02017 	ldw	r3,128(sp)
  1238ac:	da000404 	addi	r8,sp,16
  1238b0:	003c7306 	br	122a80 <_gp+0xfffdf3a8>
  1238b4:	d9003617 	ldw	r4,216(sp)
  1238b8:	d9403717 	ldw	r5,220(sp)
  1238bc:	da003e15 	stw	r8,248(sp)
  1238c0:	01295b00 	call	1295b0 <__fpclassifyd>
  1238c4:	da003e17 	ldw	r8,248(sp)
  1238c8:	1000bd1e 	bne	r2,zero,123bc0 <___svfprintf_internal_r+0x19d0>
  1238cc:	008011c4 	movi	r2,71
  1238d0:	14411e0e 	bge	r2,r17,123d4c <___svfprintf_internal_r+0x1b5c>
  1238d4:	04000534 	movhi	r16,20
  1238d8:	8424ba04 	addi	r16,r16,-27928
  1238dc:	00c000c4 	movi	r3,3
  1238e0:	00bfdfc4 	movi	r2,-129
  1238e4:	d8c02915 	stw	r3,164(sp)
  1238e8:	90a4703a 	and	r18,r18,r2
  1238ec:	df002783 	ldbu	fp,158(sp)
  1238f0:	d8c02b15 	stw	r3,172(sp)
  1238f4:	d8002a15 	stw	zero,168(sp)
  1238f8:	d8003215 	stw	zero,200(sp)
  1238fc:	003bfa06 	br	1228e8 <_gp+0xfffdf210>
  123900:	9080100c 	andi	r2,r18,64
  123904:	d8002785 	stb	zero,158(sp)
  123908:	10009426 	beq	r2,zero,123b5c <___svfprintf_internal_r+0x196c>
  12390c:	d9402e17 	ldw	r5,184(sp)
  123910:	d8c02a17 	ldw	r3,168(sp)
  123914:	002d883a 	mov	r22,zero
  123918:	28800104 	addi	r2,r5,4
  12391c:	2d00000b 	ldhu	r20,0(r5)
  123920:	183ec10e 	bge	r3,zero,123428 <_gp+0xfffdfd50>
  123924:	a586b03a 	or	r3,r20,r22
  123928:	d8802e15 	stw	r2,184(sp)
  12392c:	183ec21e 	bne	r3,zero,123438 <_gp+0xfffdfd60>
  123930:	0039883a 	mov	fp,zero
  123934:	0005883a 	mov	r2,zero
  123938:	003db806 	br	12301c <_gp+0xfffdf944>
  12393c:	d8c02e17 	ldw	r3,184(sp)
  123940:	d9002e17 	ldw	r4,184(sp)
  123944:	d9402e17 	ldw	r5,184(sp)
  123948:	18c00017 	ldw	r3,0(r3)
  12394c:	21000117 	ldw	r4,4(r4)
  123950:	29400204 	addi	r5,r5,8
  123954:	d8c03615 	stw	r3,216(sp)
  123958:	d9003715 	stw	r4,220(sp)
  12395c:	d9402e15 	stw	r5,184(sp)
  123960:	003b5a06 	br	1226cc <_gp+0xfffdeff4>
  123964:	9080100c 	andi	r2,r18,64
  123968:	10010726 	beq	r2,zero,123d88 <___svfprintf_internal_r+0x1b98>
  12396c:	d8802e17 	ldw	r2,184(sp)
  123970:	1500000f 	ldh	r20,0(r2)
  123974:	10800104 	addi	r2,r2,4
  123978:	d8802e15 	stw	r2,184(sp)
  12397c:	a02dd7fa 	srai	r22,r20,31
  123980:	b005883a 	mov	r2,r22
  123984:	003b7d06 	br	12277c <_gp+0xfffdf0a4>
  123988:	9080100c 	andi	r2,r18,64
  12398c:	10010526 	beq	r2,zero,123da4 <___svfprintf_internal_r+0x1bb4>
  123990:	d8c02e17 	ldw	r3,184(sp)
  123994:	002d883a 	mov	r22,zero
  123998:	1d00000b 	ldhu	r20,0(r3)
  12399c:	18c00104 	addi	r3,r3,4
  1239a0:	d8c02e15 	stw	r3,184(sp)
  1239a4:	003ce206 	br	122d30 <_gp+0xfffdf658>
  1239a8:	bc400007 	ldb	r17,0(r23)
  1239ac:	003a6506 	br	122344 <_gp+0xfffdec6c>
  1239b0:	9080040c 	andi	r2,r18,16
  1239b4:	10010126 	beq	r2,zero,123dbc <___svfprintf_internal_r+0x1bcc>
  1239b8:	d8c02e17 	ldw	r3,184(sp)
  1239bc:	d9002f17 	ldw	r4,188(sp)
  1239c0:	18800017 	ldw	r2,0(r3)
  1239c4:	18c00104 	addi	r3,r3,4
  1239c8:	d8c02e15 	stw	r3,184(sp)
  1239cc:	11000015 	stw	r4,0(r2)
  1239d0:	003a3206 	br	12229c <_gp+0xfffdebc4>
  1239d4:	d9002a17 	ldw	r4,168(sp)
  1239d8:	d8002785 	stb	zero,158(sp)
  1239dc:	203d8d16 	blt	r4,zero,123014 <_gp+0xfffdf93c>
  1239e0:	00bfdfc4 	movi	r2,-129
  1239e4:	90a4703a 	and	r18,r18,r2
  1239e8:	003ad506 	br	122540 <_gp+0xfffdee68>
  1239ec:	01400534 	movhi	r5,20
  1239f0:	2964c784 	addi	r5,r5,-27874
  1239f4:	d9402c15 	stw	r5,176(sp)
  1239f8:	d9402c17 	ldw	r5,176(sp)
  1239fc:	1c47883a 	add	r3,r3,r17
  123a00:	10800044 	addi	r2,r2,1
  123a04:	41400015 	stw	r5,0(r8)
  123a08:	44400115 	stw	r17,4(r8)
  123a0c:	d8c02015 	stw	r3,128(sp)
  123a10:	d8801f15 	stw	r2,124(sp)
  123a14:	010001c4 	movi	r4,7
  123a18:	20bf3016 	blt	r4,r2,1236dc <_gp+0xfffe0004>
  123a1c:	42000204 	addi	r8,r8,8
  123a20:	003f3506 	br	1236f8 <_gp+0xfffe0020>
  123a24:	01000534 	movhi	r4,20
  123a28:	2124c784 	addi	r4,r4,-27874
  123a2c:	d9002c15 	stw	r4,176(sp)
  123a30:	003c3c06 	br	122b24 <_gp+0xfffdf44c>
  123a34:	d9402d17 	ldw	r5,180(sp)
  123a38:	d9801e04 	addi	r6,sp,120
  123a3c:	9809883a 	mov	r4,r19
  123a40:	012bc1c0 	call	12bc1c <__ssprint_r>
  123a44:	103ad11e 	bne	r2,zero,12258c <_gp+0xfffdeeb4>
  123a48:	d8c02017 	ldw	r3,128(sp)
  123a4c:	da000404 	addi	r8,sp,16
  123a50:	003d9306 	br	1230a0 <_gp+0xfffdf9c8>
  123a54:	d8801f17 	ldw	r2,124(sp)
  123a58:	01400534 	movhi	r5,20
  123a5c:	01000044 	movi	r4,1
  123a60:	18c00044 	addi	r3,r3,1
  123a64:	10800044 	addi	r2,r2,1
  123a68:	2964c704 	addi	r5,r5,-27876
  123a6c:	41000115 	stw	r4,4(r8)
  123a70:	41400015 	stw	r5,0(r8)
  123a74:	d8c02015 	stw	r3,128(sp)
  123a78:	d8801f15 	stw	r2,124(sp)
  123a7c:	010001c4 	movi	r4,7
  123a80:	2080b516 	blt	r4,r2,123d58 <___svfprintf_internal_r+0x1b68>
  123a84:	42000204 	addi	r8,r8,8
  123a88:	8800041e 	bne	r17,zero,123a9c <___svfprintf_internal_r+0x18ac>
  123a8c:	d8803317 	ldw	r2,204(sp)
  123a90:	1000021e 	bne	r2,zero,123a9c <___svfprintf_internal_r+0x18ac>
  123a94:	9080004c 	andi	r2,r18,1
  123a98:	103c3926 	beq	r2,zero,122b80 <_gp+0xfffdf4a8>
  123a9c:	d9003817 	ldw	r4,224(sp)
  123aa0:	d8801f17 	ldw	r2,124(sp)
  123aa4:	d9403417 	ldw	r5,208(sp)
  123aa8:	20c7883a 	add	r3,r4,r3
  123aac:	10800044 	addi	r2,r2,1
  123ab0:	41000115 	stw	r4,4(r8)
  123ab4:	41400015 	stw	r5,0(r8)
  123ab8:	d8c02015 	stw	r3,128(sp)
  123abc:	d8801f15 	stw	r2,124(sp)
  123ac0:	010001c4 	movi	r4,7
  123ac4:	20818016 	blt	r4,r2,1240c8 <___svfprintf_internal_r+0x1ed8>
  123ac8:	42000204 	addi	r8,r8,8
  123acc:	0463c83a 	sub	r17,zero,r17
  123ad0:	0440cb0e 	bge	zero,r17,123e00 <___svfprintf_internal_r+0x1c10>
  123ad4:	05800404 	movi	r22,16
  123ad8:	b440e80e 	bge	r22,r17,123e7c <___svfprintf_internal_r+0x1c8c>
  123adc:	01400534 	movhi	r5,20
  123ae0:	2964c784 	addi	r5,r5,-27874
  123ae4:	d9402c15 	stw	r5,176(sp)
  123ae8:	070001c4 	movi	fp,7
  123aec:	dd002d17 	ldw	r20,180(sp)
  123af0:	00000306 	br	123b00 <___svfprintf_internal_r+0x1910>
  123af4:	42000204 	addi	r8,r8,8
  123af8:	8c7ffc04 	addi	r17,r17,-16
  123afc:	b440e20e 	bge	r22,r17,123e88 <___svfprintf_internal_r+0x1c98>
  123b00:	18c00404 	addi	r3,r3,16
  123b04:	10800044 	addi	r2,r2,1
  123b08:	45400015 	stw	r21,0(r8)
  123b0c:	45800115 	stw	r22,4(r8)
  123b10:	d8c02015 	stw	r3,128(sp)
  123b14:	d8801f15 	stw	r2,124(sp)
  123b18:	e0bff60e 	bge	fp,r2,123af4 <_gp+0xfffe041c>
  123b1c:	d9801e04 	addi	r6,sp,120
  123b20:	a00b883a 	mov	r5,r20
  123b24:	9809883a 	mov	r4,r19
  123b28:	012bc1c0 	call	12bc1c <__ssprint_r>
  123b2c:	103a971e 	bne	r2,zero,12258c <_gp+0xfffdeeb4>
  123b30:	d8c02017 	ldw	r3,128(sp)
  123b34:	d8801f17 	ldw	r2,124(sp)
  123b38:	da000404 	addi	r8,sp,16
  123b3c:	003fee06 	br	123af8 <_gp+0xfffe0420>
  123b40:	d9002e17 	ldw	r4,184(sp)
  123b44:	d9402a17 	ldw	r5,168(sp)
  123b48:	002d883a 	mov	r22,zero
  123b4c:	20800104 	addi	r2,r4,4
  123b50:	25000017 	ldw	r20,0(r4)
  123b54:	283e7d0e 	bge	r5,zero,12354c <_gp+0xfffdfe74>
  123b58:	003eda06 	br	1236c4 <_gp+0xfffdffec>
  123b5c:	d9002e17 	ldw	r4,184(sp)
  123b60:	d9402a17 	ldw	r5,168(sp)
  123b64:	002d883a 	mov	r22,zero
  123b68:	20800104 	addi	r2,r4,4
  123b6c:	25000017 	ldw	r20,0(r4)
  123b70:	283e2d0e 	bge	r5,zero,123428 <_gp+0xfffdfd50>
  123b74:	003f6b06 	br	123924 <_gp+0xfffe024c>
  123b78:	d8c02e15 	stw	r3,184(sp)
  123b7c:	0039883a 	mov	fp,zero
  123b80:	003ed206 	br	1236cc <_gp+0xfffdfff4>
  123b84:	bc400043 	ldbu	r17,1(r23)
  123b88:	84000814 	ori	r16,r16,32
  123b8c:	bdc00044 	addi	r23,r23,1
  123b90:	8c403fcc 	andi	r17,r17,255
  123b94:	8c40201c 	xori	r17,r17,128
  123b98:	8c7fe004 	addi	r17,r17,-128
  123b9c:	0039e906 	br	122344 <_gp+0xfffdec6c>
  123ba0:	d9402d17 	ldw	r5,180(sp)
  123ba4:	d9801e04 	addi	r6,sp,120
  123ba8:	9809883a 	mov	r4,r19
  123bac:	012bc1c0 	call	12bc1c <__ssprint_r>
  123bb0:	103a761e 	bne	r2,zero,12258c <_gp+0xfffdeeb4>
  123bb4:	d8c02017 	ldw	r3,128(sp)
  123bb8:	da000404 	addi	r8,sp,16
  123bbc:	003d4a06 	br	1230e8 <_gp+0xfffdfa10>
  123bc0:	d9002a17 	ldw	r4,168(sp)
  123bc4:	05bff7c4 	movi	r22,-33
  123bc8:	00bfffc4 	movi	r2,-1
  123bcc:	8dac703a 	and	r22,r17,r22
  123bd0:	20806a26 	beq	r4,r2,123d7c <___svfprintf_internal_r+0x1b8c>
  123bd4:	008011c4 	movi	r2,71
  123bd8:	b0813726 	beq	r22,r2,1240b8 <___svfprintf_internal_r+0x1ec8>
  123bdc:	d9003717 	ldw	r4,220(sp)
  123be0:	90c04014 	ori	r3,r18,256
  123be4:	d8c02c15 	stw	r3,176(sp)
  123be8:	20015d16 	blt	r4,zero,124160 <___svfprintf_internal_r+0x1f70>
  123bec:	dd003717 	ldw	r20,220(sp)
  123bf0:	d8002905 	stb	zero,164(sp)
  123bf4:	00801984 	movi	r2,102
  123bf8:	88814026 	beq	r17,r2,1240fc <___svfprintf_internal_r+0x1f0c>
  123bfc:	00801184 	movi	r2,70
  123c00:	88817126 	beq	r17,r2,1241c8 <___svfprintf_internal_r+0x1fd8>
  123c04:	00801144 	movi	r2,69
  123c08:	b0816226 	beq	r22,r2,124194 <___svfprintf_internal_r+0x1fa4>
  123c0c:	d8c02a17 	ldw	r3,168(sp)
  123c10:	d8802104 	addi	r2,sp,132
  123c14:	d8800315 	stw	r2,12(sp)
  123c18:	d9403617 	ldw	r5,216(sp)
  123c1c:	d8802504 	addi	r2,sp,148
  123c20:	d8800215 	stw	r2,8(sp)
  123c24:	d8802604 	addi	r2,sp,152
  123c28:	d8c00015 	stw	r3,0(sp)
  123c2c:	d8800115 	stw	r2,4(sp)
  123c30:	01c00084 	movi	r7,2
  123c34:	a00d883a 	mov	r6,r20
  123c38:	9809883a 	mov	r4,r19
  123c3c:	d8c03d15 	stw	r3,244(sp)
  123c40:	da003e15 	stw	r8,248(sp)
  123c44:	01261140 	call	126114 <_dtoa_r>
  123c48:	1021883a 	mov	r16,r2
  123c4c:	008019c4 	movi	r2,103
  123c50:	d8c03d17 	ldw	r3,244(sp)
  123c54:	da003e17 	ldw	r8,248(sp)
  123c58:	8880e726 	beq	r17,r2,123ff8 <___svfprintf_internal_r+0x1e08>
  123c5c:	008011c4 	movi	r2,71
  123c60:	8880d426 	beq	r17,r2,123fb4 <___svfprintf_internal_r+0x1dc4>
  123c64:	80f9883a 	add	fp,r16,r3
  123c68:	d9003617 	ldw	r4,216(sp)
  123c6c:	000d883a 	mov	r6,zero
  123c70:	000f883a 	mov	r7,zero
  123c74:	a00b883a 	mov	r5,r20
  123c78:	da003e15 	stw	r8,248(sp)
  123c7c:	0132ab80 	call	132ab8 <__eqdf2>
  123c80:	da003e17 	ldw	r8,248(sp)
  123c84:	1000e426 	beq	r2,zero,124018 <___svfprintf_internal_r+0x1e28>
  123c88:	d8802117 	ldw	r2,132(sp)
  123c8c:	1700062e 	bgeu	r2,fp,123ca8 <___svfprintf_internal_r+0x1ab8>
  123c90:	01000c04 	movi	r4,48
  123c94:	10c00044 	addi	r3,r2,1
  123c98:	d8c02115 	stw	r3,132(sp)
  123c9c:	11000005 	stb	r4,0(r2)
  123ca0:	d8802117 	ldw	r2,132(sp)
  123ca4:	173ffb36 	bltu	r2,fp,123c94 <_gp+0xfffe05bc>
  123ca8:	1405c83a 	sub	r2,r2,r16
  123cac:	d8803315 	stw	r2,204(sp)
  123cb0:	008011c4 	movi	r2,71
  123cb4:	b080c526 	beq	r22,r2,123fcc <___svfprintf_internal_r+0x1ddc>
  123cb8:	00801944 	movi	r2,101
  123cbc:	1441d80e 	bge	r2,r17,124420 <___svfprintf_internal_r+0x2230>
  123cc0:	d8c02617 	ldw	r3,152(sp)
  123cc4:	00801984 	movi	r2,102
  123cc8:	d8c03215 	stw	r3,200(sp)
  123ccc:	88813426 	beq	r17,r2,1241a0 <___svfprintf_internal_r+0x1fb0>
  123cd0:	d8c03217 	ldw	r3,200(sp)
  123cd4:	d9003317 	ldw	r4,204(sp)
  123cd8:	19012516 	blt	r3,r4,124170 <___svfprintf_internal_r+0x1f80>
  123cdc:	9480004c 	andi	r18,r18,1
  123ce0:	9001841e 	bne	r18,zero,1242f4 <___svfprintf_internal_r+0x2104>
  123ce4:	1805883a 	mov	r2,r3
  123ce8:	1801cb16 	blt	r3,zero,124418 <___svfprintf_internal_r+0x2228>
  123cec:	d8c03217 	ldw	r3,200(sp)
  123cf0:	044019c4 	movi	r17,103
  123cf4:	d8c02b15 	stw	r3,172(sp)
  123cf8:	df002907 	ldb	fp,164(sp)
  123cfc:	e000a61e 	bne	fp,zero,123f98 <___svfprintf_internal_r+0x1da8>
  123d00:	df002783 	ldbu	fp,158(sp)
  123d04:	d8802915 	stw	r2,164(sp)
  123d08:	dc802c17 	ldw	r18,176(sp)
  123d0c:	d8002a15 	stw	zero,168(sp)
  123d10:	003af506 	br	1228e8 <_gp+0xfffdf210>
  123d14:	04000534 	movhi	r16,20
  123d18:	8424b704 	addi	r16,r16,-27940
  123d1c:	003a7e06 	br	122718 <_gp+0xfffdf040>
  123d20:	d9003917 	ldw	r4,228(sp)
  123d24:	04001004 	movi	r16,64
  123d28:	800b883a 	mov	r5,r16
  123d2c:	01279080 	call	127908 <_malloc_r>
  123d30:	d9002d17 	ldw	r4,180(sp)
  123d34:	20800015 	stw	r2,0(r4)
  123d38:	20800415 	stw	r2,16(r4)
  123d3c:	1001d026 	beq	r2,zero,124480 <___svfprintf_internal_r+0x2290>
  123d40:	d8802d17 	ldw	r2,180(sp)
  123d44:	14000515 	stw	r16,20(r2)
  123d48:	00394406 	br	12225c <_gp+0xfffdeb84>
  123d4c:	04000534 	movhi	r16,20
  123d50:	8424b904 	addi	r16,r16,-27932
  123d54:	003ee106 	br	1238dc <_gp+0xfffe0204>
  123d58:	d9402d17 	ldw	r5,180(sp)
  123d5c:	d9801e04 	addi	r6,sp,120
  123d60:	9809883a 	mov	r4,r19
  123d64:	012bc1c0 	call	12bc1c <__ssprint_r>
  123d68:	103a081e 	bne	r2,zero,12258c <_gp+0xfffdeeb4>
  123d6c:	dc402617 	ldw	r17,152(sp)
  123d70:	d8c02017 	ldw	r3,128(sp)
  123d74:	da000404 	addi	r8,sp,16
  123d78:	003f4306 	br	123a88 <_gp+0xfffe03b0>
  123d7c:	01400184 	movi	r5,6
  123d80:	d9402a15 	stw	r5,168(sp)
  123d84:	003f9506 	br	123bdc <_gp+0xfffe0504>
  123d88:	d8c02e17 	ldw	r3,184(sp)
  123d8c:	1d000017 	ldw	r20,0(r3)
  123d90:	18c00104 	addi	r3,r3,4
  123d94:	d8c02e15 	stw	r3,184(sp)
  123d98:	a02dd7fa 	srai	r22,r20,31
  123d9c:	b005883a 	mov	r2,r22
  123da0:	003a7606 	br	12277c <_gp+0xfffdf0a4>
  123da4:	d9002e17 	ldw	r4,184(sp)
  123da8:	002d883a 	mov	r22,zero
  123dac:	25000017 	ldw	r20,0(r4)
  123db0:	21000104 	addi	r4,r4,4
  123db4:	d9002e15 	stw	r4,184(sp)
  123db8:	003bdd06 	br	122d30 <_gp+0xfffdf658>
  123dbc:	9480100c 	andi	r18,r18,64
  123dc0:	90006e26 	beq	r18,zero,123f7c <___svfprintf_internal_r+0x1d8c>
  123dc4:	d9402e17 	ldw	r5,184(sp)
  123dc8:	d8c02f17 	ldw	r3,188(sp)
  123dcc:	28800017 	ldw	r2,0(r5)
  123dd0:	29400104 	addi	r5,r5,4
  123dd4:	d9402e15 	stw	r5,184(sp)
  123dd8:	10c0000d 	sth	r3,0(r2)
  123ddc:	00392f06 	br	12229c <_gp+0xfffdebc4>
  123de0:	d9402d17 	ldw	r5,180(sp)
  123de4:	d9801e04 	addi	r6,sp,120
  123de8:	9809883a 	mov	r4,r19
  123dec:	012bc1c0 	call	12bc1c <__ssprint_r>
  123df0:	1039e61e 	bne	r2,zero,12258c <_gp+0xfffdeeb4>
  123df4:	d8c02017 	ldw	r3,128(sp)
  123df8:	d8801f17 	ldw	r2,124(sp)
  123dfc:	da000404 	addi	r8,sp,16
  123e00:	d9403317 	ldw	r5,204(sp)
  123e04:	10800044 	addi	r2,r2,1
  123e08:	44000015 	stw	r16,0(r8)
  123e0c:	28c7883a 	add	r3,r5,r3
  123e10:	003b5506 	br	122b68 <_gp+0xfffdf490>
  123e14:	8009883a 	mov	r4,r16
  123e18:	df003e15 	stw	fp,248(sp)
  123e1c:	01218f40 	call	1218f4 <strlen>
  123e20:	d8802b15 	stw	r2,172(sp)
  123e24:	da003e17 	ldw	r8,248(sp)
  123e28:	103c160e 	bge	r2,zero,122e84 <_gp+0xfffdf7ac>
  123e2c:	0005883a 	mov	r2,zero
  123e30:	003c1406 	br	122e84 <_gp+0xfffdf7ac>
  123e34:	00bfffc4 	movi	r2,-1
  123e38:	0039d906 	br	1225a0 <_gp+0xfffdeec8>
  123e3c:	01000534 	movhi	r4,20
  123e40:	2124cb84 	addi	r4,r4,-27858
  123e44:	d9003515 	stw	r4,212(sp)
  123e48:	003ae406 	br	1229dc <_gp+0xfffdf304>
  123e4c:	013fffc4 	movi	r4,-1
  123e50:	0039fa06 	br	12263c <_gp+0xfffdef64>
  123e54:	d9402d17 	ldw	r5,180(sp)
  123e58:	d9801e04 	addi	r6,sp,120
  123e5c:	9809883a 	mov	r4,r19
  123e60:	012bc1c0 	call	12bc1c <__ssprint_r>
  123e64:	1039c91e 	bne	r2,zero,12258c <_gp+0xfffdeeb4>
  123e68:	d8c02017 	ldw	r3,128(sp)
  123e6c:	da000404 	addi	r8,sp,16
  123e70:	003d8406 	br	123484 <_gp+0xfffdfdac>
  123e74:	0023883a 	mov	r17,zero
  123e78:	003d8306 	br	123488 <_gp+0xfffdfdb0>
  123e7c:	01000534 	movhi	r4,20
  123e80:	2124c784 	addi	r4,r4,-27874
  123e84:	d9002c15 	stw	r4,176(sp)
  123e88:	d9002c17 	ldw	r4,176(sp)
  123e8c:	1c47883a 	add	r3,r3,r17
  123e90:	10800044 	addi	r2,r2,1
  123e94:	41000015 	stw	r4,0(r8)
  123e98:	44400115 	stw	r17,4(r8)
  123e9c:	d8c02015 	stw	r3,128(sp)
  123ea0:	d8801f15 	stw	r2,124(sp)
  123ea4:	010001c4 	movi	r4,7
  123ea8:	20bfcd16 	blt	r4,r2,123de0 <_gp+0xfffe0708>
  123eac:	42000204 	addi	r8,r8,8
  123eb0:	003fd306 	br	123e00 <_gp+0xfffe0728>
  123eb4:	d9402d17 	ldw	r5,180(sp)
  123eb8:	d9801e04 	addi	r6,sp,120
  123ebc:	9809883a 	mov	r4,r19
  123ec0:	012bc1c0 	call	12bc1c <__ssprint_r>
  123ec4:	1039b11e 	bne	r2,zero,12258c <_gp+0xfffdeeb4>
  123ec8:	d8802617 	ldw	r2,152(sp)
  123ecc:	d8c02017 	ldw	r3,128(sp)
  123ed0:	da000404 	addi	r8,sp,16
  123ed4:	003e1c06 	br	123748 <_gp+0xfffe0070>
  123ed8:	d8802a17 	ldw	r2,168(sp)
  123edc:	00c00184 	movi	r3,6
  123ee0:	1880012e 	bgeu	r3,r2,123ee8 <___svfprintf_internal_r+0x1cf8>
  123ee4:	1805883a 	mov	r2,r3
  123ee8:	d8802b15 	stw	r2,172(sp)
  123eec:	1000f316 	blt	r2,zero,1242bc <___svfprintf_internal_r+0x20cc>
  123ef0:	04000534 	movhi	r16,20
  123ef4:	d8802915 	stw	r2,164(sp)
  123ef8:	dd002e15 	stw	r20,184(sp)
  123efc:	d8002a15 	stw	zero,168(sp)
  123f00:	d8003215 	stw	zero,200(sp)
  123f04:	8424c504 	addi	r16,r16,-27884
  123f08:	0039883a 	mov	fp,zero
  123f0c:	003a7d06 	br	122904 <_gp+0xfffdf22c>
  123f10:	01000534 	movhi	r4,20
  123f14:	2124cb84 	addi	r4,r4,-27858
  123f18:	d9003515 	stw	r4,212(sp)
  123f1c:	003b3d06 	br	122c14 <_gp+0xfffdf53c>
  123f20:	d9402d17 	ldw	r5,180(sp)
  123f24:	d9801e04 	addi	r6,sp,120
  123f28:	9809883a 	mov	r4,r19
  123f2c:	012bc1c0 	call	12bc1c <__ssprint_r>
  123f30:	1039961e 	bne	r2,zero,12258c <_gp+0xfffdeeb4>
  123f34:	d8802617 	ldw	r2,152(sp)
  123f38:	d9403317 	ldw	r5,204(sp)
  123f3c:	d8c02017 	ldw	r3,128(sp)
  123f40:	da000404 	addi	r8,sp,16
  123f44:	2885c83a 	sub	r2,r5,r2
  123f48:	003e1006 	br	12378c <_gp+0xfffe00b4>
  123f4c:	00800044 	movi	r2,1
  123f50:	10803fcc 	andi	r2,r2,255
  123f54:	00c00044 	movi	r3,1
  123f58:	10fa1026 	beq	r2,r3,12279c <_gp+0xfffdf0c4>
  123f5c:	00c00084 	movi	r3,2
  123f60:	10fb8226 	beq	r2,r3,122d6c <_gp+0xfffdf694>
  123f64:	003a4206 	br	122870 <_gp+0xfffdf198>
  123f68:	0021883a 	mov	r16,zero
  123f6c:	003e0806 	br	123790 <_gp+0xfffe00b8>
  123f70:	07000b44 	movi	fp,45
  123f74:	df002785 	stb	fp,158(sp)
  123f78:	0039e306 	br	122708 <_gp+0xfffdf030>
  123f7c:	d9002e17 	ldw	r4,184(sp)
  123f80:	d9402f17 	ldw	r5,188(sp)
  123f84:	20800017 	ldw	r2,0(r4)
  123f88:	21000104 	addi	r4,r4,4
  123f8c:	d9002e15 	stw	r4,184(sp)
  123f90:	11400015 	stw	r5,0(r2)
  123f94:	0038c106 	br	12229c <_gp+0xfffdebc4>
  123f98:	00c00b44 	movi	r3,45
  123f9c:	d8c02785 	stb	r3,158(sp)
  123fa0:	d8802915 	stw	r2,164(sp)
  123fa4:	dc802c17 	ldw	r18,176(sp)
  123fa8:	d8002a15 	stw	zero,168(sp)
  123fac:	07000b44 	movi	fp,45
  123fb0:	003a5106 	br	1228f8 <_gp+0xfffdf220>
  123fb4:	9080004c 	andi	r2,r18,1
  123fb8:	1000941e 	bne	r2,zero,12420c <___svfprintf_internal_r+0x201c>
  123fbc:	d8802117 	ldw	r2,132(sp)
  123fc0:	1405c83a 	sub	r2,r2,r16
  123fc4:	d8803315 	stw	r2,204(sp)
  123fc8:	b441151e 	bne	r22,r17,124420 <___svfprintf_internal_r+0x2230>
  123fcc:	dd802617 	ldw	r22,152(sp)
  123fd0:	00bfff44 	movi	r2,-3
  123fd4:	b0801a16 	blt	r22,r2,124040 <___svfprintf_internal_r+0x1e50>
  123fd8:	d9402a17 	ldw	r5,168(sp)
  123fdc:	2d801816 	blt	r5,r22,124040 <___svfprintf_internal_r+0x1e50>
  123fe0:	dd803215 	stw	r22,200(sp)
  123fe4:	003f3a06 	br	123cd0 <_gp+0xfffe05f8>
  123fe8:	1025883a 	mov	r18,r2
  123fec:	0039883a 	mov	fp,zero
  123ff0:	00800084 	movi	r2,2
  123ff4:	003fd606 	br	123f50 <_gp+0xfffe0878>
  123ff8:	9080004c 	andi	r2,r18,1
  123ffc:	103f191e 	bne	r2,zero,123c64 <_gp+0xfffe058c>
  124000:	d8802117 	ldw	r2,132(sp)
  124004:	003f2806 	br	123ca8 <_gp+0xfffe05d0>
  124008:	01000534 	movhi	r4,20
  12400c:	2124c784 	addi	r4,r4,-27874
  124010:	d9002c15 	stw	r4,176(sp)
  124014:	003c7c06 	br	123208 <_gp+0xfffdfb30>
  124018:	e005883a 	mov	r2,fp
  12401c:	003f2206 	br	123ca8 <_gp+0xfffe05d0>
  124020:	d9002a17 	ldw	r4,168(sp)
  124024:	df002783 	ldbu	fp,158(sp)
  124028:	dd002e15 	stw	r20,184(sp)
  12402c:	d9002915 	stw	r4,164(sp)
  124030:	d9002b15 	stw	r4,172(sp)
  124034:	d8002a15 	stw	zero,168(sp)
  124038:	d8003215 	stw	zero,200(sp)
  12403c:	003a2a06 	br	1228e8 <_gp+0xfffdf210>
  124040:	8c7fff84 	addi	r17,r17,-2
  124044:	b5bfffc4 	addi	r22,r22,-1
  124048:	dd802615 	stw	r22,152(sp)
  12404c:	dc4022c5 	stb	r17,139(sp)
  124050:	b000c316 	blt	r22,zero,124360 <___svfprintf_internal_r+0x2170>
  124054:	00800ac4 	movi	r2,43
  124058:	d8802305 	stb	r2,140(sp)
  12405c:	00800244 	movi	r2,9
  124060:	15806e16 	blt	r2,r22,12421c <___svfprintf_internal_r+0x202c>
  124064:	00800c04 	movi	r2,48
  124068:	b5800c04 	addi	r22,r22,48
  12406c:	d8802345 	stb	r2,141(sp)
  124070:	dd802385 	stb	r22,142(sp)
  124074:	d88023c4 	addi	r2,sp,143
  124078:	df0022c4 	addi	fp,sp,139
  12407c:	d8c03317 	ldw	r3,204(sp)
  124080:	1739c83a 	sub	fp,r2,fp
  124084:	d9003317 	ldw	r4,204(sp)
  124088:	e0c7883a 	add	r3,fp,r3
  12408c:	df003b15 	stw	fp,236(sp)
  124090:	d8c02b15 	stw	r3,172(sp)
  124094:	00800044 	movi	r2,1
  124098:	1100b70e 	bge	r2,r4,124378 <___svfprintf_internal_r+0x2188>
  12409c:	d8c02b17 	ldw	r3,172(sp)
  1240a0:	18c00044 	addi	r3,r3,1
  1240a4:	d8c02b15 	stw	r3,172(sp)
  1240a8:	1805883a 	mov	r2,r3
  1240ac:	1800b016 	blt	r3,zero,124370 <___svfprintf_internal_r+0x2180>
  1240b0:	d8003215 	stw	zero,200(sp)
  1240b4:	003f1006 	br	123cf8 <_gp+0xfffe0620>
  1240b8:	d8802a17 	ldw	r2,168(sp)
  1240bc:	103ec71e 	bne	r2,zero,123bdc <_gp+0xfffe0504>
  1240c0:	dc002a15 	stw	r16,168(sp)
  1240c4:	003ec506 	br	123bdc <_gp+0xfffe0504>
  1240c8:	d9402d17 	ldw	r5,180(sp)
  1240cc:	d9801e04 	addi	r6,sp,120
  1240d0:	9809883a 	mov	r4,r19
  1240d4:	012bc1c0 	call	12bc1c <__ssprint_r>
  1240d8:	10392c1e 	bne	r2,zero,12258c <_gp+0xfffdeeb4>
  1240dc:	dc402617 	ldw	r17,152(sp)
  1240e0:	d8c02017 	ldw	r3,128(sp)
  1240e4:	d8801f17 	ldw	r2,124(sp)
  1240e8:	da000404 	addi	r8,sp,16
  1240ec:	003e7706 	br	123acc <_gp+0xfffe03f4>
  1240f0:	182f883a 	mov	r23,r3
  1240f4:	d8002a15 	stw	zero,168(sp)
  1240f8:	00389306 	br	122348 <_gp+0xfffdec70>
  1240fc:	d8c02a17 	ldw	r3,168(sp)
  124100:	d8802104 	addi	r2,sp,132
  124104:	d8800315 	stw	r2,12(sp)
  124108:	d9403617 	ldw	r5,216(sp)
  12410c:	d8802504 	addi	r2,sp,148
  124110:	d8800215 	stw	r2,8(sp)
  124114:	d8802604 	addi	r2,sp,152
  124118:	d8c00015 	stw	r3,0(sp)
  12411c:	9809883a 	mov	r4,r19
  124120:	d8800115 	stw	r2,4(sp)
  124124:	01c000c4 	movi	r7,3
  124128:	a00d883a 	mov	r6,r20
  12412c:	da003e15 	stw	r8,248(sp)
  124130:	01261140 	call	126114 <_dtoa_r>
  124134:	d9002a17 	ldw	r4,168(sp)
  124138:	da003e17 	ldw	r8,248(sp)
  12413c:	1021883a 	mov	r16,r2
  124140:	1139883a 	add	fp,r2,r4
  124144:	2007883a 	mov	r3,r4
  124148:	81000007 	ldb	r4,0(r16)
  12414c:	00800c04 	movi	r2,48
  124150:	20806f26 	beq	r4,r2,124310 <___svfprintf_internal_r+0x2120>
  124154:	d8c02617 	ldw	r3,152(sp)
  124158:	e0f9883a 	add	fp,fp,r3
  12415c:	003ec206 	br	123c68 <_gp+0xfffe0590>
  124160:	00c00b44 	movi	r3,45
  124164:	2520003c 	xorhi	r20,r4,32768
  124168:	d8c02905 	stb	r3,164(sp)
  12416c:	003ea106 	br	123bf4 <_gp+0xfffe051c>
  124170:	d8c03217 	ldw	r3,200(sp)
  124174:	00c0890e 	bge	zero,r3,12439c <___svfprintf_internal_r+0x21ac>
  124178:	00800044 	movi	r2,1
  12417c:	d9003317 	ldw	r4,204(sp)
  124180:	1105883a 	add	r2,r2,r4
  124184:	d8802b15 	stw	r2,172(sp)
  124188:	10005f16 	blt	r2,zero,124308 <___svfprintf_internal_r+0x2118>
  12418c:	044019c4 	movi	r17,103
  124190:	003ed906 	br	123cf8 <_gp+0xfffe0620>
  124194:	d9002a17 	ldw	r4,168(sp)
  124198:	20c00044 	addi	r3,r4,1
  12419c:	003e9c06 	br	123c10 <_gp+0xfffe0538>
  1241a0:	d9002a17 	ldw	r4,168(sp)
  1241a4:	00c0680e 	bge	zero,r3,124348 <___svfprintf_internal_r+0x2158>
  1241a8:	2000461e 	bne	r4,zero,1242c4 <___svfprintf_internal_r+0x20d4>
  1241ac:	9480004c 	andi	r18,r18,1
  1241b0:	9000441e 	bne	r18,zero,1242c4 <___svfprintf_internal_r+0x20d4>
  1241b4:	1805883a 	mov	r2,r3
  1241b8:	1800a116 	blt	r3,zero,124440 <___svfprintf_internal_r+0x2250>
  1241bc:	d8c03217 	ldw	r3,200(sp)
  1241c0:	d8c02b15 	stw	r3,172(sp)
  1241c4:	003ecc06 	br	123cf8 <_gp+0xfffe0620>
  1241c8:	d9402a17 	ldw	r5,168(sp)
  1241cc:	d8802104 	addi	r2,sp,132
  1241d0:	d8800315 	stw	r2,12(sp)
  1241d4:	d9400015 	stw	r5,0(sp)
  1241d8:	d8802504 	addi	r2,sp,148
  1241dc:	d9403617 	ldw	r5,216(sp)
  1241e0:	d8800215 	stw	r2,8(sp)
  1241e4:	d8802604 	addi	r2,sp,152
  1241e8:	d8800115 	stw	r2,4(sp)
  1241ec:	01c000c4 	movi	r7,3
  1241f0:	a00d883a 	mov	r6,r20
  1241f4:	9809883a 	mov	r4,r19
  1241f8:	da003e15 	stw	r8,248(sp)
  1241fc:	01261140 	call	126114 <_dtoa_r>
  124200:	d8c02a17 	ldw	r3,168(sp)
  124204:	da003e17 	ldw	r8,248(sp)
  124208:	1021883a 	mov	r16,r2
  12420c:	00801184 	movi	r2,70
  124210:	80f9883a 	add	fp,r16,r3
  124214:	88bfcc26 	beq	r17,r2,124148 <_gp+0xfffe0a70>
  124218:	003e9306 	br	123c68 <_gp+0xfffe0590>
  12421c:	df0022c4 	addi	fp,sp,139
  124220:	dc002a15 	stw	r16,168(sp)
  124224:	9829883a 	mov	r20,r19
  124228:	e021883a 	mov	r16,fp
  12422c:	4027883a 	mov	r19,r8
  124230:	b009883a 	mov	r4,r22
  124234:	01400284 	movi	r5,10
  124238:	01212380 	call	121238 <__modsi3>
  12423c:	10800c04 	addi	r2,r2,48
  124240:	843fffc4 	addi	r16,r16,-1
  124244:	b009883a 	mov	r4,r22
  124248:	01400284 	movi	r5,10
  12424c:	80800005 	stb	r2,0(r16)
  124250:	01211b40 	call	1211b4 <__divsi3>
  124254:	102d883a 	mov	r22,r2
  124258:	00800244 	movi	r2,9
  12425c:	15bff416 	blt	r2,r22,124230 <_gp+0xfffe0b58>
  124260:	9811883a 	mov	r8,r19
  124264:	b0800c04 	addi	r2,r22,48
  124268:	a027883a 	mov	r19,r20
  12426c:	8029883a 	mov	r20,r16
  124270:	a17fffc4 	addi	r5,r20,-1
  124274:	a0bfffc5 	stb	r2,-1(r20)
  124278:	dc002a17 	ldw	r16,168(sp)
  12427c:	2f00782e 	bgeu	r5,fp,124460 <___svfprintf_internal_r+0x2270>
  124280:	d9c02384 	addi	r7,sp,142
  124284:	3d0fc83a 	sub	r7,r7,r20
  124288:	d9002344 	addi	r4,sp,141
  12428c:	e1cf883a 	add	r7,fp,r7
  124290:	00000106 	br	124298 <___svfprintf_internal_r+0x20a8>
  124294:	28800003 	ldbu	r2,0(r5)
  124298:	20800005 	stb	r2,0(r4)
  12429c:	21000044 	addi	r4,r4,1
  1242a0:	29400044 	addi	r5,r5,1
  1242a4:	21fffb1e 	bne	r4,r7,124294 <_gp+0xfffe0bbc>
  1242a8:	d8802304 	addi	r2,sp,140
  1242ac:	1505c83a 	sub	r2,r2,r20
  1242b0:	d8c02344 	addi	r3,sp,141
  1242b4:	1885883a 	add	r2,r3,r2
  1242b8:	003f7006 	br	12407c <_gp+0xfffe09a4>
  1242bc:	0005883a 	mov	r2,zero
  1242c0:	003f0b06 	br	123ef0 <_gp+0xfffe0818>
  1242c4:	d9002a17 	ldw	r4,168(sp)
  1242c8:	d8c03217 	ldw	r3,200(sp)
  1242cc:	20800044 	addi	r2,r4,1
  1242d0:	1885883a 	add	r2,r3,r2
  1242d4:	d8802b15 	stw	r2,172(sp)
  1242d8:	103e870e 	bge	r2,zero,123cf8 <_gp+0xfffe0620>
  1242dc:	0005883a 	mov	r2,zero
  1242e0:	003e8506 	br	123cf8 <_gp+0xfffe0620>
  1242e4:	01000534 	movhi	r4,20
  1242e8:	2124c784 	addi	r4,r4,-27874
  1242ec:	d9002c15 	stw	r4,176(sp)
  1242f0:	003cc506 	br	123608 <_gp+0xfffdff30>
  1242f4:	d8c03217 	ldw	r3,200(sp)
  1242f8:	18c00044 	addi	r3,r3,1
  1242fc:	d8c02b15 	stw	r3,172(sp)
  124300:	1805883a 	mov	r2,r3
  124304:	183fa10e 	bge	r3,zero,12418c <_gp+0xfffe0ab4>
  124308:	0005883a 	mov	r2,zero
  12430c:	003f9f06 	br	12418c <_gp+0xfffe0ab4>
  124310:	d9003617 	ldw	r4,216(sp)
  124314:	000d883a 	mov	r6,zero
  124318:	000f883a 	mov	r7,zero
  12431c:	a00b883a 	mov	r5,r20
  124320:	d8c03d15 	stw	r3,244(sp)
  124324:	da003e15 	stw	r8,248(sp)
  124328:	0132ab80 	call	132ab8 <__eqdf2>
  12432c:	d8c03d17 	ldw	r3,244(sp)
  124330:	da003e17 	ldw	r8,248(sp)
  124334:	103f8726 	beq	r2,zero,124154 <_gp+0xfffe0a7c>
  124338:	00800044 	movi	r2,1
  12433c:	10c7c83a 	sub	r3,r2,r3
  124340:	d8c02615 	stw	r3,152(sp)
  124344:	003f8406 	br	124158 <_gp+0xfffe0a80>
  124348:	20000e1e 	bne	r4,zero,124384 <___svfprintf_internal_r+0x2194>
  12434c:	9480004c 	andi	r18,r18,1
  124350:	90000c1e 	bne	r18,zero,124384 <___svfprintf_internal_r+0x2194>
  124354:	00800044 	movi	r2,1
  124358:	d8802b15 	stw	r2,172(sp)
  12435c:	003e6606 	br	123cf8 <_gp+0xfffe0620>
  124360:	00800b44 	movi	r2,45
  124364:	05adc83a 	sub	r22,zero,r22
  124368:	d8802305 	stb	r2,140(sp)
  12436c:	003f3b06 	br	12405c <_gp+0xfffe0984>
  124370:	0005883a 	mov	r2,zero
  124374:	003f4e06 	br	1240b0 <_gp+0xfffe09d8>
  124378:	90a4703a 	and	r18,r18,r2
  12437c:	903f4a26 	beq	r18,zero,1240a8 <_gp+0xfffe09d0>
  124380:	003f4606 	br	12409c <_gp+0xfffe09c4>
  124384:	d8c02a17 	ldw	r3,168(sp)
  124388:	18c00084 	addi	r3,r3,2
  12438c:	d8c02b15 	stw	r3,172(sp)
  124390:	1805883a 	mov	r2,r3
  124394:	183e580e 	bge	r3,zero,123cf8 <_gp+0xfffe0620>
  124398:	003fd006 	br	1242dc <_gp+0xfffe0c04>
  12439c:	00800084 	movi	r2,2
  1243a0:	10c5c83a 	sub	r2,r2,r3
  1243a4:	003f7506 	br	12417c <_gp+0xfffe0aa4>
  1243a8:	d9402e17 	ldw	r5,184(sp)
  1243ac:	d9002e17 	ldw	r4,184(sp)
  1243b0:	bc400043 	ldbu	r17,1(r23)
  1243b4:	29400017 	ldw	r5,0(r5)
  1243b8:	20800104 	addi	r2,r4,4
  1243bc:	d8802e15 	stw	r2,184(sp)
  1243c0:	d9402a15 	stw	r5,168(sp)
  1243c4:	182f883a 	mov	r23,r3
  1243c8:	283df10e 	bge	r5,zero,123b90 <_gp+0xfffe04b8>
  1243cc:	8c403fcc 	andi	r17,r17,255
  1243d0:	017fffc4 	movi	r5,-1
  1243d4:	8c40201c 	xori	r17,r17,128
  1243d8:	d9402a15 	stw	r5,168(sp)
  1243dc:	8c7fe004 	addi	r17,r17,-128
  1243e0:	0037d806 	br	122344 <_gp+0xfffdec6c>
  1243e4:	9080004c 	andi	r2,r18,1
  1243e8:	0039883a 	mov	fp,zero
  1243ec:	10000726 	beq	r2,zero,12440c <___svfprintf_internal_r+0x221c>
  1243f0:	d8c02817 	ldw	r3,160(sp)
  1243f4:	dc001dc4 	addi	r16,sp,119
  1243f8:	00800c04 	movi	r2,48
  1243fc:	1c07c83a 	sub	r3,r3,r16
  124400:	d8801dc5 	stb	r2,119(sp)
  124404:	d8c02b15 	stw	r3,172(sp)
  124408:	00393106 	br	1228d0 <_gp+0xfffdf1f8>
  12440c:	d8002b15 	stw	zero,172(sp)
  124410:	dc001e04 	addi	r16,sp,120
  124414:	00392e06 	br	1228d0 <_gp+0xfffdf1f8>
  124418:	0005883a 	mov	r2,zero
  12441c:	003e3306 	br	123cec <_gp+0xfffe0614>
  124420:	dd802617 	ldw	r22,152(sp)
  124424:	003f0706 	br	124044 <_gp+0xfffe096c>
  124428:	d8c02b03 	ldbu	r3,172(sp)
  12442c:	d8c02785 	stb	r3,158(sp)
  124430:	003a3506 	br	122d08 <_gp+0xfffdf630>
  124434:	d8c02b03 	ldbu	r3,172(sp)
  124438:	d8c02785 	stb	r3,158(sp)
  12443c:	003a1706 	br	122c9c <_gp+0xfffdf5c4>
  124440:	0005883a 	mov	r2,zero
  124444:	003f5d06 	br	1241bc <_gp+0xfffe0ae4>
  124448:	d8c02b03 	ldbu	r3,172(sp)
  12444c:	d8c02785 	stb	r3,158(sp)
  124450:	0038f306 	br	122820 <_gp+0xfffdf148>
  124454:	d8c02b03 	ldbu	r3,172(sp)
  124458:	d8c02785 	stb	r3,158(sp)
  12445c:	0038be06 	br	122758 <_gp+0xfffdf080>
  124460:	d8802344 	addi	r2,sp,141
  124464:	003f0506 	br	12407c <_gp+0xfffe09a4>
  124468:	d8c02b03 	ldbu	r3,172(sp)
  12446c:	d8c02785 	stb	r3,158(sp)
  124470:	00388b06 	br	1226a0 <_gp+0xfffdefc8>
  124474:	d8c02b03 	ldbu	r3,172(sp)
  124478:	d8c02785 	stb	r3,158(sp)
  12447c:	003ad706 	br	122fdc <_gp+0xfffdf904>
  124480:	d9403917 	ldw	r5,228(sp)
  124484:	00800304 	movi	r2,12
  124488:	28800015 	stw	r2,0(r5)
  12448c:	00bfffc4 	movi	r2,-1
  124490:	00384306 	br	1225a0 <_gp+0xfffdeec8>
  124494:	d8c02b03 	ldbu	r3,172(sp)
  124498:	d8c02785 	stb	r3,158(sp)
  12449c:	003ab606 	br	122f78 <_gp+0xfffdf8a0>
  1244a0:	d8c02b03 	ldbu	r3,172(sp)
  1244a4:	d8c02785 	stb	r3,158(sp)
  1244a8:	003a8906 	br	122ed0 <_gp+0xfffdf7f8>

001244ac <__ssvfscanf_r>:
  1244ac:	2880030b 	ldhu	r2,12(r5)
  1244b0:	deff4b04 	addi	sp,sp,-724
  1244b4:	df00b315 	stw	fp,716(sp)
  1244b8:	ddc0b215 	stw	r23,712(sp)
  1244bc:	dfc0b415 	stw	ra,720(sp)
  1244c0:	dd80b115 	stw	r22,708(sp)
  1244c4:	dd40b015 	stw	r21,704(sp)
  1244c8:	dd00af15 	stw	r20,700(sp)
  1244cc:	dcc0ae15 	stw	r19,696(sp)
  1244d0:	dc80ad15 	stw	r18,692(sp)
  1244d4:	dc40ac15 	stw	r17,688(sp)
  1244d8:	dc00ab15 	stw	r16,684(sp)
  1244dc:	10c8000c 	andi	r3,r2,8192
  1244e0:	d9c09c15 	stw	r7,624(sp)
  1244e4:	2839883a 	mov	fp,r5
  1244e8:	202f883a 	mov	r23,r4
  1244ec:	1800061e 	bne	r3,zero,124508 <__ssvfscanf_r+0x5c>
  1244f0:	29001917 	ldw	r4,100(r5)
  1244f4:	00f7ffc4 	movi	r3,-8193
  1244f8:	10880014 	ori	r2,r2,8192
  1244fc:	20c6703a 	and	r3,r4,r3
  124500:	2880030d 	sth	r2,12(r5)
  124504:	28c01915 	stw	r3,100(r5)
  124508:	30800003 	ldbu	r2,0(r6)
  12450c:	0021883a 	mov	r16,zero
  124510:	05800534 	movhi	r22,20
  124514:	d800a115 	stw	zero,644(sp)
  124518:	d8009e15 	stw	zero,632(sp)
  12451c:	d800a015 	stw	zero,640(sp)
  124520:	d8809b15 	stw	r2,620(sp)
  124524:	b5adb804 	addi	r22,r22,-18720
  124528:	8025883a 	mov	r18,r16
  12452c:	e027883a 	mov	r19,fp
  124530:	35000044 	addi	r20,r6,1
  124534:	10001e26 	beq	r2,zero,1245b0 <__ssvfscanf_r+0x104>
  124538:	b4000017 	ldw	r16,0(r22)
  12453c:	8087883a 	add	r3,r16,r2
  124540:	18c00043 	ldbu	r3,1(r3)
  124544:	18c0020c 	andi	r3,r3,8
  124548:	18001b26 	beq	r3,zero,1245b8 <__ssvfscanf_r+0x10c>
  12454c:	98800117 	ldw	r2,4(r19)
  124550:	00800e0e 	bge	zero,r2,12458c <__ssvfscanf_r+0xe0>
  124554:	98c00017 	ldw	r3,0(r19)
  124558:	b1000017 	ldw	r4,0(r22)
  12455c:	18800003 	ldbu	r2,0(r3)
  124560:	2085883a 	add	r2,r4,r2
  124564:	10800043 	ldbu	r2,1(r2)
  124568:	1080020c 	andi	r2,r2,8
  12456c:	10000b26 	beq	r2,zero,12459c <__ssvfscanf_r+0xf0>
  124570:	98800117 	ldw	r2,4(r19)
  124574:	18c00044 	addi	r3,r3,1
  124578:	98c00015 	stw	r3,0(r19)
  12457c:	10bfffc4 	addi	r2,r2,-1
  124580:	98800115 	stw	r2,4(r19)
  124584:	94800044 	addi	r18,r18,1
  124588:	00bff216 	blt	zero,r2,124554 <_gp+0xfffe0e7c>
  12458c:	980b883a 	mov	r5,r19
  124590:	b809883a 	mov	r4,r23
  124594:	012d2940 	call	12d294 <__ssrefill_r>
  124598:	103fee26 	beq	r2,zero,124554 <_gp+0xfffe0e7c>
  12459c:	a00d883a 	mov	r6,r20
  1245a0:	30800003 	ldbu	r2,0(r6)
  1245a4:	35000044 	addi	r20,r6,1
  1245a8:	d8809b15 	stw	r2,620(sp)
  1245ac:	103fe21e 	bne	r2,zero,124538 <_gp+0xfffe0e60>
  1245b0:	d880a017 	ldw	r2,640(sp)
  1245b4:	00009a06 	br	124820 <__ssvfscanf_r+0x374>
  1245b8:	00c00944 	movi	r3,37
  1245bc:	10c0891e 	bne	r2,r3,1247e4 <__ssvfscanf_r+0x338>
  1245c0:	0039883a 	mov	fp,zero
  1245c4:	35400043 	ldbu	r21,1(r6)
  1245c8:	0023883a 	mov	r17,zero
  1245cc:	01801e04 	movi	r6,120
  1245d0:	00c01b04 	movi	r3,108
  1245d4:	e009883a 	mov	r4,fp
  1245d8:	a1c00044 	addi	r7,r20,1
  1245dc:	3540a236 	bltu	r6,r21,124868 <__ssvfscanf_r+0x3bc>
  1245e0:	a80490ba 	slli	r2,r21,2
  1245e4:	014004b4 	movhi	r5,18
  1245e8:	29517e04 	addi	r5,r5,17912
  1245ec:	1145883a 	add	r2,r2,r5
  1245f0:	10800017 	ldw	r2,0(r2)
  1245f4:	1000683a 	jmp	r2
  1245f8:	0012481c 	xori	zero,zero,18720
  1245fc:	00124868 	cmpgeui	zero,zero,18721
  124600:	00124868 	cmpgeui	zero,zero,18721
  124604:	00124868 	cmpgeui	zero,zero,18721
  124608:	00124868 	cmpgeui	zero,zero,18721
  12460c:	00124868 	cmpgeui	zero,zero,18721
  124610:	00124868 	cmpgeui	zero,zero,18721
  124614:	00124868 	cmpgeui	zero,zero,18721
  124618:	00124868 	cmpgeui	zero,zero,18721
  12461c:	00124868 	cmpgeui	zero,zero,18721
  124620:	00124868 	cmpgeui	zero,zero,18721
  124624:	00124868 	cmpgeui	zero,zero,18721
  124628:	00124868 	cmpgeui	zero,zero,18721
  12462c:	00124868 	cmpgeui	zero,zero,18721
  124630:	00124868 	cmpgeui	zero,zero,18721
  124634:	00124868 	cmpgeui	zero,zero,18721
  124638:	00124868 	cmpgeui	zero,zero,18721
  12463c:	00124868 	cmpgeui	zero,zero,18721
  124640:	00124868 	cmpgeui	zero,zero,18721
  124644:	00124868 	cmpgeui	zero,zero,18721
  124648:	00124868 	cmpgeui	zero,zero,18721
  12464c:	00124868 	cmpgeui	zero,zero,18721
  124650:	00124868 	cmpgeui	zero,zero,18721
  124654:	00124868 	cmpgeui	zero,zero,18721
  124658:	00124868 	cmpgeui	zero,zero,18721
  12465c:	00124868 	cmpgeui	zero,zero,18721
  124660:	00124868 	cmpgeui	zero,zero,18721
  124664:	00124868 	cmpgeui	zero,zero,18721
  124668:	00124868 	cmpgeui	zero,zero,18721
  12466c:	00124868 	cmpgeui	zero,zero,18721
  124670:	00124868 	cmpgeui	zero,zero,18721
  124674:	00124868 	cmpgeui	zero,zero,18721
  124678:	00124868 	cmpgeui	zero,zero,18721
  12467c:	00124868 	cmpgeui	zero,zero,18721
  124680:	00124868 	cmpgeui	zero,zero,18721
  124684:	00124868 	cmpgeui	zero,zero,18721
  124688:	00124868 	cmpgeui	zero,zero,18721
  12468c:	001247dc 	xori	zero,zero,18719
  124690:	00124868 	cmpgeui	zero,zero,18721
  124694:	00124868 	cmpgeui	zero,zero,18721
  124698:	00124868 	cmpgeui	zero,zero,18721
  12469c:	00124868 	cmpgeui	zero,zero,18721
  1246a0:	00124850 	cmplti	zero,zero,18721
  1246a4:	00124868 	cmpgeui	zero,zero,18721
  1246a8:	00124868 	cmpgeui	zero,zero,18721
  1246ac:	00124868 	cmpgeui	zero,zero,18721
  1246b0:	00124868 	cmpgeui	zero,zero,18721
  1246b4:	00124868 	cmpgeui	zero,zero,18721
  1246b8:	001249b0 	cmpltui	zero,zero,18726
  1246bc:	001249b0 	cmpltui	zero,zero,18726
  1246c0:	001249b0 	cmpltui	zero,zero,18726
  1246c4:	001249b0 	cmpltui	zero,zero,18726
  1246c8:	001249b0 	cmpltui	zero,zero,18726
  1246cc:	001249b0 	cmpltui	zero,zero,18726
  1246d0:	001249b0 	cmpltui	zero,zero,18726
  1246d4:	001249b0 	cmpltui	zero,zero,18726
  1246d8:	001249b0 	cmpltui	zero,zero,18726
  1246dc:	001249b0 	cmpltui	zero,zero,18726
  1246e0:	00124868 	cmpgeui	zero,zero,18721
  1246e4:	00124868 	cmpgeui	zero,zero,18721
  1246e8:	00124868 	cmpgeui	zero,zero,18721
  1246ec:	00124868 	cmpgeui	zero,zero,18721
  1246f0:	00124868 	cmpgeui	zero,zero,18721
  1246f4:	00124868 	cmpgeui	zero,zero,18721
  1246f8:	00124868 	cmpgeui	zero,zero,18721
  1246fc:	00124868 	cmpgeui	zero,zero,18721
  124700:	00124868 	cmpgeui	zero,zero,18721
  124704:	00124868 	cmpgeui	zero,zero,18721
  124708:	00124980 	call	12498 <__alt_mem_onchip_flash_data-0x6db68>
  12470c:	00124a5c 	xori	zero,zero,18729
  124710:	00124868 	cmpgeui	zero,zero,18721
  124714:	00124a5c 	xori	zero,zero,18729
  124718:	00124868 	cmpgeui	zero,zero,18721
  12471c:	00124868 	cmpgeui	zero,zero,18721
  124720:	00124868 	cmpgeui	zero,zero,18721
  124724:	00124868 	cmpgeui	zero,zero,18721
  124728:	00124a48 	cmpgei	zero,zero,18729
  12472c:	00124868 	cmpgeui	zero,zero,18721
  124730:	00124868 	cmpgeui	zero,zero,18721
  124734:	00124a18 	cmpnei	zero,zero,18728
  124738:	00124868 	cmpgeui	zero,zero,18721
  12473c:	00124868 	cmpgeui	zero,zero,18721
  124740:	00124868 	cmpgeui	zero,zero,18721
  124744:	00124868 	cmpgeui	zero,zero,18721
  124748:	00124868 	cmpgeui	zero,zero,18721
  12474c:	00124868 	cmpgeui	zero,zero,18721
  124750:	00124868 	cmpgeui	zero,zero,18721
  124754:	00124868 	cmpgeui	zero,zero,18721
  124758:	001249e8 	cmpgeui	zero,zero,18727
  12475c:	00124868 	cmpgeui	zero,zero,18721
  124760:	00124868 	cmpgeui	zero,zero,18721
  124764:	00124ba4 	muli	zero,zero,18734
  124768:	00124868 	cmpgeui	zero,zero,18721
  12476c:	00124868 	cmpgeui	zero,zero,18721
  124770:	00124868 	cmpgeui	zero,zero,18721
  124774:	00124868 	cmpgeui	zero,zero,18721
  124778:	00124868 	cmpgeui	zero,zero,18721
  12477c:	00124868 	cmpgeui	zero,zero,18721
  124780:	00124868 	cmpgeui	zero,zero,18721
  124784:	00124b24 	muli	zero,zero,18732
  124788:	00124af8 	rdprs	zero,zero,18731
  12478c:	00124a5c 	xori	zero,zero,18729
  124790:	00124a5c 	xori	zero,zero,18729
  124794:	00124a5c 	xori	zero,zero,18729
  124798:	00124ae4 	muli	zero,zero,18731
  12479c:	00124c34 	movhi	zero,18736
  1247a0:	00124868 	cmpgeui	zero,zero,18721
  1247a4:	00124868 	cmpgeui	zero,zero,18721
  1247a8:	00124ad0 	cmplti	zero,zero,18731
  1247ac:	00124868 	cmpgeui	zero,zero,18721
  1247b0:	00124aa0 	cmpeqi	zero,zero,18730
  1247b4:	00124a74 	movhi	zero,18729
  1247b8:	00124950 	cmplti	zero,zero,18725
  1247bc:	00124868 	cmpgeui	zero,zero,18721
  1247c0:	00124868 	cmpgeui	zero,zero,18721
  1247c4:	00124938 	rdprs	zero,zero,18724
  1247c8:	00124868 	cmpgeui	zero,zero,18721
  1247cc:	001248bc 	xorhi	zero,zero,18722
  1247d0:	00124868 	cmpgeui	zero,zero,18721
  1247d4:	00124868 	cmpgeui	zero,zero,18721
  1247d8:	001249e8 	cmpgeui	zero,zero,18727
  1247dc:	d9c09d15 	stw	r7,628(sp)
  1247e0:	3829883a 	mov	r20,r7
  1247e4:	98800117 	ldw	r2,4(r19)
  1247e8:	0081c60e 	bge	zero,r2,124f04 <__ssvfscanf_r+0xa58>
  1247ec:	98800017 	ldw	r2,0(r19)
  1247f0:	a0ffffc3 	ldbu	r3,-1(r20)
  1247f4:	11000003 	ldbu	r4,0(r2)
  1247f8:	20ff6d1e 	bne	r4,r3,1245b0 <_gp+0xfffe0ed8>
  1247fc:	98c00117 	ldw	r3,4(r19)
  124800:	10800044 	addi	r2,r2,1
  124804:	98800015 	stw	r2,0(r19)
  124808:	18bfffc4 	addi	r2,r3,-1
  12480c:	98800115 	stw	r2,4(r19)
  124810:	94800044 	addi	r18,r18,1
  124814:	a00d883a 	mov	r6,r20
  124818:	003f6106 	br	1245a0 <_gp+0xfffe0ec8>
  12481c:	00bfffc4 	movi	r2,-1
  124820:	dfc0b417 	ldw	ra,720(sp)
  124824:	df00b317 	ldw	fp,716(sp)
  124828:	ddc0b217 	ldw	r23,712(sp)
  12482c:	dd80b117 	ldw	r22,708(sp)
  124830:	dd40b017 	ldw	r21,704(sp)
  124834:	dd00af17 	ldw	r20,700(sp)
  124838:	dcc0ae17 	ldw	r19,696(sp)
  12483c:	dc80ad17 	ldw	r18,692(sp)
  124840:	dc40ac17 	ldw	r17,688(sp)
  124844:	dc00ab17 	ldw	r16,684(sp)
  124848:	dec0b504 	addi	sp,sp,724
  12484c:	f800283a 	ret
  124850:	a1400043 	ldbu	r5,1(r20)
  124854:	3829883a 	mov	r20,r7
  124858:	8c400414 	ori	r17,r17,16
  12485c:	2d403fcc 	andi	r21,r5,255
  124860:	a1c00044 	addi	r7,r20,1
  124864:	357f5e2e 	bgeu	r6,r21,1245e0 <_gp+0xfffe0f08>
  124868:	856b883a 	add	r21,r16,r21
  12486c:	a8800043 	ldbu	r2,1(r21)
  124870:	d9c09d15 	stw	r7,628(sp)
  124874:	00c00044 	movi	r3,1
  124878:	108000cc 	andi	r2,r2,3
  12487c:	2039883a 	mov	fp,r4
  124880:	10c1a526 	beq	r2,r3,124f18 <__ssvfscanf_r+0xa6c>
  124884:	98800117 	ldw	r2,4(r19)
  124888:	00804216 	blt	zero,r2,124994 <__ssvfscanf_r+0x4e8>
  12488c:	980b883a 	mov	r5,r19
  124890:	b809883a 	mov	r4,r23
  124894:	012d2940 	call	12d294 <__ssrefill_r>
  124898:	10015e1e 	bne	r2,zero,124e14 <__ssvfscanf_r+0x968>
  12489c:	010004f4 	movhi	r4,19
  1248a0:	212c3c04 	addi	r4,r4,-20240
  1248a4:	01400284 	movi	r5,10
  1248a8:	b4000017 	ldw	r16,0(r22)
  1248ac:	d900a115 	stw	r4,644(sp)
  1248b0:	d9409e15 	stw	r5,632(sp)
  1248b4:	050000c4 	movi	r20,3
  1248b8:	00000a06 	br	1248e4 <__ssvfscanf_r+0x438>
  1248bc:	98800117 	ldw	r2,4(r19)
  1248c0:	d9c09d15 	stw	r7,628(sp)
  1248c4:	2039883a 	mov	fp,r4
  1248c8:	0081e20e 	bge	zero,r2,125054 <__ssvfscanf_r+0xba8>
  1248cc:	00c004f4 	movhi	r3,19
  1248d0:	18ed9a04 	addi	r3,r3,-18840
  1248d4:	01000284 	movi	r4,10
  1248d8:	d8c0a115 	stw	r3,644(sp)
  1248dc:	d9009e15 	stw	r4,632(sp)
  1248e0:	050000c4 	movi	r20,3
  1248e4:	98c00017 	ldw	r3,0(r19)
  1248e8:	00000206 	br	1248f4 <__ssvfscanf_r+0x448>
  1248ec:	18c00044 	addi	r3,r3,1
  1248f0:	98c00015 	stw	r3,0(r19)
  1248f4:	19000003 	ldbu	r4,0(r3)
  1248f8:	20803fcc 	andi	r2,r4,255
  1248fc:	8085883a 	add	r2,r16,r2
  124900:	10800043 	ldbu	r2,1(r2)
  124904:	1140020c 	andi	r5,r2,8
  124908:	28020126 	beq	r5,zero,125110 <__ssvfscanf_r+0xc64>
  12490c:	98800117 	ldw	r2,4(r19)
  124910:	94800044 	addi	r18,r18,1
  124914:	10bfffc4 	addi	r2,r2,-1
  124918:	98800115 	stw	r2,4(r19)
  12491c:	00bff316 	blt	zero,r2,1248ec <_gp+0xfffe1214>
  124920:	980b883a 	mov	r5,r19
  124924:	b809883a 	mov	r4,r23
  124928:	012d2940 	call	12d294 <__ssrefill_r>
  12492c:	1001391e 	bne	r2,zero,124e14 <__ssvfscanf_r+0x968>
  124930:	b4000017 	ldw	r16,0(r22)
  124934:	003feb06 	br	1248e4 <_gp+0xfffe120c>
  124938:	98800117 	ldw	r2,4(r19)
  12493c:	d9c09d15 	stw	r7,628(sp)
  124940:	2039883a 	mov	fp,r4
  124944:	0081aa0e 	bge	zero,r2,124ff0 <__ssvfscanf_r+0xb44>
  124948:	05000084 	movi	r20,2
  12494c:	003fe506 	br	1248e4 <_gp+0xfffe120c>
  124950:	98800117 	ldw	r2,4(r19)
  124954:	d9c09d15 	stw	r7,628(sp)
  124958:	2039883a 	mov	fp,r4
  12495c:	8c408814 	ori	r17,r17,544
  124960:	0081df0e 	bge	zero,r2,1250e0 <__ssvfscanf_r+0xc34>
  124964:	00c004f4 	movhi	r3,19
  124968:	18ed9a04 	addi	r3,r3,-18840
  12496c:	01000404 	movi	r4,16
  124970:	d8c0a115 	stw	r3,644(sp)
  124974:	d9009e15 	stw	r4,632(sp)
  124978:	050000c4 	movi	r20,3
  12497c:	003fd906 	br	1248e4 <_gp+0xfffe120c>
  124980:	98800117 	ldw	r2,4(r19)
  124984:	d9c09d15 	stw	r7,628(sp)
  124988:	2039883a 	mov	fp,r4
  12498c:	8c400054 	ori	r17,r17,1
  124990:	0081850e 	bge	zero,r2,124fa8 <__ssvfscanf_r+0xafc>
  124994:	00c004f4 	movhi	r3,19
  124998:	18ec3c04 	addi	r3,r3,-20240
  12499c:	01000284 	movi	r4,10
  1249a0:	d8c0a115 	stw	r3,644(sp)
  1249a4:	d9009e15 	stw	r4,632(sp)
  1249a8:	050000c4 	movi	r20,3
  1249ac:	003fcd06 	br	1248e4 <_gp+0xfffe120c>
  1249b0:	01400284 	movi	r5,10
  1249b4:	d8c0a615 	stw	r3,664(sp)
  1249b8:	d980a915 	stw	r6,676(sp)
  1249bc:	d9c0aa15 	stw	r7,680(sp)
  1249c0:	01213680 	call	121368 <__mulsi3>
  1249c4:	a1400043 	ldbu	r5,1(r20)
  1249c8:	d9c0aa17 	ldw	r7,680(sp)
  1249cc:	1545883a 	add	r2,r2,r21
  1249d0:	113ff404 	addi	r4,r2,-48
  1249d4:	3829883a 	mov	r20,r7
  1249d8:	2d403fcc 	andi	r21,r5,255
  1249dc:	d8c0a617 	ldw	r3,664(sp)
  1249e0:	d980a917 	ldw	r6,676(sp)
  1249e4:	003efc06 	br	1245d8 <_gp+0xfffe0f00>
  1249e8:	98800117 	ldw	r2,4(r19)
  1249ec:	d9c09d15 	stw	r7,628(sp)
  1249f0:	2039883a 	mov	fp,r4
  1249f4:	8c408014 	ori	r17,r17,512
  1249f8:	0081710e 	bge	zero,r2,124fc0 <__ssvfscanf_r+0xb14>
  1249fc:	014004f4 	movhi	r5,19
  124a00:	296d9a04 	addi	r5,r5,-18840
  124a04:	00800404 	movi	r2,16
  124a08:	d940a115 	stw	r5,644(sp)
  124a0c:	d8809e15 	stw	r2,632(sp)
  124a10:	050000c4 	movi	r20,3
  124a14:	003fb306 	br	1248e4 <_gp+0xfffe120c>
  124a18:	98800117 	ldw	r2,4(r19)
  124a1c:	d9c09d15 	stw	r7,628(sp)
  124a20:	2039883a 	mov	fp,r4
  124a24:	8c400054 	ori	r17,r17,1
  124a28:	0081840e 	bge	zero,r2,12503c <__ssvfscanf_r+0xb90>
  124a2c:	014004f4 	movhi	r5,19
  124a30:	296d9a04 	addi	r5,r5,-18840
  124a34:	00800204 	movi	r2,8
  124a38:	d940a115 	stw	r5,644(sp)
  124a3c:	d8809e15 	stw	r2,632(sp)
  124a40:	050000c4 	movi	r20,3
  124a44:	003fa706 	br	1248e4 <_gp+0xfffe120c>
  124a48:	a1400043 	ldbu	r5,1(r20)
  124a4c:	8c400094 	ori	r17,r17,2
  124a50:	3829883a 	mov	r20,r7
  124a54:	2d403fcc 	andi	r21,r5,255
  124a58:	003edf06 	br	1245d8 <_gp+0xfffe0f00>
  124a5c:	98800117 	ldw	r2,4(r19)
  124a60:	d9c09d15 	stw	r7,628(sp)
  124a64:	2039883a 	mov	fp,r4
  124a68:	00816d0e 	bge	zero,r2,125020 <__ssvfscanf_r+0xb74>
  124a6c:	05000104 	movi	r20,4
  124a70:	003f9c06 	br	1248e4 <_gp+0xfffe120c>
  124a74:	98800117 	ldw	r2,4(r19)
  124a78:	d9c09d15 	stw	r7,628(sp)
  124a7c:	2039883a 	mov	fp,r4
  124a80:	0081800e 	bge	zero,r2,125084 <__ssvfscanf_r+0xbd8>
  124a84:	010004f4 	movhi	r4,19
  124a88:	212d9a04 	addi	r4,r4,-18840
  124a8c:	01400204 	movi	r5,8
  124a90:	d900a115 	stw	r4,644(sp)
  124a94:	d9409e15 	stw	r5,632(sp)
  124a98:	050000c4 	movi	r20,3
  124a9c:	003f9106 	br	1248e4 <_gp+0xfffe120c>
  124aa0:	d9c09d15 	stw	r7,628(sp)
  124aa4:	8880040c 	andi	r2,r17,16
  124aa8:	1000a01e 	bne	r2,zero,124d2c <__ssvfscanf_r+0x880>
  124aac:	8880010c 	andi	r2,r17,4
  124ab0:	10012826 	beq	r2,zero,124f54 <__ssvfscanf_r+0xaa8>
  124ab4:	d9009c17 	ldw	r4,624(sp)
  124ab8:	3829883a 	mov	r20,r7
  124abc:	20800017 	ldw	r2,0(r4)
  124ac0:	21000104 	addi	r4,r4,4
  124ac4:	d9009c15 	stw	r4,624(sp)
  124ac8:	1480000d 	sth	r18,0(r2)
  124acc:	003eb306 	br	12459c <_gp+0xfffe0ec4>
  124ad0:	a5400043 	ldbu	r21,1(r20)
  124ad4:	a8c11a26 	beq	r21,r3,124f40 <__ssvfscanf_r+0xa94>
  124ad8:	8c400054 	ori	r17,r17,1
  124adc:	3829883a 	mov	r20,r7
  124ae0:	003ebd06 	br	1245d8 <_gp+0xfffe0f00>
  124ae4:	a1400043 	ldbu	r5,1(r20)
  124ae8:	8c400114 	ori	r17,r17,4
  124aec:	3829883a 	mov	r20,r7
  124af0:	2d403fcc 	andi	r21,r5,255
  124af4:	003eb806 	br	1245d8 <_gp+0xfffe0f00>
  124af8:	98800117 	ldw	r2,4(r19)
  124afc:	d9c09d15 	stw	r7,628(sp)
  124b00:	2039883a 	mov	fp,r4
  124b04:	00bf610e 	bge	zero,r2,12488c <_gp+0xfffe11b4>
  124b08:	008004f4 	movhi	r2,19
  124b0c:	10ac3c04 	addi	r2,r2,-20240
  124b10:	00c00284 	movi	r3,10
  124b14:	d880a115 	stw	r2,644(sp)
  124b18:	d8c09e15 	stw	r3,632(sp)
  124b1c:	050000c4 	movi	r20,3
  124b20:	003f7006 	br	1248e4 <_gp+0xfffe120c>
  124b24:	98800117 	ldw	r2,4(r19)
  124b28:	d9c09d15 	stw	r7,628(sp)
  124b2c:	2039883a 	mov	fp,r4
  124b30:	0080c60e 	bge	zero,r2,124e4c <__ssvfscanf_r+0x9a0>
  124b34:	e000011e 	bne	fp,zero,124b3c <__ssvfscanf_r+0x690>
  124b38:	07000044 	movi	fp,1
  124b3c:	8880004c 	andi	r2,r17,1
  124b40:	1000461e 	bne	r2,zero,124c5c <__ssvfscanf_r+0x7b0>
  124b44:	8c40040c 	andi	r17,r17,16
  124b48:	8800dc26 	beq	r17,zero,124ebc <__ssvfscanf_r+0xa10>
  124b4c:	0021883a 	mov	r16,zero
  124b50:	00000806 	br	124b74 <__ssvfscanf_r+0x6c8>
  124b54:	1887883a 	add	r3,r3,r2
  124b58:	980b883a 	mov	r5,r19
  124b5c:	b809883a 	mov	r4,r23
  124b60:	98c00015 	stw	r3,0(r19)
  124b64:	80a1883a 	add	r16,r16,r2
  124b68:	e0b9c83a 	sub	fp,fp,r2
  124b6c:	012d2940 	call	12d294 <__ssrefill_r>
  124b70:	1000cc1e 	bne	r2,zero,124ea4 <__ssvfscanf_r+0x9f8>
  124b74:	98800117 	ldw	r2,4(r19)
  124b78:	98c00017 	ldw	r3,0(r19)
  124b7c:	173ff516 	blt	r2,fp,124b54 <_gp+0xfffe147c>
  124b80:	1705c83a 	sub	r2,r2,fp
  124b84:	1f15883a 	add	r10,r3,fp
  124b88:	8721883a 	add	r16,r16,fp
  124b8c:	98800115 	stw	r2,4(r19)
  124b90:	9a800015 	stw	r10,0(r19)
  124b94:	dd009d17 	ldw	r20,628(sp)
  124b98:	9425883a 	add	r18,r18,r16
  124b9c:	a00d883a 	mov	r6,r20
  124ba0:	003e7f06 	br	1245a0 <_gp+0xfffe0ec8>
  124ba4:	2039883a 	mov	fp,r4
  124ba8:	380b883a 	mov	r5,r7
  124bac:	d9005884 	addi	r4,sp,354
  124bb0:	d9c09d15 	stw	r7,628(sp)
  124bb4:	01296780 	call	129678 <__sccl>
  124bb8:	1029883a 	mov	r20,r2
  124bbc:	98800117 	ldw	r2,4(r19)
  124bc0:	0081120e 	bge	zero,r2,12500c <__ssvfscanf_r+0xb60>
  124bc4:	99000017 	ldw	r4,0(r19)
  124bc8:	20800003 	ldbu	r2,0(r4)
  124bcc:	e0005a26 	beq	fp,zero,124d38 <__ssvfscanf_r+0x88c>
  124bd0:	8c40040c 	andi	r17,r17,16
  124bd4:	88005b26 	beq	r17,zero,124d44 <__ssvfscanf_r+0x898>
  124bd8:	e023883a 	mov	r17,fp
  124bdc:	0021883a 	mov	r16,zero
  124be0:	00000106 	br	124be8 <__ssvfscanf_r+0x73c>
  124be4:	20800003 	ldbu	r2,0(r4)
  124be8:	10803fcc 	andi	r2,r2,255
  124bec:	d8c05884 	addi	r3,sp,354
  124bf0:	1885883a 	add	r2,r3,r2
  124bf4:	10800007 	ldb	r2,0(r2)
  124bf8:	1000ae26 	beq	r2,zero,124eb4 <__ssvfscanf_r+0xa08>
  124bfc:	98800117 	ldw	r2,4(r19)
  124c00:	21000044 	addi	r4,r4,1
  124c04:	84000044 	addi	r16,r16,1
  124c08:	10bfffc4 	addi	r2,r2,-1
  124c0c:	98800115 	stw	r2,4(r19)
  124c10:	99000015 	stw	r4,0(r19)
  124c14:	8700a126 	beq	r16,fp,124e9c <__ssvfscanf_r+0x9f0>
  124c18:	00bff216 	blt	zero,r2,124be4 <_gp+0xfffe150c>
  124c1c:	980b883a 	mov	r5,r19
  124c20:	b809883a 	mov	r4,r23
  124c24:	012d2940 	call	12d294 <__ssrefill_r>
  124c28:	10009b1e 	bne	r2,zero,124e98 <__ssvfscanf_r+0x9ec>
  124c2c:	99000017 	ldw	r4,0(r19)
  124c30:	003fec06 	br	124be4 <_gp+0xfffe150c>
  124c34:	98800117 	ldw	r2,4(r19)
  124c38:	d9c09d15 	stw	r7,628(sp)
  124c3c:	2039883a 	mov	fp,r4
  124c40:	00811c0e 	bge	zero,r2,1250b4 <__ssvfscanf_r+0xc08>
  124c44:	014004f4 	movhi	r5,19
  124c48:	296c3c04 	addi	r5,r5,-20240
  124c4c:	d940a115 	stw	r5,644(sp)
  124c50:	d8009e15 	stw	zero,632(sp)
  124c54:	050000c4 	movi	r20,3
  124c58:	003f2206 	br	1248e4 <_gp+0xfffe120c>
  124c5c:	dd409904 	addi	r21,sp,612
  124c60:	8c40040c 	andi	r17,r17,16
  124c64:	01800204 	movi	r6,8
  124c68:	000b883a 	mov	r5,zero
  124c6c:	a809883a 	mov	r4,r21
  124c70:	dc409f15 	stw	r17,636(sp)
  124c74:	01214d80 	call	1214d8 <memset>
  124c78:	dc409f17 	ldw	r17,636(sp)
  124c7c:	88006e26 	beq	r17,zero,124e38 <__ssvfscanf_r+0x98c>
  124c80:	0029883a 	mov	r20,zero
  124c84:	0023883a 	mov	r17,zero
  124c88:	01278540 	call	127854 <__locale_mb_cur_max>
  124c8c:	14406126 	beq	r2,r17,124e14 <__ssvfscanf_r+0x968>
  124c90:	98800017 	ldw	r2,0(r19)
  124c94:	98c00117 	ldw	r3,4(r19)
  124c98:	d9000104 	addi	r4,sp,4
  124c9c:	12000003 	ldbu	r8,0(r2)
  124ca0:	18ffffc4 	addi	r3,r3,-1
  124ca4:	10800044 	addi	r2,r2,1
  124ca8:	98c00115 	stw	r3,4(r19)
  124cac:	98800015 	stw	r2,0(r19)
  124cb0:	8c000044 	addi	r16,r17,1
  124cb4:	dd400015 	stw	r21,0(sp)
  124cb8:	2463883a 	add	r17,r4,r17
  124cbc:	200d883a 	mov	r6,r4
  124cc0:	a00b883a 	mov	r5,r20
  124cc4:	800f883a 	mov	r7,r16
  124cc8:	b809883a 	mov	r4,r23
  124ccc:	8a000005 	stb	r8,0(r17)
  124cd0:	01281140 	call	128114 <_mbrtowc_r>
  124cd4:	017fffc4 	movi	r5,-1
  124cd8:	11404e26 	beq	r2,r5,124e14 <__ssvfscanf_r+0x968>
  124cdc:	1000601e 	bne	r2,zero,124e60 <__ssvfscanf_r+0x9b4>
  124ce0:	d8c09f17 	ldw	r3,636(sp)
  124ce4:	1800641e 	bne	r3,zero,124e78 <__ssvfscanf_r+0x9cc>
  124ce8:	a0000015 	stw	zero,0(r20)
  124cec:	9425883a 	add	r18,r18,r16
  124cf0:	e179883a 	add	fp,fp,r5
  124cf4:	a5000104 	addi	r20,r20,4
  124cf8:	98800117 	ldw	r2,4(r19)
  124cfc:	0023883a 	mov	r17,zero
  124d00:	00804b16 	blt	zero,r2,124e30 <__ssvfscanf_r+0x984>
  124d04:	980b883a 	mov	r5,r19
  124d08:	b809883a 	mov	r4,r23
  124d0c:	012d2940 	call	12d294 <__ssrefill_r>
  124d10:	10004726 	beq	r2,zero,124e30 <__ssvfscanf_r+0x984>
  124d14:	88003f1e 	bne	r17,zero,124e14 <__ssvfscanf_r+0x968>
  124d18:	d8c09f17 	ldw	r3,636(sp)
  124d1c:	1800031e 	bne	r3,zero,124d2c <__ssvfscanf_r+0x880>
  124d20:	d900a017 	ldw	r4,640(sp)
  124d24:	21000044 	addi	r4,r4,1
  124d28:	d900a015 	stw	r4,640(sp)
  124d2c:	dd009d17 	ldw	r20,628(sp)
  124d30:	a00d883a 	mov	r6,r20
  124d34:	003e1a06 	br	1245a0 <_gp+0xfffe0ec8>
  124d38:	8c40040c 	andi	r17,r17,16
  124d3c:	073fffc4 	movi	fp,-1
  124d40:	883fa51e 	bne	r17,zero,124bd8 <_gp+0xfffe1500>
  124d44:	d9409c17 	ldw	r5,624(sp)
  124d48:	e2bfffc4 	addi	r10,fp,-1
  124d4c:	2c000017 	ldw	r16,0(r5)
  124d50:	2c400104 	addi	r17,r5,4
  124d54:	8007883a 	mov	r3,r16
  124d58:	82ab883a 	add	r21,r16,r10
  124d5c:	00000306 	br	124d6c <__ssvfscanf_r+0x8c0>
  124d60:	99000017 	ldw	r4,0(r19)
  124d64:	e007883a 	mov	r3,fp
  124d68:	20800003 	ldbu	r2,0(r4)
  124d6c:	10803fcc 	andi	r2,r2,255
  124d70:	d9405884 	addi	r5,sp,354
  124d74:	2885883a 	add	r2,r5,r2
  124d78:	10800007 	ldb	r2,0(r2)
  124d7c:	10004b26 	beq	r2,zero,124eac <__ssvfscanf_r+0xa00>
  124d80:	98800117 	ldw	r2,4(r19)
  124d84:	21400044 	addi	r5,r4,1
  124d88:	99400015 	stw	r5,0(r19)
  124d8c:	10bfffc4 	addi	r2,r2,-1
  124d90:	98800115 	stw	r2,4(r19)
  124d94:	20800003 	ldbu	r2,0(r4)
  124d98:	1f000044 	addi	fp,r3,1
  124d9c:	18800005 	stb	r2,0(r3)
  124da0:	1d400726 	beq	r3,r21,124dc0 <__ssvfscanf_r+0x914>
  124da4:	98800117 	ldw	r2,4(r19)
  124da8:	00bfed16 	blt	zero,r2,124d60 <_gp+0xfffe1688>
  124dac:	980b883a 	mov	r5,r19
  124db0:	b809883a 	mov	r4,r23
  124db4:	012d2940 	call	12d294 <__ssrefill_r>
  124db8:	103fe926 	beq	r2,zero,124d60 <_gp+0xfffe1688>
  124dbc:	87001526 	beq	r16,fp,124e14 <__ssvfscanf_r+0x968>
  124dc0:	e421c83a 	sub	r16,fp,r16
  124dc4:	803dfa26 	beq	r16,zero,1245b0 <_gp+0xfffe0ed8>
  124dc8:	d880a017 	ldw	r2,640(sp)
  124dcc:	e0000005 	stb	zero,0(fp)
  124dd0:	dc409c15 	stw	r17,624(sp)
  124dd4:	10800044 	addi	r2,r2,1
  124dd8:	d880a015 	stw	r2,640(sp)
  124ddc:	9425883a 	add	r18,r18,r16
  124de0:	a00d883a 	mov	r6,r20
  124de4:	003dee06 	br	1245a0 <_gp+0xfffe0ec8>
  124de8:	013fff84 	movi	r4,-2
  124dec:	1103ed1e 	bne	r2,r4,125da4 <__ssvfscanf_r+0x18f8>
  124df0:	8821883a 	mov	r16,r17
  124df4:	98800117 	ldw	r2,4(r19)
  124df8:	00834116 	blt	zero,r2,125b00 <__ssvfscanf_r+0x1654>
  124dfc:	980b883a 	mov	r5,r19
  124e00:	b809883a 	mov	r4,r23
  124e04:	012d2940 	call	12d294 <__ssrefill_r>
  124e08:	10033d26 	beq	r2,zero,125b00 <__ssvfscanf_r+0x1654>
  124e0c:	dc409f17 	ldw	r17,636(sp)
  124e10:	80034426 	beq	r16,zero,125b24 <__ssvfscanf_r+0x1678>
  124e14:	d900a017 	ldw	r4,640(sp)
  124e18:	203e8026 	beq	r4,zero,12481c <_gp+0xfffe1144>
  124e1c:	9880030b 	ldhu	r2,12(r19)
  124e20:	1080100c 	andi	r2,r2,64
  124e24:	103e7d1e 	bne	r2,zero,12481c <_gp+0xfffe1144>
  124e28:	2005883a 	mov	r2,r4
  124e2c:	003e7c06 	br	124820 <_gp+0xfffe1148>
  124e30:	e03f951e 	bne	fp,zero,124c88 <_gp+0xfffe15b0>
  124e34:	003fb806 	br	124d18 <_gp+0xfffe1640>
  124e38:	d8809c17 	ldw	r2,624(sp)
  124e3c:	15000017 	ldw	r20,0(r2)
  124e40:	10800104 	addi	r2,r2,4
  124e44:	d8809c15 	stw	r2,624(sp)
  124e48:	003f8e06 	br	124c84 <_gp+0xfffe15ac>
  124e4c:	980b883a 	mov	r5,r19
  124e50:	b809883a 	mov	r4,r23
  124e54:	012d2940 	call	12d294 <__ssrefill_r>
  124e58:	103f3626 	beq	r2,zero,124b34 <_gp+0xfffe145c>
  124e5c:	003fed06 	br	124e14 <_gp+0xfffe173c>
  124e60:	013fff84 	movi	r4,-2
  124e64:	1100071e 	bne	r2,r4,124e84 <__ssvfscanf_r+0x9d8>
  124e68:	98800117 	ldw	r2,4(r19)
  124e6c:	8023883a 	mov	r17,r16
  124e70:	00bf8516 	blt	zero,r2,124c88 <_gp+0xfffe15b0>
  124e74:	003fa306 	br	124d04 <_gp+0xfffe162c>
  124e78:	9425883a 	add	r18,r18,r16
  124e7c:	e73fffc4 	addi	fp,fp,-1
  124e80:	003f9d06 	br	124cf8 <_gp+0xfffe1620>
  124e84:	d8c09f17 	ldw	r3,636(sp)
  124e88:	9425883a 	add	r18,r18,r16
  124e8c:	e73fffc4 	addi	fp,fp,-1
  124e90:	183f9826 	beq	r3,zero,124cf4 <_gp+0xfffe161c>
  124e94:	003f9806 	br	124cf8 <_gp+0xfffe1620>
  124e98:	8023883a 	mov	r17,r16
  124e9c:	8821883a 	mov	r16,r17
  124ea0:	003fce06 	br	124ddc <_gp+0xfffe1704>
  124ea4:	803f3b1e 	bne	r16,zero,124b94 <_gp+0xfffe14bc>
  124ea8:	003fda06 	br	124e14 <_gp+0xfffe173c>
  124eac:	1839883a 	mov	fp,r3
  124eb0:	003fc306 	br	124dc0 <_gp+0xfffe16e8>
  124eb4:	803fc91e 	bne	r16,zero,124ddc <_gp+0xfffe1704>
  124eb8:	003dbd06 	br	1245b0 <_gp+0xfffe0ed8>
  124ebc:	d8809c17 	ldw	r2,624(sp)
  124ec0:	dcc00015 	stw	r19,0(sp)
  124ec4:	b809883a 	mov	r4,r23
  124ec8:	11400017 	ldw	r5,0(r2)
  124ecc:	e00f883a 	mov	r7,fp
  124ed0:	01800044 	movi	r6,1
  124ed4:	012d3040 	call	12d304 <_sfread_r>
  124ed8:	d9009c17 	ldw	r4,624(sp)
  124edc:	20c00104 	addi	r3,r4,4
  124ee0:	103fcc26 	beq	r2,zero,124e14 <_gp+0xfffe173c>
  124ee4:	d940a017 	ldw	r5,640(sp)
  124ee8:	dd009d17 	ldw	r20,628(sp)
  124eec:	90a5883a 	add	r18,r18,r2
  124ef0:	29400044 	addi	r5,r5,1
  124ef4:	d940a015 	stw	r5,640(sp)
  124ef8:	d8c09c15 	stw	r3,624(sp)
  124efc:	a00d883a 	mov	r6,r20
  124f00:	003da706 	br	1245a0 <_gp+0xfffe0ec8>
  124f04:	980b883a 	mov	r5,r19
  124f08:	b809883a 	mov	r4,r23
  124f0c:	012d2940 	call	12d294 <__ssrefill_r>
  124f10:	103e3626 	beq	r2,zero,1247ec <_gp+0xfffe1114>
  124f14:	003fbf06 	br	124e14 <_gp+0xfffe173c>
  124f18:	98800117 	ldw	r2,4(r19)
  124f1c:	88e2b03a 	or	r17,r17,r3
  124f20:	0080210e 	bge	zero,r2,124fa8 <__ssvfscanf_r+0xafc>
  124f24:	014004f4 	movhi	r5,19
  124f28:	296c3c04 	addi	r5,r5,-20240
  124f2c:	00800284 	movi	r2,10
  124f30:	d940a115 	stw	r5,644(sp)
  124f34:	d8809e15 	stw	r2,632(sp)
  124f38:	050000c4 	movi	r20,3
  124f3c:	003e6906 	br	1248e4 <_gp+0xfffe120c>
  124f40:	a1400083 	ldbu	r5,2(r20)
  124f44:	8c400094 	ori	r17,r17,2
  124f48:	a5000084 	addi	r20,r20,2
  124f4c:	2d403fcc 	andi	r21,r5,255
  124f50:	003da106 	br	1245d8 <_gp+0xfffe0f00>
  124f54:	8880004c 	andi	r2,r17,1
  124f58:	10000c1e 	bne	r2,zero,124f8c <__ssvfscanf_r+0xae0>
  124f5c:	8c40008c 	andi	r17,r17,2
  124f60:	88000a26 	beq	r17,zero,124f8c <__ssvfscanf_r+0xae0>
  124f64:	d8c09c17 	ldw	r3,624(sp)
  124f68:	d9009c17 	ldw	r4,624(sp)
  124f6c:	dd009d17 	ldw	r20,628(sp)
  124f70:	18800017 	ldw	r2,0(r3)
  124f74:	9007d7fa 	srai	r3,r18,31
  124f78:	21000104 	addi	r4,r4,4
  124f7c:	14800015 	stw	r18,0(r2)
  124f80:	10c00115 	stw	r3,4(r2)
  124f84:	d9009c15 	stw	r4,624(sp)
  124f88:	003d8406 	br	12459c <_gp+0xfffe0ec4>
  124f8c:	d9409c17 	ldw	r5,624(sp)
  124f90:	dd009d17 	ldw	r20,628(sp)
  124f94:	28800017 	ldw	r2,0(r5)
  124f98:	29400104 	addi	r5,r5,4
  124f9c:	d9409c15 	stw	r5,624(sp)
  124fa0:	14800015 	stw	r18,0(r2)
  124fa4:	003d7d06 	br	12459c <_gp+0xfffe0ec4>
  124fa8:	980b883a 	mov	r5,r19
  124fac:	b809883a 	mov	r4,r23
  124fb0:	012d2940 	call	12d294 <__ssrefill_r>
  124fb4:	103f971e 	bne	r2,zero,124e14 <_gp+0xfffe173c>
  124fb8:	b4000017 	ldw	r16,0(r22)
  124fbc:	003ed206 	br	124b08 <_gp+0xfffe1430>
  124fc0:	980b883a 	mov	r5,r19
  124fc4:	b809883a 	mov	r4,r23
  124fc8:	012d2940 	call	12d294 <__ssrefill_r>
  124fcc:	103f911e 	bne	r2,zero,124e14 <_gp+0xfffe173c>
  124fd0:	010004f4 	movhi	r4,19
  124fd4:	212d9a04 	addi	r4,r4,-18840
  124fd8:	01400404 	movi	r5,16
  124fdc:	b4000017 	ldw	r16,0(r22)
  124fe0:	d900a115 	stw	r4,644(sp)
  124fe4:	d9409e15 	stw	r5,632(sp)
  124fe8:	050000c4 	movi	r20,3
  124fec:	003e3d06 	br	1248e4 <_gp+0xfffe120c>
  124ff0:	980b883a 	mov	r5,r19
  124ff4:	b809883a 	mov	r4,r23
  124ff8:	012d2940 	call	12d294 <__ssrefill_r>
  124ffc:	103f851e 	bne	r2,zero,124e14 <_gp+0xfffe173c>
  125000:	b4000017 	ldw	r16,0(r22)
  125004:	05000084 	movi	r20,2
  125008:	003e3606 	br	1248e4 <_gp+0xfffe120c>
  12500c:	980b883a 	mov	r5,r19
  125010:	b809883a 	mov	r4,r23
  125014:	012d2940 	call	12d294 <__ssrefill_r>
  125018:	103eea26 	beq	r2,zero,124bc4 <_gp+0xfffe14ec>
  12501c:	003f7d06 	br	124e14 <_gp+0xfffe173c>
  125020:	980b883a 	mov	r5,r19
  125024:	b809883a 	mov	r4,r23
  125028:	012d2940 	call	12d294 <__ssrefill_r>
  12502c:	103f791e 	bne	r2,zero,124e14 <_gp+0xfffe173c>
  125030:	b4000017 	ldw	r16,0(r22)
  125034:	05000104 	movi	r20,4
  125038:	003e2a06 	br	1248e4 <_gp+0xfffe120c>
  12503c:	980b883a 	mov	r5,r19
  125040:	b809883a 	mov	r4,r23
  125044:	012d2940 	call	12d294 <__ssrefill_r>
  125048:	103f721e 	bne	r2,zero,124e14 <_gp+0xfffe173c>
  12504c:	b4000017 	ldw	r16,0(r22)
  125050:	003e8c06 	br	124a84 <_gp+0xfffe13ac>
  125054:	980b883a 	mov	r5,r19
  125058:	b809883a 	mov	r4,r23
  12505c:	012d2940 	call	12d294 <__ssrefill_r>
  125060:	103f6c1e 	bne	r2,zero,124e14 <_gp+0xfffe173c>
  125064:	008004f4 	movhi	r2,19
  125068:	10ad9a04 	addi	r2,r2,-18840
  12506c:	00c00284 	movi	r3,10
  125070:	b4000017 	ldw	r16,0(r22)
  125074:	d880a115 	stw	r2,644(sp)
  125078:	d8c09e15 	stw	r3,632(sp)
  12507c:	050000c4 	movi	r20,3
  125080:	003e1806 	br	1248e4 <_gp+0xfffe120c>
  125084:	980b883a 	mov	r5,r19
  125088:	b809883a 	mov	r4,r23
  12508c:	012d2940 	call	12d294 <__ssrefill_r>
  125090:	103f601e 	bne	r2,zero,124e14 <_gp+0xfffe173c>
  125094:	008004f4 	movhi	r2,19
  125098:	10ad9a04 	addi	r2,r2,-18840
  12509c:	00c00204 	movi	r3,8
  1250a0:	b4000017 	ldw	r16,0(r22)
  1250a4:	d880a115 	stw	r2,644(sp)
  1250a8:	d8c09e15 	stw	r3,632(sp)
  1250ac:	050000c4 	movi	r20,3
  1250b0:	003e0c06 	br	1248e4 <_gp+0xfffe120c>
  1250b4:	980b883a 	mov	r5,r19
  1250b8:	b809883a 	mov	r4,r23
  1250bc:	012d2940 	call	12d294 <__ssrefill_r>
  1250c0:	103f541e 	bne	r2,zero,124e14 <_gp+0xfffe173c>
  1250c4:	008004f4 	movhi	r2,19
  1250c8:	10ac3c04 	addi	r2,r2,-20240
  1250cc:	b4000017 	ldw	r16,0(r22)
  1250d0:	d880a115 	stw	r2,644(sp)
  1250d4:	d8009e15 	stw	zero,632(sp)
  1250d8:	050000c4 	movi	r20,3
  1250dc:	003e0106 	br	1248e4 <_gp+0xfffe120c>
  1250e0:	980b883a 	mov	r5,r19
  1250e4:	b809883a 	mov	r4,r23
  1250e8:	012d2940 	call	12d294 <__ssrefill_r>
  1250ec:	103f491e 	bne	r2,zero,124e14 <_gp+0xfffe173c>
  1250f0:	008004f4 	movhi	r2,19
  1250f4:	10ad9a04 	addi	r2,r2,-18840
  1250f8:	00c00404 	movi	r3,16
  1250fc:	b4000017 	ldw	r16,0(r22)
  125100:	d880a115 	stw	r2,644(sp)
  125104:	d8c09e15 	stw	r3,632(sp)
  125108:	050000c4 	movi	r20,3
  12510c:	003df506 	br	1248e4 <_gp+0xfffe120c>
  125110:	014000c4 	movi	r5,3
  125114:	a1416726 	beq	r20,r5,1256b4 <__ssvfscanf_r+0x1208>
  125118:	01000104 	movi	r4,4
  12511c:	a101491e 	bne	r20,r4,125644 <__ssvfscanf_r+0x1198>
  125120:	b809883a 	mov	r4,r23
  125124:	01278780 	call	127878 <_localeconv_r>
  125128:	10800017 	ldw	r2,0(r2)
  12512c:	e0ffffc4 	addi	r3,fp,-1
  125130:	d880a315 	stw	r2,652(sp)
  125134:	00805704 	movi	r2,348
  125138:	10c21e2e 	bgeu	r2,r3,1259b4 <__ssvfscanf_r+0x1508>
  12513c:	e73fa8c4 	addi	fp,fp,-349
  125140:	df00a215 	stw	fp,648(sp)
  125144:	07005744 	movi	fp,349
  125148:	8d01e014 	ori	r20,r17,1920
  12514c:	0023883a 	mov	r17,zero
  125150:	dc000104 	addi	r16,sp,4
  125154:	002b883a 	mov	r21,zero
  125158:	8805883a 	mov	r2,r17
  12515c:	0007883a 	mov	r3,zero
  125160:	8023883a 	mov	r17,r16
  125164:	b80d883a 	mov	r6,r23
  125168:	e021883a 	mov	r16,fp
  12516c:	a82f883a 	mov	r23,r21
  125170:	d800a515 	stw	zero,660(sp)
  125174:	d800a415 	stw	zero,656(sp)
  125178:	d8009f15 	stw	zero,636(sp)
  12517c:	01c01384 	movi	r7,78
  125180:	182b883a 	mov	r21,r3
  125184:	1039883a 	mov	fp,r2
  125188:	99000017 	ldw	r4,0(r19)
  12518c:	21400003 	ldbu	r5,0(r4)
  125190:	28bff544 	addi	r2,r5,-43
  125194:	10803fcc 	andi	r2,r2,255
  125198:	38810e36 	bltu	r7,r2,1255d4 <__ssvfscanf_r+0x1128>
  12519c:	100490ba 	slli	r2,r2,2
  1251a0:	00c004b4 	movhi	r3,18
  1251a4:	18d46d04 	addi	r3,r3,20916
  1251a8:	10c5883a 	add	r2,r2,r3
  1251ac:	10800017 	ldw	r2,0(r2)
  1251b0:	1000683a 	jmp	r2
  1251b4:	001254a8 	cmpgeui	zero,zero,18770
  1251b8:	001255d4 	movui	zero,18775
  1251bc:	001254a8 	cmpgeui	zero,zero,18770
  1251c0:	001255d4 	movui	zero,18775
  1251c4:	001255d4 	movui	zero,18775
  1251c8:	0012547c 	xorhi	zero,zero,18769
  1251cc:	001252f0 	cmpltui	zero,zero,18763
  1251d0:	001252f0 	cmpltui	zero,zero,18763
  1251d4:	001252f0 	cmpltui	zero,zero,18763
  1251d8:	001252f0 	cmpltui	zero,zero,18763
  1251dc:	001252f0 	cmpltui	zero,zero,18763
  1251e0:	001252f0 	cmpltui	zero,zero,18763
  1251e4:	001252f0 	cmpltui	zero,zero,18763
  1251e8:	001252f0 	cmpltui	zero,zero,18763
  1251ec:	001252f0 	cmpltui	zero,zero,18763
  1251f0:	001255d4 	movui	zero,18775
  1251f4:	001255d4 	movui	zero,18775
  1251f8:	001255d4 	movui	zero,18775
  1251fc:	001255d4 	movui	zero,18775
  125200:	001255d4 	movui	zero,18775
  125204:	001255d4 	movui	zero,18775
  125208:	001255d4 	movui	zero,18775
  12520c:	001255c4 	movi	zero,18775
  125210:	001255d4 	movui	zero,18775
  125214:	001255d4 	movui	zero,18775
  125218:	001255d4 	movui	zero,18775
  12521c:	00125580 	call	12558 <__alt_mem_onchip_flash_data-0x6daa8>
  125220:	00125564 	muli	zero,zero,18773
  125224:	001255d4 	movui	zero,18775
  125228:	001255d4 	movui	zero,18775
  12522c:	0012552c 	andhi	zero,zero,18772
  125230:	001255d4 	movui	zero,18775
  125234:	001255d4 	movui	zero,18775
  125238:	001255d4 	movui	zero,18775
  12523c:	001255d4 	movui	zero,18775
  125240:	001254f4 	movhi	zero,18771
  125244:	001255d4 	movui	zero,18775
  125248:	001255d4 	movui	zero,18775
  12524c:	001255d4 	movui	zero,18775
  125250:	001255d4 	movui	zero,18775
  125254:	001255d4 	movui	zero,18775
  125258:	001254d8 	cmpnei	zero,zero,18771
  12525c:	001255d4 	movui	zero,18775
  125260:	001255d4 	movui	zero,18775
  125264:	001255d4 	movui	zero,18775
  125268:	001255d4 	movui	zero,18775
  12526c:	001254bc 	xorhi	zero,zero,18770
  125270:	001255d4 	movui	zero,18775
  125274:	001255d4 	movui	zero,18775
  125278:	001255d4 	movui	zero,18775
  12527c:	001255d4 	movui	zero,18775
  125280:	001255d4 	movui	zero,18775
  125284:	001255d4 	movui	zero,18775
  125288:	001255d4 	movui	zero,18775
  12528c:	001255c4 	movi	zero,18775
  125290:	001255d4 	movui	zero,18775
  125294:	001255d4 	movui	zero,18775
  125298:	001255d4 	movui	zero,18775
  12529c:	00125580 	call	12558 <__alt_mem_onchip_flash_data-0x6daa8>
  1252a0:	00125564 	muli	zero,zero,18773
  1252a4:	001255d4 	movui	zero,18775
  1252a8:	001255d4 	movui	zero,18775
  1252ac:	0012552c 	andhi	zero,zero,18772
  1252b0:	001255d4 	movui	zero,18775
  1252b4:	001255d4 	movui	zero,18775
  1252b8:	001255d4 	movui	zero,18775
  1252bc:	001255d4 	movui	zero,18775
  1252c0:	001254f4 	movhi	zero,18771
  1252c4:	001255d4 	movui	zero,18775
  1252c8:	001255d4 	movui	zero,18775
  1252cc:	001255d4 	movui	zero,18775
  1252d0:	001255d4 	movui	zero,18775
  1252d4:	001255d4 	movui	zero,18775
  1252d8:	001254d8 	cmpnei	zero,zero,18771
  1252dc:	001255d4 	movui	zero,18775
  1252e0:	001255d4 	movui	zero,18775
  1252e4:	001255d4 	movui	zero,18775
  1252e8:	001255d4 	movui	zero,18775
  1252ec:	001254bc 	xorhi	zero,zero,18770
  1252f0:	a8803fcc 	andi	r2,r21,255
  1252f4:	1080201c 	xori	r2,r2,128
  1252f8:	10bfe004 	addi	r2,r2,-128
  1252fc:	b885883a 	add	r2,r23,r2
  125300:	10000d1e 	bne	r2,zero,125338 <__ssvfscanf_r+0xe8c>
  125304:	00bf9fc4 	movi	r2,-385
  125308:	a0a8703a 	and	r20,r20,r2
  12530c:	89400005 	stb	r5,0(r17)
  125310:	8c400044 	addi	r17,r17,1
  125314:	98800117 	ldw	r2,4(r19)
  125318:	843fffc4 	addi	r16,r16,-1
  12531c:	94800044 	addi	r18,r18,1
  125320:	10bfffc4 	addi	r2,r2,-1
  125324:	98800115 	stw	r2,4(r19)
  125328:	0080b40e 	bge	zero,r2,1255fc <__ssvfscanf_r+0x1150>
  12532c:	21000044 	addi	r4,r4,1
  125330:	99000015 	stw	r4,0(r19)
  125334:	803f941e 	bne	r16,zero,125188 <_gp+0xfffe1ab0>
  125338:	8821883a 	mov	r16,r17
  12533c:	a807883a 	mov	r3,r21
  125340:	e023883a 	mov	r17,fp
  125344:	b82b883a 	mov	r21,r23
  125348:	302f883a 	mov	r23,r6
  12534c:	e001961e 	bne	fp,zero,1259a8 <__ssvfscanf_r+0x14fc>
  125350:	ab3fffc4 	addi	r12,r21,-1
  125354:	00800044 	movi	r2,1
  125358:	1302a22e 	bgeu	r2,r12,125de4 <__ssvfscanf_r+0x1938>
  12535c:	18803fcc 	andi	r2,r3,255
  125360:	1080201c 	xori	r2,r2,128
  125364:	10bfe004 	addi	r2,r2,-128
  125368:	113fffc4 	addi	r4,r2,-1
  12536c:	01400184 	movi	r5,6
  125370:	29001136 	bltu	r5,r4,1253b8 <__ssvfscanf_r+0xf0c>
  125374:	01000084 	movi	r4,2
  125378:	2082770e 	bge	r4,r2,125d58 <__ssvfscanf_r+0x18ac>
  12537c:	054000c4 	movi	r21,3
  125380:	1839883a 	mov	fp,r3
  125384:	15400c26 	beq	r2,r21,1253b8 <__ssvfscanf_r+0xf0c>
  125388:	9425c83a 	sub	r18,r18,r16
  12538c:	843fffc4 	addi	r16,r16,-1
  125390:	81400007 	ldb	r5,0(r16)
  125394:	980d883a 	mov	r6,r19
  125398:	b809883a 	mov	r4,r23
  12539c:	012d18c0 	call	12d18c <_sungetc_r>
  1253a0:	e0bfffc4 	addi	r2,fp,-1
  1253a4:	10c03fcc 	andi	r3,r2,255
  1253a8:	8493883a 	add	r9,r16,r18
  1253ac:	1039883a 	mov	fp,r2
  1253b0:	a8fff636 	bltu	r21,r3,12538c <_gp+0xfffe1cb4>
  1253b4:	4825883a 	mov	r18,r9
  1253b8:	a080400c 	andi	r2,r20,256
  1253bc:	10001426 	beq	r2,zero,125410 <__ssvfscanf_r+0xf64>
  1253c0:	a081000c 	andi	r2,r20,1024
  1253c4:	10027b1e 	bne	r2,zero,125db4 <__ssvfscanf_r+0x1908>
  1253c8:	817fffc7 	ldb	r5,-1(r16)
  1253cc:	00801944 	movi	r2,101
  1253d0:	873fffc4 	addi	fp,r16,-1
  1253d4:	957fffc4 	addi	r21,r18,-1
  1253d8:	28800826 	beq	r5,r2,1253fc <__ssvfscanf_r+0xf50>
  1253dc:	00801144 	movi	r2,69
  1253e0:	28800626 	beq	r5,r2,1253fc <__ssvfscanf_r+0xf50>
  1253e4:	980d883a 	mov	r6,r19
  1253e8:	b809883a 	mov	r4,r23
  1253ec:	012d18c0 	call	12d18c <_sungetc_r>
  1253f0:	817fff87 	ldb	r5,-2(r16)
  1253f4:	873fff84 	addi	fp,r16,-2
  1253f8:	957fff84 	addi	r21,r18,-2
  1253fc:	980d883a 	mov	r6,r19
  125400:	b809883a 	mov	r4,r23
  125404:	012d18c0 	call	12d18c <_sungetc_r>
  125408:	a825883a 	mov	r18,r21
  12540c:	e021883a 	mov	r16,fp
  125410:	a080040c 	andi	r2,r20,16
  125414:	103e451e 	bne	r2,zero,124d2c <_gp+0xfffe1654>
  125418:	80000005 	stb	zero,0(r16)
  12541c:	a081800c 	andi	r2,r20,1536
  125420:	01010004 	movi	r4,1024
  125424:	1101ea26 	beq	r2,r4,125bd0 <__ssvfscanf_r+0x1724>
  125428:	d8c0a417 	ldw	r3,656(sp)
  12542c:	1801f41e 	bne	r3,zero,125c00 <__ssvfscanf_r+0x1754>
  125430:	000d883a 	mov	r6,zero
  125434:	d9400104 	addi	r5,sp,4
  125438:	b809883a 	mov	r4,r23
  12543c:	01299f40 	call	1299f4 <_strtod_r>
  125440:	1021883a 	mov	r16,r2
  125444:	a080004c 	andi	r2,r20,1
  125448:	1001b926 	beq	r2,zero,125b30 <__ssvfscanf_r+0x1684>
  12544c:	d9009c17 	ldw	r4,624(sp)
  125450:	20800017 	ldw	r2,0(r4)
  125454:	21000104 	addi	r4,r4,4
  125458:	d9009c15 	stw	r4,624(sp)
  12545c:	14000015 	stw	r16,0(r2)
  125460:	10c00115 	stw	r3,4(r2)
  125464:	d8c0a017 	ldw	r3,640(sp)
  125468:	dd009d17 	ldw	r20,628(sp)
  12546c:	18c00044 	addi	r3,r3,1
  125470:	d8c0a015 	stw	r3,640(sp)
  125474:	a00d883a 	mov	r6,r20
  125478:	003c4906 	br	1245a0 <_gp+0xfffe0ec8>
  12547c:	a080400c 	andi	r2,r20,256
  125480:	103f9b26 	beq	r2,zero,1252f0 <_gp+0xfffe1c18>
  125484:	d8c0a217 	ldw	r3,648(sp)
  125488:	00bfdfc4 	movi	r2,-129
  12548c:	a0a8703a 	and	r20,r20,r2
  125490:	e7000044 	addi	fp,fp,1
  125494:	183f9f26 	beq	r3,zero,125314 <_gp+0xfffe1c3c>
  125498:	18ffffc4 	addi	r3,r3,-1
  12549c:	d8c0a215 	stw	r3,648(sp)
  1254a0:	84000044 	addi	r16,r16,1
  1254a4:	003f9b06 	br	125314 <_gp+0xfffe1c3c>
  1254a8:	a080200c 	andi	r2,r20,128
  1254ac:	103fa226 	beq	r2,zero,125338 <_gp+0xfffe1c60>
  1254b0:	00bfdfc4 	movi	r2,-129
  1254b4:	a0a8703a 	and	r20,r20,r2
  1254b8:	003f9406 	br	12530c <_gp+0xfffe1c34>
  1254bc:	a8803fcc 	andi	r2,r21,255
  1254c0:	1080201c 	xori	r2,r2,128
  1254c4:	10bfe004 	addi	r2,r2,-128
  1254c8:	00c001c4 	movi	r3,7
  1254cc:	10ff9a1e 	bne	r2,r3,125338 <_gp+0xfffe1c60>
  1254d0:	05400204 	movi	r21,8
  1254d4:	003f8d06 	br	12530c <_gp+0xfffe1c34>
  1254d8:	a8803fcc 	andi	r2,r21,255
  1254dc:	1080201c 	xori	r2,r2,128
  1254e0:	10bfe004 	addi	r2,r2,-128
  1254e4:	02000184 	movi	r8,6
  1254e8:	123f931e 	bne	r2,r8,125338 <_gp+0xfffe1c60>
  1254ec:	054001c4 	movi	r21,7
  1254f0:	003f8606 	br	12530c <_gp+0xfffe1c34>
  1254f4:	b8004f1e 	bne	r23,zero,125634 <__ssvfscanf_r+0x1188>
  1254f8:	e000031e 	bne	fp,zero,125508 <__ssvfscanf_r+0x105c>
  1254fc:	a081c00c 	andi	r2,r20,1792
  125500:	0201c004 	movi	r8,1792
  125504:	1201a226 	beq	r2,r8,125b90 <__ssvfscanf_r+0x16e4>
  125508:	a8803fcc 	andi	r2,r21,255
  12550c:	1080201c 	xori	r2,r2,128
  125510:	10bfe004 	addi	r2,r2,-128
  125514:	02000044 	movi	r8,1
  125518:	12000226 	beq	r2,r8,125524 <__ssvfscanf_r+0x1078>
  12551c:	02000104 	movi	r8,4
  125520:	123f851e 	bne	r2,r8,125338 <_gp+0xfffe1c60>
  125524:	ad400044 	addi	r21,r21,1
  125528:	003f7806 	br	12530c <_gp+0xfffe1c34>
  12552c:	a8803fcc 	andi	r2,r21,255
  125530:	1080201c 	xori	r2,r2,128
  125534:	10bfe004 	addi	r2,r2,-128
  125538:	1000391e 	bne	r2,zero,125620 <__ssvfscanf_r+0x1174>
  12553c:	e001151e 	bne	fp,zero,125994 <__ssvfscanf_r+0x14e8>
  125540:	a081c00c 	andi	r2,r20,1792
  125544:	0201c004 	movi	r8,1792
  125548:	12019b26 	beq	r2,r8,125bb8 <__ssvfscanf_r+0x170c>
  12554c:	8821883a 	mov	r16,r17
  125550:	a807883a 	mov	r3,r21
  125554:	e023883a 	mov	r17,fp
  125558:	b82b883a 	mov	r21,r23
  12555c:	302f883a 	mov	r23,r6
  125560:	003f7b06 	br	125350 <_gp+0xfffe1c78>
  125564:	a8803fcc 	andi	r2,r21,255
  125568:	1080201c 	xori	r2,r2,128
  12556c:	10bfe004 	addi	r2,r2,-128
  125570:	02000084 	movi	r8,2
  125574:	123f701e 	bne	r2,r8,125338 <_gp+0xfffe1c60>
  125578:	054000c4 	movi	r21,3
  12557c:	003f6306 	br	12530c <_gp+0xfffe1c34>
  125580:	a081400c 	andi	r2,r20,1280
  125584:	00c10004 	movi	r3,1024
  125588:	10c00326 	beq	r2,r3,125598 <__ssvfscanf_r+0x10ec>
  12558c:	a0c4703a 	and	r2,r20,r3
  125590:	103f6926 	beq	r2,zero,125338 <_gp+0xfffe1c60>
  125594:	e03fed26 	beq	fp,zero,12554c <_gp+0xfffe1e74>
  125598:	a080800c 	andi	r2,r20,512
  12559c:	1000041e 	bne	r2,zero,1255b0 <__ssvfscanf_r+0x1104>
  1255a0:	d8c09f17 	ldw	r3,636(sp)
  1255a4:	dc40a515 	stw	r17,660(sp)
  1255a8:	e0f9c83a 	sub	fp,fp,r3
  1255ac:	df00a415 	stw	fp,656(sp)
  1255b0:	00be1fc4 	movi	r2,-1921
  1255b4:	a0a8703a 	and	r20,r20,r2
  1255b8:	a5006014 	ori	r20,r20,384
  1255bc:	0039883a 	mov	fp,zero
  1255c0:	003f5206 	br	12530c <_gp+0xfffe1c34>
  1255c4:	00800044 	movi	r2,1
  1255c8:	b8bf5b1e 	bne	r23,r2,125338 <_gp+0xfffe1c60>
  1255cc:	05c00084 	movi	r23,2
  1255d0:	003f4e06 	br	12530c <_gp+0xfffe1c34>
  1255d4:	d8c0a317 	ldw	r3,652(sp)
  1255d8:	2a003fcc 	andi	r8,r5,255
  1255dc:	18800003 	ldbu	r2,0(r3)
  1255e0:	40bf551e 	bne	r8,r2,125338 <_gp+0xfffe1c60>
  1255e4:	a080800c 	andi	r2,r20,512
  1255e8:	103f5326 	beq	r2,zero,125338 <_gp+0xfffe1c60>
  1255ec:	00bf5fc4 	movi	r2,-641
  1255f0:	a0a8703a 	and	r20,r20,r2
  1255f4:	df009f15 	stw	fp,636(sp)
  1255f8:	003f4406 	br	12530c <_gp+0xfffe1c34>
  1255fc:	3009883a 	mov	r4,r6
  125600:	980b883a 	mov	r5,r19
  125604:	d980a915 	stw	r6,676(sp)
  125608:	d9c0aa15 	stw	r7,680(sp)
  12560c:	012d2940 	call	12d294 <__ssrefill_r>
  125610:	d980a917 	ldw	r6,676(sp)
  125614:	d9c0aa17 	ldw	r7,680(sp)
  125618:	103f4626 	beq	r2,zero,125334 <_gp+0xfffe1c5c>
  12561c:	003f4606 	br	125338 <_gp+0xfffe1c60>
  125620:	020000c4 	movi	r8,3
  125624:	123fbf26 	beq	r2,r8,125524 <_gp+0xfffe1e4c>
  125628:	02000144 	movi	r8,5
  12562c:	123fbd26 	beq	r2,r8,125524 <_gp+0xfffe1e4c>
  125630:	003f4106 	br	125338 <_gp+0xfffe1c60>
  125634:	00800084 	movi	r2,2
  125638:	b8bfb31e 	bne	r23,r2,125508 <_gp+0xfffe1e30>
  12563c:	05c000c4 	movi	r23,3
  125640:	003f3206 	br	12530c <_gp+0xfffe1c34>
  125644:	e000011e 	bne	fp,zero,12564c <__ssvfscanf_r+0x11a0>
  125648:	073fffc4 	movi	fp,-1
  12564c:	8900004c 	andi	r4,r17,1
  125650:	20011d1e 	bne	r4,zero,125ac8 <__ssvfscanf_r+0x161c>
  125654:	8c40040c 	andi	r17,r17,16
  125658:	8800da26 	beq	r17,zero,1259c4 <__ssvfscanf_r+0x1518>
  12565c:	0023883a 	mov	r17,zero
  125660:	00000306 	br	125670 <__ssvfscanf_r+0x11c4>
  125664:	18800003 	ldbu	r2,0(r3)
  125668:	8085883a 	add	r2,r16,r2
  12566c:	10800043 	ldbu	r2,1(r2)
  125670:	1080020c 	andi	r2,r2,8
  125674:	1000fc1e 	bne	r2,zero,125a68 <__ssvfscanf_r+0x15bc>
  125678:	98800117 	ldw	r2,4(r19)
  12567c:	18c00044 	addi	r3,r3,1
  125680:	8c400044 	addi	r17,r17,1
  125684:	10bfffc4 	addi	r2,r2,-1
  125688:	98800115 	stw	r2,4(r19)
  12568c:	98c00015 	stw	r3,0(r19)
  125690:	8f00f526 	beq	r17,fp,125a68 <__ssvfscanf_r+0x15bc>
  125694:	00bff316 	blt	zero,r2,125664 <_gp+0xfffe1f8c>
  125698:	980b883a 	mov	r5,r19
  12569c:	b809883a 	mov	r4,r23
  1256a0:	012d2940 	call	12d294 <__ssrefill_r>
  1256a4:	1000f01e 	bne	r2,zero,125a68 <__ssvfscanf_r+0x15bc>
  1256a8:	b4000017 	ldw	r16,0(r22)
  1256ac:	98c00017 	ldw	r3,0(r19)
  1256b0:	003fec06 	br	125664 <_gp+0xfffe1f8c>
  1256b4:	e0bfffc4 	addi	r2,fp,-1
  1256b8:	01405704 	movi	r5,348
  1256bc:	2880bf2e 	bgeu	r5,r2,1259bc <__ssvfscanf_r+0x1510>
  1256c0:	e1ffa8c4 	addi	r7,fp,-349
  1256c4:	07005744 	movi	fp,349
  1256c8:	8c436014 	ori	r17,r17,3456
  1256cc:	9013883a 	mov	r9,r18
  1256d0:	8825883a 	mov	r18,r17
  1256d4:	dc409e17 	ldw	r17,632(sp)
  1256d8:	0029883a 	mov	r20,zero
  1256dc:	dc000104 	addi	r16,sp,4
  1256e0:	05401344 	movi	r21,77
  1256e4:	02c08004 	movi	r11,512
  1256e8:	01bf7fc4 	movi	r6,-513
  1256ec:	023fdfc4 	movi	r8,-129
  1256f0:	20bff544 	addi	r2,r4,-43
  1256f4:	10803fcc 	andi	r2,r2,255
  1256f8:	a8807236 	bltu	r21,r2,1258c4 <__ssvfscanf_r+0x1418>
  1256fc:	100490ba 	slli	r2,r2,2
  125700:	014004b4 	movhi	r5,18
  125704:	2955c504 	addi	r5,r5,22292
  125708:	1145883a 	add	r2,r2,r5
  12570c:	10800017 	ldw	r2,0(r2)
  125710:	1000683a 	jmp	r2
  125714:	00125948 	cmpgei	zero,zero,18789
  125718:	001258c4 	movi	zero,18787
  12571c:	00125948 	cmpgei	zero,zero,18789
  125720:	001258c4 	movi	zero,18787
  125724:	001258c4 	movi	zero,18787
  125728:	00125920 	cmpeqi	zero,zero,18788
  12572c:	00125900 	call	12590 <__alt_mem_onchip_flash_data-0x6da70>
  125730:	00125900 	call	12590 <__alt_mem_onchip_flash_data-0x6da70>
  125734:	00125900 	call	12590 <__alt_mem_onchip_flash_data-0x6da70>
  125738:	00125900 	call	12590 <__alt_mem_onchip_flash_data-0x6da70>
  12573c:	00125900 	call	12590 <__alt_mem_onchip_flash_data-0x6da70>
  125740:	00125900 	call	12590 <__alt_mem_onchip_flash_data-0x6da70>
  125744:	00125900 	call	12590 <__alt_mem_onchip_flash_data-0x6da70>
  125748:	001258a8 	cmpgeui	zero,zero,18786
  12574c:	001258a8 	cmpgeui	zero,zero,18786
  125750:	001258c4 	movi	zero,18787
  125754:	001258c4 	movi	zero,18787
  125758:	001258c4 	movi	zero,18787
  12575c:	001258c4 	movi	zero,18787
  125760:	001258c4 	movi	zero,18787
  125764:	001258c4 	movi	zero,18787
  125768:	001258c4 	movi	zero,18787
  12576c:	00125894 	movui	zero,18786
  125770:	00125894 	movui	zero,18786
  125774:	00125894 	movui	zero,18786
  125778:	00125894 	movui	zero,18786
  12577c:	00125894 	movui	zero,18786
  125780:	00125894 	movui	zero,18786
  125784:	001258c4 	movi	zero,18787
  125788:	001258c4 	movi	zero,18787
  12578c:	001258c4 	movi	zero,18787
  125790:	001258c4 	movi	zero,18787
  125794:	001258c4 	movi	zero,18787
  125798:	001258c4 	movi	zero,18787
  12579c:	001258c4 	movi	zero,18787
  1257a0:	001258c4 	movi	zero,18787
  1257a4:	001258c4 	movi	zero,18787
  1257a8:	001258c4 	movi	zero,18787
  1257ac:	001258c4 	movi	zero,18787
  1257b0:	001258c4 	movi	zero,18787
  1257b4:	001258c4 	movi	zero,18787
  1257b8:	001258c4 	movi	zero,18787
  1257bc:	001258c4 	movi	zero,18787
  1257c0:	001258c4 	movi	zero,18787
  1257c4:	001258c4 	movi	zero,18787
  1257c8:	0012584c 	andi	zero,zero,18785
  1257cc:	001258c4 	movi	zero,18787
  1257d0:	001258c4 	movi	zero,18787
  1257d4:	001258c4 	movi	zero,18787
  1257d8:	001258c4 	movi	zero,18787
  1257dc:	001258c4 	movi	zero,18787
  1257e0:	001258c4 	movi	zero,18787
  1257e4:	001258c4 	movi	zero,18787
  1257e8:	001258c4 	movi	zero,18787
  1257ec:	00125894 	movui	zero,18786
  1257f0:	00125894 	movui	zero,18786
  1257f4:	00125894 	movui	zero,18786
  1257f8:	00125894 	movui	zero,18786
  1257fc:	00125894 	movui	zero,18786
  125800:	00125894 	movui	zero,18786
  125804:	001258c4 	movi	zero,18787
  125808:	001258c4 	movi	zero,18787
  12580c:	001258c4 	movi	zero,18787
  125810:	001258c4 	movi	zero,18787
  125814:	001258c4 	movi	zero,18787
  125818:	001258c4 	movi	zero,18787
  12581c:	001258c4 	movi	zero,18787
  125820:	001258c4 	movi	zero,18787
  125824:	001258c4 	movi	zero,18787
  125828:	001258c4 	movi	zero,18787
  12582c:	001258c4 	movi	zero,18787
  125830:	001258c4 	movi	zero,18787
  125834:	001258c4 	movi	zero,18787
  125838:	001258c4 	movi	zero,18787
  12583c:	001258c4 	movi	zero,18787
  125840:	001258c4 	movi	zero,18787
  125844:	001258c4 	movi	zero,18787
  125848:	0012584c 	andi	zero,zero,18785
  12584c:	9081800c 	andi	r2,r18,1536
  125850:	12c01c1e 	bne	r2,r11,1258c4 <__ssvfscanf_r+0x1418>
  125854:	91a4703a 	and	r18,r18,r6
  125858:	94814014 	ori	r18,r18,1280
  12585c:	04400404 	movi	r17,16
  125860:	81000005 	stb	r4,0(r16)
  125864:	84000044 	addi	r16,r16,1
  125868:	98800117 	ldw	r2,4(r19)
  12586c:	10bfffc4 	addi	r2,r2,-1
  125870:	98800115 	stw	r2,4(r19)
  125874:	0080380e 	bge	zero,r2,125958 <__ssvfscanf_r+0x14ac>
  125878:	18c00044 	addi	r3,r3,1
  12587c:	98c00015 	stw	r3,0(r19)
  125880:	e73fffc4 	addi	fp,fp,-1
  125884:	e0000f26 	beq	fp,zero,1258c4 <__ssvfscanf_r+0x1418>
  125888:	98c00017 	ldw	r3,0(r19)
  12588c:	19000003 	ldbu	r4,0(r3)
  125890:	003f9706 	br	1256f0 <_gp+0xfffe2018>
  125894:	00800284 	movi	r2,10
  125898:	14400a0e 	bge	r2,r17,1258c4 <__ssvfscanf_r+0x1418>
  12589c:	00bd1fc4 	movi	r2,-2945
  1258a0:	90a4703a 	and	r18,r18,r2
  1258a4:	003fee06 	br	125860 <_gp+0xfffe2188>
  1258a8:	01400534 	movhi	r5,20
  1258ac:	8c63883a 	add	r17,r17,r17
  1258b0:	2964d184 	addi	r5,r5,-27834
  1258b4:	2c45883a 	add	r2,r5,r17
  1258b8:	1440000f 	ldh	r17,0(r2)
  1258bc:	00800204 	movi	r2,8
  1258c0:	147ff616 	blt	r2,r17,12589c <_gp+0xfffe21c4>
  1258c4:	dc409e15 	stw	r17,632(sp)
  1258c8:	9023883a 	mov	r17,r18
  1258cc:	8880400c 	andi	r2,r17,256
  1258d0:	4825883a 	mov	r18,r9
  1258d4:	10000426 	beq	r2,zero,1258e8 <__ssvfscanf_r+0x143c>
  1258d8:	d8800104 	addi	r2,sp,4
  1258dc:	1400b036 	bltu	r2,r16,125ba0 <__ssvfscanf_r+0x16f4>
  1258e0:	d8c00104 	addi	r3,sp,4
  1258e4:	1c3b3226 	beq	r3,r16,1245b0 <_gp+0xfffe0ed8>
  1258e8:	8880040c 	andi	r2,r17,16
  1258ec:	10006226 	beq	r2,zero,125a78 <__ssvfscanf_r+0x15cc>
  1258f0:	d8800104 	addi	r2,sp,4
  1258f4:	80a1c83a 	sub	r16,r16,r2
  1258f8:	8521883a 	add	r16,r16,r20
  1258fc:	003ca506 	br	124b94 <_gp+0xfffe14bc>
  125900:	01400534 	movhi	r5,20
  125904:	8c63883a 	add	r17,r17,r17
  125908:	2964d184 	addi	r5,r5,-27834
  12590c:	2c45883a 	add	r2,r5,r17
  125910:	1440000f 	ldh	r17,0(r2)
  125914:	00bd1fc4 	movi	r2,-2945
  125918:	90a4703a 	and	r18,r18,r2
  12591c:	003fd006 	br	125860 <_gp+0xfffe2188>
  125920:	9082000c 	andi	r2,r18,2048
  125924:	103fce26 	beq	r2,zero,125860 <_gp+0xfffe2188>
  125928:	8800021e 	bne	r17,zero,125934 <__ssvfscanf_r+0x1488>
  12592c:	94808014 	ori	r18,r18,512
  125930:	04400204 	movi	r17,8
  125934:	9081000c 	andi	r2,r18,1024
  125938:	10008626 	beq	r2,zero,125b54 <__ssvfscanf_r+0x16a8>
  12593c:	00be9fc4 	movi	r2,-1409
  125940:	90a4703a 	and	r18,r18,r2
  125944:	003fc606 	br	125860 <_gp+0xfffe2188>
  125948:	9080200c 	andi	r2,r18,128
  12594c:	103fdd26 	beq	r2,zero,1258c4 <_gp+0xfffe21ec>
  125950:	9224703a 	and	r18,r18,r8
  125954:	003fc206 	br	125860 <_gp+0xfffe2188>
  125958:	980b883a 	mov	r5,r19
  12595c:	b809883a 	mov	r4,r23
  125960:	d980a915 	stw	r6,676(sp)
  125964:	d9c0aa15 	stw	r7,680(sp)
  125968:	da00a715 	stw	r8,668(sp)
  12596c:	da40a815 	stw	r9,672(sp)
  125970:	dac0a615 	stw	r11,664(sp)
  125974:	012d2940 	call	12d294 <__ssrefill_r>
  125978:	d980a917 	ldw	r6,676(sp)
  12597c:	d9c0aa17 	ldw	r7,680(sp)
  125980:	da00a717 	ldw	r8,668(sp)
  125984:	da40a817 	ldw	r9,672(sp)
  125988:	dac0a617 	ldw	r11,664(sp)
  12598c:	103fbc26 	beq	r2,zero,125880 <_gp+0xfffe21a8>
  125990:	003fcc06 	br	1258c4 <_gp+0xfffe21ec>
  125994:	8821883a 	mov	r16,r17
  125998:	a807883a 	mov	r3,r21
  12599c:	e023883a 	mov	r17,fp
  1259a0:	b82b883a 	mov	r21,r23
  1259a4:	302f883a 	mov	r23,r6
  1259a8:	00bfbfc4 	movi	r2,-257
  1259ac:	a0a8703a 	and	r20,r20,r2
  1259b0:	003e6706 	br	125350 <_gp+0xfffe1c78>
  1259b4:	d800a215 	stw	zero,648(sp)
  1259b8:	003de306 	br	125148 <_gp+0xfffe1a70>
  1259bc:	000f883a 	mov	r7,zero
  1259c0:	003f4106 	br	1256c8 <_gp+0xfffe1ff0>
  1259c4:	d9409c17 	ldw	r5,624(sp)
  1259c8:	e2bfffc4 	addi	r10,fp,-1
  1259cc:	2c400017 	ldw	r17,0(r5)
  1259d0:	2c000104 	addi	r16,r5,4
  1259d4:	8aa9883a 	add	r20,r17,r10
  1259d8:	880b883a 	mov	r5,r17
  1259dc:	00000606 	br	1259f8 <__ssvfscanf_r+0x154c>
  1259e0:	98c00017 	ldw	r3,0(r19)
  1259e4:	b1000017 	ldw	r4,0(r22)
  1259e8:	a80b883a 	mov	r5,r21
  1259ec:	18800003 	ldbu	r2,0(r3)
  1259f0:	2085883a 	add	r2,r4,r2
  1259f4:	10800043 	ldbu	r2,1(r2)
  1259f8:	1080020c 	andi	r2,r2,8
  1259fc:	1000621e 	bne	r2,zero,125b88 <__ssvfscanf_r+0x16dc>
  125a00:	98800117 	ldw	r2,4(r19)
  125a04:	19000044 	addi	r4,r3,1
  125a08:	99000015 	stw	r4,0(r19)
  125a0c:	10bfffc4 	addi	r2,r2,-1
  125a10:	98800115 	stw	r2,4(r19)
  125a14:	18800003 	ldbu	r2,0(r3)
  125a18:	2d400044 	addi	r21,r5,1
  125a1c:	a839883a 	mov	fp,r21
  125a20:	28800005 	stb	r2,0(r5)
  125a24:	2d000626 	beq	r5,r20,125a40 <__ssvfscanf_r+0x1594>
  125a28:	98800117 	ldw	r2,4(r19)
  125a2c:	00bfec16 	blt	zero,r2,1259e0 <_gp+0xfffe2308>
  125a30:	980b883a 	mov	r5,r19
  125a34:	b809883a 	mov	r4,r23
  125a38:	012d2940 	call	12d294 <__ssrefill_r>
  125a3c:	103fe826 	beq	r2,zero,1259e0 <_gp+0xfffe2308>
  125a40:	d880a017 	ldw	r2,640(sp)
  125a44:	dd009d17 	ldw	r20,628(sp)
  125a48:	e463c83a 	sub	r17,fp,r17
  125a4c:	10800044 	addi	r2,r2,1
  125a50:	e0000005 	stb	zero,0(fp)
  125a54:	9465883a 	add	r18,r18,r17
  125a58:	d880a015 	stw	r2,640(sp)
  125a5c:	dc009c15 	stw	r16,624(sp)
  125a60:	a00d883a 	mov	r6,r20
  125a64:	003ace06 	br	1245a0 <_gp+0xfffe0ec8>
  125a68:	dd009d17 	ldw	r20,628(sp)
  125a6c:	9465883a 	add	r18,r18,r17
  125a70:	a00d883a 	mov	r6,r20
  125a74:	003aca06 	br	1245a0 <_gp+0xfffe0ec8>
