
flash_uart_accelerometer.elf:     file format elf32-littlenios2
flash_uart_accelerometer.elf
architecture: nios2:r1, flags 0x00000112:
EXEC_P, HAS_SYMS, D_PAGED
start address 0x00120234

Program Header:
    LOAD off    0x00001000 vaddr 0x00120000 paddr 0x00120000 align 2**12
         filesz 0x00000020 memsz 0x00000020 flags r-x
    LOAD off    0x00001020 vaddr 0x00120020 paddr 0x00120020 align 2**12
         filesz 0x00019a1c memsz 0x00019a1c flags r-x
    LOAD off    0x0001aa3c vaddr 0x00139a3c paddr 0x0013b734 align 2**12
         filesz 0x00001cf8 memsz 0x00001cf8 flags rw-
    LOAD off    0x0001d42c vaddr 0x0013d42c paddr 0x0013d42c align 2**12
         filesz 0x00000000 memsz 0x0000016c flags rw-

Sections:
Idx Name          Size      VMA       LMA       File off  Algn
  0 .entry        00000020  00120000  00120000  00001000  2**5
                  CONTENTS, ALLOC, LOAD, READONLY, CODE
  1 .exceptions   00000214  00120020  00120020  00001020  2**2
                  CONTENTS, ALLOC, LOAD, READONLY, CODE
  2 .text         00018e00  00120234  00120234  00001234  2**2
                  CONTENTS, ALLOC, LOAD, READONLY, CODE
  3 .rodata       00000a08  00139034  00139034  0001a034  2**2
                  CONTENTS, ALLOC, LOAD, READONLY, DATA
  4 .rwdata       00001cf8  00139a3c  0013b734  0001aa3c  2**2
                  CONTENTS, ALLOC, LOAD, DATA, SMALL_DATA
  5 .bss          0000016c  0013d42c  0013d42c  0001d42c  2**2
                  ALLOC, SMALL_DATA
  6 .onchip_flash_data 00000000  00080000  00080000  0001c734  2**0
                  CONTENTS
  7 .onchip_memory 00000000  0013d598  0013d598  0001c734  2**0
                  CONTENTS
  8 .comment      00000023  00000000  00000000  0001c734  2**0
                  CONTENTS, READONLY
  9 .debug_aranges 000012c0  00000000  00000000  0001c758  2**3
                  CONTENTS, READONLY, DEBUGGING
 10 .debug_info   0002eade  00000000  00000000  0001da18  2**0
                  CONTENTS, READONLY, DEBUGGING
 11 .debug_abbrev 0000bb56  00000000  00000000  0004c4f6  2**0
                  CONTENTS, READONLY, DEBUGGING
 12 .debug_line   0000f993  00000000  00000000  0005804c  2**0
                  CONTENTS, READONLY, DEBUGGING
 13 .debug_frame  00002d70  00000000  00000000  000679e0  2**2
                  CONTENTS, READONLY, DEBUGGING
 14 .debug_str    00004dd7  00000000  00000000  0006a750  2**0
                  CONTENTS, READONLY, DEBUGGING
 15 .debug_loc    000205a2  00000000  00000000  0006f527  2**0
                  CONTENTS, READONLY, DEBUGGING
 16 .debug_alt_sim_info 00000040  00000000  00000000  0008facc  2**2
                  CONTENTS, READONLY, DEBUGGING
 17 .debug_ranges 00001de8  00000000  00000000  0008fb10  2**3
                  CONTENTS, READONLY, DEBUGGING
 18 .thread_model 00000003  00000000  00000000  000958c4  2**0
                  CONTENTS, READONLY
 19 .cpu          00000003  00000000  00000000  000958c7  2**0
                  CONTENTS, READONLY
 20 .qsys         00000001  00000000  00000000  000958ca  2**0
                  CONTENTS, READONLY
 21 .simulation_enabled 00000001  00000000  00000000  000958cb  2**0
                  CONTENTS, READONLY
 22 .sysid_hash   00000004  00000000  00000000  000958cc  2**0
                  CONTENTS, READONLY
 23 .sysid_base   00000004  00000000  00000000  000958d0  2**0
                  CONTENTS, READONLY
 24 .sysid_time   00000004  00000000  00000000  000958d4  2**0
                  CONTENTS, READONLY
 25 .stderr_dev   00000009  00000000  00000000  000958d8  2**0
                  CONTENTS, READONLY
 26 .stdin_dev    00000009  00000000  00000000  000958e1  2**0
                  CONTENTS, READONLY
 27 .stdout_dev   00000009  00000000  00000000  000958ea  2**0
                  CONTENTS, READONLY
 28 .sopc_system_name 0000000c  00000000  00000000  000958f3  2**0
                  CONTENTS, READONLY
 29 .sopcinfo     0008ca77  00000000  00000000  000958ff  2**0
                  CONTENTS, READONLY
SYMBOL TABLE:
00120000 l    d  .entry	00000000 .entry
00120020 l    d  .exceptions	00000000 .exceptions
00120234 l    d  .text	00000000 .text
00139034 l    d  .rodata	00000000 .rodata
00139a3c l    d  .rwdata	00000000 .rwdata
0013d42c l    d  .bss	00000000 .bss
00080000 l    d  .onchip_flash_data	00000000 .onchip_flash_data
0013d598 l    d  .onchip_memory	00000000 .onchip_memory
00000000 l    d  .comment	00000000 .comment
00000000 l    d  .debug_aranges	00000000 .debug_aranges
00000000 l    d  .debug_info	00000000 .debug_info
00000000 l    d  .debug_abbrev	00000000 .debug_abbrev
00000000 l    d  .debug_line	00000000 .debug_line
00000000 l    d  .debug_frame	00000000 .debug_frame
00000000 l    d  .debug_str	00000000 .debug_str
00000000 l    d  .debug_loc	00000000 .debug_loc
00000000 l    d  .debug_alt_sim_info	00000000 .debug_alt_sim_info
00000000 l    d  .debug_ranges	00000000 .debug_ranges
00000000 l    df *ABS*	00000000 ../uart_accel_flash_bsp/obj/HAL/src/crt0.o
0012026c l       .text	00000000 alt_after_alt_main
00000000 l    df *ABS*	00000000 alt_irq_handler.c
00000000 l    df *ABS*	00000000 alt_instruction_exception_entry.c
00000000 l    df *ABS*	00000000 uart_accelerometer.c
00000000 l    df *ABS*	00000000 lib2-divmod.c
00000000 l    df *ABS*	00000000 lib2-mul.c
00000000 l    df *ABS*	00000000 memcpy.c
00000000 l    df *ABS*	00000000 memset.c
00000000 l    df *ABS*	00000000 sprintf.c
00000000 l    df *ABS*	00000000 sscanf.c
00000000 l    df *ABS*	00000000 stdio.c
00000000 l    df *ABS*	00000000 strlen.c
00000000 l    df *ABS*	00000000 strstr.c
0012198c l     F .text	00000104 critical_factorization
00121a90 l     F .text	000003b0 two_way_long_needle
00000000 l    df *ABS*	00000000 vfprintf.c
0013931e l     O .rodata	00000010 zeroes.4389
0013932e l     O .rodata	00000010 blanks.4388
00000000 l    df *ABS*	00000000 vfscanf.c
00139346 l     O .rodata	00000022 basefix.4340
00000000 l    df *ABS*	00000000 writer.c
00000000 l    df *ABS*	00000000 closer.c
00000000 l    df *ABS*	00000000 ctype_.c
00139469 l     O .rodata	00000180 _ctype_b
00000000 l    df *ABS*	00000000 dtoa.c
00125eec l     F .text	00000228 quorem
00000000 l    df *ABS*	00000000 impure.c
00139a3c l     O .rwdata	00000424 impure_data
00000000 l    df *ABS*	00000000 int_errno.c
00000000 l    df *ABS*	00000000 iswspace.c
00000000 l    df *ABS*	00000000 locale.c
00139e80 l     O .rwdata	00000020 lc_ctype_charset
00139e60 l     O .rwdata	00000020 lc_message_charset
00139ea0 l     O .rwdata	00000038 lconv
00000000 l    df *ABS*	00000000 lseekr.c
00000000 l    df *ABS*	00000000 mallocr.c
00000000 l    df *ABS*	00000000 mbrtowc.c
00000000 l    df *ABS*	00000000 mbtowc_r.c
00000000 l    df *ABS*	00000000 memchr.c
00000000 l    df *ABS*	00000000 memcmp.c
00000000 l    df *ABS*	00000000 mprec.c
0013960c l     O .rodata	0000000c p05.2768
00000000 l    df *ABS*	00000000 readr.c
00000000 l    df *ABS*	00000000 s_fpclassify.c
00000000 l    df *ABS*	00000000 sbrkr.c
00000000 l    df *ABS*	00000000 sccl.c
00000000 l    df *ABS*	00000000 sf_nan.c
00000000 l    df *ABS*	00000000 strchr.c
00000000 l    df *ABS*	00000000 strcmp.c
00000000 l    df *ABS*	00000000 strtod.c
00129990 l     F .text	00000064 sulp
00139740 l     O .rodata	00000014 fpinan.2773
00139754 l     O .rodata	00000014 fpi.2737
00139768 l     O .rodata	00000028 tinytens
00000000 l    df *ABS*	00000000 strtol.c
00000000 l    df *ABS*	00000000 strtoll_r.c
00000000 l    df *ABS*	00000000 strtoul.c
00000000 l    df *ABS*	00000000 strtoull_r.c
00000000 l    df *ABS*	00000000 vfprintf.c
00139790 l     O .rodata	00000010 zeroes.4333
001397a0 l     O .rodata	00000010 blanks.4332
00000000 l    df *ABS*	00000000 vfscanf.c
001397b0 l     O .rodata	00000022 basefix.3791
00000000 l    df *ABS*	00000000 ungetc.c
00000000 l    df *ABS*	00000000 mallocr.c
00000000 l    df *ABS*	00000000 fflush.c
00000000 l    df *ABS*	00000000 findfp.c
0012eb54 l     F .text	00000008 __fp_unlock
0012eb68 l     F .text	0000019c __sinit.part.1
0012ed04 l     F .text	00000008 __fp_lock
00000000 l    df *ABS*	00000000 mallocr.c
00000000 l    df *ABS*	00000000 fwalk.c
00000000 l    df *ABS*	00000000 gdtoa-gethex.c
0012f4c0 l     F .text	00000100 rshift
00000000 l    df *ABS*	00000000 gdtoa-hexnan.c
00000000 l    df *ABS*	00000000 memmove.c
00000000 l    df *ABS*	00000000 mallocr.c
00000000 l    df *ABS*	00000000 strncmp.c
00000000 l    df *ABS*	00000000 fclose.c
00000000 l    df *ABS*	00000000 libgcc2.c
00000000 l    df *ABS*	00000000 libgcc2.c
00000000 l    df *ABS*	00000000 libgcc2.c
00000000 l    df *ABS*	00000000 libgcc2.c
00000000 l    df *ABS*	00000000 eqsf2.c
00000000 l    df *ABS*	00000000 gesf2.c
00000000 l    df *ABS*	00000000 lesf2.c
00000000 l    df *ABS*	00000000 adddf3.c
00000000 l    df *ABS*	00000000 divdf3.c
00000000 l    df *ABS*	00000000 eqdf2.c
00000000 l    df *ABS*	00000000 gedf2.c
00000000 l    df *ABS*	00000000 ledf2.c
00000000 l    df *ABS*	00000000 muldf3.c
00000000 l    df *ABS*	00000000 subdf3.c
00000000 l    df *ABS*	00000000 fixdfsi.c
00000000 l    df *ABS*	00000000 floatsidf.c
00000000 l    df *ABS*	00000000 floatunsidf.c
00000000 l    df *ABS*	00000000 truncdfsf2.c
00000000 l    df *ABS*	00000000 libgcc2.c
00000000 l    df *ABS*	00000000 libgcc2.c
00000000 l    df *ABS*	00000000 alt_close.c
00134288 l     F .text	0000003c alt_get_errno
00000000 l    df *ABS*	00000000 alt_dev.c
0013439c l     F .text	0000002c alt_dev_null_write
00000000 l    df *ABS*	00000000 alt_errno.c
00000000 l    df *ABS*	00000000 alt_irq_register.c
00000000 l    df *ABS*	00000000 alt_irq_vars.c
00000000 l    df *ABS*	00000000 alt_load.c
00134548 l     F .text	00000068 alt_load_section
00000000 l    df *ABS*	00000000 alt_lseek.c
00134634 l     F .text	0000003c alt_get_errno
00000000 l    df *ABS*	00000000 alt_main.c
00000000 l    df *ABS*	00000000 alt_malloc_lock.c
00000000 l    df *ABS*	00000000 alt_open.c
00134810 l     F .text	0000003c alt_get_errno
0013484c l     F .text	000000ec alt_file_locked
00000000 l    df *ABS*	00000000 alt_putstr.c
00000000 l    df *ABS*	00000000 alt_read.c
00134ad0 l     F .text	0000003c alt_get_errno
00000000 l    df *ABS*	00000000 alt_release_fd.c
00000000 l    df *ABS*	00000000 alt_sbrk.c
0013b718 l     O .rwdata	00000004 heap_end
00000000 l    df *ABS*	00000000 alt_write.c
00134d44 l     F .text	0000003c alt_get_errno
00000000 l    df *ABS*	00000000 alt_sys_init.c
00134e80 l     F .text	00000034 alt_dev_reg
0013a488 l     O .rwdata	00001060 jtag_uart
0013b4e8 l     O .rwdata	000000c4 uart
0013b5ac l     O .rwdata	00000100 onchip_flash
0013b6ac l     O .rwdata	0000002c accelerometer_spi
00000000 l    df *ABS*	00000000 altera_avalon_jtag_uart_fd.c
00000000 l    df *ABS*	00000000 altera_avalon_jtag_uart_init.c
001351a0 l     F .text	00000210 altera_avalon_jtag_uart_irq
001353b0 l     F .text	000000a0 altera_avalon_jtag_uart_timeout
00000000 l    df *ABS*	00000000 altera_avalon_jtag_uart_ioctl.c
00000000 l    df *ABS*	00000000 altera_avalon_jtag_uart_read.c
00000000 l    df *ABS*	00000000 altera_avalon_jtag_uart_write.c
00000000 l    df *ABS*	00000000 altera_avalon_timer_sc.c
001359e8 l     F .text	0000007c alt_avalon_timer_sc_irq
00000000 l    df *ABS*	00000000 altera_avalon_uart_fd.c
00000000 l    df *ABS*	00000000 altera_avalon_uart_init.c
00135c8c l     F .text	000000a0 altera_avalon_uart_irq
00135d2c l     F .text	000000e4 altera_avalon_uart_rxirq
00135e10 l     F .text	00000148 altera_avalon_uart_txirq
00000000 l    df *ABS*	00000000 altera_avalon_uart_read.c
00135fac l     F .text	0000003c alt_get_errno
00000000 l    df *ABS*	00000000 altera_avalon_uart_write.c
001361c4 l     F .text	0000003c alt_get_errno
00000000 l    df *ABS*	00000000 altera_onchip_flash.c
001363ac l     F .text	00000034 alt_flash_device_register
00000000 l    df *ABS*	00000000 altera_up_avalon_accelerometer_spi.c
00000000 l    df *ABS*	00000000 alt_alarm_start.c
00000000 l    df *ABS*	00000000 alt_busy_sleep.c
00000000 l    df *ABS*	00000000 alt_dcache_flush.c
00000000 l    df *ABS*	00000000 alt_dcache_flush_all.c
00000000 l    df *ABS*	00000000 alt_dev_llist_insert.c
00137968 l     F .text	0000003c alt_get_errno
00000000 l    df *ABS*	00000000 alt_do_ctors.c
00000000 l    df *ABS*	00000000 alt_do_dtors.c
00000000 l    df *ABS*	00000000 alt_find_dev.c
00000000 l    df *ABS*	00000000 alt_find_file.c
00000000 l    df *ABS*	00000000 alt_flash_dev.c
00000000 l    df *ABS*	00000000 alt_get_fd.c
00000000 l    df *ABS*	00000000 alt_icache_flush_all.c
00000000 l    df *ABS*	00000000 alt_io_redirect.c
00137e40 l     F .text	000000e4 alt_open_fd
00000000 l    df *ABS*	00000000 alt_tick.c
00000000 l    df *ABS*	00000000 altera_nios2_gen2_irq.c
00000000 l    df *ABS*	00000000 atexit.c
00000000 l    df *ABS*	00000000 exit.c
00000000 l    df *ABS*	00000000 fputs.c
00000000 l    df *ABS*	00000000 fvwrite.c
00000000 l    df *ABS*	00000000 wsetup.c
00000000 l    df *ABS*	00000000 __atexit.c
00000000 l    df *ABS*	00000000 __call_atexit.c
00000000 l    df *ABS*	00000000 makebuf.c
00000000 l    df *ABS*	00000000 fstatr.c
00000000 l    df *ABS*	00000000 isattyr.c
00000000 l    df *ABS*	00000000 alt_exit.c
00000000 l    df *ABS*	00000000 alt_fstat.c
00138e58 l     F .text	0000003c alt_get_errno
00000000 l    df *ABS*	00000000 alt_isatty.c
00138f4c l     F .text	0000003c alt_get_errno
0013d46c g     O .bss	00000004 alt_instruction_exception_handler
00080000 g       *ABS*	00000000 __alt_mem_onchip_flash_data
001293d8 g     F .text	00000074 _mprec_log10
001294c4 g     F .text	0000008c __any_on
00138dd0 g     F .text	00000054 _isatty_r
00139618 g     O .rodata	00000028 __mprec_tinytens
0013474c g     F .text	0000007c alt_main
0013d498 g     O .bss	00000100 alt_irq
001278a8 g     F .text	00000060 _lseek_r
0013b734 g       *ABS*	00000000 __flash_rwdata_start
00132ab8 g     F .text	00000088 .hidden __eqdf2
0013d598 g       *ABS*	00000000 __alt_heap_start
00121890 g     F .text	0000005c __sseek
0012eeb4 g     F .text	00000010 __sinit
001277cc g     F .text	0000007c _setlocale_r
0012ed0c g     F .text	00000078 __sfmoreglue
0012e7b8 g     F .text	00000018 ungetc
001347ec g     F .text	00000024 __malloc_unlock
001299f4 g     F .text	000015e4 _strtod_r
0012d304 g     F .text	00000100 _sfread_r
0013006c g     F .text	0000015c memmove
0012ee9c g     F .text	00000018 _cleanup
00128498 g     F .text	000000a8 _Balloc
00134a94 g     F .text	0000003c alt_putstr
00132b40 g     F .text	000000dc .hidden __gtdf2
00138144 g     F .text	00000024 altera_nios2_gen2_irq_init
00120000 g     F .entry	0000000c __reset
00137438 g     F .text	000000cc alt_up_accelerometer_spi_read_x_axis
00120020 g       *ABS*	00000000 __flash_exceptions_start
00138d74 g     F .text	0000005c _fstat_r
0013d438 g     O .bss	00000004 errno
0012180c g     F .text	00000008 __seofread
0012bdec g     F .text	000013a0 ___svfiprintf_internal_r
0013d434 g     O .bss	00000004 transmission
0013d45c g     O .bss	00000004 alt_argv
001436d8 g       *ABS*	00000000 _gp
0013725c g     F .text	00000090 alt_onchip_flash_poll_for_status_write_passed
0013a308 g     O .rwdata	00000180 alt_fd_list
00137b08 g     F .text	00000090 alt_find_dev
00121390 g     F .text	00000148 memcpy
0012fe10 g     F .text	0000025c __hexnan
0012073c g     F .text	0000004c uart_wait_trdy
0012eb5c g     F .text	0000000c _cleanup_r
00133ef8 g     F .text	000000dc .hidden __floatsidf
00137f24 g     F .text	0000007c alt_io_redirect
00132c1c g     F .text	000000f4 .hidden __ltdf2
00139034 g       *ABS*	00000000 __DTOR_END__
0013b6dc g     O .rwdata	00000004 timer_main_period_ms
00138168 g     F .text	0000009c alt_exception_cause_generated_bad_addr
001281c0 g     F .text	000000d8 mbrtowc
001295b0 g     F .text	00000074 __fpclassifyd
00129334 g     F .text	000000a4 __ratio
001355a8 g     F .text	0000021c altera_avalon_jtag_uart_read
001212ac g     F .text	00000064 .hidden __udivsi3
00138f88 g     F .text	000000ac isatty
0012779c g     F .text	00000030 iswspace
001371cc g     F .text	00000090 alt_onchip_flash_poll_for_status_erase_passed
00139668 g     O .rodata	000000c8 __mprec_tens
00127848 g     F .text	0000000c __locale_charset
00131774 g     F .text	000000c8 .hidden __lesf2
00120500 g     F .text	000000c8 init_timer
00130a0c g     F .text	00000074 .hidden __fixunsdfsi
0013d450 g     O .bss	00000004 __malloc_top_pad
0013b71c g     O .rwdata	00000008 altera_onchip_flash_list
0012d294 g     F .text	00000070 __ssrefill_r
0012b8e0 g     F .text	0000001c strtoul
0013b6ec g     O .rwdata	00000004 __mb_cur_max
00127878 g     F .text	0000000c _localeconv_r
0012b8fc g     F .text	00000320 _strtoull_r
00138304 g     F .text	000004c8 __sfvwrite_r
001288cc g     F .text	0000003c __i2b
00129624 g     F .text	00000054 _sbrk_r
0013b6d8 g     O .rwdata	00000004 timer_poll_period_ms
00129550 g     F .text	00000060 _read_r
00137920 g     F .text	00000028 alt_dcache_flush
00136548 g     F .text	00000168 alt_onchip_flash_erase_block
0013b70c g     O .rwdata	00000004 alt_max_fd
001307fc g     F .text	000000f0 _fclose_r
0012eb24 g     F .text	00000030 fflush
0013d44c g     O .bss	00000004 __malloc_max_sbrked_mem
001343c8 g     F .text	00000180 alt_irq_register
001244ac g     F .text	0000198c __ssvfscanf_r
0013183c g     F .text	000008ac .hidden __adddf3
00131640 g     F .text	00000078 .hidden __nesf2
001290dc g     F .text	0000010c __b2d
0013107c g     F .text	000005c4 .hidden __umoddi3
00134670 g     F .text	000000dc lseek
0013b6e4 g     O .rwdata	00000004 _global_impure_ptr
001301c8 g     F .text	00000564 _realloc_r
0013d598 g       *ABS*	00000000 __bss_end
0013803c g     F .text	00000108 alt_tick
001397d2 g     O .rodata	00000100 __hexdig
00130a80 g     F .text	000005fc .hidden __udivdi3
00139640 g     O .rodata	00000028 __mprec_bigtens
001286b0 g     F .text	00000104 __s2b
00133fd4 g     F .text	000000a8 .hidden __floatunsidf
00128e1c g     F .text	00000060 __mcmp
00135be8 g     F .text	000000a4 altera_avalon_uart_init
0012eed4 g     F .text	00000018 __fp_lock_all
00120788 g     F .text	000006ac process_buffer
00137fa0 g     F .text	0000009c alt_alarm_stop
0012b348 g     F .text	0000001c strtol
0013d454 g     O .bss	00000004 alt_irq_active
001200fc g     F .exceptions	000000d8 alt_irq_handler
0013a2e0 g     O .rwdata	00000028 alt_dev_null
00137948 g     F .text	00000020 alt_dcache_flush_all
001287b4 g     F .text	00000068 __hi0bits
00133e78 g     F .text	00000080 .hidden __fixdfsi
00120604 g     F .text	0000003c timer_poll_isr
0012afd8 g     F .text	00000018 strtod
0013b734 g       *ABS*	00000000 __ram_rwdata_end
00120000 g       *ABS*	00000000 __alt_mem_onchip_memory
0013b704 g     O .rwdata	00000008 alt_dev_list
00134d80 g     F .text	00000100 write
001316b8 g     F .text	000000bc .hidden __gtsf2
00139a3c g       *ABS*	00000000 __ram_rodata_end
00138e94 g     F .text	000000b8 fstat
00132c1c g     F .text	000000f4 .hidden __ledf2
00128b94 g     F .text	00000140 __pow5mult
0013d444 g     O .bss	00000004 __nlocale_changed
00121310 g     F .text	00000058 .hidden __umodsi3
00120640 g     F .text	00000060 setup_button_interrupts
0013d598 g       *ABS*	00000000 end
00136200 g     F .text	000001ac altera_avalon_uart_write
001350ec g     F .text	000000b4 altera_avalon_jtag_uart_init
001201d4 g     F .exceptions	00000060 alt_instruction_exception_entry
00139034 g       *ABS*	00000000 __CTOR_LIST__
0013f720 g       *ABS*	00000000 __alt_stack_pointer
00135a64 g     F .text	00000074 alt_avalon_timer_sc_init
00135b38 g     F .text	00000060 altera_avalon_uart_write_fd
00134224 g     F .text	00000064 .hidden __clzsi2
00135b98 g     F .text	00000050 altera_avalon_uart_close_fd
001357c4 g     F .text	00000224 altera_avalon_jtag_uart_write
0012eec4 g     F .text	00000004 __sfp_lock_acquire
00128338 g     F .text	000000e4 memchr
00121600 g     F .text	00000058 _sprintf_r
001364ac g     F .text	0000009c alt_onchip_flash_get_info
0012f028 g     F .text	00000310 _free_r
00127854 g     F .text	00000010 __locale_mb_cur_max
00138a38 g     F .text	00000180 __call_exitprocs
0012d18c g     F .text	00000108 _sungetc_r
0013d440 g     O .bss	00000004 __mlocale_changed
0013b6f0 g     O .rwdata	00000004 __malloc_sbrk_base
00120234 g     F .text	0000003c _start
0013d464 g     O .bss	00000004 _alt_tick_rate
00121e40 g     F .text	000003b0 strstr
0012b364 g     F .text	00000304 _strtoll_r
00128cd4 g     F .text	00000148 __lshift
0013d468 g     O .bss	00000004 _alt_nticks
00134b0c g     F .text	00000104 read
00134eec g     F .text	0000009c alt_sys_init
00137328 g     F .text	00000044 alt_up_accelerometer_spi_read_address_register
0012bc1c g     F .text	000001d0 __ssprint_r
00138920 g     F .text	00000118 __register_exitproc
0013072c g     F .text	000000d0 strncmp
00128908 g     F .text	0000028c __multiply
00135450 g     F .text	00000068 altera_avalon_jtag_uart_close
00121368 g     F .text	00000028 .hidden __mulsi3
00139a3c g       *ABS*	00000000 __ram_rwdata_start
00139034 g       *ABS*	00000000 __ram_rodata_start
0013d470 g     O .bss	00000028 __malloc_current_mallinfo
00131640 g     F .text	00000078 .hidden __eqsf2
001291e8 g     F .text	0000014c __d2b
0013d42c g     O .bss	00000004 poll_uart
00134f88 g     F .text	00000060 altera_avalon_jtag_uart_read_fd
0012b668 g     F .text	00000278 _strtoul_r
00137d5c g     F .text	000000c4 alt_get_fd
001377c8 g     F .text	00000158 alt_busy_sleep
00137504 g     F .text	000000cc alt_up_accelerometer_spi_read_y_axis
00125e98 g     F .text	00000054 _close_r
0012841c g     F .text	0000007c memcmp
00135048 g     F .text	00000050 altera_avalon_jtag_uart_close_fd
0013d598 g       *ABS*	00000000 __alt_stack_base
00135098 g     F .text	00000054 altera_avalon_jtag_uart_ioctl_fd
001216c4 g     F .text	0000007c sscanf
001387cc g     F .text	00000154 __swsetup_r
001320e8 g     F .text	000009d0 .hidden __divdf3
001363e0 g     F .text	000000cc alt_onchip_flash_read
0012ed84 g     F .text	00000118 __sfp
0012944c g     F .text	00000078 __copybits
00139ed8 g     O .rwdata	00000408 __malloc_av_
0012eed0 g     F .text	00000004 __sinit_lock_release
00132d10 g     F .text	0000086c .hidden __muldf3
001217b8 g     F .text	00000054 __sread
00137b98 g     F .text	00000108 alt_find_file
001379a4 g     F .text	000000a4 alt_dev_llist_insert
001347c8 g     F .text	00000024 __malloc_lock
00134c94 g     F .text	000000b0 sbrk
001221f0 g     F .text	000022bc ___svfprintf_internal_r
0012eac8 g     F .text	0000005c _fflush_r
0012e7d0 g     F .text	000000dc _calloc_r
0013b724 g     O .rwdata	00000008 alt_flash_dev_list
0013d42c g       *ABS*	00000000 __bss_start
001214d8 g     F .text	00000128 memset
00120e34 g     F .text	00000380 main
0013d460 g     O .bss	00000004 alt_envp
0013d448 g     O .bss	00000004 __malloc_max_total_mem
00134fe8 g     F .text	00000060 altera_avalon_jtag_uart_write_fd
00131774 g     F .text	000000c8 .hidden __ltsf2
001218ec g     F .text	00000008 __sclose
0013f720 g       *ABS*	00000000 __alt_heap_limit
001308ec g     F .text	00000014 fclose
0012b0f0 g     F .text	00000258 _strtol_r
0013407c g     F .text	000001a8 .hidden __truncdfsf2
00126114 g     F .text	00001688 _dtoa_r
00127908 g     F .text	0000080c _malloc_r
0013b710 g     O .rwdata	00000004 alt_errno
0012e550 g     F .text	000000d4 __submore
0013713c g     F .text	00000090 alt_onchip_flash_poll_for_status_to_go_idle
0012f338 g     F .text	000000c4 _fwalk
001282dc g     F .text	0000005c _mbtowc_r
001211b4 g     F .text	00000084 .hidden __divsi3
0012ef04 g     F .text	00000124 _malloc_trim_r
00139034 g       *ABS*	00000000 __CTOR_END__
00136c60 g     F .text	000004dc altera_onchip_flash_init
001298b4 g     F .text	000000dc strcmp
00139034 g       *ABS*	00000000 __flash_rodata_start
00139034 g       *ABS*	00000000 __DTOR_LIST__
00132ab8 g     F .text	00000088 .hidden __nedf2
00134eb4 g     F .text	00000038 alt_irq_init
00134c10 g     F .text	00000084 alt_release_fd
00121658 g     F .text	0000006c sprintf
001398d2 g     O .rodata	00000100 .hidden __clz_tab
0013d43c g     O .bss	00000004 _PathLocale
0012aff0 g     F .text	00000100 strtof
00138204 g     F .text	00000014 atexit
001316b8 g     F .text	000000bc .hidden __gesf2
00125e38 g     F .text	00000060 _write_r
00127884 g     F .text	00000018 setlocale
00120334 g     F .text	000001cc convolve
00129748 g     F .text	00000008 nanf
0013b6e8 g     O .rwdata	00000004 _impure_ptr
0013d458 g     O .bss	00000004 alt_argc
0012e8ac g     F .text	0000021c __sflush_r
00128114 g     F .text	000000ac _mbrtowc_r
00137aa8 g     F .text	00000060 _do_dtors
00127870 g     F .text	00000008 __locale_cjk_lang
00120020 g       .exceptions	00000000 alt_irq_entry
00128298 g     F .text	00000044 __ascii_mbtowc
00129078 g     F .text	00000064 __ulp
0012eeec g     F .text	00000018 __fp_unlock_all
0013b6fc g     O .rwdata	00000008 alt_fs_list
001366b0 g     F .text	000002d8 alt_onchip_flash_write_block
0012d404 g     F .text	0000114c __ssvfiscanf_r
00120020 g       *ABS*	00000000 __ram_exceptions_start
001372ec g     F .text	0000003c alt_up_accelerometer_spi_open_dev
0012789c g     F .text	0000000c localeconv
001206a0 g     F .text	0000009c button_isr
00121740 g     F .text	00000078 _sscanf_r
0013b734 g       *ABS*	00000000 _edata
00135ad8 g     F .text	00000060 altera_avalon_uart_read_fd
00136988 g     F .text	000002d8 alt_onchip_flash_write
0013d598 g       *ABS*	00000000 _end
00137ca0 g     F .text	00000068 alt_flash_open_dev
00120234 g       *ABS*	00000000 __ram_exceptions_end
001354b8 g     F .text	000000f0 altera_avalon_jtag_uart_ioctl
00138250 g     F .text	0000009c _fputs_r
00121814 g     F .text	0000007c __swrite
0013b6f4 g     O .rwdata	00000004 __malloc_trim_threshold
00127864 g     F .text	0000000c __locale_msgcharset
00138218 g     F .text	00000038 exit
0012f3fc g     F .text	000000c4 _fwalk_reent
00128e7c g     F .text	000001fc __mdiff
00137d08 g     F .text	00000054 alt_flash_close_dev
001205c8 g     F .text	0000003c timer_main_isr
00121238 g     F .text	00000074 .hidden __modsi3
0013b6e0 g     O .rwdata	00000004 __ctype_ptr__
001375d0 g     F .text	000000cc alt_up_accelerometer_spi_read_z_axis
0013f720 g       *ABS*	00000000 __alt_data_end
00120020 g     F .exceptions	00000000 alt_exception
0012eec8 g     F .text	00000004 __sfp_lock_release
00129678 g     F .text	000000d0 __sccl
00139368 g     O .rodata	00000101 _ctype_
0013b6f8 g     O .rwdata	00000004 __mbtowc
00135f58 g     F .text	00000054 altera_avalon_uart_close
00138e24 g     F .text	00000034 _exit
0013769c g     F .text	0000012c alt_alarm_start
0013736c g     F .text	00000068 alt_up_accelerometer_spi_read
001373d4 g     F .text	00000064 alt_up_accelerometer_spi_write
00130900 g     F .text	0000010c .hidden __muldi3
00138bb8 g     F .text	000001bc __smakebuf_r
00120270 g     F .text	000000c4 push_to_buffers
001218f4 g     F .text	00000098 strlen
0013d430 g     O .bss	00000004 timer_main
00134938 g     F .text	0000015c open
00132b40 g     F .text	000000dc .hidden __gedf2
0012f5c0 g     F .text	00000850 __gethex
00137e20 g     F .text	00000020 alt_icache_flush_all
00129750 g     F .text	00000164 strchr
001382ec g     F .text	00000018 fputs
0013b714 g     O .rwdata	00000004 alt_priority_mask
00135fe8 g     F .text	000001dc altera_avalon_uart_read
0013357c g     F .text	000008fc .hidden __subdf3
0012881c g     F .text	000000b0 __lo0bits
0013b72c g     O .rwdata	00000008 alt_alarm_list
0012e624 g     F .text	00000194 _ungetc_r
00137a48 g     F .text	00000060 _do_ctors
001342c4 g     F .text	000000d8 close
001345b0 g     F .text	00000084 alt_load
0012eecc g     F .text	00000004 __sinit_lock_acquire
00128568 g     F .text	00000148 __multadd
00128540 g     F .text	00000028 _Bfree



Disassembly of section .entry:

00120000 <__reset>:
  120000:	004004b4 	movhi	at,18
  120004:	08408d14 	ori	at,at,564
  120008:	0800683a 	jmp	at
	...

Disassembly of section .exceptions:

00120020 <alt_exception>:
  120020:	deffed04 	addi	sp,sp,-76
  120024:	dfc00015 	stw	ra,0(sp)
  120028:	d8400215 	stw	at,8(sp)
  12002c:	d8800315 	stw	r2,12(sp)
  120030:	d8c00415 	stw	r3,16(sp)
  120034:	d9000515 	stw	r4,20(sp)
  120038:	d9400615 	stw	r5,24(sp)
  12003c:	d9800715 	stw	r6,28(sp)
  120040:	d9c00815 	stw	r7,32(sp)
  120044:	000b307a 	rdctl	r5,estatus
  120048:	da000915 	stw	r8,36(sp)
  12004c:	da400a15 	stw	r9,40(sp)
  120050:	da800b15 	stw	r10,44(sp)
  120054:	dac00c15 	stw	r11,48(sp)
  120058:	db000d15 	stw	r12,52(sp)
  12005c:	db400e15 	stw	r13,56(sp)
  120060:	db800f15 	stw	r14,60(sp)
  120064:	dbc01015 	stw	r15,64(sp)
  120068:	d9401115 	stw	r5,68(sp)
  12006c:	ebffff04 	addi	r15,ea,-4
  120070:	dbc01215 	stw	r15,72(sp)
  120074:	0009313a 	rdctl	r4,ipending
  120078:	2880004c 	andi	r2,r5,1
  12007c:	10000326 	beq	r2,zero,12008c <alt_exception+0x6c>
  120080:	20000226 	beq	r4,zero,12008c <alt_exception+0x6c>
  120084:	01200fc0 	call	1200fc <alt_irq_handler>
  120088:	00000706 	br	1200a8 <alt_exception+0x88>
  12008c:	df401215 	stw	ea,72(sp)
  120090:	e8bfff17 	ldw	r2,-4(ea)
  120094:	e93fff04 	addi	r4,ea,-4
  120098:	01201d40 	call	1201d4 <alt_instruction_exception_entry>
  12009c:	1000021e 	bne	r2,zero,1200a8 <alt_exception+0x88>
  1200a0:	ebffff04 	addi	r15,ea,-4
  1200a4:	dbc01215 	stw	r15,72(sp)
  1200a8:	d9401117 	ldw	r5,68(sp)
  1200ac:	df401217 	ldw	ea,72(sp)
  1200b0:	dfc00017 	ldw	ra,0(sp)
  1200b4:	2801707a 	wrctl	estatus,r5
  1200b8:	d8400217 	ldw	at,8(sp)
  1200bc:	d8800317 	ldw	r2,12(sp)
  1200c0:	d8c00417 	ldw	r3,16(sp)
  1200c4:	d9000517 	ldw	r4,20(sp)
  1200c8:	d9400617 	ldw	r5,24(sp)
  1200cc:	d9800717 	ldw	r6,28(sp)
  1200d0:	d9c00817 	ldw	r7,32(sp)
  1200d4:	da000917 	ldw	r8,36(sp)
  1200d8:	da400a17 	ldw	r9,40(sp)
  1200dc:	da800b17 	ldw	r10,44(sp)
  1200e0:	dac00c17 	ldw	r11,48(sp)
  1200e4:	db000d17 	ldw	r12,52(sp)
  1200e8:	db400e17 	ldw	r13,56(sp)
  1200ec:	db800f17 	ldw	r14,60(sp)
  1200f0:	dbc01017 	ldw	r15,64(sp)
  1200f4:	dec01304 	addi	sp,sp,76
  1200f8:	ef80083a 	eret

001200fc <alt_irq_handler>:
  1200fc:	defff904 	addi	sp,sp,-28
  120100:	dfc00615 	stw	ra,24(sp)
  120104:	df000515 	stw	fp,20(sp)
  120108:	df000504 	addi	fp,sp,20
  12010c:	0001883a 	nop
  120110:	0005313a 	rdctl	r2,ipending
  120114:	e0bffe15 	stw	r2,-8(fp)
  120118:	e0bffe17 	ldw	r2,-8(fp)
  12011c:	e0bffb15 	stw	r2,-20(fp)
  120120:	e03ffd15 	stw	zero,-12(fp)
  120124:	00800044 	movi	r2,1
  120128:	e0bffc15 	stw	r2,-16(fp)
  12012c:	e0fffb17 	ldw	r3,-20(fp)
  120130:	e0bffc17 	ldw	r2,-16(fp)
  120134:	1884703a 	and	r2,r3,r2
  120138:	10001526 	beq	r2,zero,120190 <alt_irq_handler+0x94>
  12013c:	00800534 	movhi	r2,20
  120140:	10b52604 	addi	r2,r2,-11112
  120144:	e0fffd17 	ldw	r3,-12(fp)
  120148:	180690fa 	slli	r3,r3,3
  12014c:	10c5883a 	add	r2,r2,r3
  120150:	10c00017 	ldw	r3,0(r2)
  120154:	00800534 	movhi	r2,20
  120158:	10b52604 	addi	r2,r2,-11112
  12015c:	e13ffd17 	ldw	r4,-12(fp)
  120160:	200890fa 	slli	r4,r4,3
  120164:	1105883a 	add	r2,r2,r4
  120168:	10800104 	addi	r2,r2,4
  12016c:	10800017 	ldw	r2,0(r2)
  120170:	e17ffd17 	ldw	r5,-12(fp)
  120174:	1009883a 	mov	r4,r2
  120178:	183ee83a 	callr	r3
  12017c:	0001883a 	nop
  120180:	0005313a 	rdctl	r2,ipending
  120184:	e0bfff15 	stw	r2,-4(fp)
  120188:	e0bfff17 	ldw	r2,-4(fp)
  12018c:	00000706 	br	1201ac <alt_irq_handler+0xb0>
  120190:	e0bffc17 	ldw	r2,-16(fp)
  120194:	1085883a 	add	r2,r2,r2
  120198:	e0bffc15 	stw	r2,-16(fp)
  12019c:	e0bffd17 	ldw	r2,-12(fp)
  1201a0:	10800044 	addi	r2,r2,1
  1201a4:	e0bffd15 	stw	r2,-12(fp)
  1201a8:	003fe006 	br	12012c <_gp+0xfffdca54>
  1201ac:	e0bffb15 	stw	r2,-20(fp)
  1201b0:	e0bffb17 	ldw	r2,-20(fp)
  1201b4:	103fda1e 	bne	r2,zero,120120 <_gp+0xfffdca48>
  1201b8:	0001883a 	nop
  1201bc:	0001883a 	nop
  1201c0:	e037883a 	mov	sp,fp
  1201c4:	dfc00117 	ldw	ra,4(sp)
  1201c8:	df000017 	ldw	fp,0(sp)
  1201cc:	dec00204 	addi	sp,sp,8
  1201d0:	f800283a 	ret

001201d4 <alt_instruction_exception_entry>:
  1201d4:	defffb04 	addi	sp,sp,-20
  1201d8:	dfc00415 	stw	ra,16(sp)
  1201dc:	df000315 	stw	fp,12(sp)
  1201e0:	df000304 	addi	fp,sp,12
  1201e4:	e13fff15 	stw	r4,-4(fp)
  1201e8:	00bfffc4 	movi	r2,-1
  1201ec:	e0bffd15 	stw	r2,-12(fp)
  1201f0:	e03ffe15 	stw	zero,-8(fp)
  1201f4:	d0a76517 	ldw	r2,-25196(gp)
  1201f8:	10000726 	beq	r2,zero,120218 <alt_instruction_exception_entry+0x44>
  1201fc:	d0a76517 	ldw	r2,-25196(gp)
  120200:	e0fffd17 	ldw	r3,-12(fp)
  120204:	e1bffe17 	ldw	r6,-8(fp)
  120208:	e17fff17 	ldw	r5,-4(fp)
  12020c:	1809883a 	mov	r4,r3
  120210:	103ee83a 	callr	r2
  120214:	00000206 	br	120220 <alt_instruction_exception_entry+0x4c>
  120218:	003da03a 	break	0
  12021c:	0005883a 	mov	r2,zero
  120220:	e037883a 	mov	sp,fp
  120224:	dfc00117 	ldw	ra,4(sp)
  120228:	df000017 	ldw	fp,0(sp)
  12022c:	dec00204 	addi	sp,sp,8
  120230:	f800283a 	ret

Disassembly of section .text:

00120234 <_start>:
  120234:	06c004f4 	movhi	sp,19
  120238:	defdc814 	ori	sp,sp,63264
  12023c:	06800534 	movhi	gp,20
  120240:	d68db614 	ori	gp,gp,14040
  120244:	008004f4 	movhi	r2,19
  120248:	10b50b14 	ori	r2,r2,54316
  12024c:	00c004f4 	movhi	r3,19
  120250:	18f56614 	ori	r3,r3,54680
  120254:	10c00326 	beq	r2,r3,120264 <_start+0x30>
  120258:	10000015 	stw	zero,0(r2)
  12025c:	10800104 	addi	r2,r2,4
  120260:	10fffd36 	bltu	r2,r3,120258 <_gp+0xfffdcb80>
  120264:	01345b00 	call	1345b0 <alt_load>
  120268:	013474c0 	call	13474c <alt_main>

0012026c <alt_after_alt_main>:
  12026c:	003fff06 	br	12026c <_gp+0xfffdcb94>

00120270 <push_to_buffers>:
  120270:	defffa04 	addi	sp,sp,-24
  120274:	dfc00515 	stw	ra,20(sp)
  120278:	df000415 	stw	fp,16(sp)
  12027c:	df000404 	addi	fp,sp,16
  120280:	e13ffc15 	stw	r4,-16(fp)
  120284:	e17ffd15 	stw	r5,-12(fp)
  120288:	e1bffe15 	stw	r6,-8(fp)
  12028c:	e1ffff15 	stw	r7,-4(fp)
  120290:	e0bffc17 	ldw	r2,-16(fp)
  120294:	1080ac17 	ldw	r2,688(r2)
  120298:	e0fffc17 	ldw	r3,-16(fp)
  12029c:	1085883a 	add	r2,r2,r2
  1202a0:	1085883a 	add	r2,r2,r2
  1202a4:	1885883a 	add	r2,r3,r2
  1202a8:	e0fffd17 	ldw	r3,-12(fp)
  1202ac:	10c00015 	stw	r3,0(r2)
  1202b0:	e0bffc17 	ldw	r2,-16(fp)
  1202b4:	1080ac17 	ldw	r2,688(r2)
  1202b8:	e0fffc17 	ldw	r3,-16(fp)
  1202bc:	10800c44 	addi	r2,r2,49
  1202c0:	1085883a 	add	r2,r2,r2
  1202c4:	1085883a 	add	r2,r2,r2
  1202c8:	1885883a 	add	r2,r3,r2
  1202cc:	e0fffe17 	ldw	r3,-8(fp)
  1202d0:	10c00015 	stw	r3,0(r2)
  1202d4:	e0bffc17 	ldw	r2,-16(fp)
  1202d8:	1080ac17 	ldw	r2,688(r2)
  1202dc:	e0fffc17 	ldw	r3,-16(fp)
  1202e0:	10801884 	addi	r2,r2,98
  1202e4:	1085883a 	add	r2,r2,r2
  1202e8:	1085883a 	add	r2,r2,r2
  1202ec:	1885883a 	add	r2,r3,r2
  1202f0:	e0ffff17 	ldw	r3,-4(fp)
  1202f4:	10c00015 	stw	r3,0(r2)
  1202f8:	e0bffc17 	ldw	r2,-16(fp)
  1202fc:	1080ac17 	ldw	r2,688(r2)
  120300:	10800044 	addi	r2,r2,1
  120304:	01400c44 	movi	r5,49
  120308:	1009883a 	mov	r4,r2
  12030c:	01212380 	call	121238 <__modsi3>
  120310:	1007883a 	mov	r3,r2
  120314:	e0bffc17 	ldw	r2,-16(fp)
  120318:	10c0ac15 	stw	r3,688(r2)
  12031c:	0001883a 	nop
  120320:	e037883a 	mov	sp,fp
  120324:	dfc00117 	ldw	ra,4(sp)
  120328:	df000017 	ldw	fp,0(sp)
  12032c:	dec00204 	addi	sp,sp,8
  120330:	f800283a 	ret

00120334 <convolve>:
  120334:	defff404 	addi	sp,sp,-48
  120338:	dfc00b15 	stw	ra,44(sp)
  12033c:	df000a15 	stw	fp,40(sp)
  120340:	df000a04 	addi	fp,sp,40
  120344:	e13ffc15 	stw	r4,-16(fp)
  120348:	e17ffd15 	stw	r5,-12(fp)
  12034c:	e1bffe15 	stw	r6,-8(fp)
  120350:	e1ffff15 	stw	r7,-4(fp)
  120354:	e03ff615 	stw	zero,-40(fp)
  120358:	e03ff715 	stw	zero,-36(fp)
  12035c:	e03ff815 	stw	zero,-32(fp)
  120360:	e03ff915 	stw	zero,-28(fp)
  120364:	00005106 	br	1204ac <convolve+0x178>
  120368:	e0bffc17 	ldw	r2,-16(fp)
  12036c:	10c0ac17 	ldw	r3,688(r2)
  120370:	e0bff917 	ldw	r2,-28(fp)
  120374:	1885883a 	add	r2,r3,r2
  120378:	10bfffc4 	addi	r2,r2,-1
  12037c:	01400c44 	movi	r5,49
  120380:	1009883a 	mov	r4,r2
  120384:	01212380 	call	121238 <__modsi3>
  120388:	e0bffa15 	stw	r2,-24(fp)
  12038c:	00c00c44 	movi	r3,49
  120390:	e0bff917 	ldw	r2,-28(fp)
  120394:	1885c83a 	sub	r2,r3,r2
  120398:	e0bffb15 	stw	r2,-20(fp)
  12039c:	e0fffc17 	ldw	r3,-16(fp)
  1203a0:	e0bffa17 	ldw	r2,-24(fp)
  1203a4:	1085883a 	add	r2,r2,r2
  1203a8:	1085883a 	add	r2,r2,r2
  1203ac:	1885883a 	add	r2,r3,r2
  1203b0:	11000017 	ldw	r4,0(r2)
  1203b4:	e0fffc17 	ldw	r3,-16(fp)
  1203b8:	e0bffb17 	ldw	r2,-20(fp)
  1203bc:	10804984 	addi	r2,r2,294
  1203c0:	1085883a 	add	r2,r2,r2
  1203c4:	1885883a 	add	r2,r3,r2
  1203c8:	1080000b 	ldhu	r2,0(r2)
  1203cc:	10bfffcc 	andi	r2,r2,65535
  1203d0:	10a0001c 	xori	r2,r2,32768
  1203d4:	10a00004 	addi	r2,r2,-32768
  1203d8:	100b883a 	mov	r5,r2
  1203dc:	01213680 	call	121368 <__mulsi3>
  1203e0:	1007883a 	mov	r3,r2
  1203e4:	e0bff617 	ldw	r2,-40(fp)
  1203e8:	10c5883a 	add	r2,r2,r3
  1203ec:	e0bff615 	stw	r2,-40(fp)
  1203f0:	e0fffc17 	ldw	r3,-16(fp)
  1203f4:	e0bffa17 	ldw	r2,-24(fp)
  1203f8:	10800c44 	addi	r2,r2,49
  1203fc:	1085883a 	add	r2,r2,r2
  120400:	1085883a 	add	r2,r2,r2
  120404:	1885883a 	add	r2,r3,r2
  120408:	11000017 	ldw	r4,0(r2)
  12040c:	e0fffc17 	ldw	r3,-16(fp)
  120410:	e0bffb17 	ldw	r2,-20(fp)
  120414:	10804984 	addi	r2,r2,294
  120418:	1085883a 	add	r2,r2,r2
  12041c:	1885883a 	add	r2,r3,r2
  120420:	1080000b 	ldhu	r2,0(r2)
  120424:	10bfffcc 	andi	r2,r2,65535
  120428:	10a0001c 	xori	r2,r2,32768
  12042c:	10a00004 	addi	r2,r2,-32768
  120430:	100b883a 	mov	r5,r2
  120434:	01213680 	call	121368 <__mulsi3>
  120438:	1007883a 	mov	r3,r2
  12043c:	e0bff717 	ldw	r2,-36(fp)
  120440:	10c5883a 	add	r2,r2,r3
  120444:	e0bff715 	stw	r2,-36(fp)
  120448:	e0fffc17 	ldw	r3,-16(fp)
  12044c:	e0bffa17 	ldw	r2,-24(fp)
  120450:	10801884 	addi	r2,r2,98
  120454:	1085883a 	add	r2,r2,r2
  120458:	1085883a 	add	r2,r2,r2
  12045c:	1885883a 	add	r2,r3,r2
  120460:	11000017 	ldw	r4,0(r2)
  120464:	e0fffc17 	ldw	r3,-16(fp)
  120468:	e0bffb17 	ldw	r2,-20(fp)
  12046c:	10804984 	addi	r2,r2,294
  120470:	1085883a 	add	r2,r2,r2
  120474:	1885883a 	add	r2,r3,r2
  120478:	1080000b 	ldhu	r2,0(r2)
  12047c:	10bfffcc 	andi	r2,r2,65535
  120480:	10a0001c 	xori	r2,r2,32768
  120484:	10a00004 	addi	r2,r2,-32768
  120488:	100b883a 	mov	r5,r2
  12048c:	01213680 	call	121368 <__mulsi3>
  120490:	1007883a 	mov	r3,r2
  120494:	e0bff817 	ldw	r2,-32(fp)
  120498:	10c5883a 	add	r2,r2,r3
  12049c:	e0bff815 	stw	r2,-32(fp)
  1204a0:	e0bff917 	ldw	r2,-28(fp)
  1204a4:	10800044 	addi	r2,r2,1
  1204a8:	e0bff915 	stw	r2,-28(fp)
  1204ac:	e0bff917 	ldw	r2,-28(fp)
  1204b0:	10800c50 	cmplti	r2,r2,49
  1204b4:	103fac1e 	bne	r2,zero,120368 <_gp+0xfffdcc90>
  1204b8:	e0bff617 	ldw	r2,-40(fp)
  1204bc:	1007d43a 	srai	r3,r2,16
  1204c0:	e0bffd17 	ldw	r2,-12(fp)
  1204c4:	10c00015 	stw	r3,0(r2)
  1204c8:	e0bff717 	ldw	r2,-36(fp)
  1204cc:	1007d43a 	srai	r3,r2,16
  1204d0:	e0bffe17 	ldw	r2,-8(fp)
  1204d4:	10c00015 	stw	r3,0(r2)
  1204d8:	e0bff817 	ldw	r2,-32(fp)
  1204dc:	1007d43a 	srai	r3,r2,16
  1204e0:	e0bfff17 	ldw	r2,-4(fp)
  1204e4:	10c00015 	stw	r3,0(r2)
  1204e8:	0001883a 	nop
  1204ec:	e037883a 	mov	sp,fp
  1204f0:	dfc00117 	ldw	ra,4(sp)
  1204f4:	df000017 	ldw	fp,0(sp)
  1204f8:	dec00204 	addi	sp,sp,8
  1204fc:	f800283a 	ret

00120500 <init_timer>:
  120500:	defff804 	addi	sp,sp,-32
  120504:	dfc00715 	stw	ra,28(sp)
  120508:	df000615 	stw	fp,24(sp)
  12050c:	df000604 	addi	fp,sp,24
  120510:	e13ffc15 	stw	r4,-16(fp)
  120514:	e17ffd15 	stw	r5,-12(fp)
  120518:	e1bffe15 	stw	r6,-8(fp)
  12051c:	e1ffff15 	stw	r7,-4(fp)
  120520:	e0bffe17 	ldw	r2,-8(fp)
  120524:	e0c00317 	ldw	r3,12(fp)
  120528:	180d883a 	mov	r6,r3
  12052c:	000b883a 	mov	r5,zero
  120530:	1009883a 	mov	r4,r2
  120534:	01343c80 	call	1343c8 <alt_irq_register>
  120538:	0080bef4 	movhi	r2,763
  12053c:	10bc2004 	addi	r2,r2,-3968
  120540:	e0bffa15 	stw	r2,-24(fp)
  120544:	e0bffa17 	ldw	r2,-24(fp)
  120548:	0140fa04 	movi	r5,1000
  12054c:	1009883a 	mov	r4,r2
  120550:	01212ac0 	call	1212ac <__udivsi3>
  120554:	1007883a 	mov	r3,r2
  120558:	e0800217 	ldw	r2,8(fp)
  12055c:	100b883a 	mov	r5,r2
  120560:	1809883a 	mov	r4,r3
  120564:	01213680 	call	121368 <__mulsi3>
  120568:	e0bffb15 	stw	r2,-20(fp)
  12056c:	e0bffc17 	ldw	r2,-16(fp)
  120570:	10800204 	addi	r2,r2,8
  120574:	1007883a 	mov	r3,r2
  120578:	e0bffb17 	ldw	r2,-20(fp)
  12057c:	10bfffcc 	andi	r2,r2,65535
  120580:	18800035 	stwio	r2,0(r3)
  120584:	e0bffc17 	ldw	r2,-16(fp)
  120588:	10800304 	addi	r2,r2,12
  12058c:	1007883a 	mov	r3,r2
  120590:	e0bffb17 	ldw	r2,-20(fp)
  120594:	1004d43a 	srli	r2,r2,16
  120598:	18800035 	stwio	r2,0(r3)
  12059c:	e0bffc17 	ldw	r2,-16(fp)
  1205a0:	10800104 	addi	r2,r2,4
  1205a4:	1007883a 	mov	r3,r2
  1205a8:	008001c4 	movi	r2,7
  1205ac:	18800035 	stwio	r2,0(r3)
  1205b0:	0001883a 	nop
  1205b4:	e037883a 	mov	sp,fp
  1205b8:	dfc00117 	ldw	ra,4(sp)
  1205bc:	df000017 	ldw	fp,0(sp)
  1205c0:	dec00204 	addi	sp,sp,8
  1205c4:	f800283a 	ret

001205c8 <timer_main_isr>:
  1205c8:	defffe04 	addi	sp,sp,-8
  1205cc:	df000115 	stw	fp,4(sp)
  1205d0:	df000104 	addi	fp,sp,4
  1205d4:	e13fff15 	stw	r4,-4(fp)
  1205d8:	00c00044 	movi	r3,1
  1205dc:	00800534 	movhi	r2,20
  1205e0:	10840804 	addi	r2,r2,4128
  1205e4:	10c00035 	stwio	r3,0(r2)
  1205e8:	00800044 	movi	r2,1
  1205ec:	d0a75615 	stw	r2,-25256(gp)
  1205f0:	0001883a 	nop
  1205f4:	e037883a 	mov	sp,fp
  1205f8:	df000017 	ldw	fp,0(sp)
  1205fc:	dec00104 	addi	sp,sp,4
  120600:	f800283a 	ret

00120604 <timer_poll_isr>:
  120604:	defffe04 	addi	sp,sp,-8
  120608:	df000115 	stw	fp,4(sp)
  12060c:	df000104 	addi	fp,sp,4
  120610:	e13fff15 	stw	r4,-4(fp)
  120614:	00c00044 	movi	r3,1
  120618:	00800534 	movhi	r2,20
  12061c:	10840004 	addi	r2,r2,4096
  120620:	10c00035 	stwio	r3,0(r2)
  120624:	00800044 	movi	r2,1
  120628:	d0a75515 	stw	r2,-25260(gp)
  12062c:	0001883a 	nop
  120630:	e037883a 	mov	sp,fp
  120634:	df000017 	ldw	fp,0(sp)
  120638:	dec00104 	addi	sp,sp,4
  12063c:	f800283a 	ret

00120640 <setup_button_interrupts>:
  120640:	defffd04 	addi	sp,sp,-12
  120644:	dfc00215 	stw	ra,8(sp)
  120648:	df000115 	stw	fp,4(sp)
  12064c:	df000104 	addi	fp,sp,4
  120650:	e13fff15 	stw	r4,-4(fp)
  120654:	00c03fc4 	movi	r3,255
  120658:	00800534 	movhi	r2,20
  12065c:	10843b04 	addi	r2,r2,4332
  120660:	10c00035 	stwio	r3,0(r2)
  120664:	00c000c4 	movi	r3,3
  120668:	00800534 	movhi	r2,20
  12066c:	10843a04 	addi	r2,r2,4328
  120670:	10c00035 	stwio	r3,0(r2)
  120674:	e0bfff17 	ldw	r2,-4(fp)
  120678:	100d883a 	mov	r6,r2
  12067c:	000b883a 	mov	r5,zero
  120680:	010000c4 	movi	r4,3
  120684:	01343c80 	call	1343c8 <alt_irq_register>
  120688:	0001883a 	nop
  12068c:	e037883a 	mov	sp,fp
  120690:	dfc00117 	ldw	ra,4(sp)
  120694:	df000017 	ldw	fp,0(sp)
  120698:	dec00204 	addi	sp,sp,8
  12069c:	f800283a 	ret

001206a0 <button_isr>:
  1206a0:	defffc04 	addi	sp,sp,-16
  1206a4:	dfc00315 	stw	ra,12(sp)
  1206a8:	df000215 	stw	fp,8(sp)
  1206ac:	df000204 	addi	fp,sp,8
  1206b0:	e13fff15 	stw	r4,-4(fp)
  1206b4:	00800534 	movhi	r2,20
  1206b8:	10843b04 	addi	r2,r2,4332
  1206bc:	10800037 	ldwio	r2,0(r2)
  1206c0:	e0bffe15 	stw	r2,-8(fp)
  1206c4:	00c03fc4 	movi	r3,255
  1206c8:	00800534 	movhi	r2,20
  1206cc:	10843b04 	addi	r2,r2,4332
  1206d0:	10c00035 	stwio	r3,0(r2)
  1206d4:	e0bffe17 	ldw	r2,-8(fp)
  1206d8:	1080004c 	andi	r2,r2,1
  1206dc:	10000626 	beq	r2,zero,1206f8 <button_isr+0x58>
  1206e0:	00800044 	movi	r2,1
  1206e4:	d0a75715 	stw	r2,-25252(gp)
  1206e8:	01000534 	movhi	r4,20
  1206ec:	21240d04 	addi	r4,r4,-28620
  1206f0:	0134a940 	call	134a94 <alt_putstr>
  1206f4:	00000b06 	br	120724 <button_isr+0x84>
  1206f8:	e0bffe17 	ldw	r2,-8(fp)
  1206fc:	1080008c 	andi	r2,r2,2
  120700:	10000526 	beq	r2,zero,120718 <button_isr+0x78>
  120704:	d0275715 	stw	zero,-25252(gp)
  120708:	01000534 	movhi	r4,20
  12070c:	21241604 	addi	r4,r4,-28584
  120710:	0134a940 	call	134a94 <alt_putstr>
  120714:	00000306 	br	120724 <button_isr+0x84>
  120718:	01000534 	movhi	r4,20
  12071c:	21241f04 	addi	r4,r4,-28548
  120720:	0134a940 	call	134a94 <alt_putstr>
  120724:	0001883a 	nop
  120728:	e037883a 	mov	sp,fp
  12072c:	dfc00117 	ldw	ra,4(sp)
  120730:	df000017 	ldw	fp,0(sp)
  120734:	dec00204 	addi	sp,sp,8
  120738:	f800283a 	ret

0012073c <uart_wait_trdy>:
  12073c:	defffe04 	addi	sp,sp,-8
  120740:	dfc00115 	stw	ra,4(sp)
  120744:	df000015 	stw	fp,0(sp)
  120748:	d839883a 	mov	fp,sp
  12074c:	00000306 	br	12075c <uart_wait_trdy+0x20>
  120750:	01000534 	movhi	r4,20
  120754:	21242604 	addi	r4,r4,-28520
  120758:	0134a940 	call	134a94 <alt_putstr>
  12075c:	00800534 	movhi	r2,20
  120760:	10841204 	addi	r2,r2,4168
  120764:	10800037 	ldwio	r2,0(r2)
  120768:	1080100c 	andi	r2,r2,64
  12076c:	103ff826 	beq	r2,zero,120750 <_gp+0xfffdd078>
  120770:	0001883a 	nop
  120774:	e037883a 	mov	sp,fp
  120778:	dfc00117 	ldw	ra,4(sp)
  12077c:	df000017 	ldw	fp,0(sp)
  120780:	dec00204 	addi	sp,sp,8
  120784:	f800283a 	ret

00120788 <process_buffer>:
  120788:	deffe904 	addi	sp,sp,-92
  12078c:	dfc01615 	stw	ra,88(sp)
  120790:	df001515 	stw	fp,84(sp)
  120794:	df001504 	addi	fp,sp,84
  120798:	e13ffe15 	stw	r4,-8(fp)
  12079c:	e17fff15 	stw	r5,-4(fp)
  1207a0:	e0bffe17 	ldw	r2,-8(fp)
  1207a4:	1000231e 	bne	r2,zero,120834 <process_buffer+0xac>
  1207a8:	e0bfed04 	addi	r2,fp,-76
  1207ac:	00d49074 	movhi	r3,21057
  1207b0:	18d556c4 	addi	r3,r3,21851
  1207b4:	10c00015 	stw	r3,0(r2)
  1207b8:	00c80eb4 	movhi	r3,8250
  1207bc:	18d75504 	addi	r3,r3,23892
  1207c0:	10c00115 	stw	r3,4(r2)
  1207c4:	00d3d4b4 	movhi	r3,20306
  1207c8:	18d49144 	addi	r3,r3,21061
  1207cc:	10c00215 	stw	r3,8(r2)
  1207d0:	00dd50b4 	movhi	r3,30018
  1207d4:	18c81484 	addi	r3,r3,8274
  1207d8:	10c00315 	stw	r3,12(r2)
  1207dc:	00dc9974 	movhi	r3,29285
  1207e0:	18d99984 	addi	r3,r3,26214
  1207e4:	10c00415 	stw	r3,16(r2)
  1207e8:	00c81cf4 	movhi	r3,8307
  1207ec:	18da4804 	addi	r3,r3,26912
  1207f0:	10c00515 	stw	r3,20(r2)
  1207f4:	00d31334 	movhi	r3,19532
  1207f8:	18d55384 	addi	r3,r3,21838
  1207fc:	10c00615 	stw	r3,24(r2)
  120800:	00c28b84 	movi	r3,2606
  120804:	10c0070d 	sth	r3,28(r2)
  120808:	10000785 	stb	zero,30(r2)
  12080c:	e0bfed04 	addi	r2,fp,-76
  120810:	1009883a 	mov	r4,r2
  120814:	01218f40 	call	1218f4 <strlen>
  120818:	1007883a 	mov	r3,r2
  12081c:	e0bfed04 	addi	r2,fp,-76
  120820:	180d883a 	mov	r6,r3
  120824:	100b883a 	mov	r5,r2
  120828:	e13fff17 	ldw	r4,-4(fp)
  12082c:	0134d800 	call	134d80 <write>
  120830:	00017b06 	br	120e20 <process_buffer+0x698>
  120834:	01400534 	movhi	r5,20
  120838:	29642704 	addi	r5,r5,-28516
  12083c:	e13ffe17 	ldw	r4,-8(fp)
  120840:	0121e400 	call	121e40 <strstr>
  120844:	10001926 	beq	r2,zero,1208ac <process_buffer+0x124>
  120848:	00800534 	movhi	r2,20
  12084c:	10843404 	addi	r2,r2,4304
  120850:	10800037 	ldwio	r2,0(r2)
  120854:	e0bfeb15 	stw	r2,-84(fp)
  120858:	e0bfeb17 	ldw	r2,-84(fp)
  12085c:	1080004c 	andi	r2,r2,1
  120860:	e0bfeb15 	stw	r2,-84(fp)
  120864:	e0bfeb17 	ldw	r2,-84(fp)
  120868:	10c00044 	addi	r3,r2,1
  12086c:	e0bfed04 	addi	r2,fp,-76
  120870:	180d883a 	mov	r6,r3
  120874:	01400534 	movhi	r5,20
  120878:	29642804 	addi	r5,r5,-28512
  12087c:	1009883a 	mov	r4,r2
  120880:	01216580 	call	121658 <sprintf>
  120884:	e0bfed04 	addi	r2,fp,-76
  120888:	1009883a 	mov	r4,r2
  12088c:	01218f40 	call	1218f4 <strlen>
  120890:	1007883a 	mov	r3,r2
  120894:	e0bfed04 	addi	r2,fp,-76
  120898:	180d883a 	mov	r6,r3
  12089c:	100b883a 	mov	r5,r2
  1208a0:	e13fff17 	ldw	r4,-4(fp)
  1208a4:	0134d800 	call	134d80 <write>
  1208a8:	00015d06 	br	120e20 <process_buffer+0x698>
  1208ac:	01400534 	movhi	r5,20
  1208b0:	29642a04 	addi	r5,r5,-28504
  1208b4:	e13ffe17 	ldw	r4,-8(fp)
  1208b8:	0121e400 	call	121e40 <strstr>
  1208bc:	10009926 	beq	r2,zero,120b24 <process_buffer+0x39c>
  1208c0:	e0bfed04 	addi	r2,fp,-76
  1208c4:	00d49074 	movhi	r3,21057
  1208c8:	18d556c4 	addi	r3,r3,21851
  1208cc:	10c00015 	stw	r3,0(r2)
  1208d0:	00c80eb4 	movhi	r3,8250
  1208d4:	18d75504 	addi	r3,r3,23892
  1208d8:	10c00115 	stw	r3,4(r2)
  1208dc:	00d95d34 	movhi	r3,25972
  1208e0:	18d95104 	addi	r3,r3,25924
  1208e4:	10c00215 	stw	r3,8(r2)
  1208e8:	00d91974 	movhi	r3,25701
  1208ec:	18dd18c4 	addi	r3,r3,29795
  1208f0:	10c00315 	stw	r3,12(r2)
  1208f4:	00d85cb4 	movhi	r3,24946
  1208f8:	18d80804 	addi	r3,r3,24608
  1208fc:	10c00415 	stw	r3,16(r2)
  120900:	00c81834 	movhi	r3,8288
  120904:	18d95d04 	addi	r3,r3,25972
  120908:	10c00515 	stw	r3,20(r2)
  12090c:	00db5b74 	movhi	r3,28013
  120910:	18dbd8c4 	addi	r3,r3,28515
  120914:	10c00615 	stw	r3,24(r2)
  120918:	00cb9934 	movhi	r3,11876
  12091c:	18db9844 	addi	r3,r3,28257
  120920:	10c00715 	stw	r3,28(r2)
  120924:	00c00804 	movi	r3,32
  120928:	10c0080d 	sth	r3,32(r2)
  12092c:	e0bfed04 	addi	r2,fp,-76
  120930:	1009883a 	mov	r4,r2
  120934:	01218f40 	call	1218f4 <strlen>
  120938:	1007883a 	mov	r3,r2
  12093c:	e0bfed04 	addi	r2,fp,-76
  120940:	180d883a 	mov	r6,r3
  120944:	100b883a 	mov	r5,r2
  120948:	e13fff17 	ldw	r4,-4(fp)
  12094c:	0134d800 	call	134d80 <write>
  120950:	012073c0 	call	12073c <uart_wait_trdy>
  120954:	e03ffd15 	stw	zero,-12(fp)
  120958:	e0bffd04 	addi	r2,fp,-12
  12095c:	100d883a 	mov	r6,r2
  120960:	01400534 	movhi	r5,20
  120964:	29642c04 	addi	r5,r5,-28496
  120968:	e13ffe17 	ldw	r4,-8(fp)
  12096c:	01216c40 	call	1216c4 <sscanf>
  120970:	e0bfec15 	stw	r2,-80(fp)
  120974:	e0bfec17 	ldw	r2,-80(fp)
  120978:	10001826 	beq	r2,zero,1209dc <process_buffer+0x254>
  12097c:	e0bffd17 	ldw	r2,-12(fp)
  120980:	10001626 	beq	r2,zero,1209dc <process_buffer+0x254>
  120984:	e0fffd17 	ldw	r3,-12(fp)
  120988:	e0bfed04 	addi	r2,fp,-76
  12098c:	180d883a 	mov	r6,r3
  120990:	01400534 	movhi	r5,20
  120994:	29642e04 	addi	r5,r5,-28488
  120998:	1009883a 	mov	r4,r2
  12099c:	01216580 	call	121658 <sprintf>
  1209a0:	e0bfed04 	addi	r2,fp,-76
  1209a4:	1009883a 	mov	r4,r2
  1209a8:	01218f40 	call	1218f4 <strlen>
  1209ac:	1007883a 	mov	r3,r2
  1209b0:	e0bfed04 	addi	r2,fp,-76
  1209b4:	180d883a 	mov	r6,r3
  1209b8:	100b883a 	mov	r5,r2
  1209bc:	e13fff17 	ldw	r4,-4(fp)
  1209c0:	0134d800 	call	134d80 <write>
  1209c4:	e0bffd17 	ldw	r2,-12(fp)
  1209c8:	100b883a 	mov	r5,r2
  1209cc:	0100fa04 	movi	r4,1000
  1209d0:	01211b40 	call	1211b4 <__divsi3>
  1209d4:	d0a00115 	stw	r2,-32764(gp)
  1209d8:	00011106 	br	120e20 <process_buffer+0x698>
  1209dc:	e0bfed04 	addi	r2,fp,-76
  1209e0:	00d89874 	movhi	r3,25185
  1209e4:	18db9544 	addi	r3,r3,28245
  1209e8:	10c00015 	stw	r3,0(r2)
  1209ec:	00dd0834 	movhi	r3,29728
  1209f0:	18d95b04 	addi	r3,r3,25964
  1209f4:	10c00115 	stw	r3,4(r2)
  1209f8:	00d85c34 	movhi	r3,24944
  1209fc:	18c81bc4 	addi	r3,r3,8303
  120a00:	10c00215 	stw	r3,8(r2)
  120a04:	00c81974 	movhi	r3,8293
  120a08:	18dcdc84 	addi	r3,r3,29554
  120a0c:	10c00315 	stw	r3,12(r2)
  120a10:	00d85db4 	movhi	r3,24950
  120a14:	18c81844 	addi	r3,r3,8289
  120a18:	10c00415 	stw	r3,16(r2)
  120a1c:	00c81934 	movhi	r3,8292
  120a20:	18da5b04 	addi	r3,r3,26988
  120a24:	10c00515 	stw	r3,20(r2)
  120a28:	00dc1b74 	movhi	r3,28781
  120a2c:	18d85cc4 	addi	r3,r3,24947
  120a30:	10c00615 	stw	r3,24(r2)
  120a34:	00dc8834 	movhi	r3,29216
  120a38:	18d95b04 	addi	r3,r3,25964
  120a3c:	10c00715 	stw	r3,28(r2)
  120a40:	00cb9974 	movhi	r3,11877
  120a44:	18dd1844 	addi	r3,r3,29793
  120a48:	10c00815 	stw	r3,32(r2)
  120a4c:	00c00804 	movi	r3,32
  120a50:	10c0090d 	sth	r3,36(r2)
  120a54:	e0bfed04 	addi	r2,fp,-76
  120a58:	1009883a 	mov	r4,r2
  120a5c:	01218f40 	call	1218f4 <strlen>
  120a60:	1007883a 	mov	r3,r2
  120a64:	e0bfed04 	addi	r2,fp,-76
  120a68:	180d883a 	mov	r6,r3
  120a6c:	100b883a 	mov	r5,r2
  120a70:	e13fff17 	ldw	r4,-4(fp)
  120a74:	0134d800 	call	134d80 <write>
  120a78:	012073c0 	call	12073c <uart_wait_trdy>
  120a7c:	e0bfed04 	addi	r2,fp,-76
  120a80:	00d85974 	movhi	r3,24933
  120a84:	18db1404 	addi	r3,r3,27728
  120a88:	10c00015 	stw	r3,0(r2)
  120a8c:	00d98834 	movhi	r3,26144
  120a90:	18d95cc4 	addi	r3,r3,25971
  120a94:	10c00115 	stw	r3,4(r2)
  120a98:	00d85b74 	movhi	r3,24941
  120a9c:	18dc9bc4 	addi	r3,r3,29295
  120aa0:	10c00215 	stw	r3,8(r2)
  120aa4:	00dcd874 	movhi	r3,29537
  120aa8:	18c81d04 	addi	r3,r3,8308
  120aac:	10c00315 	stw	r3,12(r2)
  120ab0:	00d85cb4 	movhi	r3,24946
  120ab4:	18d80804 	addi	r3,r3,24608
  120ab8:	10c00415 	stw	r3,16(r2)
  120abc:	00cf0834 	movhi	r3,15392
  120ac0:	18d95d04 	addi	r3,r3,25972
  120ac4:	10c00515 	stw	r3,20(r2)
  120ac8:	00d89b74 	movhi	r3,25197
  120acc:	18dd5b84 	addi	r3,r3,30062
  120ad0:	10c00615 	stw	r3,24(r2)
  120ad4:	00d80fb4 	movhi	r3,24638
  120ad8:	18dc9944 	addi	r3,r3,29285
  120adc:	10c00715 	stw	r3,28(r2)
  120ae0:	00c81bb4 	movhi	r3,8302
  120ae4:	18da4804 	addi	r3,r3,26912
  120ae8:	10c00815 	stw	r3,32(r2)
  120aec:	00c28bb4 	movhi	r3,2606
  120af0:	18de9204 	addi	r3,r3,31304
  120af4:	10c00915 	stw	r3,36(r2)
  120af8:	10000a05 	stb	zero,40(r2)
  120afc:	e0bfed04 	addi	r2,fp,-76
  120b00:	1009883a 	mov	r4,r2
  120b04:	01218f40 	call	1218f4 <strlen>
  120b08:	1007883a 	mov	r3,r2
  120b0c:	e0bfed04 	addi	r2,fp,-76
  120b10:	180d883a 	mov	r6,r3
  120b14:	100b883a 	mov	r5,r2
  120b18:	e13fff17 	ldw	r4,-4(fp)
  120b1c:	0134d800 	call	134d80 <write>
  120b20:	0000bf06 	br	120e20 <process_buffer+0x698>
  120b24:	01400534 	movhi	r5,20
  120b28:	29643a04 	addi	r5,r5,-28440
  120b2c:	e13ffe17 	ldw	r4,-8(fp)
  120b30:	0121e400 	call	121e40 <strstr>
  120b34:	10001526 	beq	r2,zero,120b8c <process_buffer+0x404>
  120b38:	e0ffed04 	addi	r3,fp,-76
  120b3c:	00800534 	movhi	r2,20
  120b40:	10a43c04 	addi	r2,r2,-28432
  120b44:	1009883a 	mov	r4,r2
  120b48:	00800fc4 	movi	r2,63
  120b4c:	100d883a 	mov	r6,r2
  120b50:	200b883a 	mov	r5,r4
  120b54:	1809883a 	mov	r4,r3
  120b58:	01213900 	call	121390 <memcpy>
  120b5c:	e0bfed04 	addi	r2,fp,-76
  120b60:	1009883a 	mov	r4,r2
  120b64:	01218f40 	call	1218f4 <strlen>
  120b68:	1007883a 	mov	r3,r2
  120b6c:	e0bfed04 	addi	r2,fp,-76
  120b70:	180d883a 	mov	r6,r3
  120b74:	100b883a 	mov	r5,r2
  120b78:	e13fff17 	ldw	r4,-4(fp)
  120b7c:	0134d800 	call	134d80 <write>
  120b80:	00800044 	movi	r2,1
  120b84:	d0a75715 	stw	r2,-25252(gp)
  120b88:	0000a506 	br	120e20 <process_buffer+0x698>
  120b8c:	01400534 	movhi	r5,20
  120b90:	29644c04 	addi	r5,r5,-28368
  120b94:	e13ffe17 	ldw	r4,-8(fp)
  120b98:	0121e400 	call	121e40 <strstr>
  120b9c:	10001426 	beq	r2,zero,120bf0 <process_buffer+0x468>
  120ba0:	e0ffed04 	addi	r3,fp,-76
  120ba4:	00800534 	movhi	r2,20
  120ba8:	10a44e04 	addi	r2,r2,-28360
  120bac:	1009883a 	mov	r4,r2
  120bb0:	00800fc4 	movi	r2,63
  120bb4:	100d883a 	mov	r6,r2
  120bb8:	200b883a 	mov	r5,r4
  120bbc:	1809883a 	mov	r4,r3
  120bc0:	01213900 	call	121390 <memcpy>
  120bc4:	e0bfed04 	addi	r2,fp,-76
  120bc8:	1009883a 	mov	r4,r2
  120bcc:	01218f40 	call	1218f4 <strlen>
  120bd0:	1007883a 	mov	r3,r2
  120bd4:	e0bfed04 	addi	r2,fp,-76
  120bd8:	180d883a 	mov	r6,r3
  120bdc:	100b883a 	mov	r5,r2
  120be0:	e13fff17 	ldw	r4,-4(fp)
  120be4:	0134d800 	call	134d80 <write>
  120be8:	d0275715 	stw	zero,-25252(gp)
  120bec:	00008c06 	br	120e20 <process_buffer+0x698>
  120bf0:	01400534 	movhi	r5,20
  120bf4:	29645e04 	addi	r5,r5,-28296
  120bf8:	e13ffe17 	ldw	r4,-8(fp)
  120bfc:	0121e400 	call	121e40 <strstr>
  120c00:	10004b26 	beq	r2,zero,120d30 <process_buffer+0x5a8>
  120c04:	e0bfed04 	addi	r2,fp,-76
  120c08:	00d49074 	movhi	r3,21057
  120c0c:	18d556c4 	addi	r3,r3,21851
  120c10:	10c00015 	stw	r3,0(r2)
  120c14:	00c80eb4 	movhi	r3,8250
  120c18:	18d75504 	addi	r3,r3,23892
  120c1c:	10c00115 	stw	r3,4(r2)
  120c20:	00d95d34 	movhi	r3,25972
  120c24:	18d95104 	addi	r3,r3,25924
  120c28:	10c00215 	stw	r3,8(r2)
  120c2c:	00d91974 	movhi	r3,25701
  120c30:	18dd18c4 	addi	r3,r3,29795
  120c34:	10c00315 	stw	r3,12(r2)
  120c38:	00db9a74 	movhi	r3,28265
  120c3c:	18d80804 	addi	r3,r3,24608
  120c40:	10c00415 	stw	r3,16(r2)
  120c44:	00c81834 	movhi	r3,8288
  120c48:	18dbd984 	addi	r3,r3,28518
  120c4c:	10c00515 	stw	r3,20(r2)
  120c50:	00db5b74 	movhi	r3,28013
  120c54:	18dbd8c4 	addi	r3,r3,28515
  120c58:	10c00615 	stw	r3,24(r2)
  120c5c:	00cb9934 	movhi	r3,11876
  120c60:	18db9844 	addi	r3,r3,28257
  120c64:	10c00715 	stw	r3,28(r2)
  120c68:	00c00804 	movi	r3,32
  120c6c:	10c0080d 	sth	r3,32(r2)
  120c70:	e0bfed04 	addi	r2,fp,-76
  120c74:	1009883a 	mov	r4,r2
  120c78:	01218f40 	call	1218f4 <strlen>
  120c7c:	1007883a 	mov	r3,r2
  120c80:	e0bfed04 	addi	r2,fp,-76
  120c84:	180d883a 	mov	r6,r3
  120c88:	100b883a 	mov	r5,r2
  120c8c:	e13fff17 	ldw	r4,-4(fp)
  120c90:	0134d800 	call	134d80 <write>
  120c94:	012073c0 	call	12073c <uart_wait_trdy>
  120c98:	d0e75717 	ldw	r3,-25252(gp)
  120c9c:	d1200117 	ldw	r4,-32764(gp)
  120ca0:	e0bfed04 	addi	r2,fp,-76
  120ca4:	200f883a 	mov	r7,r4
  120ca8:	180d883a 	mov	r6,r3
  120cac:	01400534 	movhi	r5,20
  120cb0:	29646004 	addi	r5,r5,-28288
  120cb4:	1009883a 	mov	r4,r2
  120cb8:	01216580 	call	121658 <sprintf>
  120cbc:	e0bfed04 	addi	r2,fp,-76
  120cc0:	1009883a 	mov	r4,r2
  120cc4:	01218f40 	call	1218f4 <strlen>
  120cc8:	1007883a 	mov	r3,r2
  120ccc:	e0bfed04 	addi	r2,fp,-76
  120cd0:	180d883a 	mov	r6,r3
  120cd4:	100b883a 	mov	r5,r2
  120cd8:	e13fff17 	ldw	r4,-4(fp)
  120cdc:	0134d800 	call	134d80 <write>
  120ce0:	012073c0 	call	12073c <uart_wait_trdy>
  120ce4:	e0bfed04 	addi	r2,fp,-76
  120ce8:	01c0bef4 	movhi	r7,763
  120cec:	39fc2004 	addi	r7,r7,-3968
  120cf0:	018000b4 	movhi	r6,2
  120cf4:	31b08004 	addi	r6,r6,-15872
  120cf8:	01400534 	movhi	r5,20
  120cfc:	29646d04 	addi	r5,r5,-28236
  120d00:	1009883a 	mov	r4,r2
  120d04:	01216580 	call	121658 <sprintf>
  120d08:	e0bfed04 	addi	r2,fp,-76
  120d0c:	1009883a 	mov	r4,r2
  120d10:	01218f40 	call	1218f4 <strlen>
  120d14:	1007883a 	mov	r3,r2
  120d18:	e0bfed04 	addi	r2,fp,-76
  120d1c:	180d883a 	mov	r6,r3
  120d20:	100b883a 	mov	r5,r2
  120d24:	e13fff17 	ldw	r4,-4(fp)
  120d28:	0134d800 	call	134d80 <write>
  120d2c:	00003c06 	br	120e20 <process_buffer+0x698>
  120d30:	01400534 	movhi	r5,20
  120d34:	29647604 	addi	r5,r5,-28200
  120d38:	e13ffe17 	ldw	r4,-8(fp)
  120d3c:	0121e400 	call	121e40 <strstr>
  120d40:	10003726 	beq	r2,zero,120e20 <process_buffer+0x698>
  120d44:	e0bfed04 	addi	r2,fp,-76
  120d48:	00d49074 	movhi	r3,21057
  120d4c:	18d556c4 	addi	r3,r3,21851
  120d50:	10c00015 	stw	r3,0(r2)
  120d54:	00c80eb4 	movhi	r3,8250
  120d58:	18d75504 	addi	r3,r3,23892
  120d5c:	10c00115 	stw	r3,4(r2)
  120d60:	00d95d34 	movhi	r3,25972
  120d64:	18d95104 	addi	r3,r3,25924
  120d68:	10c00215 	stw	r3,8(r2)
  120d6c:	00d91974 	movhi	r3,25701
  120d70:	18dd18c4 	addi	r3,r3,29795
  120d74:	10c00315 	stw	r3,12(r2)
  120d78:	00d95a34 	movhi	r3,25960
  120d7c:	18d80804 	addi	r3,r3,24608
  120d80:	10c00415 	stw	r3,16(r2)
  120d84:	00c81834 	movhi	r3,8288
  120d88:	18dc1b04 	addi	r3,r3,28780
  120d8c:	10c00515 	stw	r3,20(r2)
  120d90:	00db5b74 	movhi	r3,28013
  120d94:	18dbd8c4 	addi	r3,r3,28515
  120d98:	10c00615 	stw	r3,24(r2)
  120d9c:	00cb9934 	movhi	r3,11876
  120da0:	18db9844 	addi	r3,r3,28257
  120da4:	10c00715 	stw	r3,28(r2)
  120da8:	00c00804 	movi	r3,32
  120dac:	10c0080d 	sth	r3,32(r2)
  120db0:	e0bfed04 	addi	r2,fp,-76
  120db4:	1009883a 	mov	r4,r2
  120db8:	01218f40 	call	1218f4 <strlen>
  120dbc:	1007883a 	mov	r3,r2
  120dc0:	e0bfed04 	addi	r2,fp,-76
  120dc4:	180d883a 	mov	r6,r3
  120dc8:	100b883a 	mov	r5,r2
  120dcc:	e13fff17 	ldw	r4,-4(fp)
  120dd0:	0134d800 	call	134d80 <write>
  120dd4:	012073c0 	call	12073c <uart_wait_trdy>
  120dd8:	e0ffed04 	addi	r3,fp,-76
  120ddc:	00800534 	movhi	r2,20
  120de0:	10a47804 	addi	r2,r2,-28192
  120de4:	1009883a 	mov	r4,r2
  120de8:	00800f44 	movi	r2,61
  120dec:	100d883a 	mov	r6,r2
  120df0:	200b883a 	mov	r5,r4
  120df4:	1809883a 	mov	r4,r3
  120df8:	01213900 	call	121390 <memcpy>
  120dfc:	e0bfed04 	addi	r2,fp,-76
  120e00:	1009883a 	mov	r4,r2
  120e04:	01218f40 	call	1218f4 <strlen>
  120e08:	1007883a 	mov	r3,r2
  120e0c:	e0bfed04 	addi	r2,fp,-76
  120e10:	180d883a 	mov	r6,r3
  120e14:	100b883a 	mov	r5,r2
  120e18:	e13fff17 	ldw	r4,-4(fp)
  120e1c:	0134d800 	call	134d80 <write>
  120e20:	e037883a 	mov	sp,fp
  120e24:	dfc00117 	ldw	ra,4(sp)
  120e28:	df000017 	ldw	fp,0(sp)
  120e2c:	dec00204 	addi	sp,sp,8
  120e30:	f800283a 	ret

00120e34 <main>:
  120e34:	deff2604 	addi	sp,sp,-872
  120e38:	dfc0d915 	stw	ra,868(sp)
  120e3c:	df00d815 	stw	fp,864(sp)
  120e40:	df00d804 	addi	fp,sp,864
  120e44:	e0bf3304 	addi	r2,fp,-820
  120e48:	00c0ad04 	movi	r3,692
  120e4c:	180d883a 	mov	r6,r3
  120e50:	000b883a 	mov	r5,zero
  120e54:	1009883a 	mov	r4,r2
  120e58:	01214d80 	call	1214d8 <memset>
  120e5c:	00bff104 	movi	r2,-60
  120e60:	e0bfc60d 	sth	r2,-232(fp)
  120e64:	00bfd304 	movi	r2,-180
  120e68:	e0bfc68d 	sth	r2,-230(fp)
  120e6c:	00bfd644 	movi	r2,-167
  120e70:	e0bfc70d 	sth	r2,-228(fp)
  120e74:	00803a44 	movi	r2,233
  120e78:	e0bfc78d 	sth	r2,-226(fp)
  120e7c:	0080de04 	movi	r2,888
  120e80:	e0bfc80d 	sth	r2,-224(fp)
  120e84:	00811bc4 	movi	r2,1135
  120e88:	e0bfc88d 	sth	r2,-222(fp)
  120e8c:	00807e44 	movi	r2,505
  120e90:	e0bfc90d 	sth	r2,-220(fp)
  120e94:	00bf9584 	movi	r2,-426
  120e98:	e0bfc98d 	sth	r2,-218(fp)
  120e9c:	00bf8244 	movi	r2,-503
  120ea0:	e0bfca0d 	sth	r2,-216(fp)
  120ea4:	008063c4 	movi	r2,399
  120ea8:	e0bfca8d 	sth	r2,-214(fp)
  120eac:	0080e384 	movi	r2,910
  120eb0:	e0bfcb0d 	sth	r2,-212(fp)
  120eb4:	00800684 	movi	r2,26
  120eb8:	e0bfcb8d 	sth	r2,-210(fp)
  120ebc:	00beeb84 	movi	r2,-1106
  120ec0:	e0bfcc0d 	sth	r2,-208(fp)
  120ec4:	00bf6dc4 	movi	r2,-585
  120ec8:	e0bfcc8d 	sth	r2,-206(fp)
  120ecc:	00811d44 	movi	r2,1141
  120ed0:	e0bfcd0d 	sth	r2,-204(fp)
  120ed4:	00815404 	movi	r2,1360
  120ed8:	e0bfcd8d 	sth	r2,-202(fp)
  120edc:	00bf3704 	movi	r2,-804
  120ee0:	e0bfce0d 	sth	r2,-200(fp)
  120ee4:	00bdcf04 	movi	r2,-2244
  120ee8:	e0bfce8d 	sth	r2,-198(fp)
  120eec:	00bfee84 	movi	r2,-70
  120ef0:	e0bfcf0d 	sth	r2,-196(fp)
  120ef4:	00830ec4 	movi	r2,3131
  120ef8:	e0bfcf8d 	sth	r2,-194(fp)
  120efc:	0081c0c4 	movi	r2,1795
  120f00:	e0bfd00d 	sth	r2,-192(fp)
  120f04:	00bc3384 	movi	r2,-3890
  120f08:	e0bfd08d 	sth	r2,-190(fp)
  120f0c:	00babb44 	movi	r2,-5395
  120f10:	e0bfd10d 	sth	r2,-188(fp)
  120f14:	00844c44 	movi	r2,4401
  120f18:	e0bfd18d 	sth	r2,-186(fp)
  120f1c:	0093d784 	movi	r2,20318
  120f20:	e0bfd20d 	sth	r2,-184(fp)
  120f24:	009b8684 	movi	r2,28186
  120f28:	e0bfd28d 	sth	r2,-182(fp)
  120f2c:	0093d784 	movi	r2,20318
  120f30:	e0bfd30d 	sth	r2,-180(fp)
  120f34:	00844c44 	movi	r2,4401
  120f38:	e0bfd38d 	sth	r2,-178(fp)
  120f3c:	00babb44 	movi	r2,-5395
  120f40:	e0bfd40d 	sth	r2,-176(fp)
  120f44:	00bc3384 	movi	r2,-3890
  120f48:	e0bfd48d 	sth	r2,-174(fp)
  120f4c:	0081c0c4 	movi	r2,1795
  120f50:	e0bfd50d 	sth	r2,-172(fp)
  120f54:	00830ec4 	movi	r2,3131
  120f58:	e0bfd58d 	sth	r2,-170(fp)
  120f5c:	00bfee84 	movi	r2,-70
  120f60:	e0bfd60d 	sth	r2,-168(fp)
  120f64:	00bdcf04 	movi	r2,-2244
  120f68:	e0bfd68d 	sth	r2,-166(fp)
  120f6c:	00bf3704 	movi	r2,-804
  120f70:	e0bfd70d 	sth	r2,-164(fp)
  120f74:	00815404 	movi	r2,1360
  120f78:	e0bfd78d 	sth	r2,-162(fp)
  120f7c:	00811d44 	movi	r2,1141
  120f80:	e0bfd80d 	sth	r2,-160(fp)
  120f84:	00bf6dc4 	movi	r2,-585
  120f88:	e0bfd88d 	sth	r2,-158(fp)
  120f8c:	00beeb84 	movi	r2,-1106
  120f90:	e0bfd90d 	sth	r2,-156(fp)
  120f94:	00800684 	movi	r2,26
  120f98:	e0bfd98d 	sth	r2,-154(fp)
  120f9c:	0080e384 	movi	r2,910
  120fa0:	e0bfda0d 	sth	r2,-152(fp)
  120fa4:	008063c4 	movi	r2,399
  120fa8:	e0bfda8d 	sth	r2,-150(fp)
  120fac:	00bf8244 	movi	r2,-503
  120fb0:	e0bfdb0d 	sth	r2,-148(fp)
  120fb4:	00bf9584 	movi	r2,-426
  120fb8:	e0bfdb8d 	sth	r2,-146(fp)
  120fbc:	00807e44 	movi	r2,505
  120fc0:	e0bfdc0d 	sth	r2,-144(fp)
  120fc4:	00811bc4 	movi	r2,1135
  120fc8:	e0bfdc8d 	sth	r2,-142(fp)
  120fcc:	0080de04 	movi	r2,888
  120fd0:	e0bfdd0d 	sth	r2,-140(fp)
  120fd4:	00803a44 	movi	r2,233
  120fd8:	e0bfdd8d 	sth	r2,-138(fp)
  120fdc:	00bfd644 	movi	r2,-167
  120fe0:	e0bfde0d 	sth	r2,-136(fp)
  120fe4:	01000534 	movhi	r4,20
  120fe8:	21248804 	addi	r4,r4,-28128
  120fec:	01372ec0 	call	1372ec <alt_up_accelerometer_spi_open_dev>
  120ff0:	e0bf2a15 	stw	r2,-856(fp)
  120ff4:	01500084 	movi	r5,16386
  120ff8:	01000534 	movhi	r4,20
  120ffc:	21248e04 	addi	r4,r4,-28104
  121000:	01349380 	call	134938 <open>
  121004:	e0bf2b15 	stw	r2,-852(fp)
  121008:	e0bf2b17 	ldw	r2,-852(fp)
  12100c:	10000226 	beq	r2,zero,121018 <main+0x1e4>
  121010:	e0bf2a17 	ldw	r2,-856(fp)
  121014:	1000041e 	bne	r2,zero,121028 <main+0x1f4>
  121018:	01000534 	movhi	r4,20
  12101c:	21249104 	addi	r4,r4,-28092
  121020:	0134a940 	call	134a94 <alt_putstr>
  121024:	00000306 	br	121034 <main+0x200>
  121028:	01000534 	movhi	r4,20
  12102c:	2124a204 	addi	r4,r4,-28024
  121030:	0134a940 	call	134a94 <alt_putstr>
  121034:	d0e00117 	ldw	r3,-32764(gp)
  121038:	008004b4 	movhi	r2,18
  12103c:	10817204 	addi	r2,r2,1480
  121040:	d8800115 	stw	r2,4(sp)
  121044:	d8c00015 	stw	r3,0(sp)
  121048:	01800184 	movi	r6,6
  12104c:	000f883a 	mov	r7,zero
  121050:	01000534 	movhi	r4,20
  121054:	21040804 	addi	r4,r4,4128
  121058:	000b883a 	mov	r5,zero
  12105c:	01205000 	call	120500 <init_timer>
  121060:	d0e00017 	ldw	r3,-32768(gp)
  121064:	008004b4 	movhi	r2,18
  121068:	10818104 	addi	r2,r2,1540
  12106c:	d8800115 	stw	r2,4(sp)
  121070:	d8c00015 	stw	r3,0(sp)
  121074:	018001c4 	movi	r6,7
  121078:	000f883a 	mov	r7,zero
  12107c:	01000534 	movhi	r4,20
  121080:	21040004 	addi	r4,r4,4096
  121084:	000b883a 	mov	r5,zero
  121088:	01205000 	call	120500 <init_timer>
  12108c:	010004b4 	movhi	r4,18
  121090:	2101a804 	addi	r4,r4,1696
  121094:	01206400 	call	120640 <setup_button_interrupts>
  121098:	d0a75517 	ldw	r2,-25260(gp)
  12109c:	10000d26 	beq	r2,zero,1210d4 <main+0x2a0>
  1210a0:	e0bfe004 	addi	r2,fp,-128
  1210a4:	01800fc4 	movi	r6,63
  1210a8:	100b883a 	mov	r5,r2
  1210ac:	e13f2b17 	ldw	r4,-852(fp)
  1210b0:	0134b0c0 	call	134b0c <read>
  1210b4:	e0bf2c15 	stw	r2,-848(fp)
  1210b8:	e0bf2c17 	ldw	r2,-848(fp)
  1210bc:	0080040e 	bge	zero,r2,1210d0 <main+0x29c>
  1210c0:	e0bfe004 	addi	r2,fp,-128
  1210c4:	e17f2b17 	ldw	r5,-852(fp)
  1210c8:	1009883a 	mov	r4,r2
  1210cc:	01207880 	call	120788 <process_buffer>
  1210d0:	d0275515 	stw	zero,-25260(gp)
  1210d4:	e0bf2d04 	addi	r2,fp,-844
  1210d8:	100b883a 	mov	r5,r2
  1210dc:	e13f2a17 	ldw	r4,-856(fp)
  1210e0:	01374380 	call	137438 <alt_up_accelerometer_spi_read_x_axis>
  1210e4:	e0bf2f04 	addi	r2,fp,-836
  1210e8:	100b883a 	mov	r5,r2
  1210ec:	e13f2a17 	ldw	r4,-856(fp)
  1210f0:	01375040 	call	137504 <alt_up_accelerometer_spi_read_y_axis>
  1210f4:	e0bf3104 	addi	r2,fp,-828
  1210f8:	100b883a 	mov	r5,r2
  1210fc:	e13f2a17 	ldw	r4,-856(fp)
  121100:	01375d00 	call	1375d0 <alt_up_accelerometer_spi_read_z_axis>
  121104:	e0ff2d17 	ldw	r3,-844(fp)
  121108:	e13f2f17 	ldw	r4,-836(fp)
  12110c:	e17f3117 	ldw	r5,-828(fp)
  121110:	e0bf3304 	addi	r2,fp,-820
  121114:	280f883a 	mov	r7,r5
  121118:	200d883a 	mov	r6,r4
  12111c:	180b883a 	mov	r5,r3
  121120:	1009883a 	mov	r4,r2
  121124:	01202700 	call	120270 <push_to_buffers>
  121128:	d0a75617 	ldw	r2,-25256(gp)
  12112c:	103fda26 	beq	r2,zero,121098 <_gp+0xfffdd9c0>
  121130:	d0a75717 	ldw	r2,-25252(gp)
  121134:	103fd826 	beq	r2,zero,121098 <_gp+0xfffdd9c0>
  121138:	e17f3204 	addi	r5,fp,-824
  12113c:	e13f3004 	addi	r4,fp,-832
  121140:	e0ff2e04 	addi	r3,fp,-840
  121144:	e0bf3304 	addi	r2,fp,-820
  121148:	280f883a 	mov	r7,r5
  12114c:	200d883a 	mov	r6,r4
  121150:	180b883a 	mov	r5,r3
  121154:	1009883a 	mov	r4,r2
  121158:	01203340 	call	120334 <convolve>
  12115c:	e13f2e17 	ldw	r4,-840(fp)
  121160:	e17f3017 	ldw	r5,-832(fp)
  121164:	e0bf3217 	ldw	r2,-824(fp)
  121168:	e0fff004 	addi	r3,fp,-64
  12116c:	d8800015 	stw	r2,0(sp)
  121170:	280f883a 	mov	r7,r5
  121174:	200d883a 	mov	r6,r4
  121178:	01400534 	movhi	r5,20
  12117c:	2964b404 	addi	r5,r5,-27952
  121180:	1809883a 	mov	r4,r3
  121184:	01216580 	call	121658 <sprintf>
  121188:	e0bff004 	addi	r2,fp,-64
  12118c:	1009883a 	mov	r4,r2
  121190:	01218f40 	call	1218f4 <strlen>
  121194:	1007883a 	mov	r3,r2
  121198:	e0bff004 	addi	r2,fp,-64
  12119c:	180d883a 	mov	r6,r3
  1211a0:	100b883a 	mov	r5,r2
  1211a4:	e13f2b17 	ldw	r4,-852(fp)
  1211a8:	0134d800 	call	134d80 <write>
  1211ac:	d0275615 	stw	zero,-25256(gp)
  1211b0:	003fb906 	br	121098 <_gp+0xfffdd9c0>

001211b4 <__divsi3>:
  1211b4:	20001b16 	blt	r4,zero,121224 <__divsi3+0x70>
  1211b8:	000f883a 	mov	r7,zero
  1211bc:	28001616 	blt	r5,zero,121218 <__divsi3+0x64>
  1211c0:	200d883a 	mov	r6,r4
  1211c4:	29001a2e 	bgeu	r5,r4,121230 <__divsi3+0x7c>
  1211c8:	00800804 	movi	r2,32
  1211cc:	00c00044 	movi	r3,1
  1211d0:	00000106 	br	1211d8 <__divsi3+0x24>
  1211d4:	10000d26 	beq	r2,zero,12120c <__divsi3+0x58>
  1211d8:	294b883a 	add	r5,r5,r5
  1211dc:	10bfffc4 	addi	r2,r2,-1
  1211e0:	18c7883a 	add	r3,r3,r3
  1211e4:	293ffb36 	bltu	r5,r4,1211d4 <_gp+0xfffddafc>
  1211e8:	0005883a 	mov	r2,zero
  1211ec:	18000726 	beq	r3,zero,12120c <__divsi3+0x58>
  1211f0:	0005883a 	mov	r2,zero
  1211f4:	31400236 	bltu	r6,r5,121200 <__divsi3+0x4c>
  1211f8:	314dc83a 	sub	r6,r6,r5
  1211fc:	10c4b03a 	or	r2,r2,r3
  121200:	1806d07a 	srli	r3,r3,1
  121204:	280ad07a 	srli	r5,r5,1
  121208:	183ffa1e 	bne	r3,zero,1211f4 <_gp+0xfffddb1c>
  12120c:	38000126 	beq	r7,zero,121214 <__divsi3+0x60>
  121210:	0085c83a 	sub	r2,zero,r2
  121214:	f800283a 	ret
  121218:	014bc83a 	sub	r5,zero,r5
  12121c:	39c0005c 	xori	r7,r7,1
  121220:	003fe706 	br	1211c0 <_gp+0xfffddae8>
  121224:	0109c83a 	sub	r4,zero,r4
  121228:	01c00044 	movi	r7,1
  12122c:	003fe306 	br	1211bc <_gp+0xfffddae4>
  121230:	00c00044 	movi	r3,1
  121234:	003fee06 	br	1211f0 <_gp+0xfffddb18>

00121238 <__modsi3>:
  121238:	20001716 	blt	r4,zero,121298 <__modsi3+0x60>
  12123c:	000f883a 	mov	r7,zero
  121240:	2005883a 	mov	r2,r4
  121244:	28001216 	blt	r5,zero,121290 <__modsi3+0x58>
  121248:	2900162e 	bgeu	r5,r4,1212a4 <__modsi3+0x6c>
  12124c:	01800804 	movi	r6,32
  121250:	00c00044 	movi	r3,1
  121254:	00000106 	br	12125c <__modsi3+0x24>
  121258:	30000a26 	beq	r6,zero,121284 <__modsi3+0x4c>
  12125c:	294b883a 	add	r5,r5,r5
  121260:	31bfffc4 	addi	r6,r6,-1
  121264:	18c7883a 	add	r3,r3,r3
  121268:	293ffb36 	bltu	r5,r4,121258 <_gp+0xfffddb80>
  12126c:	18000526 	beq	r3,zero,121284 <__modsi3+0x4c>
  121270:	1806d07a 	srli	r3,r3,1
  121274:	11400136 	bltu	r2,r5,12127c <__modsi3+0x44>
  121278:	1145c83a 	sub	r2,r2,r5
  12127c:	280ad07a 	srli	r5,r5,1
  121280:	183ffb1e 	bne	r3,zero,121270 <_gp+0xfffddb98>
  121284:	38000126 	beq	r7,zero,12128c <__modsi3+0x54>
  121288:	0085c83a 	sub	r2,zero,r2
  12128c:	f800283a 	ret
  121290:	014bc83a 	sub	r5,zero,r5
  121294:	003fec06 	br	121248 <_gp+0xfffddb70>
  121298:	0109c83a 	sub	r4,zero,r4
  12129c:	01c00044 	movi	r7,1
  1212a0:	003fe706 	br	121240 <_gp+0xfffddb68>
  1212a4:	00c00044 	movi	r3,1
  1212a8:	003ff106 	br	121270 <_gp+0xfffddb98>

001212ac <__udivsi3>:
  1212ac:	200d883a 	mov	r6,r4
  1212b0:	2900152e 	bgeu	r5,r4,121308 <__udivsi3+0x5c>
  1212b4:	28001416 	blt	r5,zero,121308 <__udivsi3+0x5c>
  1212b8:	00800804 	movi	r2,32
  1212bc:	00c00044 	movi	r3,1
  1212c0:	00000206 	br	1212cc <__udivsi3+0x20>
  1212c4:	10000e26 	beq	r2,zero,121300 <__udivsi3+0x54>
  1212c8:	28000516 	blt	r5,zero,1212e0 <__udivsi3+0x34>
  1212cc:	294b883a 	add	r5,r5,r5
  1212d0:	10bfffc4 	addi	r2,r2,-1
  1212d4:	18c7883a 	add	r3,r3,r3
  1212d8:	293ffa36 	bltu	r5,r4,1212c4 <_gp+0xfffddbec>
  1212dc:	18000826 	beq	r3,zero,121300 <__udivsi3+0x54>
  1212e0:	0005883a 	mov	r2,zero
  1212e4:	31400236 	bltu	r6,r5,1212f0 <__udivsi3+0x44>
  1212e8:	314dc83a 	sub	r6,r6,r5
  1212ec:	10c4b03a 	or	r2,r2,r3
  1212f0:	1806d07a 	srli	r3,r3,1
  1212f4:	280ad07a 	srli	r5,r5,1
  1212f8:	183ffa1e 	bne	r3,zero,1212e4 <_gp+0xfffddc0c>
  1212fc:	f800283a 	ret
  121300:	0005883a 	mov	r2,zero
  121304:	f800283a 	ret
  121308:	00c00044 	movi	r3,1
  12130c:	003ff406 	br	1212e0 <_gp+0xfffddc08>

00121310 <__umodsi3>:
  121310:	2005883a 	mov	r2,r4
  121314:	2900122e 	bgeu	r5,r4,121360 <__umodsi3+0x50>
  121318:	28001116 	blt	r5,zero,121360 <__umodsi3+0x50>
  12131c:	01800804 	movi	r6,32
  121320:	00c00044 	movi	r3,1
  121324:	00000206 	br	121330 <__umodsi3+0x20>
  121328:	30000c26 	beq	r6,zero,12135c <__umodsi3+0x4c>
  12132c:	28000516 	blt	r5,zero,121344 <__umodsi3+0x34>
  121330:	294b883a 	add	r5,r5,r5
  121334:	31bfffc4 	addi	r6,r6,-1
  121338:	18c7883a 	add	r3,r3,r3
  12133c:	293ffa36 	bltu	r5,r4,121328 <_gp+0xfffddc50>
  121340:	18000626 	beq	r3,zero,12135c <__umodsi3+0x4c>
  121344:	1806d07a 	srli	r3,r3,1
  121348:	11400136 	bltu	r2,r5,121350 <__umodsi3+0x40>
  12134c:	1145c83a 	sub	r2,r2,r5
  121350:	280ad07a 	srli	r5,r5,1
  121354:	183ffb1e 	bne	r3,zero,121344 <_gp+0xfffddc6c>
  121358:	f800283a 	ret
  12135c:	f800283a 	ret
  121360:	00c00044 	movi	r3,1
  121364:	003ff706 	br	121344 <_gp+0xfffddc6c>

00121368 <__mulsi3>:
  121368:	0005883a 	mov	r2,zero
  12136c:	20000726 	beq	r4,zero,12138c <__mulsi3+0x24>
  121370:	20c0004c 	andi	r3,r4,1
  121374:	2008d07a 	srli	r4,r4,1
  121378:	18000126 	beq	r3,zero,121380 <__mulsi3+0x18>
  12137c:	1145883a 	add	r2,r2,r5
  121380:	294b883a 	add	r5,r5,r5
  121384:	203ffa1e 	bne	r4,zero,121370 <_gp+0xfffddc98>
  121388:	f800283a 	ret
  12138c:	f800283a 	ret

00121390 <memcpy>:
  121390:	defffd04 	addi	sp,sp,-12
  121394:	dfc00215 	stw	ra,8(sp)
  121398:	dc400115 	stw	r17,4(sp)
  12139c:	dc000015 	stw	r16,0(sp)
  1213a0:	00c003c4 	movi	r3,15
  1213a4:	2005883a 	mov	r2,r4
  1213a8:	1980452e 	bgeu	r3,r6,1214c0 <memcpy+0x130>
  1213ac:	2906b03a 	or	r3,r5,r4
  1213b0:	18c000cc 	andi	r3,r3,3
  1213b4:	1800441e 	bne	r3,zero,1214c8 <memcpy+0x138>
  1213b8:	347ffc04 	addi	r17,r6,-16
  1213bc:	8822d13a 	srli	r17,r17,4
  1213c0:	28c00104 	addi	r3,r5,4
  1213c4:	23400104 	addi	r13,r4,4
  1213c8:	8820913a 	slli	r16,r17,4
  1213cc:	2b000204 	addi	r12,r5,8
  1213d0:	22c00204 	addi	r11,r4,8
  1213d4:	84000504 	addi	r16,r16,20
  1213d8:	2a800304 	addi	r10,r5,12
  1213dc:	22400304 	addi	r9,r4,12
  1213e0:	2c21883a 	add	r16,r5,r16
  1213e4:	2811883a 	mov	r8,r5
  1213e8:	200f883a 	mov	r7,r4
  1213ec:	41000017 	ldw	r4,0(r8)
  1213f0:	1fc00017 	ldw	ra,0(r3)
  1213f4:	63c00017 	ldw	r15,0(r12)
  1213f8:	39000015 	stw	r4,0(r7)
  1213fc:	53800017 	ldw	r14,0(r10)
  121400:	6fc00015 	stw	ra,0(r13)
  121404:	5bc00015 	stw	r15,0(r11)
  121408:	4b800015 	stw	r14,0(r9)
  12140c:	18c00404 	addi	r3,r3,16
  121410:	39c00404 	addi	r7,r7,16
  121414:	42000404 	addi	r8,r8,16
  121418:	6b400404 	addi	r13,r13,16
  12141c:	63000404 	addi	r12,r12,16
  121420:	5ac00404 	addi	r11,r11,16
  121424:	52800404 	addi	r10,r10,16
  121428:	4a400404 	addi	r9,r9,16
  12142c:	1c3fef1e 	bne	r3,r16,1213ec <_gp+0xfffddd14>
  121430:	89c00044 	addi	r7,r17,1
  121434:	380e913a 	slli	r7,r7,4
  121438:	310003cc 	andi	r4,r6,15
  12143c:	02c000c4 	movi	r11,3
  121440:	11c7883a 	add	r3,r2,r7
  121444:	29cb883a 	add	r5,r5,r7
  121448:	5900212e 	bgeu	r11,r4,1214d0 <memcpy+0x140>
  12144c:	1813883a 	mov	r9,r3
  121450:	2811883a 	mov	r8,r5
  121454:	200f883a 	mov	r7,r4
  121458:	42800017 	ldw	r10,0(r8)
  12145c:	4a400104 	addi	r9,r9,4
  121460:	39ffff04 	addi	r7,r7,-4
  121464:	4abfff15 	stw	r10,-4(r9)
  121468:	42000104 	addi	r8,r8,4
  12146c:	59fffa36 	bltu	r11,r7,121458 <_gp+0xfffddd80>
  121470:	213fff04 	addi	r4,r4,-4
  121474:	2008d0ba 	srli	r4,r4,2
  121478:	318000cc 	andi	r6,r6,3
  12147c:	21000044 	addi	r4,r4,1
  121480:	2109883a 	add	r4,r4,r4
  121484:	2109883a 	add	r4,r4,r4
  121488:	1907883a 	add	r3,r3,r4
  12148c:	290b883a 	add	r5,r5,r4
  121490:	30000626 	beq	r6,zero,1214ac <memcpy+0x11c>
  121494:	198d883a 	add	r6,r3,r6
  121498:	29c00003 	ldbu	r7,0(r5)
  12149c:	18c00044 	addi	r3,r3,1
  1214a0:	29400044 	addi	r5,r5,1
  1214a4:	19ffffc5 	stb	r7,-1(r3)
  1214a8:	19bffb1e 	bne	r3,r6,121498 <_gp+0xfffdddc0>
  1214ac:	dfc00217 	ldw	ra,8(sp)
  1214b0:	dc400117 	ldw	r17,4(sp)
  1214b4:	dc000017 	ldw	r16,0(sp)
  1214b8:	dec00304 	addi	sp,sp,12
  1214bc:	f800283a 	ret
  1214c0:	2007883a 	mov	r3,r4
  1214c4:	003ff206 	br	121490 <_gp+0xfffdddb8>
  1214c8:	2007883a 	mov	r3,r4
  1214cc:	003ff106 	br	121494 <_gp+0xfffdddbc>
  1214d0:	200d883a 	mov	r6,r4
  1214d4:	003fee06 	br	121490 <_gp+0xfffdddb8>

001214d8 <memset>:
  1214d8:	20c000cc 	andi	r3,r4,3
  1214dc:	2005883a 	mov	r2,r4
  1214e0:	18004426 	beq	r3,zero,1215f4 <memset+0x11c>
  1214e4:	31ffffc4 	addi	r7,r6,-1
  1214e8:	30004026 	beq	r6,zero,1215ec <memset+0x114>
  1214ec:	2813883a 	mov	r9,r5
  1214f0:	200d883a 	mov	r6,r4
  1214f4:	2007883a 	mov	r3,r4
  1214f8:	00000406 	br	12150c <memset+0x34>
  1214fc:	3a3fffc4 	addi	r8,r7,-1
  121500:	31800044 	addi	r6,r6,1
  121504:	38003926 	beq	r7,zero,1215ec <memset+0x114>
  121508:	400f883a 	mov	r7,r8
  12150c:	18c00044 	addi	r3,r3,1
  121510:	32400005 	stb	r9,0(r6)
  121514:	1a0000cc 	andi	r8,r3,3
  121518:	403ff81e 	bne	r8,zero,1214fc <_gp+0xfffdde24>
  12151c:	010000c4 	movi	r4,3
  121520:	21c02d2e 	bgeu	r4,r7,1215d8 <memset+0x100>
  121524:	29003fcc 	andi	r4,r5,255
  121528:	200c923a 	slli	r6,r4,8
  12152c:	3108b03a 	or	r4,r6,r4
  121530:	200c943a 	slli	r6,r4,16
  121534:	218cb03a 	or	r6,r4,r6
  121538:	010003c4 	movi	r4,15
  12153c:	21c0182e 	bgeu	r4,r7,1215a0 <memset+0xc8>
  121540:	3b3ffc04 	addi	r12,r7,-16
  121544:	6018d13a 	srli	r12,r12,4
  121548:	1a000104 	addi	r8,r3,4
  12154c:	1ac00204 	addi	r11,r3,8
  121550:	6008913a 	slli	r4,r12,4
  121554:	1a800304 	addi	r10,r3,12
  121558:	1813883a 	mov	r9,r3
  12155c:	21000504 	addi	r4,r4,20
  121560:	1909883a 	add	r4,r3,r4
  121564:	49800015 	stw	r6,0(r9)
  121568:	41800015 	stw	r6,0(r8)
  12156c:	59800015 	stw	r6,0(r11)
  121570:	51800015 	stw	r6,0(r10)
  121574:	42000404 	addi	r8,r8,16
  121578:	4a400404 	addi	r9,r9,16
  12157c:	5ac00404 	addi	r11,r11,16
  121580:	52800404 	addi	r10,r10,16
  121584:	413ff71e 	bne	r8,r4,121564 <_gp+0xfffdde8c>
  121588:	63000044 	addi	r12,r12,1
  12158c:	6018913a 	slli	r12,r12,4
  121590:	39c003cc 	andi	r7,r7,15
  121594:	010000c4 	movi	r4,3
  121598:	1b07883a 	add	r3,r3,r12
  12159c:	21c00e2e 	bgeu	r4,r7,1215d8 <memset+0x100>
  1215a0:	1813883a 	mov	r9,r3
  1215a4:	3811883a 	mov	r8,r7
  1215a8:	010000c4 	movi	r4,3
  1215ac:	49800015 	stw	r6,0(r9)
  1215b0:	423fff04 	addi	r8,r8,-4
  1215b4:	4a400104 	addi	r9,r9,4
  1215b8:	223ffc36 	bltu	r4,r8,1215ac <_gp+0xfffdded4>
  1215bc:	393fff04 	addi	r4,r7,-4
  1215c0:	2008d0ba 	srli	r4,r4,2
  1215c4:	39c000cc 	andi	r7,r7,3
  1215c8:	21000044 	addi	r4,r4,1
  1215cc:	2109883a 	add	r4,r4,r4
  1215d0:	2109883a 	add	r4,r4,r4
  1215d4:	1907883a 	add	r3,r3,r4
  1215d8:	38000526 	beq	r7,zero,1215f0 <memset+0x118>
  1215dc:	19cf883a 	add	r7,r3,r7
  1215e0:	19400005 	stb	r5,0(r3)
  1215e4:	18c00044 	addi	r3,r3,1
  1215e8:	38fffd1e 	bne	r7,r3,1215e0 <_gp+0xfffddf08>
  1215ec:	f800283a 	ret
  1215f0:	f800283a 	ret
  1215f4:	2007883a 	mov	r3,r4
  1215f8:	300f883a 	mov	r7,r6
  1215fc:	003fc706 	br	12151c <_gp+0xfffdde44>

00121600 <_sprintf_r>:
  121600:	deffe404 	addi	sp,sp,-112
  121604:	2807883a 	mov	r3,r5
  121608:	dfc01a15 	stw	ra,104(sp)
  12160c:	d9c01b15 	stw	r7,108(sp)
  121610:	00a00034 	movhi	r2,32768
  121614:	10bfffc4 	addi	r2,r2,-1
  121618:	02008204 	movi	r8,520
  12161c:	d8800215 	stw	r2,8(sp)
  121620:	d8800515 	stw	r2,20(sp)
  121624:	d9c01b04 	addi	r7,sp,108
  121628:	d80b883a 	mov	r5,sp
  12162c:	00bfffc4 	movi	r2,-1
  121630:	d8c00015 	stw	r3,0(sp)
  121634:	d8c00415 	stw	r3,16(sp)
  121638:	da00030d 	sth	r8,12(sp)
  12163c:	d880038d 	sth	r2,14(sp)
  121640:	01221f00 	call	1221f0 <___svfprintf_internal_r>
  121644:	d8c00017 	ldw	r3,0(sp)
  121648:	18000005 	stb	zero,0(r3)
  12164c:	dfc01a17 	ldw	ra,104(sp)
  121650:	dec01c04 	addi	sp,sp,112
  121654:	f800283a 	ret

00121658 <sprintf>:
  121658:	deffe304 	addi	sp,sp,-116
  12165c:	2007883a 	mov	r3,r4
  121660:	dfc01a15 	stw	ra,104(sp)
  121664:	d9801b15 	stw	r6,108(sp)
  121668:	d9c01c15 	stw	r7,112(sp)
  12166c:	01000534 	movhi	r4,20
  121670:	212dba04 	addi	r4,r4,-18712
  121674:	21000017 	ldw	r4,0(r4)
  121678:	00a00034 	movhi	r2,32768
  12167c:	10bfffc4 	addi	r2,r2,-1
  121680:	280d883a 	mov	r6,r5
  121684:	02008204 	movi	r8,520
  121688:	d8800215 	stw	r2,8(sp)
  12168c:	d8800515 	stw	r2,20(sp)
  121690:	d9c01b04 	addi	r7,sp,108
  121694:	d80b883a 	mov	r5,sp
  121698:	00bfffc4 	movi	r2,-1
  12169c:	d8c00015 	stw	r3,0(sp)
  1216a0:	d8c00415 	stw	r3,16(sp)
  1216a4:	da00030d 	sth	r8,12(sp)
  1216a8:	d880038d 	sth	r2,14(sp)
  1216ac:	01221f00 	call	1221f0 <___svfprintf_internal_r>
  1216b0:	d8c00017 	ldw	r3,0(sp)
  1216b4:	18000005 	stb	zero,0(r3)
  1216b8:	dfc01a17 	ldw	ra,104(sp)
  1216bc:	dec01d04 	addi	sp,sp,116
  1216c0:	f800283a 	ret

001216c4 <sscanf>:
  1216c4:	deffe204 	addi	sp,sp,-120
  1216c8:	dc001a15 	stw	r16,104(sp)
  1216cc:	2821883a 	mov	r16,r5
  1216d0:	dfc01b15 	stw	ra,108(sp)
  1216d4:	d9801c15 	stw	r6,112(sp)
  1216d8:	d9c01d15 	stw	r7,116(sp)
  1216dc:	00c08104 	movi	r3,516
  1216e0:	d8c0030d 	sth	r3,12(sp)
  1216e4:	d9000015 	stw	r4,0(sp)
  1216e8:	d9000415 	stw	r4,16(sp)
  1216ec:	01218f40 	call	1218f4 <strlen>
  1216f0:	00c00534 	movhi	r3,20
  1216f4:	18edba04 	addi	r3,r3,-18712
  1216f8:	d8800115 	stw	r2,4(sp)
  1216fc:	d8800515 	stw	r2,20(sp)
  121700:	19000017 	ldw	r4,0(r3)
  121704:	008004b4 	movhi	r2,18
  121708:	10860304 	addi	r2,r2,6156
  12170c:	d8800815 	stw	r2,32(sp)
  121710:	d9c01c04 	addi	r7,sp,112
  121714:	800d883a 	mov	r6,r16
  121718:	d80b883a 	mov	r5,sp
  12171c:	00bfffc4 	movi	r2,-1
  121720:	d8000c15 	stw	zero,48(sp)
  121724:	d8001115 	stw	zero,68(sp)
  121728:	d880038d 	sth	r2,14(sp)
  12172c:	01244ac0 	call	1244ac <__ssvfscanf_r>
  121730:	dfc01b17 	ldw	ra,108(sp)
  121734:	dc001a17 	ldw	r16,104(sp)
  121738:	dec01e04 	addi	sp,sp,120
  12173c:	f800283a 	ret

00121740 <_sscanf_r>:
  121740:	deffe204 	addi	sp,sp,-120
  121744:	dc001b15 	stw	r16,108(sp)
  121748:	2021883a 	mov	r16,r4
  12174c:	dfc01c15 	stw	ra,112(sp)
  121750:	d9c01d15 	stw	r7,116(sp)
  121754:	00808104 	movi	r2,516
  121758:	2809883a 	mov	r4,r5
  12175c:	d9400015 	stw	r5,0(sp)
  121760:	d9400415 	stw	r5,16(sp)
  121764:	d9801a15 	stw	r6,104(sp)
  121768:	d880030d 	sth	r2,12(sp)
  12176c:	01218f40 	call	1218f4 <strlen>
  121770:	d8800115 	stw	r2,4(sp)
  121774:	d8800515 	stw	r2,20(sp)
  121778:	d9801a17 	ldw	r6,104(sp)
  12177c:	008004b4 	movhi	r2,18
  121780:	10860304 	addi	r2,r2,6156
  121784:	d8800815 	stw	r2,32(sp)
  121788:	d9c01d04 	addi	r7,sp,116
  12178c:	d80b883a 	mov	r5,sp
  121790:	8009883a 	mov	r4,r16
  121794:	00bfffc4 	movi	r2,-1
  121798:	d8000c15 	stw	zero,48(sp)
  12179c:	d8001115 	stw	zero,68(sp)
  1217a0:	d880038d 	sth	r2,14(sp)
  1217a4:	01244ac0 	call	1244ac <__ssvfscanf_r>
  1217a8:	dfc01c17 	ldw	ra,112(sp)
  1217ac:	dc001b17 	ldw	r16,108(sp)
  1217b0:	dec01e04 	addi	sp,sp,120
  1217b4:	f800283a 	ret

001217b8 <__sread>:
  1217b8:	defffe04 	addi	sp,sp,-8
  1217bc:	dc000015 	stw	r16,0(sp)
  1217c0:	2821883a 	mov	r16,r5
  1217c4:	2940038f 	ldh	r5,14(r5)
  1217c8:	dfc00115 	stw	ra,4(sp)
  1217cc:	01295500 	call	129550 <_read_r>
  1217d0:	10000716 	blt	r2,zero,1217f0 <__sread+0x38>
  1217d4:	80c01417 	ldw	r3,80(r16)
  1217d8:	1887883a 	add	r3,r3,r2
  1217dc:	80c01415 	stw	r3,80(r16)
  1217e0:	dfc00117 	ldw	ra,4(sp)
  1217e4:	dc000017 	ldw	r16,0(sp)
  1217e8:	dec00204 	addi	sp,sp,8
  1217ec:	f800283a 	ret
  1217f0:	80c0030b 	ldhu	r3,12(r16)
  1217f4:	18fbffcc 	andi	r3,r3,61439
  1217f8:	80c0030d 	sth	r3,12(r16)
  1217fc:	dfc00117 	ldw	ra,4(sp)
  121800:	dc000017 	ldw	r16,0(sp)
  121804:	dec00204 	addi	sp,sp,8
  121808:	f800283a 	ret

0012180c <__seofread>:
  12180c:	0005883a 	mov	r2,zero
  121810:	f800283a 	ret

00121814 <__swrite>:
  121814:	2880030b 	ldhu	r2,12(r5)
  121818:	defffb04 	addi	sp,sp,-20
  12181c:	dcc00315 	stw	r19,12(sp)
  121820:	dc800215 	stw	r18,8(sp)
  121824:	dc400115 	stw	r17,4(sp)
  121828:	dc000015 	stw	r16,0(sp)
  12182c:	dfc00415 	stw	ra,16(sp)
  121830:	10c0400c 	andi	r3,r2,256
  121834:	2821883a 	mov	r16,r5
  121838:	2023883a 	mov	r17,r4
  12183c:	3025883a 	mov	r18,r6
  121840:	3827883a 	mov	r19,r7
  121844:	18000526 	beq	r3,zero,12185c <__swrite+0x48>
  121848:	2940038f 	ldh	r5,14(r5)
  12184c:	01c00084 	movi	r7,2
  121850:	000d883a 	mov	r6,zero
  121854:	01278a80 	call	1278a8 <_lseek_r>
  121858:	8080030b 	ldhu	r2,12(r16)
  12185c:	8140038f 	ldh	r5,14(r16)
  121860:	10bbffcc 	andi	r2,r2,61439
  121864:	980f883a 	mov	r7,r19
  121868:	900d883a 	mov	r6,r18
  12186c:	8809883a 	mov	r4,r17
  121870:	8080030d 	sth	r2,12(r16)
  121874:	dfc00417 	ldw	ra,16(sp)
  121878:	dcc00317 	ldw	r19,12(sp)
  12187c:	dc800217 	ldw	r18,8(sp)
  121880:	dc400117 	ldw	r17,4(sp)
  121884:	dc000017 	ldw	r16,0(sp)
  121888:	dec00504 	addi	sp,sp,20
  12188c:	0125e381 	jmpi	125e38 <_write_r>

00121890 <__sseek>:
  121890:	defffe04 	addi	sp,sp,-8
  121894:	dc000015 	stw	r16,0(sp)
  121898:	2821883a 	mov	r16,r5
  12189c:	2940038f 	ldh	r5,14(r5)
  1218a0:	dfc00115 	stw	ra,4(sp)
  1218a4:	01278a80 	call	1278a8 <_lseek_r>
  1218a8:	00ffffc4 	movi	r3,-1
  1218ac:	10c00826 	beq	r2,r3,1218d0 <__sseek+0x40>
  1218b0:	80c0030b 	ldhu	r3,12(r16)
  1218b4:	80801415 	stw	r2,80(r16)
  1218b8:	18c40014 	ori	r3,r3,4096
  1218bc:	80c0030d 	sth	r3,12(r16)
  1218c0:	dfc00117 	ldw	ra,4(sp)
  1218c4:	dc000017 	ldw	r16,0(sp)
  1218c8:	dec00204 	addi	sp,sp,8
  1218cc:	f800283a 	ret
  1218d0:	80c0030b 	ldhu	r3,12(r16)
  1218d4:	18fbffcc 	andi	r3,r3,61439
  1218d8:	80c0030d 	sth	r3,12(r16)
  1218dc:	dfc00117 	ldw	ra,4(sp)
  1218e0:	dc000017 	ldw	r16,0(sp)
  1218e4:	dec00204 	addi	sp,sp,8
  1218e8:	f800283a 	ret

001218ec <__sclose>:
  1218ec:	2940038f 	ldh	r5,14(r5)
  1218f0:	0125e981 	jmpi	125e98 <_close_r>

001218f4 <strlen>:
  1218f4:	208000cc 	andi	r2,r4,3
  1218f8:	10002026 	beq	r2,zero,12197c <strlen+0x88>
  1218fc:	20800007 	ldb	r2,0(r4)
  121900:	10002026 	beq	r2,zero,121984 <strlen+0x90>
  121904:	2005883a 	mov	r2,r4
  121908:	00000206 	br	121914 <strlen+0x20>
  12190c:	10c00007 	ldb	r3,0(r2)
  121910:	18001826 	beq	r3,zero,121974 <strlen+0x80>
  121914:	10800044 	addi	r2,r2,1
  121918:	10c000cc 	andi	r3,r2,3
  12191c:	183ffb1e 	bne	r3,zero,12190c <_gp+0xfffde234>
  121920:	10c00017 	ldw	r3,0(r2)
  121924:	01ffbff4 	movhi	r7,65279
  121928:	39ffbfc4 	addi	r7,r7,-257
  12192c:	00ca303a 	nor	r5,zero,r3
  121930:	01a02074 	movhi	r6,32897
  121934:	19c7883a 	add	r3,r3,r7
  121938:	31a02004 	addi	r6,r6,-32640
  12193c:	1946703a 	and	r3,r3,r5
  121940:	1986703a 	and	r3,r3,r6
  121944:	1800091e 	bne	r3,zero,12196c <strlen+0x78>
  121948:	10800104 	addi	r2,r2,4
  12194c:	10c00017 	ldw	r3,0(r2)
  121950:	19cb883a 	add	r5,r3,r7
  121954:	00c6303a 	nor	r3,zero,r3
  121958:	28c6703a 	and	r3,r5,r3
  12195c:	1986703a 	and	r3,r3,r6
  121960:	183ff926 	beq	r3,zero,121948 <_gp+0xfffde270>
  121964:	00000106 	br	12196c <strlen+0x78>
  121968:	10800044 	addi	r2,r2,1
  12196c:	10c00007 	ldb	r3,0(r2)
  121970:	183ffd1e 	bne	r3,zero,121968 <_gp+0xfffde290>
  121974:	1105c83a 	sub	r2,r2,r4
  121978:	f800283a 	ret
  12197c:	2005883a 	mov	r2,r4
  121980:	003fe706 	br	121920 <_gp+0xfffde248>
  121984:	0005883a 	mov	r2,zero
  121988:	f800283a 	ret

0012198c <critical_factorization>:
  12198c:	02c00044 	movi	r11,1
  121990:	5811883a 	mov	r8,r11
  121994:	0013883a 	mov	r9,zero
  121998:	00bfffc4 	movi	r2,-1
  12199c:	2087883a 	add	r3,r4,r2
  1219a0:	1a0f883a 	add	r7,r3,r8
  1219a4:	4a07883a 	add	r3,r9,r8
  1219a8:	20d5883a 	add	r10,r4,r3
  1219ac:	1940102e 	bgeu	r3,r5,1219f0 <critical_factorization+0x64>
  1219b0:	52800003 	ldbu	r10,0(r10)
  1219b4:	39c00003 	ldbu	r7,0(r7)
  1219b8:	51c0042e 	bgeu	r10,r7,1219cc <critical_factorization+0x40>
  1219bc:	1897c83a 	sub	r11,r3,r2
  1219c0:	1813883a 	mov	r9,r3
  1219c4:	02000044 	movi	r8,1
  1219c8:	003ff406 	br	12199c <_gp+0xfffde2c4>
  1219cc:	51c00526 	beq	r10,r7,1219e4 <critical_factorization+0x58>
  1219d0:	02c00044 	movi	r11,1
  1219d4:	4805883a 	mov	r2,r9
  1219d8:	5811883a 	mov	r8,r11
  1219dc:	4ad3883a 	add	r9,r9,r11
  1219e0:	003fee06 	br	12199c <_gp+0xfffde2c4>
  1219e4:	42c02226 	beq	r8,r11,121a70 <critical_factorization+0xe4>
  1219e8:	42000044 	addi	r8,r8,1
  1219ec:	003feb06 	br	12199c <_gp+0xfffde2c4>
  1219f0:	03000044 	movi	r12,1
  1219f4:	32c00015 	stw	r11,0(r6)
  1219f8:	6011883a 	mov	r8,r12
  1219fc:	0013883a 	mov	r9,zero
  121a00:	02ffffc4 	movi	r11,-1
  121a04:	22c7883a 	add	r3,r4,r11
  121a08:	1a0f883a 	add	r7,r3,r8
  121a0c:	4a07883a 	add	r3,r9,r8
  121a10:	20d5883a 	add	r10,r4,r3
  121a14:	1940102e 	bgeu	r3,r5,121a58 <critical_factorization+0xcc>
  121a18:	52800003 	ldbu	r10,0(r10)
  121a1c:	39c00003 	ldbu	r7,0(r7)
  121a20:	3a80042e 	bgeu	r7,r10,121a34 <critical_factorization+0xa8>
  121a24:	1ad9c83a 	sub	r12,r3,r11
  121a28:	1813883a 	mov	r9,r3
  121a2c:	02000044 	movi	r8,1
  121a30:	003ff406 	br	121a04 <_gp+0xfffde32c>
  121a34:	51c00526 	beq	r10,r7,121a4c <critical_factorization+0xc0>
  121a38:	03000044 	movi	r12,1
  121a3c:	4817883a 	mov	r11,r9
  121a40:	6011883a 	mov	r8,r12
  121a44:	4b13883a 	add	r9,r9,r12
  121a48:	003fee06 	br	121a04 <_gp+0xfffde32c>
  121a4c:	43000c26 	beq	r8,r12,121a80 <critical_factorization+0xf4>
  121a50:	42000044 	addi	r8,r8,1
  121a54:	003feb06 	br	121a04 <_gp+0xfffde32c>
  121a58:	5ac00044 	addi	r11,r11,1
  121a5c:	10800044 	addi	r2,r2,1
  121a60:	58800236 	bltu	r11,r2,121a6c <critical_factorization+0xe0>
  121a64:	33000015 	stw	r12,0(r6)
  121a68:	5805883a 	mov	r2,r11
  121a6c:	f800283a 	ret
  121a70:	4017883a 	mov	r11,r8
  121a74:	1813883a 	mov	r9,r3
  121a78:	02000044 	movi	r8,1
  121a7c:	003fc706 	br	12199c <_gp+0xfffde2c4>
  121a80:	4019883a 	mov	r12,r8
  121a84:	1813883a 	mov	r9,r3
  121a88:	02000044 	movi	r8,1
  121a8c:	003fdd06 	br	121a04 <_gp+0xfffde32c>

00121a90 <two_way_long_needle>:
  121a90:	defef104 	addi	sp,sp,-1084
  121a94:	dc810715 	stw	r18,1052(sp)
  121a98:	dc410615 	stw	r17,1048(sp)
  121a9c:	dc810004 	addi	r18,sp,1024
  121aa0:	3023883a 	mov	r17,r6
  121aa4:	2807883a 	mov	r3,r5
  121aa8:	ddc10c15 	stw	r23,1072(sp)
  121aac:	900d883a 	mov	r6,r18
  121ab0:	202f883a 	mov	r23,r4
  121ab4:	380b883a 	mov	r5,r7
  121ab8:	8809883a 	mov	r4,r17
  121abc:	dd810b15 	stw	r22,1068(sp)
  121ac0:	dc010515 	stw	r16,1044(sp)
  121ac4:	d8c10415 	stw	r3,1040(sp)
  121ac8:	dfc10e15 	stw	ra,1080(sp)
  121acc:	df010d15 	stw	fp,1076(sp)
  121ad0:	dd410a15 	stw	r21,1064(sp)
  121ad4:	dd010915 	stw	r20,1060(sp)
  121ad8:	dcc10815 	stw	r19,1056(sp)
  121adc:	382d883a 	mov	r22,r7
  121ae0:	012198c0 	call	12198c <critical_factorization>
  121ae4:	d8c10417 	ldw	r3,1040(sp)
  121ae8:	1021883a 	mov	r16,r2
  121aec:	d805883a 	mov	r2,sp
  121af0:	15800015 	stw	r22,0(r2)
  121af4:	10800104 	addi	r2,r2,4
  121af8:	90bffd1e 	bne	r18,r2,121af0 <_gp+0xfffde418>
  121afc:	b0000b26 	beq	r22,zero,121b2c <two_way_long_needle+0x9c>
  121b00:	b17fffc4 	addi	r5,r22,-1
  121b04:	8809883a 	mov	r4,r17
  121b08:	8d8d883a 	add	r6,r17,r22
  121b0c:	20800003 	ldbu	r2,0(r4)
  121b10:	21000044 	addi	r4,r4,1
  121b14:	1085883a 	add	r2,r2,r2
  121b18:	1085883a 	add	r2,r2,r2
  121b1c:	d885883a 	add	r2,sp,r2
  121b20:	11400015 	stw	r5,0(r2)
  121b24:	297fffc4 	addi	r5,r5,-1
  121b28:	21bff81e 	bne	r4,r6,121b0c <_gp+0xfffde434>
  121b2c:	d9410017 	ldw	r5,1024(sp)
  121b30:	800d883a 	mov	r6,r16
  121b34:	8809883a 	mov	r4,r17
  121b38:	894b883a 	add	r5,r17,r5
  121b3c:	d8c10415 	stw	r3,1040(sp)
  121b40:	012841c0 	call	12841c <memcmp>
  121b44:	d8c10417 	ldw	r3,1040(sp)
  121b48:	10006a1e 	bne	r2,zero,121cf4 <two_way_long_needle+0x264>
  121b4c:	84bfffc4 	addi	r18,r16,-1
  121b50:	8c85883a 	add	r2,r17,r18
  121b54:	d8810215 	stw	r2,1032(sp)
  121b58:	00800044 	movi	r2,1
  121b5c:	813fff84 	addi	r4,r16,-2
  121b60:	1405c83a 	sub	r2,r2,r16
  121b64:	0029883a 	mov	r20,zero
  121b68:	0039883a 	mov	fp,zero
  121b6c:	b57fffc4 	addi	r21,r22,-1
  121b70:	d9010115 	stw	r4,1028(sp)
  121b74:	d8810315 	stw	r2,1036(sp)
  121b78:	00000706 	br	121b98 <two_way_long_needle+0x108>
  121b7c:	a0000326 	beq	r20,zero,121b8c <two_way_long_needle+0xfc>
  121b80:	d8c10017 	ldw	r3,1024(sp)
  121b84:	10c0012e 	bgeu	r2,r3,121b8c <two_way_long_needle+0xfc>
  121b88:	b0c5c83a 	sub	r2,r22,r3
  121b8c:	e0b9883a 	add	fp,fp,r2
  121b90:	0029883a 	mov	r20,zero
  121b94:	9807883a 	mov	r3,r19
  121b98:	e5a7883a 	add	r19,fp,r22
  121b9c:	98cdc83a 	sub	r6,r19,r3
  121ba0:	000b883a 	mov	r5,zero
  121ba4:	b8c9883a 	add	r4,r23,r3
  121ba8:	01283380 	call	128338 <memchr>
  121bac:	1000441e 	bne	r2,zero,121cc0 <two_way_long_needle+0x230>
  121bb0:	98004326 	beq	r19,zero,121cc0 <two_way_long_needle+0x230>
  121bb4:	bcc5883a 	add	r2,r23,r19
  121bb8:	10bfffc3 	ldbu	r2,-1(r2)
  121bbc:	1085883a 	add	r2,r2,r2
  121bc0:	1085883a 	add	r2,r2,r2
  121bc4:	d885883a 	add	r2,sp,r2
  121bc8:	10800017 	ldw	r2,0(r2)
  121bcc:	103feb1e 	bne	r2,zero,121b7c <_gp+0xfffde4a4>
  121bd0:	a015883a 	mov	r10,r20
  121bd4:	a400012e 	bgeu	r20,r16,121bdc <two_way_long_needle+0x14c>
  121bd8:	8015883a 	mov	r10,r16
  121bdc:	5540152e 	bgeu	r10,r21,121c34 <two_way_long_needle+0x1a4>
  121be0:	bf05883a 	add	r2,r23,fp
  121be4:	8a87883a 	add	r3,r17,r10
  121be8:	1285883a 	add	r2,r2,r10
  121bec:	18c00003 	ldbu	r3,0(r3)
  121bf0:	10800003 	ldbu	r2,0(r2)
  121bf4:	18802d1e 	bne	r3,r2,121cac <two_way_long_needle+0x21c>
  121bf8:	e1400044 	addi	r5,fp,1
  121bfc:	50800044 	addi	r2,r10,1
  121c00:	2a8b883a 	add	r5,r5,r10
  121c04:	888d883a 	add	r6,r17,r2
  121c08:	b94b883a 	add	r5,r23,r5
  121c0c:	00000706 	br	121c2c <two_way_long_needle+0x19c>
  121c10:	31000003 	ldbu	r4,0(r6)
  121c14:	28c00003 	ldbu	r3,0(r5)
  121c18:	31800044 	addi	r6,r6,1
  121c1c:	21003fcc 	andi	r4,r4,255
  121c20:	29400044 	addi	r5,r5,1
  121c24:	20c0211e 	bne	r4,r3,121cac <two_way_long_needle+0x21c>
  121c28:	10800044 	addi	r2,r2,1
  121c2c:	1015883a 	mov	r10,r2
  121c30:	157ff736 	bltu	r2,r21,121c10 <_gp+0xfffde538>
  121c34:	900d883a 	mov	r6,r18
  121c38:	a4007d2e 	bgeu	r20,r16,121e30 <two_way_long_needle+0x3a0>
  121c3c:	d9410217 	ldw	r5,1032(sp)
  121c40:	bf05883a 	add	r2,r23,fp
  121c44:	1485883a 	add	r2,r2,r18
  121c48:	28c00003 	ldbu	r3,0(r5)
  121c4c:	10800003 	ldbu	r2,0(r2)
  121c50:	1880771e 	bne	r3,r2,121e30 <two_way_long_needle+0x3a0>
  121c54:	d8c10117 	ldw	r3,1028(sp)
  121c58:	a2ffffc4 	addi	r11,r20,-1
  121c5c:	8ad7883a 	add	r11,r17,r11
  121c60:	e0cb883a 	add	r5,fp,r3
  121c64:	88c5883a 	add	r2,r17,r3
  121c68:	b94b883a 	add	r5,r23,r5
  121c6c:	00000706 	br	121c8c <two_way_long_needle+0x1fc>
  121c70:	11000003 	ldbu	r4,0(r2)
  121c74:	28c00003 	ldbu	r3,0(r5)
  121c78:	10bfffc4 	addi	r2,r2,-1
  121c7c:	21003fcc 	andi	r4,r4,255
  121c80:	297fffc4 	addi	r5,r5,-1
  121c84:	20c0031e 	bne	r4,r3,121c94 <two_way_long_needle+0x204>
  121c88:	500d883a 	mov	r6,r10
  121c8c:	32bfffc4 	addi	r10,r6,-1
  121c90:	58bff71e 	bne	r11,r2,121c70 <_gp+0xfffde598>
  121c94:	a2400044 	addi	r9,r20,1
  121c98:	32406736 	bltu	r6,r9,121e38 <two_way_long_needle+0x3a8>
  121c9c:	da410017 	ldw	r9,1024(sp)
  121ca0:	e279883a 	add	fp,fp,r9
  121ca4:	b269c83a 	sub	r20,r22,r9
  121ca8:	003fba06 	br	121b94 <_gp+0xfffde4bc>
  121cac:	d8c10317 	ldw	r3,1036(sp)
  121cb0:	0029883a 	mov	r20,zero
  121cb4:	1f39883a 	add	fp,r3,fp
  121cb8:	e2b9883a 	add	fp,fp,r10
  121cbc:	003fb506 	br	121b94 <_gp+0xfffde4bc>
  121cc0:	0005883a 	mov	r2,zero
  121cc4:	dfc10e17 	ldw	ra,1080(sp)
  121cc8:	df010d17 	ldw	fp,1076(sp)
  121ccc:	ddc10c17 	ldw	r23,1072(sp)
  121cd0:	dd810b17 	ldw	r22,1068(sp)
  121cd4:	dd410a17 	ldw	r21,1064(sp)
  121cd8:	dd010917 	ldw	r20,1060(sp)
  121cdc:	dcc10817 	ldw	r19,1056(sp)
  121ce0:	dc810717 	ldw	r18,1052(sp)
  121ce4:	dc410617 	ldw	r17,1048(sp)
  121ce8:	dc010517 	ldw	r16,1044(sp)
  121cec:	dec10f04 	addi	sp,sp,1084
  121cf0:	f800283a 	ret
  121cf4:	b405c83a 	sub	r2,r22,r16
  121cf8:	14004b36 	bltu	r2,r16,121e28 <two_way_long_needle+0x398>
  121cfc:	10800044 	addi	r2,r2,1
  121d00:	84bfffc4 	addi	r18,r16,-1
  121d04:	d8810015 	stw	r2,1024(sp)
  121d08:	00800044 	movi	r2,1
  121d0c:	8c89883a 	add	r4,r17,r18
  121d10:	817fff84 	addi	r5,r16,-2
  121d14:	1405c83a 	sub	r2,r2,r16
  121d18:	0029883a 	mov	r20,zero
  121d1c:	b73fffc4 	addi	fp,r22,-1
  121d20:	d9010215 	stw	r4,1032(sp)
  121d24:	d9410115 	stw	r5,1028(sp)
  121d28:	8d7fffc4 	addi	r21,r17,-1
  121d2c:	d8810315 	stw	r2,1036(sp)
  121d30:	a5a7883a 	add	r19,r20,r22
  121d34:	98cdc83a 	sub	r6,r19,r3
  121d38:	000b883a 	mov	r5,zero
  121d3c:	b8c9883a 	add	r4,r23,r3
  121d40:	01283380 	call	128338 <memchr>
  121d44:	103fde1e 	bne	r2,zero,121cc0 <_gp+0xfffde5e8>
  121d48:	983fdd26 	beq	r19,zero,121cc0 <_gp+0xfffde5e8>
  121d4c:	bcc5883a 	add	r2,r23,r19
  121d50:	10bfffc3 	ldbu	r2,-1(r2)
  121d54:	1085883a 	add	r2,r2,r2
  121d58:	1085883a 	add	r2,r2,r2
  121d5c:	d885883a 	add	r2,sp,r2
  121d60:	10800017 	ldw	r2,0(r2)
  121d64:	1000291e 	bne	r2,zero,121e0c <two_way_long_needle+0x37c>
  121d68:	bd05883a 	add	r2,r23,r20
  121d6c:	8700142e 	bgeu	r16,fp,121dc0 <two_way_long_needle+0x330>
  121d70:	8c07883a 	add	r3,r17,r16
  121d74:	140b883a 	add	r5,r2,r16
  121d78:	19000003 	ldbu	r4,0(r3)
  121d7c:	28c00003 	ldbu	r3,0(r5)
  121d80:	800d883a 	mov	r6,r16
  121d84:	20c0241e 	bne	r4,r3,121e18 <two_way_long_needle+0x388>
  121d88:	81400044 	addi	r5,r16,1
  121d8c:	a155883a 	add	r10,r20,r5
  121d90:	ba95883a 	add	r10,r23,r10
  121d94:	894b883a 	add	r5,r17,r5
  121d98:	800d883a 	mov	r6,r16
  121d9c:	00000606 	br	121db8 <two_way_long_needle+0x328>
  121da0:	29000003 	ldbu	r4,0(r5)
  121da4:	50c00003 	ldbu	r3,0(r10)
  121da8:	29400044 	addi	r5,r5,1
  121dac:	21003fcc 	andi	r4,r4,255
  121db0:	52800044 	addi	r10,r10,1
  121db4:	20c0181e 	bne	r4,r3,121e18 <two_way_long_needle+0x388>
  121db8:	31800044 	addi	r6,r6,1
  121dbc:	373ff836 	bltu	r6,fp,121da0 <_gp+0xfffde6c8>
  121dc0:	00ffffc4 	movi	r3,-1
  121dc4:	90ffbf26 	beq	r18,r3,121cc4 <_gp+0xfffde5ec>
  121dc8:	d9410217 	ldw	r5,1032(sp)
  121dcc:	1487883a 	add	r3,r2,r18
  121dd0:	18c00003 	ldbu	r3,0(r3)
  121dd4:	29000003 	ldbu	r4,0(r5)
  121dd8:	20c00b1e 	bne	r4,r3,121e08 <two_way_long_needle+0x378>
  121ddc:	d8c10117 	ldw	r3,1028(sp)
  121de0:	a0cd883a 	add	r6,r20,r3
  121de4:	b98d883a 	add	r6,r23,r6
  121de8:	88c7883a 	add	r3,r17,r3
  121dec:	1d7fb526 	beq	r3,r21,121cc4 <_gp+0xfffde5ec>
  121df0:	19400003 	ldbu	r5,0(r3)
  121df4:	31000003 	ldbu	r4,0(r6)
  121df8:	18ffffc4 	addi	r3,r3,-1
  121dfc:	29403fcc 	andi	r5,r5,255
  121e00:	31bfffc4 	addi	r6,r6,-1
  121e04:	293ff926 	beq	r5,r4,121dec <_gp+0xfffde714>
  121e08:	d8810017 	ldw	r2,1024(sp)
  121e0c:	a0a9883a 	add	r20,r20,r2
  121e10:	9807883a 	mov	r3,r19
  121e14:	003fc606 	br	121d30 <_gp+0xfffde658>
  121e18:	d8c10317 	ldw	r3,1036(sp)
  121e1c:	1d11883a 	add	r8,r3,r20
  121e20:	41a9883a 	add	r20,r8,r6
  121e24:	003ffa06 	br	121e10 <_gp+0xfffde738>
  121e28:	8005883a 	mov	r2,r16
  121e2c:	003fb306 	br	121cfc <_gp+0xfffde624>
  121e30:	800d883a 	mov	r6,r16
  121e34:	003f9706 	br	121c94 <_gp+0xfffde5bc>
  121e38:	bf05883a 	add	r2,r23,fp
  121e3c:	003fa106 	br	121cc4 <_gp+0xfffde5ec>

00121e40 <strstr>:
  121e40:	21800007 	ldb	r6,0(r4)
  121e44:	30009226 	beq	r6,zero,122090 <strstr+0x250>
  121e48:	28c00007 	ldb	r3,0(r5)
  121e4c:	18000f26 	beq	r3,zero,121e8c <strstr+0x4c>
  121e50:	280f883a 	mov	r7,r5
  121e54:	2011883a 	mov	r8,r4
  121e58:	02400044 	movi	r9,1
  121e5c:	00000206 	br	121e68 <strstr+0x28>
  121e60:	38c00007 	ldb	r3,0(r7)
  121e64:	18000826 	beq	r3,zero,121e88 <strstr+0x48>
  121e68:	42000044 	addi	r8,r8,1
  121e6c:	1987003a 	cmpeq	r3,r3,r6
  121e70:	41800007 	ldb	r6,0(r8)
  121e74:	39c00044 	addi	r7,r7,1
  121e78:	48d2703a 	and	r9,r9,r3
  121e7c:	303ff81e 	bne	r6,zero,121e60 <_gp+0xfffde788>
  121e80:	38800007 	ldb	r2,0(r7)
  121e84:	1000841e 	bne	r2,zero,122098 <strstr+0x258>
  121e88:	48000226 	beq	r9,zero,121e94 <strstr+0x54>
  121e8c:	2005883a 	mov	r2,r4
  121e90:	f800283a 	ret
  121e94:	defff104 	addi	sp,sp,-60
  121e98:	ddc00c15 	stw	r23,48(sp)
  121e9c:	dd800b15 	stw	r22,44(sp)
  121ea0:	dd400a15 	stw	r21,40(sp)
  121ea4:	dc000515 	stw	r16,20(sp)
  121ea8:	dfc00e15 	stw	ra,56(sp)
  121eac:	df000d15 	stw	fp,52(sp)
  121eb0:	dd000915 	stw	r20,36(sp)
  121eb4:	dcc00815 	stw	r19,32(sp)
  121eb8:	dc800715 	stw	r18,28(sp)
  121ebc:	dc400615 	stw	r17,24(sp)
  121ec0:	282d883a 	mov	r22,r5
  121ec4:	29400007 	ldb	r5,0(r5)
  121ec8:	202b883a 	mov	r21,r4
  121ecc:	21000044 	addi	r4,r4,1
  121ed0:	3da1c83a 	sub	r16,r7,r22
  121ed4:	01297500 	call	129750 <strchr>
  121ed8:	102f883a 	mov	r23,r2
  121edc:	10007526 	beq	r2,zero,1220b4 <strstr+0x274>
  121ee0:	00c00044 	movi	r3,1
  121ee4:	80c00a26 	beq	r16,r3,121f10 <strstr+0xd0>
  121ee8:	ac09883a 	add	r4,r21,r16
  121eec:	20800136 	bltu	r4,r2,121ef4 <strstr+0xb4>
  121ef0:	2087c83a 	sub	r3,r4,r2
  121ef4:	008007c4 	movi	r2,31
  121ef8:	1400112e 	bgeu	r2,r16,121f40 <strstr+0x100>
  121efc:	800f883a 	mov	r7,r16
  121f00:	b00d883a 	mov	r6,r22
  121f04:	180b883a 	mov	r5,r3
  121f08:	b809883a 	mov	r4,r23
  121f0c:	0121a900 	call	121a90 <two_way_long_needle>
  121f10:	dfc00e17 	ldw	ra,56(sp)
  121f14:	df000d17 	ldw	fp,52(sp)
  121f18:	ddc00c17 	ldw	r23,48(sp)
  121f1c:	dd800b17 	ldw	r22,44(sp)
  121f20:	dd400a17 	ldw	r21,40(sp)
  121f24:	dd000917 	ldw	r20,36(sp)
  121f28:	dcc00817 	ldw	r19,32(sp)
  121f2c:	dc800717 	ldw	r18,28(sp)
  121f30:	dc400617 	ldw	r17,24(sp)
  121f34:	dc000517 	ldw	r16,20(sp)
  121f38:	dec00f04 	addi	sp,sp,60
  121f3c:	f800283a 	ret
  121f40:	d80d883a 	mov	r6,sp
  121f44:	800b883a 	mov	r5,r16
  121f48:	b009883a 	mov	r4,r22
  121f4c:	d8c00415 	stw	r3,16(sp)
  121f50:	012198c0 	call	12198c <critical_factorization>
  121f54:	d9400017 	ldw	r5,0(sp)
  121f58:	100d883a 	mov	r6,r2
  121f5c:	b009883a 	mov	r4,r22
  121f60:	b14b883a 	add	r5,r22,r5
  121f64:	1039883a 	mov	fp,r2
  121f68:	012841c0 	call	12841c <memcmp>
  121f6c:	d8c00417 	ldw	r3,16(sp)
  121f70:	1000521e 	bne	r2,zero,1220bc <strstr+0x27c>
  121f74:	e47fffc4 	addi	r17,fp,-1
  121f78:	04c00044 	movi	r19,1
  121f7c:	b445883a 	add	r2,r22,r17
  121f80:	9f27c83a 	sub	r19,r19,fp
  121f84:	0029883a 	mov	r20,zero
  121f88:	002b883a 	mov	r21,zero
  121f8c:	d8800215 	stw	r2,8(sp)
  121f90:	e4bfff84 	addi	r18,fp,-2
  121f94:	dcc00115 	stw	r19,4(sp)
  121f98:	8567883a 	add	r19,r16,r21
  121f9c:	98cdc83a 	sub	r6,r19,r3
  121fa0:	000b883a 	mov	r5,zero
  121fa4:	b8c9883a 	add	r4,r23,r3
  121fa8:	01283380 	call	128338 <memchr>
  121fac:	1000411e 	bne	r2,zero,1220b4 <strstr+0x274>
  121fb0:	98004026 	beq	r19,zero,1220b4 <strstr+0x274>
  121fb4:	e00b883a 	mov	r5,fp
  121fb8:	e500012e 	bgeu	fp,r20,121fc0 <strstr+0x180>
  121fbc:	a00b883a 	mov	r5,r20
  121fc0:	2c00152e 	bgeu	r5,r16,122018 <strstr+0x1d8>
  121fc4:	b947883a 	add	r3,r23,r5
  121fc8:	1d47883a 	add	r3,r3,r21
  121fcc:	b145883a 	add	r2,r22,r5
  121fd0:	18c00003 	ldbu	r3,0(r3)
  121fd4:	10800003 	ldbu	r2,0(r2)
  121fd8:	1880311e 	bne	r3,r2,1220a0 <strstr+0x260>
  121fdc:	a8800044 	addi	r2,r21,1
  121fe0:	28c00044 	addi	r3,r5,1
  121fe4:	1145883a 	add	r2,r2,r5
  121fe8:	b0c9883a 	add	r4,r22,r3
  121fec:	b885883a 	add	r2,r23,r2
  121ff0:	00000706 	br	122010 <strstr+0x1d0>
  121ff4:	21c00003 	ldbu	r7,0(r4)
  121ff8:	11800003 	ldbu	r6,0(r2)
  121ffc:	21000044 	addi	r4,r4,1
  122000:	39c03fcc 	andi	r7,r7,255
  122004:	10800044 	addi	r2,r2,1
  122008:	3980251e 	bne	r7,r6,1220a0 <strstr+0x260>
  12200c:	18c00044 	addi	r3,r3,1
  122010:	180b883a 	mov	r5,r3
  122014:	1c3ff736 	bltu	r3,r16,121ff4 <_gp+0xfffde91c>
  122018:	880d883a 	mov	r6,r17
  12201c:	a700702e 	bgeu	r20,fp,1221e0 <strstr+0x3a0>
  122020:	d9000217 	ldw	r4,8(sp)
  122024:	bd45883a 	add	r2,r23,r21
  122028:	1445883a 	add	r2,r2,r17
  12202c:	20c00003 	ldbu	r3,0(r4)
  122030:	10800003 	ldbu	r2,0(r2)
  122034:	18806a1e 	bne	r3,r2,1221e0 <strstr+0x3a0>
  122038:	954b883a 	add	r5,r18,r21
  12203c:	a2bfffc4 	addi	r10,r20,-1
  122040:	b485883a 	add	r2,r22,r18
  122044:	b94b883a 	add	r5,r23,r5
  122048:	b295883a 	add	r10,r22,r10
  12204c:	00000706 	br	12206c <strstr+0x22c>
  122050:	11000003 	ldbu	r4,0(r2)
  122054:	28c00003 	ldbu	r3,0(r5)
  122058:	10bfffc4 	addi	r2,r2,-1
  12205c:	21003fcc 	andi	r4,r4,255
  122060:	297fffc4 	addi	r5,r5,-1
  122064:	20c0031e 	bne	r4,r3,122074 <strstr+0x234>
  122068:	380d883a 	mov	r6,r7
  12206c:	31ffffc4 	addi	r7,r6,-1
  122070:	12bff71e 	bne	r2,r10,122050 <_gp+0xfffde978>
  122074:	a2000044 	addi	r8,r20,1
  122078:	32005b36 	bltu	r6,r8,1221e8 <strstr+0x3a8>
  12207c:	da000017 	ldw	r8,0(sp)
  122080:	aa2b883a 	add	r21,r21,r8
  122084:	8229c83a 	sub	r20,r16,r8
  122088:	9807883a 	mov	r3,r19
  12208c:	003fc206 	br	121f98 <_gp+0xfffde8c0>
  122090:	28800007 	ldb	r2,0(r5)
  122094:	103f7d26 	beq	r2,zero,121e8c <_gp+0xfffde7b4>
  122098:	0005883a 	mov	r2,zero
  12209c:	f800283a 	ret
  1220a0:	d8c00117 	ldw	r3,4(sp)
  1220a4:	0029883a 	mov	r20,zero
  1220a8:	1d6b883a 	add	r21,r3,r21
  1220ac:	a96b883a 	add	r21,r21,r5
  1220b0:	003ff506 	br	122088 <_gp+0xfffde9b0>
  1220b4:	0005883a 	mov	r2,zero
  1220b8:	003f9506 	br	121f10 <_gp+0xfffde838>
  1220bc:	8705c83a 	sub	r2,r16,fp
  1220c0:	1700012e 	bgeu	r2,fp,1220c8 <strstr+0x288>
  1220c4:	e005883a 	mov	r2,fp
  1220c8:	10800044 	addi	r2,r2,1
  1220cc:	e4bfffc4 	addi	r18,fp,-1
  1220d0:	05000044 	movi	r20,1
  1220d4:	a729c83a 	sub	r20,r20,fp
  1220d8:	d8800015 	stw	r2,0(sp)
  1220dc:	b48b883a 	add	r5,r22,r18
  1220e0:	e0bfff84 	addi	r2,fp,-2
  1220e4:	dd000215 	stw	r20,8(sp)
  1220e8:	002b883a 	mov	r21,zero
  1220ec:	e4400044 	addi	r17,fp,1
  1220f0:	d9400315 	stw	r5,12(sp)
  1220f4:	d8800115 	stw	r2,4(sp)
  1220f8:	b53fffc4 	addi	r20,r22,-1
  1220fc:	8567883a 	add	r19,r16,r21
  122100:	98cdc83a 	sub	r6,r19,r3
  122104:	000b883a 	mov	r5,zero
  122108:	b8c9883a 	add	r4,r23,r3
  12210c:	01283380 	call	128338 <memchr>
  122110:	103fe81e 	bne	r2,zero,1220b4 <_gp+0xfffde9dc>
  122114:	983fe726 	beq	r19,zero,1220b4 <_gp+0xfffde9dc>
  122118:	e400132e 	bgeu	fp,r16,122168 <strstr+0x328>
  12211c:	bf07883a 	add	r3,r23,fp
  122120:	1d47883a 	add	r3,r3,r21
  122124:	b705883a 	add	r2,r22,fp
  122128:	18c00003 	ldbu	r3,0(r3)
  12212c:	10800003 	ldbu	r2,0(r2)
  122130:	1880241e 	bne	r3,r2,1221c4 <strstr+0x384>
  122134:	ac45883a 	add	r2,r21,r17
  122138:	b44b883a 	add	r5,r22,r17
  12213c:	b885883a 	add	r2,r23,r2
  122140:	e009883a 	mov	r4,fp
  122144:	00000606 	br	122160 <strstr+0x320>
  122148:	29800003 	ldbu	r6,0(r5)
  12214c:	10c00003 	ldbu	r3,0(r2)
  122150:	29400044 	addi	r5,r5,1
  122154:	31803fcc 	andi	r6,r6,255
  122158:	10800044 	addi	r2,r2,1
  12215c:	30c01a1e 	bne	r6,r3,1221c8 <strstr+0x388>
  122160:	21000044 	addi	r4,r4,1
  122164:	243ff836 	bltu	r4,r16,122148 <_gp+0xfffdea70>
  122168:	00bfffc4 	movi	r2,-1
  12216c:	bd49883a 	add	r4,r23,r21
  122170:	90801926 	beq	r18,r2,1221d8 <strstr+0x398>
  122174:	d9400317 	ldw	r5,12(sp)
  122178:	2485883a 	add	r2,r4,r18
  12217c:	10800003 	ldbu	r2,0(r2)
  122180:	28c00003 	ldbu	r3,0(r5)
  122184:	18800b1e 	bne	r3,r2,1221b4 <strstr+0x374>
  122188:	d8c00117 	ldw	r3,4(sp)
  12218c:	a8c5883a 	add	r2,r21,r3
  122190:	b885883a 	add	r2,r23,r2
  122194:	b0c7883a 	add	r3,r22,r3
  122198:	1d000f26 	beq	r3,r20,1221d8 <strstr+0x398>
  12219c:	19800003 	ldbu	r6,0(r3)
  1221a0:	11400003 	ldbu	r5,0(r2)
  1221a4:	18ffffc4 	addi	r3,r3,-1
  1221a8:	31803fcc 	andi	r6,r6,255
  1221ac:	10bfffc4 	addi	r2,r2,-1
  1221b0:	317ff926 	beq	r6,r5,122198 <_gp+0xfffdeac0>
  1221b4:	d8800017 	ldw	r2,0(sp)
  1221b8:	a8ab883a 	add	r21,r21,r2
  1221bc:	9807883a 	mov	r3,r19
  1221c0:	003fce06 	br	1220fc <_gp+0xfffdea24>
  1221c4:	e009883a 	mov	r4,fp
  1221c8:	d8c00217 	ldw	r3,8(sp)
  1221cc:	1d4f883a 	add	r7,r3,r21
  1221d0:	392b883a 	add	r21,r7,r4
  1221d4:	003ff906 	br	1221bc <_gp+0xfffdeae4>
  1221d8:	2005883a 	mov	r2,r4
  1221dc:	003f4c06 	br	121f10 <_gp+0xfffde838>
  1221e0:	e00d883a 	mov	r6,fp
  1221e4:	003fa306 	br	122074 <_gp+0xfffde99c>
  1221e8:	bd45883a 	add	r2,r23,r21
  1221ec:	003f4806 	br	121f10 <_gp+0xfffde838>

001221f0 <___svfprintf_internal_r>:
  1221f0:	deffb704 	addi	sp,sp,-292
  1221f4:	dfc04815 	stw	ra,288(sp)
  1221f8:	ddc04615 	stw	r23,280(sp)
  1221fc:	d9402d15 	stw	r5,180(sp)
  122200:	d9003915 	stw	r4,228(sp)
  122204:	302f883a 	mov	r23,r6
  122208:	d9c02e15 	stw	r7,184(sp)
  12220c:	df004715 	stw	fp,284(sp)
  122210:	dd804515 	stw	r22,276(sp)
  122214:	dd404415 	stw	r21,272(sp)
  122218:	dd004315 	stw	r20,268(sp)
  12221c:	dcc04215 	stw	r19,264(sp)
  122220:	dc804115 	stw	r18,260(sp)
  122224:	dc404015 	stw	r17,256(sp)
  122228:	dc003f15 	stw	r16,252(sp)
  12222c:	01278780 	call	127878 <_localeconv_r>
  122230:	10800017 	ldw	r2,0(r2)
  122234:	1009883a 	mov	r4,r2
  122238:	d8803415 	stw	r2,208(sp)
  12223c:	01218f40 	call	1218f4 <strlen>
  122240:	d8c02d17 	ldw	r3,180(sp)
  122244:	d8803815 	stw	r2,224(sp)
  122248:	1880030b 	ldhu	r2,12(r3)
  12224c:	1080200c 	andi	r2,r2,128
  122250:	10000226 	beq	r2,zero,12225c <___svfprintf_internal_r+0x6c>
  122254:	18800417 	ldw	r2,16(r3)
  122258:	1006b126 	beq	r2,zero,123d20 <___svfprintf_internal_r+0x1b30>
  12225c:	dcc03917 	ldw	r19,228(sp)
  122260:	d8c00404 	addi	r3,sp,16
  122264:	05400534 	movhi	r21,20
  122268:	d9001e04 	addi	r4,sp,120
  12226c:	ad64c784 	addi	r21,r21,-27874
  122270:	d8c01e15 	stw	r3,120(sp)
  122274:	d8002015 	stw	zero,128(sp)
  122278:	d8001f15 	stw	zero,124(sp)
  12227c:	d8003315 	stw	zero,204(sp)
  122280:	d8003615 	stw	zero,216(sp)
  122284:	d8003715 	stw	zero,220(sp)
  122288:	1811883a 	mov	r8,r3
  12228c:	d8003a15 	stw	zero,232(sp)
  122290:	d8003b15 	stw	zero,236(sp)
  122294:	d8002f15 	stw	zero,188(sp)
  122298:	d9002815 	stw	r4,160(sp)
  12229c:	b8800007 	ldb	r2,0(r23)
  1222a0:	10027726 	beq	r2,zero,122c80 <___svfprintf_internal_r+0xa90>
  1222a4:	00c00944 	movi	r3,37
  1222a8:	b823883a 	mov	r17,r23
  1222ac:	10c0021e 	bne	r2,r3,1222b8 <___svfprintf_internal_r+0xc8>
  1222b0:	00001406 	br	122304 <___svfprintf_internal_r+0x114>
  1222b4:	10c00326 	beq	r2,r3,1222c4 <___svfprintf_internal_r+0xd4>
  1222b8:	8c400044 	addi	r17,r17,1
  1222bc:	88800007 	ldb	r2,0(r17)
  1222c0:	103ffc1e 	bne	r2,zero,1222b4 <_gp+0xfffdebdc>
  1222c4:	8de1c83a 	sub	r16,r17,r23
  1222c8:	80000e26 	beq	r16,zero,122304 <___svfprintf_internal_r+0x114>
  1222cc:	d8c02017 	ldw	r3,128(sp)
  1222d0:	d8801f17 	ldw	r2,124(sp)
  1222d4:	45c00015 	stw	r23,0(r8)
  1222d8:	1c07883a 	add	r3,r3,r16
  1222dc:	10800044 	addi	r2,r2,1
  1222e0:	d8c02015 	stw	r3,128(sp)
  1222e4:	44000115 	stw	r16,4(r8)
  1222e8:	d8801f15 	stw	r2,124(sp)
  1222ec:	00c001c4 	movi	r3,7
  1222f0:	18809916 	blt	r3,r2,122558 <___svfprintf_internal_r+0x368>
  1222f4:	42000204 	addi	r8,r8,8
  1222f8:	d9402f17 	ldw	r5,188(sp)
  1222fc:	2c0b883a 	add	r5,r5,r16
  122300:	d9402f15 	stw	r5,188(sp)
  122304:	88800007 	ldb	r2,0(r17)
  122308:	10009a26 	beq	r2,zero,122574 <___svfprintf_internal_r+0x384>
  12230c:	8dc00044 	addi	r23,r17,1
  122310:	8c400047 	ldb	r17,1(r17)
  122314:	0021883a 	mov	r16,zero
  122318:	00bfffc4 	movi	r2,-1
  12231c:	0025883a 	mov	r18,zero
  122320:	dc002905 	stb	r16,164(sp)
  122324:	d8002785 	stb	zero,158(sp)
  122328:	d8002b05 	stb	zero,172(sp)
  12232c:	d8802a15 	stw	r2,168(sp)
  122330:	d8003115 	stw	zero,196(sp)
  122334:	05001604 	movi	r20,88
  122338:	05800244 	movi	r22,9
  12233c:	4039883a 	mov	fp,r8
  122340:	9021883a 	mov	r16,r18
  122344:	bdc00044 	addi	r23,r23,1
  122348:	88bff804 	addi	r2,r17,-32
  12234c:	a0831e36 	bltu	r20,r2,122fc8 <___svfprintf_internal_r+0xdd8>
  122350:	100490ba 	slli	r2,r2,2
  122354:	00c004b4 	movhi	r3,18
  122358:	18c8da04 	addi	r3,r3,9064
  12235c:	10c5883a 	add	r2,r2,r3
  122360:	10800017 	ldw	r2,0(r2)
  122364:	1000683a 	jmp	r2
  122368:	00122f10 	cmplti	zero,zero,18620
  12236c:	00122fc8 	cmpgei	zero,zero,18623
  122370:	00122fc8 	cmpgei	zero,zero,18623
  122374:	00122f04 	movi	zero,18620
  122378:	00122fc8 	cmpgei	zero,zero,18623
  12237c:	00122fc8 	cmpgei	zero,zero,18623
  122380:	00122fc8 	cmpgei	zero,zero,18623
  122384:	00122fc8 	cmpgei	zero,zero,18623
  122388:	00122fc8 	cmpgei	zero,zero,18623
  12238c:	00122fc8 	cmpgei	zero,zero,18623
  122390:	001225d0 	cmplti	zero,zero,18583
  122394:	00122e14 	movui	zero,18616
  122398:	00122fc8 	cmpgei	zero,zero,18623
  12239c:	001224dc 	xori	zero,zero,18579
  1223a0:	001225f4 	movhi	zero,18583
  1223a4:	00122fc8 	cmpgei	zero,zero,18623
  1223a8:	00122680 	call	12268 <__alt_mem_onchip_flash_data-0x6dd98>
  1223ac:	00122644 	movi	zero,18585
  1223b0:	00122644 	movi	zero,18585
  1223b4:	00122644 	movi	zero,18585
  1223b8:	00122644 	movi	zero,18585
  1223bc:	00122644 	movi	zero,18585
  1223c0:	00122644 	movi	zero,18585
  1223c4:	00122644 	movi	zero,18585
  1223c8:	00122644 	movi	zero,18585
  1223cc:	00122644 	movi	zero,18585
  1223d0:	00122fc8 	cmpgei	zero,zero,18623
  1223d4:	00122fc8 	cmpgei	zero,zero,18623
  1223d8:	00122fc8 	cmpgei	zero,zero,18623
  1223dc:	00122fc8 	cmpgei	zero,zero,18623
  1223e0:	00122fc8 	cmpgei	zero,zero,18623
  1223e4:	00122fc8 	cmpgei	zero,zero,18623
  1223e8:	00122fc8 	cmpgei	zero,zero,18623
  1223ec:	00122fc8 	cmpgei	zero,zero,18623
  1223f0:	00122fc8 	cmpgei	zero,zero,18623
  1223f4:	00122fc8 	cmpgei	zero,zero,18623
  1223f8:	00122744 	movi	zero,18589
  1223fc:	0012268c 	andi	zero,zero,18586
  122400:	00122fc8 	cmpgei	zero,zero,18623
  122404:	0012268c 	andi	zero,zero,18586
  122408:	00122fc8 	cmpgei	zero,zero,18623
  12240c:	00122fc8 	cmpgei	zero,zero,18623
  122410:	00122fc8 	cmpgei	zero,zero,18623
  122414:	00122fc8 	cmpgei	zero,zero,18623
  122418:	00122738 	rdprs	zero,zero,18588
  12241c:	00122fc8 	cmpgei	zero,zero,18623
  122420:	00122fc8 	cmpgei	zero,zero,18623
  122424:	0012280c 	andi	zero,zero,18592
  122428:	00122fc8 	cmpgei	zero,zero,18623
  12242c:	00122fc8 	cmpgei	zero,zero,18623
  122430:	00122fc8 	cmpgei	zero,zero,18623
  122434:	00122fc8 	cmpgei	zero,zero,18623
  122438:	00122fc8 	cmpgei	zero,zero,18623
  12243c:	00122c88 	cmpgei	zero,zero,18610
  122440:	00122fc8 	cmpgei	zero,zero,18623
  122444:	00122fc8 	cmpgei	zero,zero,18623
  122448:	00122cf4 	movhi	zero,18611
  12244c:	00122fc8 	cmpgei	zero,zero,18623
  122450:	00122fc8 	cmpgei	zero,zero,18623
  122454:	00122fc8 	cmpgei	zero,zero,18623
  122458:	00122fc8 	cmpgei	zero,zero,18623
  12245c:	00122fc8 	cmpgei	zero,zero,18623
  122460:	00122fc8 	cmpgei	zero,zero,18623
  122464:	00122fc8 	cmpgei	zero,zero,18623
  122468:	00122fc8 	cmpgei	zero,zero,18623
  12246c:	00122fc8 	cmpgei	zero,zero,18623
  122470:	00122fc8 	cmpgei	zero,zero,18623
  122474:	00122db0 	cmpltui	zero,zero,18614
  122478:	00122f30 	cmpltui	zero,zero,18620
  12247c:	0012268c 	andi	zero,zero,18586
  122480:	0012268c 	andi	zero,zero,18586
  122484:	0012268c 	andi	zero,zero,18586
  122488:	00122fa4 	muli	zero,zero,18622
  12248c:	00122f30 	cmpltui	zero,zero,18620
  122490:	00122fc8 	cmpgei	zero,zero,18623
  122494:	00122fc8 	cmpgei	zero,zero,18623
  122498:	00122f50 	cmplti	zero,zero,18621
  12249c:	00122fc8 	cmpgei	zero,zero,18623
  1224a0:	00122f64 	muli	zero,zero,18621
  1224a4:	00122df4 	movhi	zero,18615
  1224a8:	001224e8 	cmpgeui	zero,zero,18579
  1224ac:	00122e2c 	andhi	zero,zero,18616
  1224b0:	00122fc8 	cmpgei	zero,zero,18623
  1224b4:	00122e38 	rdprs	zero,zero,18616
  1224b8:	00122fc8 	cmpgei	zero,zero,18623
  1224bc:	00122e9c 	xori	zero,zero,18618
  1224c0:	00122fc8 	cmpgei	zero,zero,18623
  1224c4:	00122fc8 	cmpgei	zero,zero,18623
  1224c8:	00122ebc 	xorhi	zero,zero,18618
  1224cc:	d8c03117 	ldw	r3,196(sp)
  1224d0:	d8802e15 	stw	r2,184(sp)
  1224d4:	00c7c83a 	sub	r3,zero,r3
  1224d8:	d8c03115 	stw	r3,196(sp)
  1224dc:	84000114 	ori	r16,r16,4
  1224e0:	bc400007 	ldb	r17,0(r23)
  1224e4:	003f9706 	br	122344 <_gp+0xfffdec6c>
  1224e8:	00800c04 	movi	r2,48
  1224ec:	d8802705 	stb	r2,156(sp)
  1224f0:	00801e04 	movi	r2,120
  1224f4:	d8802745 	stb	r2,157(sp)
  1224f8:	d9002a17 	ldw	r4,168(sp)
  1224fc:	d8802e17 	ldw	r2,184(sp)
  122500:	d8002785 	stb	zero,158(sp)
  122504:	e011883a 	mov	r8,fp
  122508:	10c00104 	addi	r3,r2,4
  12250c:	15000017 	ldw	r20,0(r2)
  122510:	002d883a 	mov	r22,zero
  122514:	80800094 	ori	r2,r16,2
  122518:	2002b616 	blt	r4,zero,122ff4 <___svfprintf_internal_r+0xe04>
  12251c:	00bfdfc4 	movi	r2,-129
  122520:	80a4703a 	and	r18,r16,r2
  122524:	d8c02e15 	stw	r3,184(sp)
  122528:	94800094 	ori	r18,r18,2
  12252c:	a002a01e 	bne	r20,zero,122fb0 <___svfprintf_internal_r+0xdc0>
  122530:	01400534 	movhi	r5,20
  122534:	2964c004 	addi	r5,r5,-27904
  122538:	d9403a15 	stw	r5,232(sp)
  12253c:	04401e04 	movi	r17,120
  122540:	d8c02a17 	ldw	r3,168(sp)
  122544:	0039883a 	mov	fp,zero
  122548:	1801e626 	beq	r3,zero,122ce4 <___svfprintf_internal_r+0xaf4>
  12254c:	0029883a 	mov	r20,zero
  122550:	002d883a 	mov	r22,zero
  122554:	00020506 	br	122d6c <___svfprintf_internal_r+0xb7c>
  122558:	d9402d17 	ldw	r5,180(sp)
  12255c:	d9801e04 	addi	r6,sp,120
  122560:	9809883a 	mov	r4,r19
  122564:	012bc1c0 	call	12bc1c <__ssprint_r>
  122568:	1000081e 	bne	r2,zero,12258c <___svfprintf_internal_r+0x39c>
  12256c:	da000404 	addi	r8,sp,16
  122570:	003f6106 	br	1222f8 <_gp+0xfffdec20>
  122574:	d8802017 	ldw	r2,128(sp)
  122578:	10000426 	beq	r2,zero,12258c <___svfprintf_internal_r+0x39c>
  12257c:	d9402d17 	ldw	r5,180(sp)
  122580:	d9003917 	ldw	r4,228(sp)
  122584:	d9801e04 	addi	r6,sp,120
  122588:	012bc1c0 	call	12bc1c <__ssprint_r>
  12258c:	d8802d17 	ldw	r2,180(sp)
  122590:	10c0030b 	ldhu	r3,12(r2)
  122594:	d8802f17 	ldw	r2,188(sp)
  122598:	18c0100c 	andi	r3,r3,64
  12259c:	1806251e 	bne	r3,zero,123e34 <___svfprintf_internal_r+0x1c44>
  1225a0:	dfc04817 	ldw	ra,288(sp)
  1225a4:	df004717 	ldw	fp,284(sp)
  1225a8:	ddc04617 	ldw	r23,280(sp)
  1225ac:	dd804517 	ldw	r22,276(sp)
  1225b0:	dd404417 	ldw	r21,272(sp)
  1225b4:	dd004317 	ldw	r20,268(sp)
  1225b8:	dcc04217 	ldw	r19,264(sp)
  1225bc:	dc804117 	ldw	r18,260(sp)
  1225c0:	dc404017 	ldw	r17,256(sp)
  1225c4:	dc003f17 	ldw	r16,252(sp)
  1225c8:	dec04904 	addi	sp,sp,292
  1225cc:	f800283a 	ret
  1225d0:	d9002e17 	ldw	r4,184(sp)
  1225d4:	d9402e17 	ldw	r5,184(sp)
  1225d8:	21000017 	ldw	r4,0(r4)
  1225dc:	28800104 	addi	r2,r5,4
  1225e0:	d9003115 	stw	r4,196(sp)
  1225e4:	203fb916 	blt	r4,zero,1224cc <_gp+0xfffdedf4>
  1225e8:	d8802e15 	stw	r2,184(sp)
  1225ec:	bc400007 	ldb	r17,0(r23)
  1225f0:	003f5406 	br	122344 <_gp+0xfffdec6c>
  1225f4:	bc400007 	ldb	r17,0(r23)
  1225f8:	01000a84 	movi	r4,42
  1225fc:	b8c00044 	addi	r3,r23,1
  122600:	89076926 	beq	r17,r4,1243a8 <___svfprintf_internal_r+0x21b8>
  122604:	8cbff404 	addi	r18,r17,-48
  122608:	b486b936 	bltu	r22,r18,1240f0 <___svfprintf_internal_r+0x1f00>
  12260c:	0009883a 	mov	r4,zero
  122610:	1823883a 	mov	r17,r3
  122614:	01400284 	movi	r5,10
  122618:	01213680 	call	121368 <__mulsi3>
  12261c:	88c00007 	ldb	r3,0(r17)
  122620:	1489883a 	add	r4,r2,r18
  122624:	8dc00044 	addi	r23,r17,1
  122628:	1cbff404 	addi	r18,r3,-48
  12262c:	b823883a 	mov	r17,r23
  122630:	b4bff82e 	bgeu	r22,r18,122614 <_gp+0xfffdef3c>
  122634:	1823883a 	mov	r17,r3
  122638:	20060416 	blt	r4,zero,123e4c <___svfprintf_internal_r+0x1c5c>
  12263c:	d9002a15 	stw	r4,168(sp)
  122640:	003f4106 	br	122348 <_gp+0xfffdec70>
  122644:	8cbff404 	addi	r18,r17,-48
  122648:	d8003115 	stw	zero,196(sp)
  12264c:	0009883a 	mov	r4,zero
  122650:	b823883a 	mov	r17,r23
  122654:	01400284 	movi	r5,10
  122658:	01213680 	call	121368 <__mulsi3>
  12265c:	88c00007 	ldb	r3,0(r17)
  122660:	9089883a 	add	r4,r18,r2
  122664:	bdc00044 	addi	r23,r23,1
  122668:	1cbff404 	addi	r18,r3,-48
  12266c:	b823883a 	mov	r17,r23
  122670:	b4bff82e 	bgeu	r22,r18,122654 <_gp+0xfffdef7c>
  122674:	1823883a 	mov	r17,r3
  122678:	d9003115 	stw	r4,196(sp)
  12267c:	003f3206 	br	122348 <_gp+0xfffdec70>
  122680:	84002014 	ori	r16,r16,128
  122684:	bc400007 	ldb	r17,0(r23)
  122688:	003f2e06 	br	122344 <_gp+0xfffdec6c>
  12268c:	8025883a 	mov	r18,r16
  122690:	dc002903 	ldbu	r16,164(sp)
  122694:	e011883a 	mov	r8,fp
  122698:	84003fcc 	andi	r16,r16,255
  12269c:	8007721e 	bne	r16,zero,124468 <___svfprintf_internal_r+0x2278>
  1226a0:	9080020c 	andi	r2,r18,8
  1226a4:	1004a526 	beq	r2,zero,12393c <___svfprintf_internal_r+0x174c>
  1226a8:	d9002e17 	ldw	r4,184(sp)
  1226ac:	d9402e17 	ldw	r5,184(sp)
  1226b0:	d8802e17 	ldw	r2,184(sp)
  1226b4:	21000017 	ldw	r4,0(r4)
  1226b8:	29400117 	ldw	r5,4(r5)
  1226bc:	10800204 	addi	r2,r2,8
  1226c0:	d9003615 	stw	r4,216(sp)
  1226c4:	d9403715 	stw	r5,220(sp)
  1226c8:	d8802e15 	stw	r2,184(sp)
  1226cc:	d9003617 	ldw	r4,216(sp)
  1226d0:	d9403717 	ldw	r5,220(sp)
  1226d4:	da003e15 	stw	r8,248(sp)
  1226d8:	04000044 	movi	r16,1
  1226dc:	01295b00 	call	1295b0 <__fpclassifyd>
  1226e0:	da003e17 	ldw	r8,248(sp)
  1226e4:	1404731e 	bne	r2,r16,1238b4 <___svfprintf_internal_r+0x16c4>
  1226e8:	d9003617 	ldw	r4,216(sp)
  1226ec:	d9403717 	ldw	r5,220(sp)
  1226f0:	000d883a 	mov	r6,zero
  1226f4:	000f883a 	mov	r7,zero
  1226f8:	0132c1c0 	call	132c1c <__ledf2>
  1226fc:	da003e17 	ldw	r8,248(sp)
  122700:	10061b16 	blt	r2,zero,123f70 <___svfprintf_internal_r+0x1d80>
  122704:	df002783 	ldbu	fp,158(sp)
  122708:	008011c4 	movi	r2,71
  12270c:	1445810e 	bge	r2,r17,123d14 <___svfprintf_internal_r+0x1b24>
  122710:	04000534 	movhi	r16,20
  122714:	8424b804 	addi	r16,r16,-27936
  122718:	00c000c4 	movi	r3,3
  12271c:	00bfdfc4 	movi	r2,-129
  122720:	d8c02915 	stw	r3,164(sp)
  122724:	90a4703a 	and	r18,r18,r2
  122728:	d8c02b15 	stw	r3,172(sp)
  12272c:	d8002a15 	stw	zero,168(sp)
  122730:	d8003215 	stw	zero,200(sp)
  122734:	00006c06 	br	1228e8 <___svfprintf_internal_r+0x6f8>
  122738:	84000214 	ori	r16,r16,8
  12273c:	bc400007 	ldb	r17,0(r23)
  122740:	003f0006 	br	122344 <_gp+0xfffdec6c>
  122744:	8025883a 	mov	r18,r16
  122748:	dc002903 	ldbu	r16,164(sp)
  12274c:	e011883a 	mov	r8,fp
  122750:	84003fcc 	andi	r16,r16,255
  122754:	80073f1e 	bne	r16,zero,124454 <___svfprintf_internal_r+0x2264>
  122758:	94800414 	ori	r18,r18,16
  12275c:	9080080c 	andi	r2,r18,32
  122760:	1003bb26 	beq	r2,zero,123650 <___svfprintf_internal_r+0x1460>
  122764:	d9002e17 	ldw	r4,184(sp)
  122768:	20800117 	ldw	r2,4(r4)
  12276c:	25000017 	ldw	r20,0(r4)
  122770:	21000204 	addi	r4,r4,8
  122774:	d9002e15 	stw	r4,184(sp)
  122778:	102d883a 	mov	r22,r2
  12277c:	1003bd16 	blt	r2,zero,123674 <___svfprintf_internal_r+0x1484>
  122780:	d9002a17 	ldw	r4,168(sp)
  122784:	df002783 	ldbu	fp,158(sp)
  122788:	2003d016 	blt	r4,zero,1236cc <___svfprintf_internal_r+0x14dc>
  12278c:	00ffdfc4 	movi	r3,-129
  122790:	a584b03a 	or	r2,r20,r22
  122794:	90e4703a 	and	r18,r18,r3
  122798:	10015026 	beq	r2,zero,122cdc <___svfprintf_internal_r+0xaec>
  12279c:	b0037026 	beq	r22,zero,123560 <___svfprintf_internal_r+0x1370>
  1227a0:	dc402915 	stw	r17,164(sp)
  1227a4:	dc001e04 	addi	r16,sp,120
  1227a8:	b023883a 	mov	r17,r22
  1227ac:	402d883a 	mov	r22,r8
  1227b0:	a009883a 	mov	r4,r20
  1227b4:	880b883a 	mov	r5,r17
  1227b8:	01800284 	movi	r6,10
  1227bc:	000f883a 	mov	r7,zero
  1227c0:	013107c0 	call	13107c <__umoddi3>
  1227c4:	10800c04 	addi	r2,r2,48
  1227c8:	843fffc4 	addi	r16,r16,-1
  1227cc:	a009883a 	mov	r4,r20
  1227d0:	880b883a 	mov	r5,r17
  1227d4:	80800005 	stb	r2,0(r16)
  1227d8:	01800284 	movi	r6,10
  1227dc:	000f883a 	mov	r7,zero
  1227e0:	0130a800 	call	130a80 <__udivdi3>
  1227e4:	1029883a 	mov	r20,r2
  1227e8:	10c4b03a 	or	r2,r2,r3
  1227ec:	1823883a 	mov	r17,r3
  1227f0:	103fef1e 	bne	r2,zero,1227b0 <_gp+0xfffdf0d8>
  1227f4:	d8c02817 	ldw	r3,160(sp)
  1227f8:	dc402917 	ldw	r17,164(sp)
  1227fc:	b011883a 	mov	r8,r22
  122800:	1c07c83a 	sub	r3,r3,r16
  122804:	d8c02b15 	stw	r3,172(sp)
  122808:	00003106 	br	1228d0 <___svfprintf_internal_r+0x6e0>
  12280c:	8025883a 	mov	r18,r16
  122810:	dc002903 	ldbu	r16,164(sp)
  122814:	e011883a 	mov	r8,fp
  122818:	84003fcc 	andi	r16,r16,255
  12281c:	80070a1e 	bne	r16,zero,124448 <___svfprintf_internal_r+0x2258>
  122820:	94800414 	ori	r18,r18,16
  122824:	9080080c 	andi	r2,r18,32
  122828:	1002f626 	beq	r2,zero,123404 <___svfprintf_internal_r+0x1214>
  12282c:	d9002e17 	ldw	r4,184(sp)
  122830:	d9402a17 	ldw	r5,168(sp)
  122834:	d8002785 	stb	zero,158(sp)
  122838:	20800204 	addi	r2,r4,8
  12283c:	25000017 	ldw	r20,0(r4)
  122840:	25800117 	ldw	r22,4(r4)
  122844:	28043716 	blt	r5,zero,123924 <___svfprintf_internal_r+0x1734>
  122848:	013fdfc4 	movi	r4,-129
  12284c:	a586b03a 	or	r3,r20,r22
  122850:	d8802e15 	stw	r2,184(sp)
  122854:	9124703a 	and	r18,r18,r4
  122858:	1802f71e 	bne	r3,zero,123438 <___svfprintf_internal_r+0x1248>
  12285c:	d9402a17 	ldw	r5,168(sp)
  122860:	0039883a 	mov	fp,zero
  122864:	2806df26 	beq	r5,zero,1243e4 <___svfprintf_internal_r+0x21f4>
  122868:	0029883a 	mov	r20,zero
  12286c:	002d883a 	mov	r22,zero
  122870:	dc001e04 	addi	r16,sp,120
  122874:	a006d0fa 	srli	r3,r20,3
  122878:	b008977a 	slli	r4,r22,29
  12287c:	b02cd0fa 	srli	r22,r22,3
  122880:	a50001cc 	andi	r20,r20,7
  122884:	a0800c04 	addi	r2,r20,48
  122888:	843fffc4 	addi	r16,r16,-1
  12288c:	20e8b03a 	or	r20,r4,r3
  122890:	80800005 	stb	r2,0(r16)
  122894:	a586b03a 	or	r3,r20,r22
  122898:	183ff61e 	bne	r3,zero,122874 <_gp+0xfffdf19c>
  12289c:	90c0004c 	andi	r3,r18,1
  1228a0:	18013f26 	beq	r3,zero,122da0 <___svfprintf_internal_r+0xbb0>
  1228a4:	10803fcc 	andi	r2,r2,255
  1228a8:	1080201c 	xori	r2,r2,128
  1228ac:	10bfe004 	addi	r2,r2,-128
  1228b0:	00c00c04 	movi	r3,48
  1228b4:	10c13a26 	beq	r2,r3,122da0 <___svfprintf_internal_r+0xbb0>
  1228b8:	80ffffc5 	stb	r3,-1(r16)
  1228bc:	d8c02817 	ldw	r3,160(sp)
  1228c0:	80bfffc4 	addi	r2,r16,-1
  1228c4:	1021883a 	mov	r16,r2
  1228c8:	1887c83a 	sub	r3,r3,r2
  1228cc:	d8c02b15 	stw	r3,172(sp)
  1228d0:	d8802b17 	ldw	r2,172(sp)
  1228d4:	d9002a17 	ldw	r4,168(sp)
  1228d8:	1100010e 	bge	r2,r4,1228e0 <___svfprintf_internal_r+0x6f0>
  1228dc:	2005883a 	mov	r2,r4
  1228e0:	d8802915 	stw	r2,164(sp)
  1228e4:	d8003215 	stw	zero,200(sp)
  1228e8:	e7003fcc 	andi	fp,fp,255
  1228ec:	e700201c 	xori	fp,fp,128
  1228f0:	e73fe004 	addi	fp,fp,-128
  1228f4:	e0000326 	beq	fp,zero,122904 <___svfprintf_internal_r+0x714>
  1228f8:	d8c02917 	ldw	r3,164(sp)
  1228fc:	18c00044 	addi	r3,r3,1
  122900:	d8c02915 	stw	r3,164(sp)
  122904:	90c0008c 	andi	r3,r18,2
  122908:	d8c02c15 	stw	r3,176(sp)
  12290c:	18000326 	beq	r3,zero,12291c <___svfprintf_internal_r+0x72c>
  122910:	d8c02917 	ldw	r3,164(sp)
  122914:	18c00084 	addi	r3,r3,2
  122918:	d8c02915 	stw	r3,164(sp)
  12291c:	90c0210c 	andi	r3,r18,132
  122920:	d8c03015 	stw	r3,192(sp)
  122924:	1801c31e 	bne	r3,zero,123034 <___svfprintf_internal_r+0xe44>
  122928:	d9003117 	ldw	r4,196(sp)
  12292c:	d8c02917 	ldw	r3,164(sp)
  122930:	20e9c83a 	sub	r20,r4,r3
  122934:	0501bf0e 	bge	zero,r20,123034 <___svfprintf_internal_r+0xe44>
  122938:	02400404 	movi	r9,16
  12293c:	d8c02017 	ldw	r3,128(sp)
  122940:	d8801f17 	ldw	r2,124(sp)
  122944:	4d053d0e 	bge	r9,r20,123e3c <___svfprintf_internal_r+0x1c4c>
  122948:	01400534 	movhi	r5,20
  12294c:	2964cb84 	addi	r5,r5,-27858
  122950:	dc403c15 	stw	r17,240(sp)
  122954:	d9403515 	stw	r5,212(sp)
  122958:	a023883a 	mov	r17,r20
  12295c:	482d883a 	mov	r22,r9
  122960:	9029883a 	mov	r20,r18
  122964:	070001c4 	movi	fp,7
  122968:	8025883a 	mov	r18,r16
  12296c:	dc002d17 	ldw	r16,180(sp)
  122970:	00000306 	br	122980 <___svfprintf_internal_r+0x790>
  122974:	8c7ffc04 	addi	r17,r17,-16
  122978:	42000204 	addi	r8,r8,8
  12297c:	b440130e 	bge	r22,r17,1229cc <___svfprintf_internal_r+0x7dc>
  122980:	01000534 	movhi	r4,20
  122984:	18c00404 	addi	r3,r3,16
  122988:	10800044 	addi	r2,r2,1
  12298c:	2124cb84 	addi	r4,r4,-27858
  122990:	41000015 	stw	r4,0(r8)
  122994:	45800115 	stw	r22,4(r8)
  122998:	d8c02015 	stw	r3,128(sp)
  12299c:	d8801f15 	stw	r2,124(sp)
  1229a0:	e0bff40e 	bge	fp,r2,122974 <_gp+0xfffdf29c>
  1229a4:	d9801e04 	addi	r6,sp,120
  1229a8:	800b883a 	mov	r5,r16
  1229ac:	9809883a 	mov	r4,r19
  1229b0:	012bc1c0 	call	12bc1c <__ssprint_r>
  1229b4:	103ef51e 	bne	r2,zero,12258c <_gp+0xfffdeeb4>
  1229b8:	8c7ffc04 	addi	r17,r17,-16
  1229bc:	d8c02017 	ldw	r3,128(sp)
  1229c0:	d8801f17 	ldw	r2,124(sp)
  1229c4:	da000404 	addi	r8,sp,16
  1229c8:	b47fed16 	blt	r22,r17,122980 <_gp+0xfffdf2a8>
  1229cc:	9021883a 	mov	r16,r18
  1229d0:	a025883a 	mov	r18,r20
  1229d4:	8829883a 	mov	r20,r17
  1229d8:	dc403c17 	ldw	r17,240(sp)
  1229dc:	d9403517 	ldw	r5,212(sp)
  1229e0:	a0c7883a 	add	r3,r20,r3
  1229e4:	10800044 	addi	r2,r2,1
  1229e8:	41400015 	stw	r5,0(r8)
  1229ec:	45000115 	stw	r20,4(r8)
  1229f0:	d8c02015 	stw	r3,128(sp)
  1229f4:	d8801f15 	stw	r2,124(sp)
  1229f8:	010001c4 	movi	r4,7
  1229fc:	2082c116 	blt	r4,r2,123504 <___svfprintf_internal_r+0x1314>
  122a00:	df002787 	ldb	fp,158(sp)
  122a04:	42000204 	addi	r8,r8,8
  122a08:	e0000c26 	beq	fp,zero,122a3c <___svfprintf_internal_r+0x84c>
  122a0c:	d8801f17 	ldw	r2,124(sp)
  122a10:	d9002784 	addi	r4,sp,158
  122a14:	18c00044 	addi	r3,r3,1
  122a18:	10800044 	addi	r2,r2,1
  122a1c:	41000015 	stw	r4,0(r8)
  122a20:	01000044 	movi	r4,1
  122a24:	41000115 	stw	r4,4(r8)
  122a28:	d8c02015 	stw	r3,128(sp)
  122a2c:	d8801f15 	stw	r2,124(sp)
  122a30:	010001c4 	movi	r4,7
  122a34:	20825a16 	blt	r4,r2,1233a0 <___svfprintf_internal_r+0x11b0>
  122a38:	42000204 	addi	r8,r8,8
  122a3c:	d8802c17 	ldw	r2,176(sp)
  122a40:	10000c26 	beq	r2,zero,122a74 <___svfprintf_internal_r+0x884>
  122a44:	d8801f17 	ldw	r2,124(sp)
  122a48:	d9002704 	addi	r4,sp,156
  122a4c:	18c00084 	addi	r3,r3,2
  122a50:	10800044 	addi	r2,r2,1
  122a54:	41000015 	stw	r4,0(r8)
  122a58:	01000084 	movi	r4,2
  122a5c:	41000115 	stw	r4,4(r8)
  122a60:	d8c02015 	stw	r3,128(sp)
  122a64:	d8801f15 	stw	r2,124(sp)
  122a68:	010001c4 	movi	r4,7
  122a6c:	20825416 	blt	r4,r2,1233c0 <___svfprintf_internal_r+0x11d0>
  122a70:	42000204 	addi	r8,r8,8
  122a74:	d9003017 	ldw	r4,192(sp)
  122a78:	00802004 	movi	r2,128
  122a7c:	2081b926 	beq	r4,r2,123164 <___svfprintf_internal_r+0xf74>
  122a80:	d9402a17 	ldw	r5,168(sp)
  122a84:	d8802b17 	ldw	r2,172(sp)
  122a88:	28adc83a 	sub	r22,r5,r2
  122a8c:	05802f0e 	bge	zero,r22,122b4c <___svfprintf_internal_r+0x95c>
  122a90:	07000404 	movi	fp,16
  122a94:	d8801f17 	ldw	r2,124(sp)
  122a98:	e583e20e 	bge	fp,r22,123a24 <___svfprintf_internal_r+0x1834>
  122a9c:	01400534 	movhi	r5,20
  122aa0:	2964c784 	addi	r5,r5,-27874
  122aa4:	dc402a15 	stw	r17,168(sp)
  122aa8:	d9402c15 	stw	r5,176(sp)
  122aac:	b023883a 	mov	r17,r22
  122ab0:	050001c4 	movi	r20,7
  122ab4:	902d883a 	mov	r22,r18
  122ab8:	8025883a 	mov	r18,r16
  122abc:	dc002d17 	ldw	r16,180(sp)
  122ac0:	00000306 	br	122ad0 <___svfprintf_internal_r+0x8e0>
  122ac4:	8c7ffc04 	addi	r17,r17,-16
  122ac8:	42000204 	addi	r8,r8,8
  122acc:	e440110e 	bge	fp,r17,122b14 <___svfprintf_internal_r+0x924>
  122ad0:	18c00404 	addi	r3,r3,16
  122ad4:	10800044 	addi	r2,r2,1
  122ad8:	45400015 	stw	r21,0(r8)
  122adc:	47000115 	stw	fp,4(r8)
  122ae0:	d8c02015 	stw	r3,128(sp)
  122ae4:	d8801f15 	stw	r2,124(sp)
  122ae8:	a0bff60e 	bge	r20,r2,122ac4 <_gp+0xfffdf3ec>
  122aec:	d9801e04 	addi	r6,sp,120
  122af0:	800b883a 	mov	r5,r16
  122af4:	9809883a 	mov	r4,r19
  122af8:	012bc1c0 	call	12bc1c <__ssprint_r>
  122afc:	103ea31e 	bne	r2,zero,12258c <_gp+0xfffdeeb4>
  122b00:	8c7ffc04 	addi	r17,r17,-16
  122b04:	d8c02017 	ldw	r3,128(sp)
  122b08:	d8801f17 	ldw	r2,124(sp)
  122b0c:	da000404 	addi	r8,sp,16
  122b10:	e47fef16 	blt	fp,r17,122ad0 <_gp+0xfffdf3f8>
  122b14:	9021883a 	mov	r16,r18
  122b18:	b025883a 	mov	r18,r22
  122b1c:	882d883a 	mov	r22,r17
  122b20:	dc402a17 	ldw	r17,168(sp)
  122b24:	d9002c17 	ldw	r4,176(sp)
  122b28:	1d87883a 	add	r3,r3,r22
  122b2c:	10800044 	addi	r2,r2,1
  122b30:	41000015 	stw	r4,0(r8)
  122b34:	45800115 	stw	r22,4(r8)
  122b38:	d8c02015 	stw	r3,128(sp)
  122b3c:	d8801f15 	stw	r2,124(sp)
  122b40:	010001c4 	movi	r4,7
  122b44:	20820e16 	blt	r4,r2,123380 <___svfprintf_internal_r+0x1190>
  122b48:	42000204 	addi	r8,r8,8
  122b4c:	9080400c 	andi	r2,r18,256
  122b50:	10013a1e 	bne	r2,zero,12303c <___svfprintf_internal_r+0xe4c>
  122b54:	d9402b17 	ldw	r5,172(sp)
  122b58:	d8801f17 	ldw	r2,124(sp)
  122b5c:	44000015 	stw	r16,0(r8)
  122b60:	1947883a 	add	r3,r3,r5
  122b64:	10800044 	addi	r2,r2,1
  122b68:	41400115 	stw	r5,4(r8)
  122b6c:	d8c02015 	stw	r3,128(sp)
  122b70:	d8801f15 	stw	r2,124(sp)
  122b74:	010001c4 	movi	r4,7
  122b78:	2081f316 	blt	r4,r2,123348 <___svfprintf_internal_r+0x1158>
  122b7c:	42000204 	addi	r8,r8,8
  122b80:	9480010c 	andi	r18,r18,4
  122b84:	90003226 	beq	r18,zero,122c50 <___svfprintf_internal_r+0xa60>
  122b88:	d9403117 	ldw	r5,196(sp)
  122b8c:	d8802917 	ldw	r2,164(sp)
  122b90:	28a1c83a 	sub	r16,r5,r2
  122b94:	04002e0e 	bge	zero,r16,122c50 <___svfprintf_internal_r+0xa60>
  122b98:	04400404 	movi	r17,16
  122b9c:	d8801f17 	ldw	r2,124(sp)
  122ba0:	8c04db0e 	bge	r17,r16,123f10 <___svfprintf_internal_r+0x1d20>
  122ba4:	01400534 	movhi	r5,20
  122ba8:	2964cb84 	addi	r5,r5,-27858
  122bac:	d9403515 	stw	r5,212(sp)
  122bb0:	048001c4 	movi	r18,7
  122bb4:	dd002d17 	ldw	r20,180(sp)
  122bb8:	00000306 	br	122bc8 <___svfprintf_internal_r+0x9d8>
  122bbc:	843ffc04 	addi	r16,r16,-16
  122bc0:	42000204 	addi	r8,r8,8
  122bc4:	8c00130e 	bge	r17,r16,122c14 <___svfprintf_internal_r+0xa24>
  122bc8:	01000534 	movhi	r4,20
  122bcc:	18c00404 	addi	r3,r3,16
  122bd0:	10800044 	addi	r2,r2,1
  122bd4:	2124cb84 	addi	r4,r4,-27858
  122bd8:	41000015 	stw	r4,0(r8)
  122bdc:	44400115 	stw	r17,4(r8)
  122be0:	d8c02015 	stw	r3,128(sp)
  122be4:	d8801f15 	stw	r2,124(sp)
  122be8:	90bff40e 	bge	r18,r2,122bbc <_gp+0xfffdf4e4>
  122bec:	d9801e04 	addi	r6,sp,120
  122bf0:	a00b883a 	mov	r5,r20
  122bf4:	9809883a 	mov	r4,r19
  122bf8:	012bc1c0 	call	12bc1c <__ssprint_r>
  122bfc:	103e631e 	bne	r2,zero,12258c <_gp+0xfffdeeb4>
  122c00:	843ffc04 	addi	r16,r16,-16
  122c04:	d8c02017 	ldw	r3,128(sp)
  122c08:	d8801f17 	ldw	r2,124(sp)
  122c0c:	da000404 	addi	r8,sp,16
  122c10:	8c3fed16 	blt	r17,r16,122bc8 <_gp+0xfffdf4f0>
  122c14:	d9403517 	ldw	r5,212(sp)
  122c18:	1c07883a 	add	r3,r3,r16
  122c1c:	10800044 	addi	r2,r2,1
  122c20:	41400015 	stw	r5,0(r8)
  122c24:	44000115 	stw	r16,4(r8)
  122c28:	d8c02015 	stw	r3,128(sp)
  122c2c:	d8801f15 	stw	r2,124(sp)
  122c30:	010001c4 	movi	r4,7
  122c34:	2080060e 	bge	r4,r2,122c50 <___svfprintf_internal_r+0xa60>
  122c38:	d9402d17 	ldw	r5,180(sp)
  122c3c:	d9801e04 	addi	r6,sp,120
  122c40:	9809883a 	mov	r4,r19
  122c44:	012bc1c0 	call	12bc1c <__ssprint_r>
  122c48:	103e501e 	bne	r2,zero,12258c <_gp+0xfffdeeb4>
  122c4c:	d8c02017 	ldw	r3,128(sp)
  122c50:	d8803117 	ldw	r2,196(sp)
  122c54:	d9002917 	ldw	r4,164(sp)
  122c58:	1100010e 	bge	r2,r4,122c60 <___svfprintf_internal_r+0xa70>
  122c5c:	2005883a 	mov	r2,r4
  122c60:	d9402f17 	ldw	r5,188(sp)
  122c64:	288b883a 	add	r5,r5,r2
  122c68:	d9402f15 	stw	r5,188(sp)
  122c6c:	1801be1e 	bne	r3,zero,123368 <___svfprintf_internal_r+0x1178>
  122c70:	b8800007 	ldb	r2,0(r23)
  122c74:	d8001f15 	stw	zero,124(sp)
  122c78:	da000404 	addi	r8,sp,16
  122c7c:	103d891e 	bne	r2,zero,1222a4 <_gp+0xfffdebcc>
  122c80:	b823883a 	mov	r17,r23
  122c84:	003d9f06 	br	122304 <_gp+0xfffdec2c>
  122c88:	8025883a 	mov	r18,r16
  122c8c:	dc002903 	ldbu	r16,164(sp)
  122c90:	e011883a 	mov	r8,fp
  122c94:	84003fcc 	andi	r16,r16,255
  122c98:	8005e61e 	bne	r16,zero,124434 <___svfprintf_internal_r+0x2244>
  122c9c:	94800414 	ori	r18,r18,16
  122ca0:	9080080c 	andi	r2,r18,32
  122ca4:	10022026 	beq	r2,zero,123528 <___svfprintf_internal_r+0x1338>
  122ca8:	d9002e17 	ldw	r4,184(sp)
  122cac:	d9402a17 	ldw	r5,168(sp)
  122cb0:	d8002785 	stb	zero,158(sp)
  122cb4:	20c00204 	addi	r3,r4,8
  122cb8:	25000017 	ldw	r20,0(r4)
  122cbc:	25800117 	ldw	r22,4(r4)
  122cc0:	2803ad16 	blt	r5,zero,123b78 <___svfprintf_internal_r+0x1988>
  122cc4:	013fdfc4 	movi	r4,-129
  122cc8:	a584b03a 	or	r2,r20,r22
  122ccc:	d8c02e15 	stw	r3,184(sp)
  122cd0:	9124703a 	and	r18,r18,r4
  122cd4:	0039883a 	mov	fp,zero
  122cd8:	103eb01e 	bne	r2,zero,12279c <_gp+0xfffdf0c4>
  122cdc:	d8802a17 	ldw	r2,168(sp)
  122ce0:	1002e71e 	bne	r2,zero,123880 <___svfprintf_internal_r+0x1690>
  122ce4:	d8002a15 	stw	zero,168(sp)
  122ce8:	d8002b15 	stw	zero,172(sp)
  122cec:	dc001e04 	addi	r16,sp,120
  122cf0:	003ef706 	br	1228d0 <_gp+0xfffdf1f8>
  122cf4:	8025883a 	mov	r18,r16
  122cf8:	dc002903 	ldbu	r16,164(sp)
  122cfc:	e011883a 	mov	r8,fp
  122d00:	84003fcc 	andi	r16,r16,255
  122d04:	8005c81e 	bne	r16,zero,124428 <___svfprintf_internal_r+0x2238>
  122d08:	01000534 	movhi	r4,20
  122d0c:	2124bb04 	addi	r4,r4,-27924
  122d10:	d9003a15 	stw	r4,232(sp)
  122d14:	9080080c 	andi	r2,r18,32
  122d18:	10007226 	beq	r2,zero,122ee4 <___svfprintf_internal_r+0xcf4>
  122d1c:	d9402e17 	ldw	r5,184(sp)
  122d20:	2d000017 	ldw	r20,0(r5)
  122d24:	2d800117 	ldw	r22,4(r5)
  122d28:	29400204 	addi	r5,r5,8
  122d2c:	d9402e15 	stw	r5,184(sp)
  122d30:	9080004c 	andi	r2,r18,1
  122d34:	1001aa26 	beq	r2,zero,1233e0 <___svfprintf_internal_r+0x11f0>
  122d38:	a584b03a 	or	r2,r20,r22
  122d3c:	10032526 	beq	r2,zero,1239d4 <___svfprintf_internal_r+0x17e4>
  122d40:	d8c02a17 	ldw	r3,168(sp)
  122d44:	00800c04 	movi	r2,48
  122d48:	d8802705 	stb	r2,156(sp)
  122d4c:	dc402745 	stb	r17,157(sp)
  122d50:	d8002785 	stb	zero,158(sp)
  122d54:	90800094 	ori	r2,r18,2
  122d58:	1804a316 	blt	r3,zero,123fe8 <___svfprintf_internal_r+0x1df8>
  122d5c:	00bfdfc4 	movi	r2,-129
  122d60:	90a4703a 	and	r18,r18,r2
  122d64:	94800094 	ori	r18,r18,2
  122d68:	0039883a 	mov	fp,zero
  122d6c:	d9003a17 	ldw	r4,232(sp)
  122d70:	dc001e04 	addi	r16,sp,120
  122d74:	a08003cc 	andi	r2,r20,15
  122d78:	b006973a 	slli	r3,r22,28
  122d7c:	2085883a 	add	r2,r4,r2
  122d80:	a028d13a 	srli	r20,r20,4
  122d84:	10800003 	ldbu	r2,0(r2)
  122d88:	b02cd13a 	srli	r22,r22,4
  122d8c:	843fffc4 	addi	r16,r16,-1
  122d90:	1d28b03a 	or	r20,r3,r20
  122d94:	80800005 	stb	r2,0(r16)
  122d98:	a584b03a 	or	r2,r20,r22
  122d9c:	103ff51e 	bne	r2,zero,122d74 <_gp+0xfffdf69c>
  122da0:	d8c02817 	ldw	r3,160(sp)
  122da4:	1c07c83a 	sub	r3,r3,r16
  122da8:	d8c02b15 	stw	r3,172(sp)
  122dac:	003ec806 	br	1228d0 <_gp+0xfffdf1f8>
  122db0:	d8c02e17 	ldw	r3,184(sp)
  122db4:	d9002e17 	ldw	r4,184(sp)
  122db8:	8025883a 	mov	r18,r16
  122dbc:	18800017 	ldw	r2,0(r3)
  122dc0:	21000104 	addi	r4,r4,4
  122dc4:	00c00044 	movi	r3,1
  122dc8:	e011883a 	mov	r8,fp
  122dcc:	d8c02915 	stw	r3,164(sp)
  122dd0:	d8002785 	stb	zero,158(sp)
  122dd4:	d8801405 	stb	r2,80(sp)
  122dd8:	d9002e15 	stw	r4,184(sp)
  122ddc:	d8c02b15 	stw	r3,172(sp)
  122de0:	d8002a15 	stw	zero,168(sp)
  122de4:	d8003215 	stw	zero,200(sp)
  122de8:	dc001404 	addi	r16,sp,80
  122dec:	0039883a 	mov	fp,zero
  122df0:	003ec406 	br	122904 <_gp+0xfffdf22c>
  122df4:	8025883a 	mov	r18,r16
  122df8:	dc002903 	ldbu	r16,164(sp)
  122dfc:	e011883a 	mov	r8,fp
  122e00:	84003fcc 	andi	r16,r16,255
  122e04:	803e8726 	beq	r16,zero,122824 <_gp+0xfffdf14c>
  122e08:	d8c02b03 	ldbu	r3,172(sp)
  122e0c:	d8c02785 	stb	r3,158(sp)
  122e10:	003e8406 	br	122824 <_gp+0xfffdf14c>
  122e14:	00c00044 	movi	r3,1
  122e18:	d8c02905 	stb	r3,164(sp)
  122e1c:	00c00ac4 	movi	r3,43
  122e20:	d8c02b05 	stb	r3,172(sp)
  122e24:	bc400007 	ldb	r17,0(r23)
  122e28:	003d4606 	br	122344 <_gp+0xfffdec6c>
  122e2c:	84000814 	ori	r16,r16,32
  122e30:	bc400007 	ldb	r17,0(r23)
  122e34:	003d4306 	br	122344 <_gp+0xfffdec6c>
  122e38:	d8802e17 	ldw	r2,184(sp)
  122e3c:	8025883a 	mov	r18,r16
  122e40:	d8002785 	stb	zero,158(sp)
  122e44:	14000017 	ldw	r16,0(r2)
  122e48:	e011883a 	mov	r8,fp
  122e4c:	15000104 	addi	r20,r2,4
  122e50:	80042126 	beq	r16,zero,123ed8 <___svfprintf_internal_r+0x1ce8>
  122e54:	d8c02a17 	ldw	r3,168(sp)
  122e58:	1803ee16 	blt	r3,zero,123e14 <___svfprintf_internal_r+0x1c24>
  122e5c:	180d883a 	mov	r6,r3
  122e60:	000b883a 	mov	r5,zero
  122e64:	8009883a 	mov	r4,r16
  122e68:	df003e15 	stw	fp,248(sp)
  122e6c:	01283380 	call	128338 <memchr>
  122e70:	da003e17 	ldw	r8,248(sp)
  122e74:	10046a26 	beq	r2,zero,124020 <___svfprintf_internal_r+0x1e30>
  122e78:	1405c83a 	sub	r2,r2,r16
  122e7c:	d8802b15 	stw	r2,172(sp)
  122e80:	1003ea16 	blt	r2,zero,123e2c <___svfprintf_internal_r+0x1c3c>
  122e84:	df002783 	ldbu	fp,158(sp)
  122e88:	d8802915 	stw	r2,164(sp)
  122e8c:	dd002e15 	stw	r20,184(sp)
  122e90:	d8002a15 	stw	zero,168(sp)
  122e94:	d8003215 	stw	zero,200(sp)
  122e98:	003e9306 	br	1228e8 <_gp+0xfffdf210>
  122e9c:	8025883a 	mov	r18,r16
  122ea0:	dc002903 	ldbu	r16,164(sp)
  122ea4:	e011883a 	mov	r8,fp
  122ea8:	84003fcc 	andi	r16,r16,255
  122eac:	803f7c26 	beq	r16,zero,122ca0 <_gp+0xfffdf5c8>
  122eb0:	d8c02b03 	ldbu	r3,172(sp)
  122eb4:	d8c02785 	stb	r3,158(sp)
  122eb8:	003f7906 	br	122ca0 <_gp+0xfffdf5c8>
  122ebc:	8025883a 	mov	r18,r16
  122ec0:	dc002903 	ldbu	r16,164(sp)
  122ec4:	e011883a 	mov	r8,fp
  122ec8:	84003fcc 	andi	r16,r16,255
  122ecc:	8005741e 	bne	r16,zero,1244a0 <___svfprintf_internal_r+0x22b0>
  122ed0:	01000534 	movhi	r4,20
  122ed4:	2124c004 	addi	r4,r4,-27904
  122ed8:	d9003a15 	stw	r4,232(sp)
  122edc:	9080080c 	andi	r2,r18,32
  122ee0:	103f8e1e 	bne	r2,zero,122d1c <_gp+0xfffdf644>
  122ee4:	9080040c 	andi	r2,r18,16
  122ee8:	1002a726 	beq	r2,zero,123988 <___svfprintf_internal_r+0x1798>
  122eec:	d8802e17 	ldw	r2,184(sp)
  122ef0:	002d883a 	mov	r22,zero
  122ef4:	15000017 	ldw	r20,0(r2)
  122ef8:	10800104 	addi	r2,r2,4
  122efc:	d8802e15 	stw	r2,184(sp)
  122f00:	003f8b06 	br	122d30 <_gp+0xfffdf658>
  122f04:	84000054 	ori	r16,r16,1
  122f08:	bc400007 	ldb	r17,0(r23)
  122f0c:	003d0d06 	br	122344 <_gp+0xfffdec6c>
  122f10:	d8802b07 	ldb	r2,172(sp)
  122f14:	1002a41e 	bne	r2,zero,1239a8 <___svfprintf_internal_r+0x17b8>
  122f18:	00c00044 	movi	r3,1
  122f1c:	d8c02905 	stb	r3,164(sp)
  122f20:	00c00804 	movi	r3,32
  122f24:	d8c02b05 	stb	r3,172(sp)
  122f28:	bc400007 	ldb	r17,0(r23)
  122f2c:	003d0506 	br	122344 <_gp+0xfffdec6c>
  122f30:	8025883a 	mov	r18,r16
  122f34:	dc002903 	ldbu	r16,164(sp)
  122f38:	e011883a 	mov	r8,fp
  122f3c:	84003fcc 	andi	r16,r16,255
  122f40:	803e0626 	beq	r16,zero,12275c <_gp+0xfffdf084>
  122f44:	d8c02b03 	ldbu	r3,172(sp)
  122f48:	d8c02785 	stb	r3,158(sp)
  122f4c:	003e0306 	br	12275c <_gp+0xfffdf084>
  122f50:	bc400007 	ldb	r17,0(r23)
  122f54:	00801b04 	movi	r2,108
  122f58:	88830a26 	beq	r17,r2,123b84 <___svfprintf_internal_r+0x1994>
  122f5c:	84000414 	ori	r16,r16,16
  122f60:	003cf806 	br	122344 <_gp+0xfffdec6c>
  122f64:	8025883a 	mov	r18,r16
  122f68:	dc002903 	ldbu	r16,164(sp)
  122f6c:	e011883a 	mov	r8,fp
  122f70:	84003fcc 	andi	r16,r16,255
  122f74:	8005471e 	bne	r16,zero,124494 <___svfprintf_internal_r+0x22a4>
  122f78:	9080080c 	andi	r2,r18,32
  122f7c:	10028c26 	beq	r2,zero,1239b0 <___svfprintf_internal_r+0x17c0>
  122f80:	d9002e17 	ldw	r4,184(sp)
  122f84:	d9402f17 	ldw	r5,188(sp)
  122f88:	20800017 	ldw	r2,0(r4)
  122f8c:	2807d7fa 	srai	r3,r5,31
  122f90:	21000104 	addi	r4,r4,4
  122f94:	d9002e15 	stw	r4,184(sp)
  122f98:	11400015 	stw	r5,0(r2)
  122f9c:	10c00115 	stw	r3,4(r2)
  122fa0:	003cbe06 	br	12229c <_gp+0xfffdebc4>
  122fa4:	84001014 	ori	r16,r16,64
  122fa8:	bc400007 	ldb	r17,0(r23)
  122fac:	003ce506 	br	122344 <_gp+0xfffdec6c>
  122fb0:	01000534 	movhi	r4,20
  122fb4:	2124c004 	addi	r4,r4,-27904
  122fb8:	0039883a 	mov	fp,zero
  122fbc:	d9003a15 	stw	r4,232(sp)
  122fc0:	04401e04 	movi	r17,120
  122fc4:	003f6906 	br	122d6c <_gp+0xfffdf694>
  122fc8:	8025883a 	mov	r18,r16
  122fcc:	dc002903 	ldbu	r16,164(sp)
  122fd0:	e011883a 	mov	r8,fp
  122fd4:	84003fcc 	andi	r16,r16,255
  122fd8:	8005261e 	bne	r16,zero,124474 <___svfprintf_internal_r+0x2284>
  122fdc:	883d6526 	beq	r17,zero,122574 <_gp+0xfffdee9c>
  122fe0:	00c00044 	movi	r3,1
  122fe4:	d8c02915 	stw	r3,164(sp)
  122fe8:	dc401405 	stb	r17,80(sp)
  122fec:	d8002785 	stb	zero,158(sp)
  122ff0:	003f7a06 	br	122ddc <_gp+0xfffdf704>
  122ff4:	01000534 	movhi	r4,20
  122ff8:	2124c004 	addi	r4,r4,-27904
  122ffc:	d9003a15 	stw	r4,232(sp)
  123000:	d8c02e15 	stw	r3,184(sp)
  123004:	1025883a 	mov	r18,r2
  123008:	04401e04 	movi	r17,120
  12300c:	a584b03a 	or	r2,r20,r22
  123010:	1000fa1e 	bne	r2,zero,1233fc <___svfprintf_internal_r+0x120c>
  123014:	0039883a 	mov	fp,zero
  123018:	00800084 	movi	r2,2
  12301c:	10803fcc 	andi	r2,r2,255
  123020:	00c00044 	movi	r3,1
  123024:	10c21626 	beq	r2,r3,123880 <___svfprintf_internal_r+0x1690>
  123028:	00c00084 	movi	r3,2
  12302c:	10fe0e1e 	bne	r2,r3,122868 <_gp+0xfffdf190>
  123030:	003d4606 	br	12254c <_gp+0xfffdee74>
  123034:	d8c02017 	ldw	r3,128(sp)
  123038:	003e7306 	br	122a08 <_gp+0xfffdf330>
  12303c:	00801944 	movi	r2,101
  123040:	14407c0e 	bge	r2,r17,123234 <___svfprintf_internal_r+0x1044>
  123044:	d9003617 	ldw	r4,216(sp)
  123048:	d9403717 	ldw	r5,220(sp)
  12304c:	000d883a 	mov	r6,zero
  123050:	000f883a 	mov	r7,zero
  123054:	d8c03d15 	stw	r3,244(sp)
  123058:	da003e15 	stw	r8,248(sp)
  12305c:	0132ab80 	call	132ab8 <__eqdf2>
  123060:	d8c03d17 	ldw	r3,244(sp)
  123064:	da003e17 	ldw	r8,248(sp)
  123068:	1000f51e 	bne	r2,zero,123440 <___svfprintf_internal_r+0x1250>
  12306c:	d8801f17 	ldw	r2,124(sp)
  123070:	01000534 	movhi	r4,20
  123074:	2124c704 	addi	r4,r4,-27876
  123078:	18c00044 	addi	r3,r3,1
  12307c:	10800044 	addi	r2,r2,1
  123080:	41000015 	stw	r4,0(r8)
  123084:	01000044 	movi	r4,1
  123088:	41000115 	stw	r4,4(r8)
  12308c:	d8c02015 	stw	r3,128(sp)
  123090:	d8801f15 	stw	r2,124(sp)
  123094:	010001c4 	movi	r4,7
  123098:	20826616 	blt	r4,r2,123a34 <___svfprintf_internal_r+0x1844>
  12309c:	42000204 	addi	r8,r8,8
  1230a0:	d8802617 	ldw	r2,152(sp)
  1230a4:	d9403317 	ldw	r5,204(sp)
  1230a8:	11400216 	blt	r2,r5,1230b4 <___svfprintf_internal_r+0xec4>
  1230ac:	9080004c 	andi	r2,r18,1
  1230b0:	103eb326 	beq	r2,zero,122b80 <_gp+0xfffdf4a8>
  1230b4:	d8803817 	ldw	r2,224(sp)
  1230b8:	d9003417 	ldw	r4,208(sp)
  1230bc:	d9403817 	ldw	r5,224(sp)
  1230c0:	1887883a 	add	r3,r3,r2
  1230c4:	d8801f17 	ldw	r2,124(sp)
  1230c8:	41000015 	stw	r4,0(r8)
  1230cc:	41400115 	stw	r5,4(r8)
  1230d0:	10800044 	addi	r2,r2,1
  1230d4:	d8c02015 	stw	r3,128(sp)
  1230d8:	d8801f15 	stw	r2,124(sp)
  1230dc:	010001c4 	movi	r4,7
  1230e0:	2082af16 	blt	r4,r2,123ba0 <___svfprintf_internal_r+0x19b0>
  1230e4:	42000204 	addi	r8,r8,8
  1230e8:	d8803317 	ldw	r2,204(sp)
  1230ec:	143fffc4 	addi	r16,r2,-1
  1230f0:	043ea30e 	bge	zero,r16,122b80 <_gp+0xfffdf4a8>
  1230f4:	04400404 	movi	r17,16
  1230f8:	d8801f17 	ldw	r2,124(sp)
  1230fc:	8c00860e 	bge	r17,r16,123318 <___svfprintf_internal_r+0x1128>
  123100:	01400534 	movhi	r5,20
  123104:	2964c784 	addi	r5,r5,-27874
  123108:	d9402c15 	stw	r5,176(sp)
  12310c:	058001c4 	movi	r22,7
  123110:	dd002d17 	ldw	r20,180(sp)
  123114:	00000306 	br	123124 <___svfprintf_internal_r+0xf34>
  123118:	42000204 	addi	r8,r8,8
  12311c:	843ffc04 	addi	r16,r16,-16
  123120:	8c00800e 	bge	r17,r16,123324 <___svfprintf_internal_r+0x1134>
  123124:	18c00404 	addi	r3,r3,16
  123128:	10800044 	addi	r2,r2,1
  12312c:	45400015 	stw	r21,0(r8)
  123130:	44400115 	stw	r17,4(r8)
  123134:	d8c02015 	stw	r3,128(sp)
  123138:	d8801f15 	stw	r2,124(sp)
  12313c:	b0bff60e 	bge	r22,r2,123118 <_gp+0xfffdfa40>
  123140:	d9801e04 	addi	r6,sp,120
  123144:	a00b883a 	mov	r5,r20
  123148:	9809883a 	mov	r4,r19
  12314c:	012bc1c0 	call	12bc1c <__ssprint_r>
  123150:	103d0e1e 	bne	r2,zero,12258c <_gp+0xfffdeeb4>
  123154:	d8c02017 	ldw	r3,128(sp)
  123158:	d8801f17 	ldw	r2,124(sp)
  12315c:	da000404 	addi	r8,sp,16
  123160:	003fee06 	br	12311c <_gp+0xfffdfa44>
  123164:	d9403117 	ldw	r5,196(sp)
  123168:	d8802917 	ldw	r2,164(sp)
  12316c:	28adc83a 	sub	r22,r5,r2
  123170:	05be430e 	bge	zero,r22,122a80 <_gp+0xfffdf3a8>
  123174:	07000404 	movi	fp,16
  123178:	d8801f17 	ldw	r2,124(sp)
  12317c:	e583a20e 	bge	fp,r22,124008 <___svfprintf_internal_r+0x1e18>
  123180:	01400534 	movhi	r5,20
  123184:	2964c784 	addi	r5,r5,-27874
  123188:	dc403015 	stw	r17,192(sp)
  12318c:	d9402c15 	stw	r5,176(sp)
  123190:	b023883a 	mov	r17,r22
  123194:	050001c4 	movi	r20,7
  123198:	902d883a 	mov	r22,r18
  12319c:	8025883a 	mov	r18,r16
  1231a0:	dc002d17 	ldw	r16,180(sp)
  1231a4:	00000306 	br	1231b4 <___svfprintf_internal_r+0xfc4>
  1231a8:	8c7ffc04 	addi	r17,r17,-16
  1231ac:	42000204 	addi	r8,r8,8
  1231b0:	e440110e 	bge	fp,r17,1231f8 <___svfprintf_internal_r+0x1008>
  1231b4:	18c00404 	addi	r3,r3,16
  1231b8:	10800044 	addi	r2,r2,1
  1231bc:	45400015 	stw	r21,0(r8)
  1231c0:	47000115 	stw	fp,4(r8)
  1231c4:	d8c02015 	stw	r3,128(sp)
  1231c8:	d8801f15 	stw	r2,124(sp)
  1231cc:	a0bff60e 	bge	r20,r2,1231a8 <_gp+0xfffdfad0>
  1231d0:	d9801e04 	addi	r6,sp,120
  1231d4:	800b883a 	mov	r5,r16
  1231d8:	9809883a 	mov	r4,r19
  1231dc:	012bc1c0 	call	12bc1c <__ssprint_r>
  1231e0:	103cea1e 	bne	r2,zero,12258c <_gp+0xfffdeeb4>
  1231e4:	8c7ffc04 	addi	r17,r17,-16
  1231e8:	d8c02017 	ldw	r3,128(sp)
  1231ec:	d8801f17 	ldw	r2,124(sp)
  1231f0:	da000404 	addi	r8,sp,16
  1231f4:	e47fef16 	blt	fp,r17,1231b4 <_gp+0xfffdfadc>
  1231f8:	9021883a 	mov	r16,r18
  1231fc:	b025883a 	mov	r18,r22
  123200:	882d883a 	mov	r22,r17
  123204:	dc403017 	ldw	r17,192(sp)
  123208:	d9002c17 	ldw	r4,176(sp)
  12320c:	1d87883a 	add	r3,r3,r22
  123210:	10800044 	addi	r2,r2,1
  123214:	41000015 	stw	r4,0(r8)
  123218:	45800115 	stw	r22,4(r8)
  12321c:	d8c02015 	stw	r3,128(sp)
  123220:	d8801f15 	stw	r2,124(sp)
  123224:	010001c4 	movi	r4,7
  123228:	20819a16 	blt	r4,r2,123894 <___svfprintf_internal_r+0x16a4>
  12322c:	42000204 	addi	r8,r8,8
  123230:	003e1306 	br	122a80 <_gp+0xfffdf3a8>
  123234:	d9403317 	ldw	r5,204(sp)
  123238:	00800044 	movi	r2,1
  12323c:	18c00044 	addi	r3,r3,1
  123240:	1141710e 	bge	r2,r5,123808 <___svfprintf_internal_r+0x1618>
  123244:	dc401f17 	ldw	r17,124(sp)
  123248:	00800044 	movi	r2,1
  12324c:	40800115 	stw	r2,4(r8)
  123250:	8c400044 	addi	r17,r17,1
  123254:	44000015 	stw	r16,0(r8)
  123258:	d8c02015 	stw	r3,128(sp)
  12325c:	dc401f15 	stw	r17,124(sp)
  123260:	008001c4 	movi	r2,7
  123264:	14417416 	blt	r2,r17,123838 <___svfprintf_internal_r+0x1648>
  123268:	42000204 	addi	r8,r8,8
  12326c:	d8803817 	ldw	r2,224(sp)
  123270:	d9003417 	ldw	r4,208(sp)
  123274:	8c400044 	addi	r17,r17,1
  123278:	10c7883a 	add	r3,r2,r3
  12327c:	40800115 	stw	r2,4(r8)
  123280:	41000015 	stw	r4,0(r8)
  123284:	d8c02015 	stw	r3,128(sp)
  123288:	dc401f15 	stw	r17,124(sp)
  12328c:	008001c4 	movi	r2,7
  123290:	14417216 	blt	r2,r17,12385c <___svfprintf_internal_r+0x166c>
  123294:	45800204 	addi	r22,r8,8
  123298:	d9003617 	ldw	r4,216(sp)
  12329c:	d9403717 	ldw	r5,220(sp)
  1232a0:	000d883a 	mov	r6,zero
  1232a4:	000f883a 	mov	r7,zero
  1232a8:	d8c03d15 	stw	r3,244(sp)
  1232ac:	0132ab80 	call	132ab8 <__eqdf2>
  1232b0:	d8c03d17 	ldw	r3,244(sp)
  1232b4:	1000b326 	beq	r2,zero,123584 <___svfprintf_internal_r+0x1394>
  1232b8:	d9403317 	ldw	r5,204(sp)
  1232bc:	84000044 	addi	r16,r16,1
  1232c0:	8c400044 	addi	r17,r17,1
  1232c4:	28bfffc4 	addi	r2,r5,-1
  1232c8:	1887883a 	add	r3,r3,r2
  1232cc:	b0800115 	stw	r2,4(r22)
  1232d0:	b4000015 	stw	r16,0(r22)
  1232d4:	d8c02015 	stw	r3,128(sp)
  1232d8:	dc401f15 	stw	r17,124(sp)
  1232dc:	008001c4 	movi	r2,7
  1232e0:	1440d216 	blt	r2,r17,12362c <___svfprintf_internal_r+0x143c>
  1232e4:	b5800204 	addi	r22,r22,8
  1232e8:	d9003b17 	ldw	r4,236(sp)
  1232ec:	df0022c4 	addi	fp,sp,139
  1232f0:	8c400044 	addi	r17,r17,1
  1232f4:	20c7883a 	add	r3,r4,r3
  1232f8:	b7000015 	stw	fp,0(r22)
  1232fc:	b1000115 	stw	r4,4(r22)
  123300:	d8c02015 	stw	r3,128(sp)
  123304:	dc401f15 	stw	r17,124(sp)
  123308:	008001c4 	movi	r2,7
  12330c:	14400e16 	blt	r2,r17,123348 <___svfprintf_internal_r+0x1158>
  123310:	b2000204 	addi	r8,r22,8
  123314:	003e1a06 	br	122b80 <_gp+0xfffdf4a8>
  123318:	01000534 	movhi	r4,20
  12331c:	2124c784 	addi	r4,r4,-27874
  123320:	d9002c15 	stw	r4,176(sp)
  123324:	d9002c17 	ldw	r4,176(sp)
  123328:	1c07883a 	add	r3,r3,r16
  12332c:	44000115 	stw	r16,4(r8)
  123330:	41000015 	stw	r4,0(r8)
  123334:	10800044 	addi	r2,r2,1
  123338:	d8c02015 	stw	r3,128(sp)
  12333c:	d8801f15 	stw	r2,124(sp)
  123340:	010001c4 	movi	r4,7
  123344:	20be0d0e 	bge	r4,r2,122b7c <_gp+0xfffdf4a4>
  123348:	d9402d17 	ldw	r5,180(sp)
  12334c:	d9801e04 	addi	r6,sp,120
  123350:	9809883a 	mov	r4,r19
  123354:	012bc1c0 	call	12bc1c <__ssprint_r>
  123358:	103c8c1e 	bne	r2,zero,12258c <_gp+0xfffdeeb4>
  12335c:	d8c02017 	ldw	r3,128(sp)
  123360:	da000404 	addi	r8,sp,16
  123364:	003e0606 	br	122b80 <_gp+0xfffdf4a8>
  123368:	d9402d17 	ldw	r5,180(sp)
  12336c:	d9801e04 	addi	r6,sp,120
  123370:	9809883a 	mov	r4,r19
  123374:	012bc1c0 	call	12bc1c <__ssprint_r>
  123378:	103e3d26 	beq	r2,zero,122c70 <_gp+0xfffdf598>
  12337c:	003c8306 	br	12258c <_gp+0xfffdeeb4>
  123380:	d9402d17 	ldw	r5,180(sp)
  123384:	d9801e04 	addi	r6,sp,120
  123388:	9809883a 	mov	r4,r19
  12338c:	012bc1c0 	call	12bc1c <__ssprint_r>
  123390:	103c7e1e 	bne	r2,zero,12258c <_gp+0xfffdeeb4>
  123394:	d8c02017 	ldw	r3,128(sp)
  123398:	da000404 	addi	r8,sp,16
  12339c:	003deb06 	br	122b4c <_gp+0xfffdf474>
  1233a0:	d9402d17 	ldw	r5,180(sp)
  1233a4:	d9801e04 	addi	r6,sp,120
  1233a8:	9809883a 	mov	r4,r19
  1233ac:	012bc1c0 	call	12bc1c <__ssprint_r>
  1233b0:	103c761e 	bne	r2,zero,12258c <_gp+0xfffdeeb4>
  1233b4:	d8c02017 	ldw	r3,128(sp)
  1233b8:	da000404 	addi	r8,sp,16
  1233bc:	003d9f06 	br	122a3c <_gp+0xfffdf364>
  1233c0:	d9402d17 	ldw	r5,180(sp)
  1233c4:	d9801e04 	addi	r6,sp,120
  1233c8:	9809883a 	mov	r4,r19
  1233cc:	012bc1c0 	call	12bc1c <__ssprint_r>
  1233d0:	103c6e1e 	bne	r2,zero,12258c <_gp+0xfffdeeb4>
  1233d4:	d8c02017 	ldw	r3,128(sp)
  1233d8:	da000404 	addi	r8,sp,16
  1233dc:	003da506 	br	122a74 <_gp+0xfffdf39c>
  1233e0:	d9402a17 	ldw	r5,168(sp)
  1233e4:	d8002785 	stb	zero,158(sp)
  1233e8:	283f0816 	blt	r5,zero,12300c <_gp+0xfffdf934>
  1233ec:	00ffdfc4 	movi	r3,-129
  1233f0:	a584b03a 	or	r2,r20,r22
  1233f4:	90e4703a 	and	r18,r18,r3
  1233f8:	103c5126 	beq	r2,zero,122540 <_gp+0xfffdee68>
  1233fc:	0039883a 	mov	fp,zero
  123400:	003e5a06 	br	122d6c <_gp+0xfffdf694>
  123404:	9080040c 	andi	r2,r18,16
  123408:	10013d26 	beq	r2,zero,123900 <___svfprintf_internal_r+0x1710>
  12340c:	d8c02e17 	ldw	r3,184(sp)
  123410:	d9002a17 	ldw	r4,168(sp)
  123414:	d8002785 	stb	zero,158(sp)
  123418:	18800104 	addi	r2,r3,4
  12341c:	1d000017 	ldw	r20,0(r3)
  123420:	002d883a 	mov	r22,zero
  123424:	20013f16 	blt	r4,zero,123924 <___svfprintf_internal_r+0x1734>
  123428:	00ffdfc4 	movi	r3,-129
  12342c:	d8802e15 	stw	r2,184(sp)
  123430:	90e4703a 	and	r18,r18,r3
  123434:	a03d0926 	beq	r20,zero,12285c <_gp+0xfffdf184>
  123438:	0039883a 	mov	fp,zero
  12343c:	003d0c06 	br	122870 <_gp+0xfffdf198>
  123440:	dc402617 	ldw	r17,152(sp)
  123444:	0441830e 	bge	zero,r17,123a54 <___svfprintf_internal_r+0x1864>
  123448:	dc403217 	ldw	r17,200(sp)
  12344c:	d8803317 	ldw	r2,204(sp)
  123450:	1440010e 	bge	r2,r17,123458 <___svfprintf_internal_r+0x1268>
  123454:	1023883a 	mov	r17,r2
  123458:	04400a0e 	bge	zero,r17,123484 <___svfprintf_internal_r+0x1294>
  12345c:	d8801f17 	ldw	r2,124(sp)
  123460:	1c47883a 	add	r3,r3,r17
  123464:	44000015 	stw	r16,0(r8)
  123468:	10800044 	addi	r2,r2,1
  12346c:	44400115 	stw	r17,4(r8)
  123470:	d8c02015 	stw	r3,128(sp)
  123474:	d8801f15 	stw	r2,124(sp)
  123478:	010001c4 	movi	r4,7
  12347c:	20827516 	blt	r4,r2,123e54 <___svfprintf_internal_r+0x1c64>
  123480:	42000204 	addi	r8,r8,8
  123484:	88027b16 	blt	r17,zero,123e74 <___svfprintf_internal_r+0x1c84>
  123488:	d9003217 	ldw	r4,200(sp)
  12348c:	2463c83a 	sub	r17,r4,r17
  123490:	0440990e 	bge	zero,r17,1236f8 <___svfprintf_internal_r+0x1508>
  123494:	05800404 	movi	r22,16
  123498:	d8801f17 	ldw	r2,124(sp)
  12349c:	b441530e 	bge	r22,r17,1239ec <___svfprintf_internal_r+0x17fc>
  1234a0:	01000534 	movhi	r4,20
  1234a4:	2124c784 	addi	r4,r4,-27874
  1234a8:	d9002c15 	stw	r4,176(sp)
  1234ac:	070001c4 	movi	fp,7
  1234b0:	dd002d17 	ldw	r20,180(sp)
  1234b4:	00000306 	br	1234c4 <___svfprintf_internal_r+0x12d4>
  1234b8:	42000204 	addi	r8,r8,8
  1234bc:	8c7ffc04 	addi	r17,r17,-16
  1234c0:	b4414d0e 	bge	r22,r17,1239f8 <___svfprintf_internal_r+0x1808>
  1234c4:	18c00404 	addi	r3,r3,16
  1234c8:	10800044 	addi	r2,r2,1
  1234cc:	45400015 	stw	r21,0(r8)
  1234d0:	45800115 	stw	r22,4(r8)
  1234d4:	d8c02015 	stw	r3,128(sp)
  1234d8:	d8801f15 	stw	r2,124(sp)
  1234dc:	e0bff60e 	bge	fp,r2,1234b8 <_gp+0xfffdfde0>
  1234e0:	d9801e04 	addi	r6,sp,120
  1234e4:	a00b883a 	mov	r5,r20
  1234e8:	9809883a 	mov	r4,r19
  1234ec:	012bc1c0 	call	12bc1c <__ssprint_r>
  1234f0:	103c261e 	bne	r2,zero,12258c <_gp+0xfffdeeb4>
  1234f4:	d8c02017 	ldw	r3,128(sp)
  1234f8:	d8801f17 	ldw	r2,124(sp)
  1234fc:	da000404 	addi	r8,sp,16
  123500:	003fee06 	br	1234bc <_gp+0xfffdfde4>
  123504:	d9402d17 	ldw	r5,180(sp)
  123508:	d9801e04 	addi	r6,sp,120
  12350c:	9809883a 	mov	r4,r19
  123510:	012bc1c0 	call	12bc1c <__ssprint_r>
  123514:	103c1d1e 	bne	r2,zero,12258c <_gp+0xfffdeeb4>
  123518:	d8c02017 	ldw	r3,128(sp)
  12351c:	df002787 	ldb	fp,158(sp)
  123520:	da000404 	addi	r8,sp,16
  123524:	003d3806 	br	122a08 <_gp+0xfffdf330>
  123528:	9080040c 	andi	r2,r18,16
  12352c:	10005c26 	beq	r2,zero,1236a0 <___svfprintf_internal_r+0x14b0>
  123530:	d8c02e17 	ldw	r3,184(sp)
  123534:	d9002a17 	ldw	r4,168(sp)
  123538:	d8002785 	stb	zero,158(sp)
  12353c:	18800104 	addi	r2,r3,4
  123540:	1d000017 	ldw	r20,0(r3)
  123544:	002d883a 	mov	r22,zero
  123548:	20005e16 	blt	r4,zero,1236c4 <___svfprintf_internal_r+0x14d4>
  12354c:	00ffdfc4 	movi	r3,-129
  123550:	d8802e15 	stw	r2,184(sp)
  123554:	90e4703a 	and	r18,r18,r3
  123558:	0039883a 	mov	fp,zero
  12355c:	a03ddf26 	beq	r20,zero,122cdc <_gp+0xfffdf604>
  123560:	00800244 	movi	r2,9
  123564:	153c8e36 	bltu	r2,r20,1227a0 <_gp+0xfffdf0c8>
  123568:	a5000c04 	addi	r20,r20,48
  12356c:	dc001dc4 	addi	r16,sp,119
  123570:	dd001dc5 	stb	r20,119(sp)
  123574:	d8c02817 	ldw	r3,160(sp)
  123578:	1c07c83a 	sub	r3,r3,r16
  12357c:	d8c02b15 	stw	r3,172(sp)
  123580:	003cd306 	br	1228d0 <_gp+0xfffdf1f8>
  123584:	d8803317 	ldw	r2,204(sp)
  123588:	143fffc4 	addi	r16,r2,-1
  12358c:	043f560e 	bge	zero,r16,1232e8 <_gp+0xfffdfc10>
  123590:	07000404 	movi	fp,16
  123594:	e403530e 	bge	fp,r16,1242e4 <___svfprintf_internal_r+0x20f4>
  123598:	01400534 	movhi	r5,20
  12359c:	2964c784 	addi	r5,r5,-27874
  1235a0:	d9402c15 	stw	r5,176(sp)
  1235a4:	01c001c4 	movi	r7,7
  1235a8:	dd002d17 	ldw	r20,180(sp)
  1235ac:	00000306 	br	1235bc <___svfprintf_internal_r+0x13cc>
  1235b0:	843ffc04 	addi	r16,r16,-16
  1235b4:	b5800204 	addi	r22,r22,8
  1235b8:	e400130e 	bge	fp,r16,123608 <___svfprintf_internal_r+0x1418>
  1235bc:	18c00404 	addi	r3,r3,16
  1235c0:	8c400044 	addi	r17,r17,1
  1235c4:	b5400015 	stw	r21,0(r22)
  1235c8:	b7000115 	stw	fp,4(r22)
  1235cc:	d8c02015 	stw	r3,128(sp)
  1235d0:	dc401f15 	stw	r17,124(sp)
  1235d4:	3c7ff60e 	bge	r7,r17,1235b0 <_gp+0xfffdfed8>
  1235d8:	d9801e04 	addi	r6,sp,120
  1235dc:	a00b883a 	mov	r5,r20
  1235e0:	9809883a 	mov	r4,r19
  1235e4:	d9c03d15 	stw	r7,244(sp)
  1235e8:	012bc1c0 	call	12bc1c <__ssprint_r>
  1235ec:	d9c03d17 	ldw	r7,244(sp)
  1235f0:	103be61e 	bne	r2,zero,12258c <_gp+0xfffdeeb4>
  1235f4:	843ffc04 	addi	r16,r16,-16
  1235f8:	d8c02017 	ldw	r3,128(sp)
  1235fc:	dc401f17 	ldw	r17,124(sp)
  123600:	dd800404 	addi	r22,sp,16
  123604:	e43fed16 	blt	fp,r16,1235bc <_gp+0xfffdfee4>
  123608:	d8802c17 	ldw	r2,176(sp)
  12360c:	1c07883a 	add	r3,r3,r16
  123610:	8c400044 	addi	r17,r17,1
  123614:	b0800015 	stw	r2,0(r22)
  123618:	b4000115 	stw	r16,4(r22)
  12361c:	d8c02015 	stw	r3,128(sp)
  123620:	dc401f15 	stw	r17,124(sp)
  123624:	008001c4 	movi	r2,7
  123628:	147f2e0e 	bge	r2,r17,1232e4 <_gp+0xfffdfc0c>
  12362c:	d9402d17 	ldw	r5,180(sp)
  123630:	d9801e04 	addi	r6,sp,120
  123634:	9809883a 	mov	r4,r19
  123638:	012bc1c0 	call	12bc1c <__ssprint_r>
  12363c:	103bd31e 	bne	r2,zero,12258c <_gp+0xfffdeeb4>
  123640:	d8c02017 	ldw	r3,128(sp)
  123644:	dc401f17 	ldw	r17,124(sp)
  123648:	dd800404 	addi	r22,sp,16
  12364c:	003f2606 	br	1232e8 <_gp+0xfffdfc10>
  123650:	9080040c 	andi	r2,r18,16
  123654:	1000c326 	beq	r2,zero,123964 <___svfprintf_internal_r+0x1774>
  123658:	d9402e17 	ldw	r5,184(sp)
  12365c:	2d000017 	ldw	r20,0(r5)
  123660:	29400104 	addi	r5,r5,4
  123664:	d9402e15 	stw	r5,184(sp)
  123668:	a02dd7fa 	srai	r22,r20,31
  12366c:	b005883a 	mov	r2,r22
  123670:	103c430e 	bge	r2,zero,122780 <_gp+0xfffdf0a8>
  123674:	d9402a17 	ldw	r5,168(sp)
  123678:	0529c83a 	sub	r20,zero,r20
  12367c:	07000b44 	movi	fp,45
  123680:	a004c03a 	cmpne	r2,r20,zero
  123684:	05adc83a 	sub	r22,zero,r22
  123688:	df002785 	stb	fp,158(sp)
  12368c:	b0adc83a 	sub	r22,r22,r2
  123690:	28022e16 	blt	r5,zero,123f4c <___svfprintf_internal_r+0x1d5c>
  123694:	00bfdfc4 	movi	r2,-129
  123698:	90a4703a 	and	r18,r18,r2
  12369c:	003c3f06 	br	12279c <_gp+0xfffdf0c4>
  1236a0:	9080100c 	andi	r2,r18,64
  1236a4:	d8002785 	stb	zero,158(sp)
  1236a8:	10012526 	beq	r2,zero,123b40 <___svfprintf_internal_r+0x1950>
  1236ac:	d9402e17 	ldw	r5,184(sp)
  1236b0:	d8c02a17 	ldw	r3,168(sp)
  1236b4:	002d883a 	mov	r22,zero
  1236b8:	28800104 	addi	r2,r5,4
  1236bc:	2d00000b 	ldhu	r20,0(r5)
  1236c0:	183fa20e 	bge	r3,zero,12354c <_gp+0xfffdfe74>
  1236c4:	d8802e15 	stw	r2,184(sp)
  1236c8:	0039883a 	mov	fp,zero
  1236cc:	a584b03a 	or	r2,r20,r22
  1236d0:	103c321e 	bne	r2,zero,12279c <_gp+0xfffdf0c4>
  1236d4:	00800044 	movi	r2,1
  1236d8:	003e5006 	br	12301c <_gp+0xfffdf944>
  1236dc:	d9402d17 	ldw	r5,180(sp)
  1236e0:	d9801e04 	addi	r6,sp,120
  1236e4:	9809883a 	mov	r4,r19
  1236e8:	012bc1c0 	call	12bc1c <__ssprint_r>
  1236ec:	103ba71e 	bne	r2,zero,12258c <_gp+0xfffdeeb4>
  1236f0:	d8c02017 	ldw	r3,128(sp)
  1236f4:	da000404 	addi	r8,sp,16
  1236f8:	d9003217 	ldw	r4,200(sp)
  1236fc:	d8802617 	ldw	r2,152(sp)
  123700:	d9403317 	ldw	r5,204(sp)
  123704:	8123883a 	add	r17,r16,r4
  123708:	11400216 	blt	r2,r5,123714 <___svfprintf_internal_r+0x1524>
  12370c:	9100004c 	andi	r4,r18,1
  123710:	20000d26 	beq	r4,zero,123748 <___svfprintf_internal_r+0x1558>
  123714:	d9003817 	ldw	r4,224(sp)
  123718:	d9403417 	ldw	r5,208(sp)
  12371c:	1907883a 	add	r3,r3,r4
  123720:	d9001f17 	ldw	r4,124(sp)
  123724:	41400015 	stw	r5,0(r8)
  123728:	d9403817 	ldw	r5,224(sp)
  12372c:	21000044 	addi	r4,r4,1
  123730:	d8c02015 	stw	r3,128(sp)
  123734:	41400115 	stw	r5,4(r8)
  123738:	d9001f15 	stw	r4,124(sp)
  12373c:	014001c4 	movi	r5,7
  123740:	2901dc16 	blt	r5,r4,123eb4 <___svfprintf_internal_r+0x1cc4>
  123744:	42000204 	addi	r8,r8,8
  123748:	d9003317 	ldw	r4,204(sp)
  12374c:	8121883a 	add	r16,r16,r4
  123750:	2085c83a 	sub	r2,r4,r2
  123754:	8461c83a 	sub	r16,r16,r17
  123758:	1400010e 	bge	r2,r16,123760 <___svfprintf_internal_r+0x1570>
  12375c:	1021883a 	mov	r16,r2
  123760:	04000a0e 	bge	zero,r16,12378c <___svfprintf_internal_r+0x159c>
  123764:	d9001f17 	ldw	r4,124(sp)
  123768:	1c07883a 	add	r3,r3,r16
  12376c:	44400015 	stw	r17,0(r8)
  123770:	21000044 	addi	r4,r4,1
  123774:	44000115 	stw	r16,4(r8)
  123778:	d8c02015 	stw	r3,128(sp)
  12377c:	d9001f15 	stw	r4,124(sp)
  123780:	014001c4 	movi	r5,7
  123784:	2901e616 	blt	r5,r4,123f20 <___svfprintf_internal_r+0x1d30>
  123788:	42000204 	addi	r8,r8,8
  12378c:	8001f616 	blt	r16,zero,123f68 <___svfprintf_internal_r+0x1d78>
  123790:	1421c83a 	sub	r16,r2,r16
  123794:	043cfa0e 	bge	zero,r16,122b80 <_gp+0xfffdf4a8>
  123798:	04400404 	movi	r17,16
  12379c:	d8801f17 	ldw	r2,124(sp)
  1237a0:	8c3edd0e 	bge	r17,r16,123318 <_gp+0xfffdfc40>
  1237a4:	01400534 	movhi	r5,20
  1237a8:	2964c784 	addi	r5,r5,-27874
  1237ac:	d9402c15 	stw	r5,176(sp)
  1237b0:	058001c4 	movi	r22,7
  1237b4:	dd002d17 	ldw	r20,180(sp)
  1237b8:	00000306 	br	1237c8 <___svfprintf_internal_r+0x15d8>
  1237bc:	42000204 	addi	r8,r8,8
  1237c0:	843ffc04 	addi	r16,r16,-16
  1237c4:	8c3ed70e 	bge	r17,r16,123324 <_gp+0xfffdfc4c>
  1237c8:	18c00404 	addi	r3,r3,16
  1237cc:	10800044 	addi	r2,r2,1
  1237d0:	45400015 	stw	r21,0(r8)
  1237d4:	44400115 	stw	r17,4(r8)
  1237d8:	d8c02015 	stw	r3,128(sp)
  1237dc:	d8801f15 	stw	r2,124(sp)
  1237e0:	b0bff60e 	bge	r22,r2,1237bc <_gp+0xfffe00e4>
  1237e4:	d9801e04 	addi	r6,sp,120
  1237e8:	a00b883a 	mov	r5,r20
  1237ec:	9809883a 	mov	r4,r19
  1237f0:	012bc1c0 	call	12bc1c <__ssprint_r>
  1237f4:	103b651e 	bne	r2,zero,12258c <_gp+0xfffdeeb4>
  1237f8:	d8c02017 	ldw	r3,128(sp)
  1237fc:	d8801f17 	ldw	r2,124(sp)
  123800:	da000404 	addi	r8,sp,16
  123804:	003fee06 	br	1237c0 <_gp+0xfffe00e8>
  123808:	9088703a 	and	r4,r18,r2
  12380c:	203e8d1e 	bne	r4,zero,123244 <_gp+0xfffdfb6c>
  123810:	dc401f17 	ldw	r17,124(sp)
  123814:	40800115 	stw	r2,4(r8)
  123818:	44000015 	stw	r16,0(r8)
  12381c:	8c400044 	addi	r17,r17,1
  123820:	d8c02015 	stw	r3,128(sp)
  123824:	dc401f15 	stw	r17,124(sp)
  123828:	008001c4 	movi	r2,7
  12382c:	147f7f16 	blt	r2,r17,12362c <_gp+0xfffdff54>
  123830:	45800204 	addi	r22,r8,8
  123834:	003eac06 	br	1232e8 <_gp+0xfffdfc10>
  123838:	d9402d17 	ldw	r5,180(sp)
  12383c:	d9801e04 	addi	r6,sp,120
  123840:	9809883a 	mov	r4,r19
  123844:	012bc1c0 	call	12bc1c <__ssprint_r>
  123848:	103b501e 	bne	r2,zero,12258c <_gp+0xfffdeeb4>
  12384c:	d8c02017 	ldw	r3,128(sp)
  123850:	dc401f17 	ldw	r17,124(sp)
  123854:	da000404 	addi	r8,sp,16
  123858:	003e8406 	br	12326c <_gp+0xfffdfb94>
  12385c:	d9402d17 	ldw	r5,180(sp)
  123860:	d9801e04 	addi	r6,sp,120
  123864:	9809883a 	mov	r4,r19
  123868:	012bc1c0 	call	12bc1c <__ssprint_r>
  12386c:	103b471e 	bne	r2,zero,12258c <_gp+0xfffdeeb4>
  123870:	d8c02017 	ldw	r3,128(sp)
  123874:	dc401f17 	ldw	r17,124(sp)
  123878:	dd800404 	addi	r22,sp,16
  12387c:	003e8606 	br	123298 <_gp+0xfffdfbc0>
  123880:	0029883a 	mov	r20,zero
  123884:	a5000c04 	addi	r20,r20,48
  123888:	dc001dc4 	addi	r16,sp,119
  12388c:	dd001dc5 	stb	r20,119(sp)
  123890:	003f3806 	br	123574 <_gp+0xfffdfe9c>
  123894:	d9402d17 	ldw	r5,180(sp)
  123898:	d9801e04 	addi	r6,sp,120
  12389c:	9809883a 	mov	r4,r19
  1238a0:	012bc1c0 	call	12bc1c <__ssprint_r>
  1238a4:	103b391e 	bne	r2,zero,12258c <_gp+0xfffdeeb4>
  1238a8:	d8c02017 	ldw	r3,128(sp)
  1238ac:	da000404 	addi	r8,sp,16
  1238b0:	003c7306 	br	122a80 <_gp+0xfffdf3a8>
  1238b4:	d9003617 	ldw	r4,216(sp)
  1238b8:	d9403717 	ldw	r5,220(sp)
  1238bc:	da003e15 	stw	r8,248(sp)
  1238c0:	01295b00 	call	1295b0 <__fpclassifyd>
  1238c4:	da003e17 	ldw	r8,248(sp)
  1238c8:	1000bd1e 	bne	r2,zero,123bc0 <___svfprintf_internal_r+0x19d0>
  1238cc:	008011c4 	movi	r2,71
  1238d0:	14411e0e 	bge	r2,r17,123d4c <___svfprintf_internal_r+0x1b5c>
  1238d4:	04000534 	movhi	r16,20
  1238d8:	8424ba04 	addi	r16,r16,-27928
  1238dc:	00c000c4 	movi	r3,3
  1238e0:	00bfdfc4 	movi	r2,-129
  1238e4:	d8c02915 	stw	r3,164(sp)
  1238e8:	90a4703a 	and	r18,r18,r2
  1238ec:	df002783 	ldbu	fp,158(sp)
  1238f0:	d8c02b15 	stw	r3,172(sp)
  1238f4:	d8002a15 	stw	zero,168(sp)
  1238f8:	d8003215 	stw	zero,200(sp)
  1238fc:	003bfa06 	br	1228e8 <_gp+0xfffdf210>
  123900:	9080100c 	andi	r2,r18,64
  123904:	d8002785 	stb	zero,158(sp)
  123908:	10009426 	beq	r2,zero,123b5c <___svfprintf_internal_r+0x196c>
  12390c:	d9402e17 	ldw	r5,184(sp)
  123910:	d8c02a17 	ldw	r3,168(sp)
  123914:	002d883a 	mov	r22,zero
  123918:	28800104 	addi	r2,r5,4
  12391c:	2d00000b 	ldhu	r20,0(r5)
  123920:	183ec10e 	bge	r3,zero,123428 <_gp+0xfffdfd50>
  123924:	a586b03a 	or	r3,r20,r22
  123928:	d8802e15 	stw	r2,184(sp)
  12392c:	183ec21e 	bne	r3,zero,123438 <_gp+0xfffdfd60>
  123930:	0039883a 	mov	fp,zero
  123934:	0005883a 	mov	r2,zero
  123938:	003db806 	br	12301c <_gp+0xfffdf944>
  12393c:	d8c02e17 	ldw	r3,184(sp)
  123940:	d9002e17 	ldw	r4,184(sp)
  123944:	d9402e17 	ldw	r5,184(sp)
  123948:	18c00017 	ldw	r3,0(r3)
  12394c:	21000117 	ldw	r4,4(r4)
  123950:	29400204 	addi	r5,r5,8
  123954:	d8c03615 	stw	r3,216(sp)
  123958:	d9003715 	stw	r4,220(sp)
  12395c:	d9402e15 	stw	r5,184(sp)
  123960:	003b5a06 	br	1226cc <_gp+0xfffdeff4>
  123964:	9080100c 	andi	r2,r18,64
  123968:	10010726 	beq	r2,zero,123d88 <___svfprintf_internal_r+0x1b98>
  12396c:	d8802e17 	ldw	r2,184(sp)
  123970:	1500000f 	ldh	r20,0(r2)
  123974:	10800104 	addi	r2,r2,4
  123978:	d8802e15 	stw	r2,184(sp)
  12397c:	a02dd7fa 	srai	r22,r20,31
  123980:	b005883a 	mov	r2,r22
  123984:	003b7d06 	br	12277c <_gp+0xfffdf0a4>
  123988:	9080100c 	andi	r2,r18,64
  12398c:	10010526 	beq	r2,zero,123da4 <___svfprintf_internal_r+0x1bb4>
  123990:	d8c02e17 	ldw	r3,184(sp)
  123994:	002d883a 	mov	r22,zero
  123998:	1d00000b 	ldhu	r20,0(r3)
  12399c:	18c00104 	addi	r3,r3,4
  1239a0:	d8c02e15 	stw	r3,184(sp)
  1239a4:	003ce206 	br	122d30 <_gp+0xfffdf658>
  1239a8:	bc400007 	ldb	r17,0(r23)
  1239ac:	003a6506 	br	122344 <_gp+0xfffdec6c>
  1239b0:	9080040c 	andi	r2,r18,16
  1239b4:	10010126 	beq	r2,zero,123dbc <___svfprintf_internal_r+0x1bcc>
  1239b8:	d8c02e17 	ldw	r3,184(sp)
  1239bc:	d9002f17 	ldw	r4,188(sp)
  1239c0:	18800017 	ldw	r2,0(r3)
  1239c4:	18c00104 	addi	r3,r3,4
  1239c8:	d8c02e15 	stw	r3,184(sp)
  1239cc:	11000015 	stw	r4,0(r2)
  1239d0:	003a3206 	br	12229c <_gp+0xfffdebc4>
  1239d4:	d9002a17 	ldw	r4,168(sp)
  1239d8:	d8002785 	stb	zero,158(sp)
  1239dc:	203d8d16 	blt	r4,zero,123014 <_gp+0xfffdf93c>
  1239e0:	00bfdfc4 	movi	r2,-129
  1239e4:	90a4703a 	and	r18,r18,r2
  1239e8:	003ad506 	br	122540 <_gp+0xfffdee68>
  1239ec:	01400534 	movhi	r5,20
  1239f0:	2964c784 	addi	r5,r5,-27874
  1239f4:	d9402c15 	stw	r5,176(sp)
  1239f8:	d9402c17 	ldw	r5,176(sp)
  1239fc:	1c47883a 	add	r3,r3,r17
  123a00:	10800044 	addi	r2,r2,1
  123a04:	41400015 	stw	r5,0(r8)
  123a08:	44400115 	stw	r17,4(r8)
  123a0c:	d8c02015 	stw	r3,128(sp)
  123a10:	d8801f15 	stw	r2,124(sp)
  123a14:	010001c4 	movi	r4,7
  123a18:	20bf3016 	blt	r4,r2,1236dc <_gp+0xfffe0004>
  123a1c:	42000204 	addi	r8,r8,8
  123a20:	003f3506 	br	1236f8 <_gp+0xfffe0020>
  123a24:	01000534 	movhi	r4,20
  123a28:	2124c784 	addi	r4,r4,-27874
  123a2c:	d9002c15 	stw	r4,176(sp)
  123a30:	003c3c06 	br	122b24 <_gp+0xfffdf44c>
  123a34:	d9402d17 	ldw	r5,180(sp)
  123a38:	d9801e04 	addi	r6,sp,120
  123a3c:	9809883a 	mov	r4,r19
  123a40:	012bc1c0 	call	12bc1c <__ssprint_r>
  123a44:	103ad11e 	bne	r2,zero,12258c <_gp+0xfffdeeb4>
  123a48:	d8c02017 	ldw	r3,128(sp)
  123a4c:	da000404 	addi	r8,sp,16
  123a50:	003d9306 	br	1230a0 <_gp+0xfffdf9c8>
  123a54:	d8801f17 	ldw	r2,124(sp)
  123a58:	01400534 	movhi	r5,20
  123a5c:	01000044 	movi	r4,1
  123a60:	18c00044 	addi	r3,r3,1
  123a64:	10800044 	addi	r2,r2,1
  123a68:	2964c704 	addi	r5,r5,-27876
  123a6c:	41000115 	stw	r4,4(r8)
  123a70:	41400015 	stw	r5,0(r8)
  123a74:	d8c02015 	stw	r3,128(sp)
  123a78:	d8801f15 	stw	r2,124(sp)
  123a7c:	010001c4 	movi	r4,7
  123a80:	2080b516 	blt	r4,r2,123d58 <___svfprintf_internal_r+0x1b68>
  123a84:	42000204 	addi	r8,r8,8
  123a88:	8800041e 	bne	r17,zero,123a9c <___svfprintf_internal_r+0x18ac>
  123a8c:	d8803317 	ldw	r2,204(sp)
  123a90:	1000021e 	bne	r2,zero,123a9c <___svfprintf_internal_r+0x18ac>
  123a94:	9080004c 	andi	r2,r18,1
  123a98:	103c3926 	beq	r2,zero,122b80 <_gp+0xfffdf4a8>
  123a9c:	d9003817 	ldw	r4,224(sp)
  123aa0:	d8801f17 	ldw	r2,124(sp)
  123aa4:	d9403417 	ldw	r5,208(sp)
  123aa8:	20c7883a 	add	r3,r4,r3
  123aac:	10800044 	addi	r2,r2,1
  123ab0:	41000115 	stw	r4,4(r8)
  123ab4:	41400015 	stw	r5,0(r8)
  123ab8:	d8c02015 	stw	r3,128(sp)
  123abc:	d8801f15 	stw	r2,124(sp)
  123ac0:	010001c4 	movi	r4,7
  123ac4:	20818016 	blt	r4,r2,1240c8 <___svfprintf_internal_r+0x1ed8>
  123ac8:	42000204 	addi	r8,r8,8
  123acc:	0463c83a 	sub	r17,zero,r17
  123ad0:	0440cb0e 	bge	zero,r17,123e00 <___svfprintf_internal_r+0x1c10>
  123ad4:	05800404 	movi	r22,16
  123ad8:	b440e80e 	bge	r22,r17,123e7c <___svfprintf_internal_r+0x1c8c>
  123adc:	01400534 	movhi	r5,20
  123ae0:	2964c784 	addi	r5,r5,-27874
  123ae4:	d9402c15 	stw	r5,176(sp)
  123ae8:	070001c4 	movi	fp,7
  123aec:	dd002d17 	ldw	r20,180(sp)
  123af0:	00000306 	br	123b00 <___svfprintf_internal_r+0x1910>
  123af4:	42000204 	addi	r8,r8,8
  123af8:	8c7ffc04 	addi	r17,r17,-16
  123afc:	b440e20e 	bge	r22,r17,123e88 <___svfprintf_internal_r+0x1c98>
  123b00:	18c00404 	addi	r3,r3,16
  123b04:	10800044 	addi	r2,r2,1
  123b08:	45400015 	stw	r21,0(r8)
  123b0c:	45800115 	stw	r22,4(r8)
  123b10:	d8c02015 	stw	r3,128(sp)
  123b14:	d8801f15 	stw	r2,124(sp)
  123b18:	e0bff60e 	bge	fp,r2,123af4 <_gp+0xfffe041c>
  123b1c:	d9801e04 	addi	r6,sp,120
  123b20:	a00b883a 	mov	r5,r20
  123b24:	9809883a 	mov	r4,r19
  123b28:	012bc1c0 	call	12bc1c <__ssprint_r>
  123b2c:	103a971e 	bne	r2,zero,12258c <_gp+0xfffdeeb4>
  123b30:	d8c02017 	ldw	r3,128(sp)
  123b34:	d8801f17 	ldw	r2,124(sp)
  123b38:	da000404 	addi	r8,sp,16
  123b3c:	003fee06 	br	123af8 <_gp+0xfffe0420>
  123b40:	d9002e17 	ldw	r4,184(sp)
  123b44:	d9402a17 	ldw	r5,168(sp)
  123b48:	002d883a 	mov	r22,zero
  123b4c:	20800104 	addi	r2,r4,4
  123b50:	25000017 	ldw	r20,0(r4)
  123b54:	283e7d0e 	bge	r5,zero,12354c <_gp+0xfffdfe74>
  123b58:	003eda06 	br	1236c4 <_gp+0xfffdffec>
  123b5c:	d9002e17 	ldw	r4,184(sp)
  123b60:	d9402a17 	ldw	r5,168(sp)
  123b64:	002d883a 	mov	r22,zero
  123b68:	20800104 	addi	r2,r4,4
  123b6c:	25000017 	ldw	r20,0(r4)
  123b70:	283e2d0e 	bge	r5,zero,123428 <_gp+0xfffdfd50>
  123b74:	003f6b06 	br	123924 <_gp+0xfffe024c>
  123b78:	d8c02e15 	stw	r3,184(sp)
  123b7c:	0039883a 	mov	fp,zero
  123b80:	003ed206 	br	1236cc <_gp+0xfffdfff4>
  123b84:	bc400043 	ldbu	r17,1(r23)
  123b88:	84000814 	ori	r16,r16,32
  123b8c:	bdc00044 	addi	r23,r23,1
  123b90:	8c403fcc 	andi	r17,r17,255
  123b94:	8c40201c 	xori	r17,r17,128
  123b98:	8c7fe004 	addi	r17,r17,-128
  123b9c:	0039e906 	br	122344 <_gp+0xfffdec6c>
  123ba0:	d9402d17 	ldw	r5,180(sp)
  123ba4:	d9801e04 	addi	r6,sp,120
  123ba8:	9809883a 	mov	r4,r19
  123bac:	012bc1c0 	call	12bc1c <__ssprint_r>
  123bb0:	103a761e 	bne	r2,zero,12258c <_gp+0xfffdeeb4>
  123bb4:	d8c02017 	ldw	r3,128(sp)
  123bb8:	da000404 	addi	r8,sp,16
  123bbc:	003d4a06 	br	1230e8 <_gp+0xfffdfa10>
  123bc0:	d9002a17 	ldw	r4,168(sp)
  123bc4:	05bff7c4 	movi	r22,-33
  123bc8:	00bfffc4 	movi	r2,-1
  123bcc:	8dac703a 	and	r22,r17,r22
  123bd0:	20806a26 	beq	r4,r2,123d7c <___svfprintf_internal_r+0x1b8c>
  123bd4:	008011c4 	movi	r2,71
  123bd8:	b0813726 	beq	r22,r2,1240b8 <___svfprintf_internal_r+0x1ec8>
  123bdc:	d9003717 	ldw	r4,220(sp)
  123be0:	90c04014 	ori	r3,r18,256
  123be4:	d8c02c15 	stw	r3,176(sp)
  123be8:	20015d16 	blt	r4,zero,124160 <___svfprintf_internal_r+0x1f70>
  123bec:	dd003717 	ldw	r20,220(sp)
  123bf0:	d8002905 	stb	zero,164(sp)
  123bf4:	00801984 	movi	r2,102
  123bf8:	88814026 	beq	r17,r2,1240fc <___svfprintf_internal_r+0x1f0c>
  123bfc:	00801184 	movi	r2,70
  123c00:	88817126 	beq	r17,r2,1241c8 <___svfprintf_internal_r+0x1fd8>
  123c04:	00801144 	movi	r2,69
  123c08:	b0816226 	beq	r22,r2,124194 <___svfprintf_internal_r+0x1fa4>
  123c0c:	d8c02a17 	ldw	r3,168(sp)
  123c10:	d8802104 	addi	r2,sp,132
  123c14:	d8800315 	stw	r2,12(sp)
  123c18:	d9403617 	ldw	r5,216(sp)
  123c1c:	d8802504 	addi	r2,sp,148
  123c20:	d8800215 	stw	r2,8(sp)
  123c24:	d8802604 	addi	r2,sp,152
  123c28:	d8c00015 	stw	r3,0(sp)
  123c2c:	d8800115 	stw	r2,4(sp)
  123c30:	01c00084 	movi	r7,2
  123c34:	a00d883a 	mov	r6,r20
  123c38:	9809883a 	mov	r4,r19
  123c3c:	d8c03d15 	stw	r3,244(sp)
  123c40:	da003e15 	stw	r8,248(sp)
  123c44:	01261140 	call	126114 <_dtoa_r>
  123c48:	1021883a 	mov	r16,r2
  123c4c:	008019c4 	movi	r2,103
  123c50:	d8c03d17 	ldw	r3,244(sp)
  123c54:	da003e17 	ldw	r8,248(sp)
  123c58:	8880e726 	beq	r17,r2,123ff8 <___svfprintf_internal_r+0x1e08>
  123c5c:	008011c4 	movi	r2,71
  123c60:	8880d426 	beq	r17,r2,123fb4 <___svfprintf_internal_r+0x1dc4>
  123c64:	80f9883a 	add	fp,r16,r3
  123c68:	d9003617 	ldw	r4,216(sp)
  123c6c:	000d883a 	mov	r6,zero
  123c70:	000f883a 	mov	r7,zero
  123c74:	a00b883a 	mov	r5,r20
  123c78:	da003e15 	stw	r8,248(sp)
  123c7c:	0132ab80 	call	132ab8 <__eqdf2>
  123c80:	da003e17 	ldw	r8,248(sp)
  123c84:	1000e426 	beq	r2,zero,124018 <___svfprintf_internal_r+0x1e28>
  123c88:	d8802117 	ldw	r2,132(sp)
  123c8c:	1700062e 	bgeu	r2,fp,123ca8 <___svfprintf_internal_r+0x1ab8>
  123c90:	01000c04 	movi	r4,48
  123c94:	10c00044 	addi	r3,r2,1
  123c98:	d8c02115 	stw	r3,132(sp)
  123c9c:	11000005 	stb	r4,0(r2)
  123ca0:	d8802117 	ldw	r2,132(sp)
  123ca4:	173ffb36 	bltu	r2,fp,123c94 <_gp+0xfffe05bc>
  123ca8:	1405c83a 	sub	r2,r2,r16
  123cac:	d8803315 	stw	r2,204(sp)
  123cb0:	008011c4 	movi	r2,71
  123cb4:	b080c526 	beq	r22,r2,123fcc <___svfprintf_internal_r+0x1ddc>
  123cb8:	00801944 	movi	r2,101
  123cbc:	1441d80e 	bge	r2,r17,124420 <___svfprintf_internal_r+0x2230>
  123cc0:	d8c02617 	ldw	r3,152(sp)
  123cc4:	00801984 	movi	r2,102
  123cc8:	d8c03215 	stw	r3,200(sp)
  123ccc:	88813426 	beq	r17,r2,1241a0 <___svfprintf_internal_r+0x1fb0>
  123cd0:	d8c03217 	ldw	r3,200(sp)
  123cd4:	d9003317 	ldw	r4,204(sp)
  123cd8:	19012516 	blt	r3,r4,124170 <___svfprintf_internal_r+0x1f80>
  123cdc:	9480004c 	andi	r18,r18,1
  123ce0:	9001841e 	bne	r18,zero,1242f4 <___svfprintf_internal_r+0x2104>
  123ce4:	1805883a 	mov	r2,r3
  123ce8:	1801cb16 	blt	r3,zero,124418 <___svfprintf_internal_r+0x2228>
  123cec:	d8c03217 	ldw	r3,200(sp)
  123cf0:	044019c4 	movi	r17,103
  123cf4:	d8c02b15 	stw	r3,172(sp)
  123cf8:	df002907 	ldb	fp,164(sp)
  123cfc:	e000a61e 	bne	fp,zero,123f98 <___svfprintf_internal_r+0x1da8>
  123d00:	df002783 	ldbu	fp,158(sp)
  123d04:	d8802915 	stw	r2,164(sp)
  123d08:	dc802c17 	ldw	r18,176(sp)
  123d0c:	d8002a15 	stw	zero,168(sp)
  123d10:	003af506 	br	1228e8 <_gp+0xfffdf210>
  123d14:	04000534 	movhi	r16,20
  123d18:	8424b704 	addi	r16,r16,-27940
  123d1c:	003a7e06 	br	122718 <_gp+0xfffdf040>
  123d20:	d9003917 	ldw	r4,228(sp)
  123d24:	04001004 	movi	r16,64
  123d28:	800b883a 	mov	r5,r16
  123d2c:	01279080 	call	127908 <_malloc_r>
  123d30:	d9002d17 	ldw	r4,180(sp)
  123d34:	20800015 	stw	r2,0(r4)
  123d38:	20800415 	stw	r2,16(r4)
  123d3c:	1001d026 	beq	r2,zero,124480 <___svfprintf_internal_r+0x2290>
  123d40:	d8802d17 	ldw	r2,180(sp)
  123d44:	14000515 	stw	r16,20(r2)
  123d48:	00394406 	br	12225c <_gp+0xfffdeb84>
  123d4c:	04000534 	movhi	r16,20
  123d50:	8424b904 	addi	r16,r16,-27932
  123d54:	003ee106 	br	1238dc <_gp+0xfffe0204>
  123d58:	d9402d17 	ldw	r5,180(sp)
  123d5c:	d9801e04 	addi	r6,sp,120
  123d60:	9809883a 	mov	r4,r19
  123d64:	012bc1c0 	call	12bc1c <__ssprint_r>
  123d68:	103a081e 	bne	r2,zero,12258c <_gp+0xfffdeeb4>
  123d6c:	dc402617 	ldw	r17,152(sp)
  123d70:	d8c02017 	ldw	r3,128(sp)
  123d74:	da000404 	addi	r8,sp,16
  123d78:	003f4306 	br	123a88 <_gp+0xfffe03b0>
  123d7c:	01400184 	movi	r5,6
  123d80:	d9402a15 	stw	r5,168(sp)
  123d84:	003f9506 	br	123bdc <_gp+0xfffe0504>
  123d88:	d8c02e17 	ldw	r3,184(sp)
  123d8c:	1d000017 	ldw	r20,0(r3)
  123d90:	18c00104 	addi	r3,r3,4
  123d94:	d8c02e15 	stw	r3,184(sp)
  123d98:	a02dd7fa 	srai	r22,r20,31
  123d9c:	b005883a 	mov	r2,r22
  123da0:	003a7606 	br	12277c <_gp+0xfffdf0a4>
  123da4:	d9002e17 	ldw	r4,184(sp)
  123da8:	002d883a 	mov	r22,zero
  123dac:	25000017 	ldw	r20,0(r4)
  123db0:	21000104 	addi	r4,r4,4
  123db4:	d9002e15 	stw	r4,184(sp)
  123db8:	003bdd06 	br	122d30 <_gp+0xfffdf658>
  123dbc:	9480100c 	andi	r18,r18,64
  123dc0:	90006e26 	beq	r18,zero,123f7c <___svfprintf_internal_r+0x1d8c>
  123dc4:	d9402e17 	ldw	r5,184(sp)
  123dc8:	d8c02f17 	ldw	r3,188(sp)
  123dcc:	28800017 	ldw	r2,0(r5)
  123dd0:	29400104 	addi	r5,r5,4
  123dd4:	d9402e15 	stw	r5,184(sp)
  123dd8:	10c0000d 	sth	r3,0(r2)
  123ddc:	00392f06 	br	12229c <_gp+0xfffdebc4>
  123de0:	d9402d17 	ldw	r5,180(sp)
  123de4:	d9801e04 	addi	r6,sp,120
  123de8:	9809883a 	mov	r4,r19
  123dec:	012bc1c0 	call	12bc1c <__ssprint_r>
  123df0:	1039e61e 	bne	r2,zero,12258c <_gp+0xfffdeeb4>
  123df4:	d8c02017 	ldw	r3,128(sp)
  123df8:	d8801f17 	ldw	r2,124(sp)
  123dfc:	da000404 	addi	r8,sp,16
  123e00:	d9403317 	ldw	r5,204(sp)
  123e04:	10800044 	addi	r2,r2,1
  123e08:	44000015 	stw	r16,0(r8)
  123e0c:	28c7883a 	add	r3,r5,r3
  123e10:	003b5506 	br	122b68 <_gp+0xfffdf490>
  123e14:	8009883a 	mov	r4,r16
  123e18:	df003e15 	stw	fp,248(sp)
  123e1c:	01218f40 	call	1218f4 <strlen>
  123e20:	d8802b15 	stw	r2,172(sp)
  123e24:	da003e17 	ldw	r8,248(sp)
  123e28:	103c160e 	bge	r2,zero,122e84 <_gp+0xfffdf7ac>
  123e2c:	0005883a 	mov	r2,zero
  123e30:	003c1406 	br	122e84 <_gp+0xfffdf7ac>
  123e34:	00bfffc4 	movi	r2,-1
  123e38:	0039d906 	br	1225a0 <_gp+0xfffdeec8>
  123e3c:	01000534 	movhi	r4,20
  123e40:	2124cb84 	addi	r4,r4,-27858
  123e44:	d9003515 	stw	r4,212(sp)
  123e48:	003ae406 	br	1229dc <_gp+0xfffdf304>
  123e4c:	013fffc4 	movi	r4,-1
  123e50:	0039fa06 	br	12263c <_gp+0xfffdef64>
  123e54:	d9402d17 	ldw	r5,180(sp)
  123e58:	d9801e04 	addi	r6,sp,120
  123e5c:	9809883a 	mov	r4,r19
  123e60:	012bc1c0 	call	12bc1c <__ssprint_r>
  123e64:	1039c91e 	bne	r2,zero,12258c <_gp+0xfffdeeb4>
  123e68:	d8c02017 	ldw	r3,128(sp)
  123e6c:	da000404 	addi	r8,sp,16
  123e70:	003d8406 	br	123484 <_gp+0xfffdfdac>
  123e74:	0023883a 	mov	r17,zero
  123e78:	003d8306 	br	123488 <_gp+0xfffdfdb0>
  123e7c:	01000534 	movhi	r4,20
  123e80:	2124c784 	addi	r4,r4,-27874
  123e84:	d9002c15 	stw	r4,176(sp)
  123e88:	d9002c17 	ldw	r4,176(sp)
  123e8c:	1c47883a 	add	r3,r3,r17
  123e90:	10800044 	addi	r2,r2,1
  123e94:	41000015 	stw	r4,0(r8)
  123e98:	44400115 	stw	r17,4(r8)
  123e9c:	d8c02015 	stw	r3,128(sp)
  123ea0:	d8801f15 	stw	r2,124(sp)
  123ea4:	010001c4 	movi	r4,7
  123ea8:	20bfcd16 	blt	r4,r2,123de0 <_gp+0xfffe0708>
  123eac:	42000204 	addi	r8,r8,8
  123eb0:	003fd306 	br	123e00 <_gp+0xfffe0728>
  123eb4:	d9402d17 	ldw	r5,180(sp)
  123eb8:	d9801e04 	addi	r6,sp,120
  123ebc:	9809883a 	mov	r4,r19
  123ec0:	012bc1c0 	call	12bc1c <__ssprint_r>
  123ec4:	1039b11e 	bne	r2,zero,12258c <_gp+0xfffdeeb4>
  123ec8:	d8802617 	ldw	r2,152(sp)
  123ecc:	d8c02017 	ldw	r3,128(sp)
  123ed0:	da000404 	addi	r8,sp,16
  123ed4:	003e1c06 	br	123748 <_gp+0xfffe0070>
  123ed8:	d8802a17 	ldw	r2,168(sp)
  123edc:	00c00184 	movi	r3,6
  123ee0:	1880012e 	bgeu	r3,r2,123ee8 <___svfprintf_internal_r+0x1cf8>
  123ee4:	1805883a 	mov	r2,r3
  123ee8:	d8802b15 	stw	r2,172(sp)
  123eec:	1000f316 	blt	r2,zero,1242bc <___svfprintf_internal_r+0x20cc>
  123ef0:	04000534 	movhi	r16,20
  123ef4:	d8802915 	stw	r2,164(sp)
  123ef8:	dd002e15 	stw	r20,184(sp)
  123efc:	d8002a15 	stw	zero,168(sp)
  123f00:	d8003215 	stw	zero,200(sp)
  123f04:	8424c504 	addi	r16,r16,-27884
  123f08:	0039883a 	mov	fp,zero
  123f0c:	003a7d06 	br	122904 <_gp+0xfffdf22c>
  123f10:	01000534 	movhi	r4,20
  123f14:	2124cb84 	addi	r4,r4,-27858
  123f18:	d9003515 	stw	r4,212(sp)
  123f1c:	003b3d06 	br	122c14 <_gp+0xfffdf53c>
  123f20:	d9402d17 	ldw	r5,180(sp)
  123f24:	d9801e04 	addi	r6,sp,120
  123f28:	9809883a 	mov	r4,r19
  123f2c:	012bc1c0 	call	12bc1c <__ssprint_r>
  123f30:	1039961e 	bne	r2,zero,12258c <_gp+0xfffdeeb4>
  123f34:	d8802617 	ldw	r2,152(sp)
  123f38:	d9403317 	ldw	r5,204(sp)
  123f3c:	d8c02017 	ldw	r3,128(sp)
  123f40:	da000404 	addi	r8,sp,16
  123f44:	2885c83a 	sub	r2,r5,r2
  123f48:	003e1006 	br	12378c <_gp+0xfffe00b4>
  123f4c:	00800044 	movi	r2,1
  123f50:	10803fcc 	andi	r2,r2,255
  123f54:	00c00044 	movi	r3,1
  123f58:	10fa1026 	beq	r2,r3,12279c <_gp+0xfffdf0c4>
  123f5c:	00c00084 	movi	r3,2
  123f60:	10fb8226 	beq	r2,r3,122d6c <_gp+0xfffdf694>
  123f64:	003a4206 	br	122870 <_gp+0xfffdf198>
  123f68:	0021883a 	mov	r16,zero
  123f6c:	003e0806 	br	123790 <_gp+0xfffe00b8>
  123f70:	07000b44 	movi	fp,45
  123f74:	df002785 	stb	fp,158(sp)
  123f78:	0039e306 	br	122708 <_gp+0xfffdf030>
  123f7c:	d9002e17 	ldw	r4,184(sp)
  123f80:	d9402f17 	ldw	r5,188(sp)
  123f84:	20800017 	ldw	r2,0(r4)
  123f88:	21000104 	addi	r4,r4,4
  123f8c:	d9002e15 	stw	r4,184(sp)
  123f90:	11400015 	stw	r5,0(r2)
  123f94:	0038c106 	br	12229c <_gp+0xfffdebc4>
  123f98:	00c00b44 	movi	r3,45
  123f9c:	d8c02785 	stb	r3,158(sp)
  123fa0:	d8802915 	stw	r2,164(sp)
  123fa4:	dc802c17 	ldw	r18,176(sp)
  123fa8:	d8002a15 	stw	zero,168(sp)
  123fac:	07000b44 	movi	fp,45
  123fb0:	003a5106 	br	1228f8 <_gp+0xfffdf220>
  123fb4:	9080004c 	andi	r2,r18,1
  123fb8:	1000941e 	bne	r2,zero,12420c <___svfprintf_internal_r+0x201c>
  123fbc:	d8802117 	ldw	r2,132(sp)
  123fc0:	1405c83a 	sub	r2,r2,r16
  123fc4:	d8803315 	stw	r2,204(sp)
  123fc8:	b441151e 	bne	r22,r17,124420 <___svfprintf_internal_r+0x2230>
  123fcc:	dd802617 	ldw	r22,152(sp)
  123fd0:	00bfff44 	movi	r2,-3
  123fd4:	b0801a16 	blt	r22,r2,124040 <___svfprintf_internal_r+0x1e50>
  123fd8:	d9402a17 	ldw	r5,168(sp)
  123fdc:	2d801816 	blt	r5,r22,124040 <___svfprintf_internal_r+0x1e50>
  123fe0:	dd803215 	stw	r22,200(sp)
  123fe4:	003f3a06 	br	123cd0 <_gp+0xfffe05f8>
  123fe8:	1025883a 	mov	r18,r2
  123fec:	0039883a 	mov	fp,zero
  123ff0:	00800084 	movi	r2,2
  123ff4:	003fd606 	br	123f50 <_gp+0xfffe0878>
  123ff8:	9080004c 	andi	r2,r18,1
  123ffc:	103f191e 	bne	r2,zero,123c64 <_gp+0xfffe058c>
  124000:	d8802117 	ldw	r2,132(sp)
  124004:	003f2806 	br	123ca8 <_gp+0xfffe05d0>
  124008:	01000534 	movhi	r4,20
  12400c:	2124c784 	addi	r4,r4,-27874
  124010:	d9002c15 	stw	r4,176(sp)
  124014:	003c7c06 	br	123208 <_gp+0xfffdfb30>
  124018:	e005883a 	mov	r2,fp
  12401c:	003f2206 	br	123ca8 <_gp+0xfffe05d0>
  124020:	d9002a17 	ldw	r4,168(sp)
  124024:	df002783 	ldbu	fp,158(sp)
  124028:	dd002e15 	stw	r20,184(sp)
  12402c:	d9002915 	stw	r4,164(sp)
  124030:	d9002b15 	stw	r4,172(sp)
  124034:	d8002a15 	stw	zero,168(sp)
  124038:	d8003215 	stw	zero,200(sp)
  12403c:	003a2a06 	br	1228e8 <_gp+0xfffdf210>
  124040:	8c7fff84 	addi	r17,r17,-2
  124044:	b5bfffc4 	addi	r22,r22,-1
  124048:	dd802615 	stw	r22,152(sp)
  12404c:	dc4022c5 	stb	r17,139(sp)
  124050:	b000c316 	blt	r22,zero,124360 <___svfprintf_internal_r+0x2170>
  124054:	00800ac4 	movi	r2,43
  124058:	d8802305 	stb	r2,140(sp)
  12405c:	00800244 	movi	r2,9
  124060:	15806e16 	blt	r2,r22,12421c <___svfprintf_internal_r+0x202c>
  124064:	00800c04 	movi	r2,48
  124068:	b5800c04 	addi	r22,r22,48
  12406c:	d8802345 	stb	r2,141(sp)
  124070:	dd802385 	stb	r22,142(sp)
  124074:	d88023c4 	addi	r2,sp,143
  124078:	df0022c4 	addi	fp,sp,139
  12407c:	d8c03317 	ldw	r3,204(sp)
  124080:	1739c83a 	sub	fp,r2,fp
  124084:	d9003317 	ldw	r4,204(sp)
  124088:	e0c7883a 	add	r3,fp,r3
  12408c:	df003b15 	stw	fp,236(sp)
  124090:	d8c02b15 	stw	r3,172(sp)
  124094:	00800044 	movi	r2,1
  124098:	1100b70e 	bge	r2,r4,124378 <___svfprintf_internal_r+0x2188>
  12409c:	d8c02b17 	ldw	r3,172(sp)
  1240a0:	18c00044 	addi	r3,r3,1
  1240a4:	d8c02b15 	stw	r3,172(sp)
  1240a8:	1805883a 	mov	r2,r3
  1240ac:	1800b016 	blt	r3,zero,124370 <___svfprintf_internal_r+0x2180>
  1240b0:	d8003215 	stw	zero,200(sp)
  1240b4:	003f1006 	br	123cf8 <_gp+0xfffe0620>
  1240b8:	d8802a17 	ldw	r2,168(sp)
  1240bc:	103ec71e 	bne	r2,zero,123bdc <_gp+0xfffe0504>
  1240c0:	dc002a15 	stw	r16,168(sp)
  1240c4:	003ec506 	br	123bdc <_gp+0xfffe0504>
  1240c8:	d9402d17 	ldw	r5,180(sp)
  1240cc:	d9801e04 	addi	r6,sp,120
  1240d0:	9809883a 	mov	r4,r19
  1240d4:	012bc1c0 	call	12bc1c <__ssprint_r>
  1240d8:	10392c1e 	bne	r2,zero,12258c <_gp+0xfffdeeb4>
  1240dc:	dc402617 	ldw	r17,152(sp)
  1240e0:	d8c02017 	ldw	r3,128(sp)
  1240e4:	d8801f17 	ldw	r2,124(sp)
  1240e8:	da000404 	addi	r8,sp,16
  1240ec:	003e7706 	br	123acc <_gp+0xfffe03f4>
  1240f0:	182f883a 	mov	r23,r3
  1240f4:	d8002a15 	stw	zero,168(sp)
  1240f8:	00389306 	br	122348 <_gp+0xfffdec70>
  1240fc:	d8c02a17 	ldw	r3,168(sp)
  124100:	d8802104 	addi	r2,sp,132
  124104:	d8800315 	stw	r2,12(sp)
  124108:	d9403617 	ldw	r5,216(sp)
  12410c:	d8802504 	addi	r2,sp,148
  124110:	d8800215 	stw	r2,8(sp)
  124114:	d8802604 	addi	r2,sp,152
  124118:	d8c00015 	stw	r3,0(sp)
  12411c:	9809883a 	mov	r4,r19
  124120:	d8800115 	stw	r2,4(sp)
  124124:	01c000c4 	movi	r7,3
  124128:	a00d883a 	mov	r6,r20
  12412c:	da003e15 	stw	r8,248(sp)
  124130:	01261140 	call	126114 <_dtoa_r>
  124134:	d9002a17 	ldw	r4,168(sp)
  124138:	da003e17 	ldw	r8,248(sp)
  12413c:	1021883a 	mov	r16,r2
  124140:	1139883a 	add	fp,r2,r4
  124144:	2007883a 	mov	r3,r4
  124148:	81000007 	ldb	r4,0(r16)
  12414c:	00800c04 	movi	r2,48
  124150:	20806f26 	beq	r4,r2,124310 <___svfprintf_internal_r+0x2120>
  124154:	d8c02617 	ldw	r3,152(sp)
  124158:	e0f9883a 	add	fp,fp,r3
  12415c:	003ec206 	br	123c68 <_gp+0xfffe0590>
  124160:	00c00b44 	movi	r3,45
  124164:	2520003c 	xorhi	r20,r4,32768
  124168:	d8c02905 	stb	r3,164(sp)
  12416c:	003ea106 	br	123bf4 <_gp+0xfffe051c>
  124170:	d8c03217 	ldw	r3,200(sp)
  124174:	00c0890e 	bge	zero,r3,12439c <___svfprintf_internal_r+0x21ac>
  124178:	00800044 	movi	r2,1
  12417c:	d9003317 	ldw	r4,204(sp)
  124180:	1105883a 	add	r2,r2,r4
  124184:	d8802b15 	stw	r2,172(sp)
  124188:	10005f16 	blt	r2,zero,124308 <___svfprintf_internal_r+0x2118>
  12418c:	044019c4 	movi	r17,103
  124190:	003ed906 	br	123cf8 <_gp+0xfffe0620>
  124194:	d9002a17 	ldw	r4,168(sp)
  124198:	20c00044 	addi	r3,r4,1
  12419c:	003e9c06 	br	123c10 <_gp+0xfffe0538>
  1241a0:	d9002a17 	ldw	r4,168(sp)
  1241a4:	00c0680e 	bge	zero,r3,124348 <___svfprintf_internal_r+0x2158>
  1241a8:	2000461e 	bne	r4,zero,1242c4 <___svfprintf_internal_r+0x20d4>
  1241ac:	9480004c 	andi	r18,r18,1
  1241b0:	9000441e 	bne	r18,zero,1242c4 <___svfprintf_internal_r+0x20d4>
  1241b4:	1805883a 	mov	r2,r3
  1241b8:	1800a116 	blt	r3,zero,124440 <___svfprintf_internal_r+0x2250>
  1241bc:	d8c03217 	ldw	r3,200(sp)
  1241c0:	d8c02b15 	stw	r3,172(sp)
  1241c4:	003ecc06 	br	123cf8 <_gp+0xfffe0620>
  1241c8:	d9402a17 	ldw	r5,168(sp)
  1241cc:	d8802104 	addi	r2,sp,132
  1241d0:	d8800315 	stw	r2,12(sp)
  1241d4:	d9400015 	stw	r5,0(sp)
  1241d8:	d8802504 	addi	r2,sp,148
  1241dc:	d9403617 	ldw	r5,216(sp)
  1241e0:	d8800215 	stw	r2,8(sp)
  1241e4:	d8802604 	addi	r2,sp,152
  1241e8:	d8800115 	stw	r2,4(sp)
  1241ec:	01c000c4 	movi	r7,3
  1241f0:	a00d883a 	mov	r6,r20
  1241f4:	9809883a 	mov	r4,r19
  1241f8:	da003e15 	stw	r8,248(sp)
  1241fc:	01261140 	call	126114 <_dtoa_r>
  124200:	d8c02a17 	ldw	r3,168(sp)
  124204:	da003e17 	ldw	r8,248(sp)
  124208:	1021883a 	mov	r16,r2
  12420c:	00801184 	movi	r2,70
  124210:	80f9883a 	add	fp,r16,r3
  124214:	88bfcc26 	beq	r17,r2,124148 <_gp+0xfffe0a70>
  124218:	003e9306 	br	123c68 <_gp+0xfffe0590>
  12421c:	df0022c4 	addi	fp,sp,139
  124220:	dc002a15 	stw	r16,168(sp)
  124224:	9829883a 	mov	r20,r19
  124228:	e021883a 	mov	r16,fp
  12422c:	4027883a 	mov	r19,r8
  124230:	b009883a 	mov	r4,r22
  124234:	01400284 	movi	r5,10
  124238:	01212380 	call	121238 <__modsi3>
  12423c:	10800c04 	addi	r2,r2,48
  124240:	843fffc4 	addi	r16,r16,-1
  124244:	b009883a 	mov	r4,r22
  124248:	01400284 	movi	r5,10
  12424c:	80800005 	stb	r2,0(r16)
  124250:	01211b40 	call	1211b4 <__divsi3>
  124254:	102d883a 	mov	r22,r2
  124258:	00800244 	movi	r2,9
  12425c:	15bff416 	blt	r2,r22,124230 <_gp+0xfffe0b58>
  124260:	9811883a 	mov	r8,r19
  124264:	b0800c04 	addi	r2,r22,48
  124268:	a027883a 	mov	r19,r20
  12426c:	8029883a 	mov	r20,r16
  124270:	a17fffc4 	addi	r5,r20,-1
  124274:	a0bfffc5 	stb	r2,-1(r20)
  124278:	dc002a17 	ldw	r16,168(sp)
  12427c:	2f00782e 	bgeu	r5,fp,124460 <___svfprintf_internal_r+0x2270>
  124280:	d9c02384 	addi	r7,sp,142
  124284:	3d0fc83a 	sub	r7,r7,r20
  124288:	d9002344 	addi	r4,sp,141
  12428c:	e1cf883a 	add	r7,fp,r7
  124290:	00000106 	br	124298 <___svfprintf_internal_r+0x20a8>
  124294:	28800003 	ldbu	r2,0(r5)
  124298:	20800005 	stb	r2,0(r4)
  12429c:	21000044 	addi	r4,r4,1
  1242a0:	29400044 	addi	r5,r5,1
  1242a4:	21fffb1e 	bne	r4,r7,124294 <_gp+0xfffe0bbc>
  1242a8:	d8802304 	addi	r2,sp,140
  1242ac:	1505c83a 	sub	r2,r2,r20
  1242b0:	d8c02344 	addi	r3,sp,141
  1242b4:	1885883a 	add	r2,r3,r2
  1242b8:	003f7006 	br	12407c <_gp+0xfffe09a4>
  1242bc:	0005883a 	mov	r2,zero
  1242c0:	003f0b06 	br	123ef0 <_gp+0xfffe0818>
  1242c4:	d9002a17 	ldw	r4,168(sp)
  1242c8:	d8c03217 	ldw	r3,200(sp)
  1242cc:	20800044 	addi	r2,r4,1
  1242d0:	1885883a 	add	r2,r3,r2
  1242d4:	d8802b15 	stw	r2,172(sp)
  1242d8:	103e870e 	bge	r2,zero,123cf8 <_gp+0xfffe0620>
  1242dc:	0005883a 	mov	r2,zero
  1242e0:	003e8506 	br	123cf8 <_gp+0xfffe0620>
  1242e4:	01000534 	movhi	r4,20
  1242e8:	2124c784 	addi	r4,r4,-27874
  1242ec:	d9002c15 	stw	r4,176(sp)
  1242f0:	003cc506 	br	123608 <_gp+0xfffdff30>
  1242f4:	d8c03217 	ldw	r3,200(sp)
  1242f8:	18c00044 	addi	r3,r3,1
  1242fc:	d8c02b15 	stw	r3,172(sp)
  124300:	1805883a 	mov	r2,r3
  124304:	183fa10e 	bge	r3,zero,12418c <_gp+0xfffe0ab4>
  124308:	0005883a 	mov	r2,zero
  12430c:	003f9f06 	br	12418c <_gp+0xfffe0ab4>
  124310:	d9003617 	ldw	r4,216(sp)
  124314:	000d883a 	mov	r6,zero
  124318:	000f883a 	mov	r7,zero
  12431c:	a00b883a 	mov	r5,r20
  124320:	d8c03d15 	stw	r3,244(sp)
  124324:	da003e15 	stw	r8,248(sp)
  124328:	0132ab80 	call	132ab8 <__eqdf2>
  12432c:	d8c03d17 	ldw	r3,244(sp)
  124330:	da003e17 	ldw	r8,248(sp)
  124334:	103f8726 	beq	r2,zero,124154 <_gp+0xfffe0a7c>
  124338:	00800044 	movi	r2,1
  12433c:	10c7c83a 	sub	r3,r2,r3
  124340:	d8c02615 	stw	r3,152(sp)
  124344:	003f8406 	br	124158 <_gp+0xfffe0a80>
  124348:	20000e1e 	bne	r4,zero,124384 <___svfprintf_internal_r+0x2194>
  12434c:	9480004c 	andi	r18,r18,1
  124350:	90000c1e 	bne	r18,zero,124384 <___svfprintf_internal_r+0x2194>
  124354:	00800044 	movi	r2,1
  124358:	d8802b15 	stw	r2,172(sp)
  12435c:	003e6606 	br	123cf8 <_gp+0xfffe0620>
  124360:	00800b44 	movi	r2,45
  124364:	05adc83a 	sub	r22,zero,r22
  124368:	d8802305 	stb	r2,140(sp)
  12436c:	003f3b06 	br	12405c <_gp+0xfffe0984>
  124370:	0005883a 	mov	r2,zero
  124374:	003f4e06 	br	1240b0 <_gp+0xfffe09d8>
  124378:	90a4703a 	and	r18,r18,r2
  12437c:	903f4a26 	beq	r18,zero,1240a8 <_gp+0xfffe09d0>
  124380:	003f4606 	br	12409c <_gp+0xfffe09c4>
  124384:	d8c02a17 	ldw	r3,168(sp)
  124388:	18c00084 	addi	r3,r3,2
  12438c:	d8c02b15 	stw	r3,172(sp)
  124390:	1805883a 	mov	r2,r3
  124394:	183e580e 	bge	r3,zero,123cf8 <_gp+0xfffe0620>
  124398:	003fd006 	br	1242dc <_gp+0xfffe0c04>
  12439c:	00800084 	movi	r2,2
  1243a0:	10c5c83a 	sub	r2,r2,r3
  1243a4:	003f7506 	br	12417c <_gp+0xfffe0aa4>
  1243a8:	d9402e17 	ldw	r5,184(sp)
  1243ac:	d9002e17 	ldw	r4,184(sp)
  1243b0:	bc400043 	ldbu	r17,1(r23)
  1243b4:	29400017 	ldw	r5,0(r5)
  1243b8:	20800104 	addi	r2,r4,4
  1243bc:	d8802e15 	stw	r2,184(sp)
  1243c0:	d9402a15 	stw	r5,168(sp)
  1243c4:	182f883a 	mov	r23,r3
  1243c8:	283df10e 	bge	r5,zero,123b90 <_gp+0xfffe04b8>
  1243cc:	8c403fcc 	andi	r17,r17,255
  1243d0:	017fffc4 	movi	r5,-1
  1243d4:	8c40201c 	xori	r17,r17,128
  1243d8:	d9402a15 	stw	r5,168(sp)
  1243dc:	8c7fe004 	addi	r17,r17,-128
  1243e0:	0037d806 	br	122344 <_gp+0xfffdec6c>
  1243e4:	9080004c 	andi	r2,r18,1
  1243e8:	0039883a 	mov	fp,zero
  1243ec:	10000726 	beq	r2,zero,12440c <___svfprintf_internal_r+0x221c>
  1243f0:	d8c02817 	ldw	r3,160(sp)
  1243f4:	dc001dc4 	addi	r16,sp,119
  1243f8:	00800c04 	movi	r2,48
  1243fc:	1c07c83a 	sub	r3,r3,r16
  124400:	d8801dc5 	stb	r2,119(sp)
  124404:	d8c02b15 	stw	r3,172(sp)
  124408:	00393106 	br	1228d0 <_gp+0xfffdf1f8>
  12440c:	d8002b15 	stw	zero,172(sp)
  124410:	dc001e04 	addi	r16,sp,120
  124414:	00392e06 	br	1228d0 <_gp+0xfffdf1f8>
  124418:	0005883a 	mov	r2,zero
  12441c:	003e3306 	br	123cec <_gp+0xfffe0614>
  124420:	dd802617 	ldw	r22,152(sp)
  124424:	003f0706 	br	124044 <_gp+0xfffe096c>
  124428:	d8c02b03 	ldbu	r3,172(sp)
  12442c:	d8c02785 	stb	r3,158(sp)
  124430:	003a3506 	br	122d08 <_gp+0xfffdf630>
  124434:	d8c02b03 	ldbu	r3,172(sp)
  124438:	d8c02785 	stb	r3,158(sp)
  12443c:	003a1706 	br	122c9c <_gp+0xfffdf5c4>
  124440:	0005883a 	mov	r2,zero
  124444:	003f5d06 	br	1241bc <_gp+0xfffe0ae4>
  124448:	d8c02b03 	ldbu	r3,172(sp)
  12444c:	d8c02785 	stb	r3,158(sp)
  124450:	0038f306 	br	122820 <_gp+0xfffdf148>
  124454:	d8c02b03 	ldbu	r3,172(sp)
  124458:	d8c02785 	stb	r3,158(sp)
  12445c:	0038be06 	br	122758 <_gp+0xfffdf080>
  124460:	d8802344 	addi	r2,sp,141
  124464:	003f0506 	br	12407c <_gp+0xfffe09a4>
  124468:	d8c02b03 	ldbu	r3,172(sp)
  12446c:	d8c02785 	stb	r3,158(sp)
  124470:	00388b06 	br	1226a0 <_gp+0xfffdefc8>
  124474:	d8c02b03 	ldbu	r3,172(sp)
  124478:	d8c02785 	stb	r3,158(sp)
  12447c:	003ad706 	br	122fdc <_gp+0xfffdf904>
  124480:	d9403917 	ldw	r5,228(sp)
  124484:	00800304 	movi	r2,12
  124488:	28800015 	stw	r2,0(r5)
  12448c:	00bfffc4 	movi	r2,-1
  124490:	00384306 	br	1225a0 <_gp+0xfffdeec8>
  124494:	d8c02b03 	ldbu	r3,172(sp)
  124498:	d8c02785 	stb	r3,158(sp)
  12449c:	003ab606 	br	122f78 <_gp+0xfffdf8a0>
  1244a0:	d8c02b03 	ldbu	r3,172(sp)
  1244a4:	d8c02785 	stb	r3,158(sp)
  1244a8:	003a8906 	br	122ed0 <_gp+0xfffdf7f8>

001244ac <__ssvfscanf_r>:
  1244ac:	2880030b 	ldhu	r2,12(r5)
  1244b0:	deff4b04 	addi	sp,sp,-724
  1244b4:	df00b315 	stw	fp,716(sp)
  1244b8:	ddc0b215 	stw	r23,712(sp)
  1244bc:	dfc0b415 	stw	ra,720(sp)
  1244c0:	dd80b115 	stw	r22,708(sp)
  1244c4:	dd40b015 	stw	r21,704(sp)
  1244c8:	dd00af15 	stw	r20,700(sp)
  1244cc:	dcc0ae15 	stw	r19,696(sp)
  1244d0:	dc80ad15 	stw	r18,692(sp)
  1244d4:	dc40ac15 	stw	r17,688(sp)
  1244d8:	dc00ab15 	stw	r16,684(sp)
  1244dc:	10c8000c 	andi	r3,r2,8192
  1244e0:	d9c09c15 	stw	r7,624(sp)
  1244e4:	2839883a 	mov	fp,r5
  1244e8:	202f883a 	mov	r23,r4
  1244ec:	1800061e 	bne	r3,zero,124508 <__ssvfscanf_r+0x5c>
  1244f0:	29001917 	ldw	r4,100(r5)
  1244f4:	00f7ffc4 	movi	r3,-8193
  1244f8:	10880014 	ori	r2,r2,8192
  1244fc:	20c6703a 	and	r3,r4,r3
  124500:	2880030d 	sth	r2,12(r5)
  124504:	28c01915 	stw	r3,100(r5)
  124508:	30800003 	ldbu	r2,0(r6)
  12450c:	0021883a 	mov	r16,zero
  124510:	05800534 	movhi	r22,20
  124514:	d800a115 	stw	zero,644(sp)
  124518:	d8009e15 	stw	zero,632(sp)
  12451c:	d800a015 	stw	zero,640(sp)
  124520:	d8809b15 	stw	r2,620(sp)
  124524:	b5adb804 	addi	r22,r22,-18720
  124528:	8025883a 	mov	r18,r16
  12452c:	e027883a 	mov	r19,fp
  124530:	35000044 	addi	r20,r6,1
  124534:	10001e26 	beq	r2,zero,1245b0 <__ssvfscanf_r+0x104>
  124538:	b4000017 	ldw	r16,0(r22)
  12453c:	8087883a 	add	r3,r16,r2
  124540:	18c00043 	ldbu	r3,1(r3)
  124544:	18c0020c 	andi	r3,r3,8
  124548:	18001b26 	beq	r3,zero,1245b8 <__ssvfscanf_r+0x10c>
  12454c:	98800117 	ldw	r2,4(r19)
  124550:	00800e0e 	bge	zero,r2,12458c <__ssvfscanf_r+0xe0>
  124554:	98c00017 	ldw	r3,0(r19)
  124558:	b1000017 	ldw	r4,0(r22)
  12455c:	18800003 	ldbu	r2,0(r3)
  124560:	2085883a 	add	r2,r4,r2
  124564:	10800043 	ldbu	r2,1(r2)
  124568:	1080020c 	andi	r2,r2,8
  12456c:	10000b26 	beq	r2,zero,12459c <__ssvfscanf_r+0xf0>
  124570:	98800117 	ldw	r2,4(r19)
  124574:	18c00044 	addi	r3,r3,1
  124578:	98c00015 	stw	r3,0(r19)
  12457c:	10bfffc4 	addi	r2,r2,-1
  124580:	98800115 	stw	r2,4(r19)
  124584:	94800044 	addi	r18,r18,1
  124588:	00bff216 	blt	zero,r2,124554 <_gp+0xfffe0e7c>
  12458c:	980b883a 	mov	r5,r19
  124590:	b809883a 	mov	r4,r23
  124594:	012d2940 	call	12d294 <__ssrefill_r>
  124598:	103fee26 	beq	r2,zero,124554 <_gp+0xfffe0e7c>
  12459c:	a00d883a 	mov	r6,r20
  1245a0:	30800003 	ldbu	r2,0(r6)
  1245a4:	35000044 	addi	r20,r6,1
  1245a8:	d8809b15 	stw	r2,620(sp)
  1245ac:	103fe21e 	bne	r2,zero,124538 <_gp+0xfffe0e60>
  1245b0:	d880a017 	ldw	r2,640(sp)
  1245b4:	00009a06 	br	124820 <__ssvfscanf_r+0x374>
  1245b8:	00c00944 	movi	r3,37
  1245bc:	10c0891e 	bne	r2,r3,1247e4 <__ssvfscanf_r+0x338>
  1245c0:	0039883a 	mov	fp,zero
  1245c4:	35400043 	ldbu	r21,1(r6)
  1245c8:	0023883a 	mov	r17,zero
  1245cc:	01801e04 	movi	r6,120
  1245d0:	00c01b04 	movi	r3,108
  1245d4:	e009883a 	mov	r4,fp
  1245d8:	a1c00044 	addi	r7,r20,1
  1245dc:	3540a236 	bltu	r6,r21,124868 <__ssvfscanf_r+0x3bc>
  1245e0:	a80490ba 	slli	r2,r21,2
  1245e4:	014004b4 	movhi	r5,18
  1245e8:	29517e04 	addi	r5,r5,17912
  1245ec:	1145883a 	add	r2,r2,r5
  1245f0:	10800017 	ldw	r2,0(r2)
  1245f4:	1000683a 	jmp	r2
  1245f8:	0012481c 	xori	zero,zero,18720
  1245fc:	00124868 	cmpgeui	zero,zero,18721
  124600:	00124868 	cmpgeui	zero,zero,18721
  124604:	00124868 	cmpgeui	zero,zero,18721
  124608:	00124868 	cmpgeui	zero,zero,18721
  12460c:	00124868 	cmpgeui	zero,zero,18721
  124610:	00124868 	cmpgeui	zero,zero,18721
  124614:	00124868 	cmpgeui	zero,zero,18721
  124618:	00124868 	cmpgeui	zero,zero,18721
  12461c:	00124868 	cmpgeui	zero,zero,18721
  124620:	00124868 	cmpgeui	zero,zero,18721
  124624:	00124868 	cmpgeui	zero,zero,18721
  124628:	00124868 	cmpgeui	zero,zero,18721
  12462c:	00124868 	cmpgeui	zero,zero,18721
  124630:	00124868 	cmpgeui	zero,zero,18721
  124634:	00124868 	cmpgeui	zero,zero,18721
  124638:	00124868 	cmpgeui	zero,zero,18721
  12463c:	00124868 	cmpgeui	zero,zero,18721
  124640:	00124868 	cmpgeui	zero,zero,18721
  124644:	00124868 	cmpgeui	zero,zero,18721
  124648:	00124868 	cmpgeui	zero,zero,18721
  12464c:	00124868 	cmpgeui	zero,zero,18721
  124650:	00124868 	cmpgeui	zero,zero,18721
  124654:	00124868 	cmpgeui	zero,zero,18721
  124658:	00124868 	cmpgeui	zero,zero,18721
  12465c:	00124868 	cmpgeui	zero,zero,18721
  124660:	00124868 	cmpgeui	zero,zero,18721
  124664:	00124868 	cmpgeui	zero,zero,18721
  124668:	00124868 	cmpgeui	zero,zero,18721
  12466c:	00124868 	cmpgeui	zero,zero,18721
  124670:	00124868 	cmpgeui	zero,zero,18721
  124674:	00124868 	cmpgeui	zero,zero,18721
  124678:	00124868 	cmpgeui	zero,zero,18721
  12467c:	00124868 	cmpgeui	zero,zero,18721
  124680:	00124868 	cmpgeui	zero,zero,18721
  124684:	00124868 	cmpgeui	zero,zero,18721
  124688:	00124868 	cmpgeui	zero,zero,18721
  12468c:	001247dc 	xori	zero,zero,18719
  124690:	00124868 	cmpgeui	zero,zero,18721
  124694:	00124868 	cmpgeui	zero,zero,18721
  124698:	00124868 	cmpgeui	zero,zero,18721
  12469c:	00124868 	cmpgeui	zero,zero,18721
  1246a0:	00124850 	cmplti	zero,zero,18721
  1246a4:	00124868 	cmpgeui	zero,zero,18721
  1246a8:	00124868 	cmpgeui	zero,zero,18721
  1246ac:	00124868 	cmpgeui	zero,zero,18721
  1246b0:	00124868 	cmpgeui	zero,zero,18721
  1246b4:	00124868 	cmpgeui	zero,zero,18721
  1246b8:	001249b0 	cmpltui	zero,zero,18726
  1246bc:	001249b0 	cmpltui	zero,zero,18726
  1246c0:	001249b0 	cmpltui	zero,zero,18726
  1246c4:	001249b0 	cmpltui	zero,zero,18726
  1246c8:	001249b0 	cmpltui	zero,zero,18726
  1246cc:	001249b0 	cmpltui	zero,zero,18726
  1246d0:	001249b0 	cmpltui	zero,zero,18726
  1246d4:	001249b0 	cmpltui	zero,zero,18726
  1246d8:	001249b0 	cmpltui	zero,zero,18726
  1246dc:	001249b0 	cmpltui	zero,zero,18726
  1246e0:	00124868 	cmpgeui	zero,zero,18721
  1246e4:	00124868 	cmpgeui	zero,zero,18721
  1246e8:	00124868 	cmpgeui	zero,zero,18721
  1246ec:	00124868 	cmpgeui	zero,zero,18721
  1246f0:	00124868 	cmpgeui	zero,zero,18721
  1246f4:	00124868 	cmpgeui	zero,zero,18721
  1246f8:	00124868 	cmpgeui	zero,zero,18721
  1246fc:	00124868 	cmpgeui	zero,zero,18721
  124700:	00124868 	cmpgeui	zero,zero,18721
  124704:	00124868 	cmpgeui	zero,zero,18721
  124708:	00124980 	call	12498 <__alt_mem_onchip_flash_data-0x6db68>
  12470c:	00124a5c 	xori	zero,zero,18729
  124710:	00124868 	cmpgeui	zero,zero,18721
  124714:	00124a5c 	xori	zero,zero,18729
  124718:	00124868 	cmpgeui	zero,zero,18721
  12471c:	00124868 	cmpgeui	zero,zero,18721
  124720:	00124868 	cmpgeui	zero,zero,18721
  124724:	00124868 	cmpgeui	zero,zero,18721
  124728:	00124a48 	cmpgei	zero,zero,18729
  12472c:	00124868 	cmpgeui	zero,zero,18721
  124730:	00124868 	cmpgeui	zero,zero,18721
  124734:	00124a18 	cmpnei	zero,zero,18728
  124738:	00124868 	cmpgeui	zero,zero,18721
  12473c:	00124868 	cmpgeui	zero,zero,18721
  124740:	00124868 	cmpgeui	zero,zero,18721
  124744:	00124868 	cmpgeui	zero,zero,18721
  124748:	00124868 	cmpgeui	zero,zero,18721
  12474c:	00124868 	cmpgeui	zero,zero,18721
  124750:	00124868 	cmpgeui	zero,zero,18721
  124754:	00124868 	cmpgeui	zero,zero,18721
  124758:	001249e8 	cmpgeui	zero,zero,18727
  12475c:	00124868 	cmpgeui	zero,zero,18721
  124760:	00124868 	cmpgeui	zero,zero,18721
  124764:	00124ba4 	muli	zero,zero,18734
  124768:	00124868 	cmpgeui	zero,zero,18721
  12476c:	00124868 	cmpgeui	zero,zero,18721
  124770:	00124868 	cmpgeui	zero,zero,18721
  124774:	00124868 	cmpgeui	zero,zero,18721
  124778:	00124868 	cmpgeui	zero,zero,18721
  12477c:	00124868 	cmpgeui	zero,zero,18721
  124780:	00124868 	cmpgeui	zero,zero,18721
  124784:	00124b24 	muli	zero,zero,18732
  124788:	00124af8 	rdprs	zero,zero,18731
  12478c:	00124a5c 	xori	zero,zero,18729
  124790:	00124a5c 	xori	zero,zero,18729
  124794:	00124a5c 	xori	zero,zero,18729
  124798:	00124ae4 	muli	zero,zero,18731
  12479c:	00124c34 	movhi	zero,18736
  1247a0:	00124868 	cmpgeui	zero,zero,18721
  1247a4:	00124868 	cmpgeui	zero,zero,18721
  1247a8:	00124ad0 	cmplti	zero,zero,18731
  1247ac:	00124868 	cmpgeui	zero,zero,18721
  1247b0:	00124aa0 	cmpeqi	zero,zero,18730
  1247b4:	00124a74 	movhi	zero,18729
  1247b8:	00124950 	cmplti	zero,zero,18725
  1247bc:	00124868 	cmpgeui	zero,zero,18721
  1247c0:	00124868 	cmpgeui	zero,zero,18721
  1247c4:	00124938 	rdprs	zero,zero,18724
  1247c8:	00124868 	cmpgeui	zero,zero,18721
  1247cc:	001248bc 	xorhi	zero,zero,18722
  1247d0:	00124868 	cmpgeui	zero,zero,18721
  1247d4:	00124868 	cmpgeui	zero,zero,18721
  1247d8:	001249e8 	cmpgeui	zero,zero,18727
  1247dc:	d9c09d15 	stw	r7,628(sp)
  1247e0:	3829883a 	mov	r20,r7
  1247e4:	98800117 	ldw	r2,4(r19)
  1247e8:	0081c60e 	bge	zero,r2,124f04 <__ssvfscanf_r+0xa58>
  1247ec:	98800017 	ldw	r2,0(r19)
  1247f0:	a0ffffc3 	ldbu	r3,-1(r20)
  1247f4:	11000003 	ldbu	r4,0(r2)
  1247f8:	20ff6d1e 	bne	r4,r3,1245b0 <_gp+0xfffe0ed8>
  1247fc:	98c00117 	ldw	r3,4(r19)
  124800:	10800044 	addi	r2,r2,1
  124804:	98800015 	stw	r2,0(r19)
  124808:	18bfffc4 	addi	r2,r3,-1
  12480c:	98800115 	stw	r2,4(r19)
  124810:	94800044 	addi	r18,r18,1
  124814:	a00d883a 	mov	r6,r20
  124818:	003f6106 	br	1245a0 <_gp+0xfffe0ec8>
  12481c:	00bfffc4 	movi	r2,-1
  124820:	dfc0b417 	ldw	ra,720(sp)
  124824:	df00b317 	ldw	fp,716(sp)
  124828:	ddc0b217 	ldw	r23,712(sp)
  12482c:	dd80b117 	ldw	r22,708(sp)
  124830:	dd40b017 	ldw	r21,704(sp)
  124834:	dd00af17 	ldw	r20,700(sp)
  124838:	dcc0ae17 	ldw	r19,696(sp)
  12483c:	dc80ad17 	ldw	r18,692(sp)
  124840:	dc40ac17 	ldw	r17,688(sp)
  124844:	dc00ab17 	ldw	r16,684(sp)
  124848:	dec0b504 	addi	sp,sp,724
  12484c:	f800283a 	ret
  124850:	a1400043 	ldbu	r5,1(r20)
  124854:	3829883a 	mov	r20,r7
  124858:	8c400414 	ori	r17,r17,16
  12485c:	2d403fcc 	andi	r21,r5,255
  124860:	a1c00044 	addi	r7,r20,1
  124864:	357f5e2e 	bgeu	r6,r21,1245e0 <_gp+0xfffe0f08>
  124868:	856b883a 	add	r21,r16,r21
  12486c:	a8800043 	ldbu	r2,1(r21)
  124870:	d9c09d15 	stw	r7,628(sp)
  124874:	00c00044 	movi	r3,1
  124878:	108000cc 	andi	r2,r2,3
  12487c:	2039883a 	mov	fp,r4
  124880:	10c1a526 	beq	r2,r3,124f18 <__ssvfscanf_r+0xa6c>
  124884:	98800117 	ldw	r2,4(r19)
  124888:	00804216 	blt	zero,r2,124994 <__ssvfscanf_r+0x4e8>
  12488c:	980b883a 	mov	r5,r19
  124890:	b809883a 	mov	r4,r23
  124894:	012d2940 	call	12d294 <__ssrefill_r>
  124898:	10015e1e 	bne	r2,zero,124e14 <__ssvfscanf_r+0x968>
  12489c:	010004f4 	movhi	r4,19
  1248a0:	212c3c04 	addi	r4,r4,-20240
  1248a4:	01400284 	movi	r5,10
  1248a8:	b4000017 	ldw	r16,0(r22)
  1248ac:	d900a115 	stw	r4,644(sp)
  1248b0:	d9409e15 	stw	r5,632(sp)
  1248b4:	050000c4 	movi	r20,3
  1248b8:	00000a06 	br	1248e4 <__ssvfscanf_r+0x438>
  1248bc:	98800117 	ldw	r2,4(r19)
  1248c0:	d9c09d15 	stw	r7,628(sp)
  1248c4:	2039883a 	mov	fp,r4
  1248c8:	0081e20e 	bge	zero,r2,125054 <__ssvfscanf_r+0xba8>
  1248cc:	00c004f4 	movhi	r3,19
  1248d0:	18ed9a04 	addi	r3,r3,-18840
  1248d4:	01000284 	movi	r4,10
  1248d8:	d8c0a115 	stw	r3,644(sp)
  1248dc:	d9009e15 	stw	r4,632(sp)
  1248e0:	050000c4 	movi	r20,3
  1248e4:	98c00017 	ldw	r3,0(r19)
  1248e8:	00000206 	br	1248f4 <__ssvfscanf_r+0x448>
  1248ec:	18c00044 	addi	r3,r3,1
  1248f0:	98c00015 	stw	r3,0(r19)
  1248f4:	19000003 	ldbu	r4,0(r3)
  1248f8:	20803fcc 	andi	r2,r4,255
  1248fc:	8085883a 	add	r2,r16,r2
  124900:	10800043 	ldbu	r2,1(r2)
  124904:	1140020c 	andi	r5,r2,8
  124908:	28020126 	beq	r5,zero,125110 <__ssvfscanf_r+0xc64>
  12490c:	98800117 	ldw	r2,4(r19)
  124910:	94800044 	addi	r18,r18,1
  124914:	10bfffc4 	addi	r2,r2,-1
  124918:	98800115 	stw	r2,4(r19)
  12491c:	00bff316 	blt	zero,r2,1248ec <_gp+0xfffe1214>
  124920:	980b883a 	mov	r5,r19
  124924:	b809883a 	mov	r4,r23
  124928:	012d2940 	call	12d294 <__ssrefill_r>
  12492c:	1001391e 	bne	r2,zero,124e14 <__ssvfscanf_r+0x968>
  124930:	b4000017 	ldw	r16,0(r22)
  124934:	003feb06 	br	1248e4 <_gp+0xfffe120c>
  124938:	98800117 	ldw	r2,4(r19)
  12493c:	d9c09d15 	stw	r7,628(sp)
  124940:	2039883a 	mov	fp,r4
  124944:	0081aa0e 	bge	zero,r2,124ff0 <__ssvfscanf_r+0xb44>
  124948:	05000084 	movi	r20,2
  12494c:	003fe506 	br	1248e4 <_gp+0xfffe120c>
  124950:	98800117 	ldw	r2,4(r19)
  124954:	d9c09d15 	stw	r7,628(sp)
  124958:	2039883a 	mov	fp,r4
  12495c:	8c408814 	ori	r17,r17,544
  124960:	0081df0e 	bge	zero,r2,1250e0 <__ssvfscanf_r+0xc34>
  124964:	00c004f4 	movhi	r3,19
  124968:	18ed9a04 	addi	r3,r3,-18840
  12496c:	01000404 	movi	r4,16
  124970:	d8c0a115 	stw	r3,644(sp)
  124974:	d9009e15 	stw	r4,632(sp)
  124978:	050000c4 	movi	r20,3
  12497c:	003fd906 	br	1248e4 <_gp+0xfffe120c>
  124980:	98800117 	ldw	r2,4(r19)
  124984:	d9c09d15 	stw	r7,628(sp)
  124988:	2039883a 	mov	fp,r4
  12498c:	8c400054 	ori	r17,r17,1
  124990:	0081850e 	bge	zero,r2,124fa8 <__ssvfscanf_r+0xafc>
  124994:	00c004f4 	movhi	r3,19
  124998:	18ec3c04 	addi	r3,r3,-20240
  12499c:	01000284 	movi	r4,10
  1249a0:	d8c0a115 	stw	r3,644(sp)
  1249a4:	d9009e15 	stw	r4,632(sp)
  1249a8:	050000c4 	movi	r20,3
  1249ac:	003fcd06 	br	1248e4 <_gp+0xfffe120c>
  1249b0:	01400284 	movi	r5,10
  1249b4:	d8c0a615 	stw	r3,664(sp)
  1249b8:	d980a915 	stw	r6,676(sp)
  1249bc:	d9c0aa15 	stw	r7,680(sp)
  1249c0:	01213680 	call	121368 <__mulsi3>
  1249c4:	a1400043 	ldbu	r5,1(r20)
  1249c8:	d9c0aa17 	ldw	r7,680(sp)
  1249cc:	1545883a 	add	r2,r2,r21
  1249d0:	113ff404 	addi	r4,r2,-48
  1249d4:	3829883a 	mov	r20,r7
  1249d8:	2d403fcc 	andi	r21,r5,255
  1249dc:	d8c0a617 	ldw	r3,664(sp)
  1249e0:	d980a917 	ldw	r6,676(sp)
  1249e4:	003efc06 	br	1245d8 <_gp+0xfffe0f00>
  1249e8:	98800117 	ldw	r2,4(r19)
  1249ec:	d9c09d15 	stw	r7,628(sp)
  1249f0:	2039883a 	mov	fp,r4
  1249f4:	8c408014 	ori	r17,r17,512
  1249f8:	0081710e 	bge	zero,r2,124fc0 <__ssvfscanf_r+0xb14>
  1249fc:	014004f4 	movhi	r5,19
  124a00:	296d9a04 	addi	r5,r5,-18840
  124a04:	00800404 	movi	r2,16
  124a08:	d940a115 	stw	r5,644(sp)
  124a0c:	d8809e15 	stw	r2,632(sp)
  124a10:	050000c4 	movi	r20,3
  124a14:	003fb306 	br	1248e4 <_gp+0xfffe120c>
  124a18:	98800117 	ldw	r2,4(r19)
  124a1c:	d9c09d15 	stw	r7,628(sp)
  124a20:	2039883a 	mov	fp,r4
  124a24:	8c400054 	ori	r17,r17,1
  124a28:	0081840e 	bge	zero,r2,12503c <__ssvfscanf_r+0xb90>
  124a2c:	014004f4 	movhi	r5,19
  124a30:	296d9a04 	addi	r5,r5,-18840
  124a34:	00800204 	movi	r2,8
  124a38:	d940a115 	stw	r5,644(sp)
  124a3c:	d8809e15 	stw	r2,632(sp)
  124a40:	050000c4 	movi	r20,3
  124a44:	003fa706 	br	1248e4 <_gp+0xfffe120c>
  124a48:	a1400043 	ldbu	r5,1(r20)
  124a4c:	8c400094 	ori	r17,r17,2
  124a50:	3829883a 	mov	r20,r7
  124a54:	2d403fcc 	andi	r21,r5,255
  124a58:	003edf06 	br	1245d8 <_gp+0xfffe0f00>
  124a5c:	98800117 	ldw	r2,4(r19)
  124a60:	d9c09d15 	stw	r7,628(sp)
  124a64:	2039883a 	mov	fp,r4
  124a68:	00816d0e 	bge	zero,r2,125020 <__ssvfscanf_r+0xb74>
  124a6c:	05000104 	movi	r20,4
  124a70:	003f9c06 	br	1248e4 <_gp+0xfffe120c>
  124a74:	98800117 	ldw	r2,4(r19)
  124a78:	d9c09d15 	stw	r7,628(sp)
  124a7c:	2039883a 	mov	fp,r4
  124a80:	0081800e 	bge	zero,r2,125084 <__ssvfscanf_r+0xbd8>
  124a84:	010004f4 	movhi	r4,19
  124a88:	212d9a04 	addi	r4,r4,-18840
  124a8c:	01400204 	movi	r5,8
  124a90:	d900a115 	stw	r4,644(sp)
  124a94:	d9409e15 	stw	r5,632(sp)
  124a98:	050000c4 	movi	r20,3
  124a9c:	003f9106 	br	1248e4 <_gp+0xfffe120c>
  124aa0:	d9c09d15 	stw	r7,628(sp)
  124aa4:	8880040c 	andi	r2,r17,16
  124aa8:	1000a01e 	bne	r2,zero,124d2c <__ssvfscanf_r+0x880>
  124aac:	8880010c 	andi	r2,r17,4
  124ab0:	10012826 	beq	r2,zero,124f54 <__ssvfscanf_r+0xaa8>
  124ab4:	d9009c17 	ldw	r4,624(sp)
  124ab8:	3829883a 	mov	r20,r7
  124abc:	20800017 	ldw	r2,0(r4)
  124ac0:	21000104 	addi	r4,r4,4
  124ac4:	d9009c15 	stw	r4,624(sp)
  124ac8:	1480000d 	sth	r18,0(r2)
  124acc:	003eb306 	br	12459c <_gp+0xfffe0ec4>
  124ad0:	a5400043 	ldbu	r21,1(r20)
  124ad4:	a8c11a26 	beq	r21,r3,124f40 <__ssvfscanf_r+0xa94>
  124ad8:	8c400054 	ori	r17,r17,1
  124adc:	3829883a 	mov	r20,r7
  124ae0:	003ebd06 	br	1245d8 <_gp+0xfffe0f00>
  124ae4:	a1400043 	ldbu	r5,1(r20)
  124ae8:	8c400114 	ori	r17,r17,4
  124aec:	3829883a 	mov	r20,r7
  124af0:	2d403fcc 	andi	r21,r5,255
  124af4:	003eb806 	br	1245d8 <_gp+0xfffe0f00>
  124af8:	98800117 	ldw	r2,4(r19)
  124afc:	d9c09d15 	stw	r7,628(sp)
  124b00:	2039883a 	mov	fp,r4
  124b04:	00bf610e 	bge	zero,r2,12488c <_gp+0xfffe11b4>
  124b08:	008004f4 	movhi	r2,19
  124b0c:	10ac3c04 	addi	r2,r2,-20240
  124b10:	00c00284 	movi	r3,10
  124b14:	d880a115 	stw	r2,644(sp)
  124b18:	d8c09e15 	stw	r3,632(sp)
  124b1c:	050000c4 	movi	r20,3
  124b20:	003f7006 	br	1248e4 <_gp+0xfffe120c>
  124b24:	98800117 	ldw	r2,4(r19)
  124b28:	d9c09d15 	stw	r7,628(sp)
  124b2c:	2039883a 	mov	fp,r4
  124b30:	0080c60e 	bge	zero,r2,124e4c <__ssvfscanf_r+0x9a0>
  124b34:	e000011e 	bne	fp,zero,124b3c <__ssvfscanf_r+0x690>
  124b38:	07000044 	movi	fp,1
  124b3c:	8880004c 	andi	r2,r17,1
  124b40:	1000461e 	bne	r2,zero,124c5c <__ssvfscanf_r+0x7b0>
  124b44:	8c40040c 	andi	r17,r17,16
  124b48:	8800dc26 	beq	r17,zero,124ebc <__ssvfscanf_r+0xa10>
  124b4c:	0021883a 	mov	r16,zero
  124b50:	00000806 	br	124b74 <__ssvfscanf_r+0x6c8>
  124b54:	1887883a 	add	r3,r3,r2
  124b58:	980b883a 	mov	r5,r19
  124b5c:	b809883a 	mov	r4,r23
  124b60:	98c00015 	stw	r3,0(r19)
  124b64:	80a1883a 	add	r16,r16,r2
  124b68:	e0b9c83a 	sub	fp,fp,r2
  124b6c:	012d2940 	call	12d294 <__ssrefill_r>
  124b70:	1000cc1e 	bne	r2,zero,124ea4 <__ssvfscanf_r+0x9f8>
  124b74:	98800117 	ldw	r2,4(r19)
  124b78:	98c00017 	ldw	r3,0(r19)
  124b7c:	173ff516 	blt	r2,fp,124b54 <_gp+0xfffe147c>
  124b80:	1705c83a 	sub	r2,r2,fp
  124b84:	1f15883a 	add	r10,r3,fp
  124b88:	8721883a 	add	r16,r16,fp
  124b8c:	98800115 	stw	r2,4(r19)
  124b90:	9a800015 	stw	r10,0(r19)
  124b94:	dd009d17 	ldw	r20,628(sp)
  124b98:	9425883a 	add	r18,r18,r16
  124b9c:	a00d883a 	mov	r6,r20
  124ba0:	003e7f06 	br	1245a0 <_gp+0xfffe0ec8>
  124ba4:	2039883a 	mov	fp,r4
  124ba8:	380b883a 	mov	r5,r7
  124bac:	d9005884 	addi	r4,sp,354
  124bb0:	d9c09d15 	stw	r7,628(sp)
  124bb4:	01296780 	call	129678 <__sccl>
  124bb8:	1029883a 	mov	r20,r2
  124bbc:	98800117 	ldw	r2,4(r19)
  124bc0:	0081120e 	bge	zero,r2,12500c <__ssvfscanf_r+0xb60>
  124bc4:	99000017 	ldw	r4,0(r19)
  124bc8:	20800003 	ldbu	r2,0(r4)
  124bcc:	e0005a26 	beq	fp,zero,124d38 <__ssvfscanf_r+0x88c>
  124bd0:	8c40040c 	andi	r17,r17,16
  124bd4:	88005b26 	beq	r17,zero,124d44 <__ssvfscanf_r+0x898>
  124bd8:	e023883a 	mov	r17,fp
  124bdc:	0021883a 	mov	r16,zero
  124be0:	00000106 	br	124be8 <__ssvfscanf_r+0x73c>
  124be4:	20800003 	ldbu	r2,0(r4)
  124be8:	10803fcc 	andi	r2,r2,255
  124bec:	d8c05884 	addi	r3,sp,354
  124bf0:	1885883a 	add	r2,r3,r2
  124bf4:	10800007 	ldb	r2,0(r2)
  124bf8:	1000ae26 	beq	r2,zero,124eb4 <__ssvfscanf_r+0xa08>
  124bfc:	98800117 	ldw	r2,4(r19)
  124c00:	21000044 	addi	r4,r4,1
  124c04:	84000044 	addi	r16,r16,1
  124c08:	10bfffc4 	addi	r2,r2,-1
  124c0c:	98800115 	stw	r2,4(r19)
  124c10:	99000015 	stw	r4,0(r19)
  124c14:	8700a126 	beq	r16,fp,124e9c <__ssvfscanf_r+0x9f0>
  124c18:	00bff216 	blt	zero,r2,124be4 <_gp+0xfffe150c>
  124c1c:	980b883a 	mov	r5,r19
  124c20:	b809883a 	mov	r4,r23
  124c24:	012d2940 	call	12d294 <__ssrefill_r>
  124c28:	10009b1e 	bne	r2,zero,124e98 <__ssvfscanf_r+0x9ec>
  124c2c:	99000017 	ldw	r4,0(r19)
  124c30:	003fec06 	br	124be4 <_gp+0xfffe150c>
  124c34:	98800117 	ldw	r2,4(r19)
  124c38:	d9c09d15 	stw	r7,628(sp)
  124c3c:	2039883a 	mov	fp,r4
  124c40:	00811c0e 	bge	zero,r2,1250b4 <__ssvfscanf_r+0xc08>
  124c44:	014004f4 	movhi	r5,19
  124c48:	296c3c04 	addi	r5,r5,-20240
  124c4c:	d940a115 	stw	r5,644(sp)
  124c50:	d8009e15 	stw	zero,632(sp)
  124c54:	050000c4 	movi	r20,3
  124c58:	003f2206 	br	1248e4 <_gp+0xfffe120c>
  124c5c:	dd409904 	addi	r21,sp,612
  124c60:	8c40040c 	andi	r17,r17,16
  124c64:	01800204 	movi	r6,8
  124c68:	000b883a 	mov	r5,zero
  124c6c:	a809883a 	mov	r4,r21
  124c70:	dc409f15 	stw	r17,636(sp)
  124c74:	01214d80 	call	1214d8 <memset>
  124c78:	dc409f17 	ldw	r17,636(sp)
  124c7c:	88006e26 	beq	r17,zero,124e38 <__ssvfscanf_r+0x98c>
  124c80:	0029883a 	mov	r20,zero
  124c84:	0023883a 	mov	r17,zero
  124c88:	01278540 	call	127854 <__locale_mb_cur_max>
  124c8c:	14406126 	beq	r2,r17,124e14 <__ssvfscanf_r+0x968>
  124c90:	98800017 	ldw	r2,0(r19)
  124c94:	98c00117 	ldw	r3,4(r19)
  124c98:	d9000104 	addi	r4,sp,4
  124c9c:	12000003 	ldbu	r8,0(r2)
  124ca0:	18ffffc4 	addi	r3,r3,-1
  124ca4:	10800044 	addi	r2,r2,1
  124ca8:	98c00115 	stw	r3,4(r19)
  124cac:	98800015 	stw	r2,0(r19)
  124cb0:	8c000044 	addi	r16,r17,1
  124cb4:	dd400015 	stw	r21,0(sp)
  124cb8:	2463883a 	add	r17,r4,r17
  124cbc:	200d883a 	mov	r6,r4
  124cc0:	a00b883a 	mov	r5,r20
  124cc4:	800f883a 	mov	r7,r16
  124cc8:	b809883a 	mov	r4,r23
  124ccc:	8a000005 	stb	r8,0(r17)
  124cd0:	01281140 	call	128114 <_mbrtowc_r>
  124cd4:	017fffc4 	movi	r5,-1
  124cd8:	11404e26 	beq	r2,r5,124e14 <__ssvfscanf_r+0x968>
  124cdc:	1000601e 	bne	r2,zero,124e60 <__ssvfscanf_r+0x9b4>
  124ce0:	d8c09f17 	ldw	r3,636(sp)
  124ce4:	1800641e 	bne	r3,zero,124e78 <__ssvfscanf_r+0x9cc>
  124ce8:	a0000015 	stw	zero,0(r20)
  124cec:	9425883a 	add	r18,r18,r16
  124cf0:	e179883a 	add	fp,fp,r5
  124cf4:	a5000104 	addi	r20,r20,4
  124cf8:	98800117 	ldw	r2,4(r19)
  124cfc:	0023883a 	mov	r17,zero
  124d00:	00804b16 	blt	zero,r2,124e30 <__ssvfscanf_r+0x984>
  124d04:	980b883a 	mov	r5,r19
  124d08:	b809883a 	mov	r4,r23
  124d0c:	012d2940 	call	12d294 <__ssrefill_r>
  124d10:	10004726 	beq	r2,zero,124e30 <__ssvfscanf_r+0x984>
  124d14:	88003f1e 	bne	r17,zero,124e14 <__ssvfscanf_r+0x968>
  124d18:	d8c09f17 	ldw	r3,636(sp)
  124d1c:	1800031e 	bne	r3,zero,124d2c <__ssvfscanf_r+0x880>
  124d20:	d900a017 	ldw	r4,640(sp)
  124d24:	21000044 	addi	r4,r4,1
  124d28:	d900a015 	stw	r4,640(sp)
  124d2c:	dd009d17 	ldw	r20,628(sp)
  124d30:	a00d883a 	mov	r6,r20
  124d34:	003e1a06 	br	1245a0 <_gp+0xfffe0ec8>
  124d38:	8c40040c 	andi	r17,r17,16
  124d3c:	073fffc4 	movi	fp,-1
  124d40:	883fa51e 	bne	r17,zero,124bd8 <_gp+0xfffe1500>
  124d44:	d9409c17 	ldw	r5,624(sp)
  124d48:	e2bfffc4 	addi	r10,fp,-1
  124d4c:	2c000017 	ldw	r16,0(r5)
  124d50:	2c400104 	addi	r17,r5,4
  124d54:	8007883a 	mov	r3,r16
  124d58:	82ab883a 	add	r21,r16,r10
  124d5c:	00000306 	br	124d6c <__ssvfscanf_r+0x8c0>
  124d60:	99000017 	ldw	r4,0(r19)
  124d64:	e007883a 	mov	r3,fp
  124d68:	20800003 	ldbu	r2,0(r4)
  124d6c:	10803fcc 	andi	r2,r2,255
  124d70:	d9405884 	addi	r5,sp,354
  124d74:	2885883a 	add	r2,r5,r2
  124d78:	10800007 	ldb	r2,0(r2)
  124d7c:	10004b26 	beq	r2,zero,124eac <__ssvfscanf_r+0xa00>
  124d80:	98800117 	ldw	r2,4(r19)
  124d84:	21400044 	addi	r5,r4,1
  124d88:	99400015 	stw	r5,0(r19)
  124d8c:	10bfffc4 	addi	r2,r2,-1
  124d90:	98800115 	stw	r2,4(r19)
  124d94:	20800003 	ldbu	r2,0(r4)
  124d98:	1f000044 	addi	fp,r3,1
  124d9c:	18800005 	stb	r2,0(r3)
  124da0:	1d400726 	beq	r3,r21,124dc0 <__ssvfscanf_r+0x914>
  124da4:	98800117 	ldw	r2,4(r19)
  124da8:	00bfed16 	blt	zero,r2,124d60 <_gp+0xfffe1688>
  124dac:	980b883a 	mov	r5,r19
  124db0:	b809883a 	mov	r4,r23
  124db4:	012d2940 	call	12d294 <__ssrefill_r>
  124db8:	103fe926 	beq	r2,zero,124d60 <_gp+0xfffe1688>
  124dbc:	87001526 	beq	r16,fp,124e14 <__ssvfscanf_r+0x968>
  124dc0:	e421c83a 	sub	r16,fp,r16
  124dc4:	803dfa26 	beq	r16,zero,1245b0 <_gp+0xfffe0ed8>
  124dc8:	d880a017 	ldw	r2,640(sp)
  124dcc:	e0000005 	stb	zero,0(fp)
  124dd0:	dc409c15 	stw	r17,624(sp)
  124dd4:	10800044 	addi	r2,r2,1
  124dd8:	d880a015 	stw	r2,640(sp)
  124ddc:	9425883a 	add	r18,r18,r16
  124de0:	a00d883a 	mov	r6,r20
  124de4:	003dee06 	br	1245a0 <_gp+0xfffe0ec8>
  124de8:	013fff84 	movi	r4,-2
  124dec:	1103ed1e 	bne	r2,r4,125da4 <__ssvfscanf_r+0x18f8>
  124df0:	8821883a 	mov	r16,r17
  124df4:	98800117 	ldw	r2,4(r19)
  124df8:	00834116 	blt	zero,r2,125b00 <__ssvfscanf_r+0x1654>
  124dfc:	980b883a 	mov	r5,r19
  124e00:	b809883a 	mov	r4,r23
  124e04:	012d2940 	call	12d294 <__ssrefill_r>
  124e08:	10033d26 	beq	r2,zero,125b00 <__ssvfscanf_r+0x1654>
  124e0c:	dc409f17 	ldw	r17,636(sp)
  124e10:	80034426 	beq	r16,zero,125b24 <__ssvfscanf_r+0x1678>
  124e14:	d900a017 	ldw	r4,640(sp)
  124e18:	203e8026 	beq	r4,zero,12481c <_gp+0xfffe1144>
  124e1c:	9880030b 	ldhu	r2,12(r19)
  124e20:	1080100c 	andi	r2,r2,64
  124e24:	103e7d1e 	bne	r2,zero,12481c <_gp+0xfffe1144>
  124e28:	2005883a 	mov	r2,r4
  124e2c:	003e7c06 	br	124820 <_gp+0xfffe1148>
  124e30:	e03f951e 	bne	fp,zero,124c88 <_gp+0xfffe15b0>
  124e34:	003fb806 	br	124d18 <_gp+0xfffe1640>
  124e38:	d8809c17 	ldw	r2,624(sp)
  124e3c:	15000017 	ldw	r20,0(r2)
  124e40:	10800104 	addi	r2,r2,4
  124e44:	d8809c15 	stw	r2,624(sp)
  124e48:	003f8e06 	br	124c84 <_gp+0xfffe15ac>
  124e4c:	980b883a 	mov	r5,r19
  124e50:	b809883a 	mov	r4,r23
  124e54:	012d2940 	call	12d294 <__ssrefill_r>
  124e58:	103f3626 	beq	r2,zero,124b34 <_gp+0xfffe145c>
  124e5c:	003fed06 	br	124e14 <_gp+0xfffe173c>
  124e60:	013fff84 	movi	r4,-2
  124e64:	1100071e 	bne	r2,r4,124e84 <__ssvfscanf_r+0x9d8>
  124e68:	98800117 	ldw	r2,4(r19)
  124e6c:	8023883a 	mov	r17,r16
  124e70:	00bf8516 	blt	zero,r2,124c88 <_gp+0xfffe15b0>
  124e74:	003fa306 	br	124d04 <_gp+0xfffe162c>
  124e78:	9425883a 	add	r18,r18,r16
  124e7c:	e73fffc4 	addi	fp,fp,-1
  124e80:	003f9d06 	br	124cf8 <_gp+0xfffe1620>
  124e84:	d8c09f17 	ldw	r3,636(sp)
  124e88:	9425883a 	add	r18,r18,r16
  124e8c:	e73fffc4 	addi	fp,fp,-1
  124e90:	183f9826 	beq	r3,zero,124cf4 <_gp+0xfffe161c>
  124e94:	003f9806 	br	124cf8 <_gp+0xfffe1620>
  124e98:	8023883a 	mov	r17,r16
  124e9c:	8821883a 	mov	r16,r17
  124ea0:	003fce06 	br	124ddc <_gp+0xfffe1704>
  124ea4:	803f3b1e 	bne	r16,zero,124b94 <_gp+0xfffe14bc>
  124ea8:	003fda06 	br	124e14 <_gp+0xfffe173c>
  124eac:	1839883a 	mov	fp,r3
  124eb0:	003fc306 	br	124dc0 <_gp+0xfffe16e8>
  124eb4:	803fc91e 	bne	r16,zero,124ddc <_gp+0xfffe1704>
  124eb8:	003dbd06 	br	1245b0 <_gp+0xfffe0ed8>
  124ebc:	d8809c17 	ldw	r2,624(sp)
  124ec0:	dcc00015 	stw	r19,0(sp)
  124ec4:	b809883a 	mov	r4,r23
  124ec8:	11400017 	ldw	r5,0(r2)
  124ecc:	e00f883a 	mov	r7,fp
  124ed0:	01800044 	movi	r6,1
  124ed4:	012d3040 	call	12d304 <_sfread_r>
  124ed8:	d9009c17 	ldw	r4,624(sp)
  124edc:	20c00104 	addi	r3,r4,4
  124ee0:	103fcc26 	beq	r2,zero,124e14 <_gp+0xfffe173c>
  124ee4:	d940a017 	ldw	r5,640(sp)
  124ee8:	dd009d17 	ldw	r20,628(sp)
  124eec:	90a5883a 	add	r18,r18,r2
  124ef0:	29400044 	addi	r5,r5,1
  124ef4:	d940a015 	stw	r5,640(sp)
  124ef8:	d8c09c15 	stw	r3,624(sp)
  124efc:	a00d883a 	mov	r6,r20
  124f00:	003da706 	br	1245a0 <_gp+0xfffe0ec8>
  124f04:	980b883a 	mov	r5,r19
  124f08:	b809883a 	mov	r4,r23
  124f0c:	012d2940 	call	12d294 <__ssrefill_r>
  124f10:	103e3626 	beq	r2,zero,1247ec <_gp+0xfffe1114>
  124f14:	003fbf06 	br	124e14 <_gp+0xfffe173c>
  124f18:	98800117 	ldw	r2,4(r19)
  124f1c:	88e2b03a 	or	r17,r17,r3
  124f20:	0080210e 	bge	zero,r2,124fa8 <__ssvfscanf_r+0xafc>
  124f24:	014004f4 	movhi	r5,19
  124f28:	296c3c04 	addi	r5,r5,-20240
  124f2c:	00800284 	movi	r2,10
  124f30:	d940a115 	stw	r5,644(sp)
  124f34:	d8809e15 	stw	r2,632(sp)
  124f38:	050000c4 	movi	r20,3
  124f3c:	003e6906 	br	1248e4 <_gp+0xfffe120c>
  124f40:	a1400083 	ldbu	r5,2(r20)
  124f44:	8c400094 	ori	r17,r17,2
  124f48:	a5000084 	addi	r20,r20,2
  124f4c:	2d403fcc 	andi	r21,r5,255
  124f50:	003da106 	br	1245d8 <_gp+0xfffe0f00>
  124f54:	8880004c 	andi	r2,r17,1
  124f58:	10000c1e 	bne	r2,zero,124f8c <__ssvfscanf_r+0xae0>
  124f5c:	8c40008c 	andi	r17,r17,2
  124f60:	88000a26 	beq	r17,zero,124f8c <__ssvfscanf_r+0xae0>
  124f64:	d8c09c17 	ldw	r3,624(sp)
  124f68:	d9009c17 	ldw	r4,624(sp)
  124f6c:	dd009d17 	ldw	r20,628(sp)
  124f70:	18800017 	ldw	r2,0(r3)
  124f74:	9007d7fa 	srai	r3,r18,31
  124f78:	21000104 	addi	r4,r4,4
  124f7c:	14800015 	stw	r18,0(r2)
  124f80:	10c00115 	stw	r3,4(r2)
  124f84:	d9009c15 	stw	r4,624(sp)
  124f88:	003d8406 	br	12459c <_gp+0xfffe0ec4>
  124f8c:	d9409c17 	ldw	r5,624(sp)
  124f90:	dd009d17 	ldw	r20,628(sp)
  124f94:	28800017 	ldw	r2,0(r5)
  124f98:	29400104 	addi	r5,r5,4
  124f9c:	d9409c15 	stw	r5,624(sp)
  124fa0:	14800015 	stw	r18,0(r2)
  124fa4:	003d7d06 	br	12459c <_gp+0xfffe0ec4>
  124fa8:	980b883a 	mov	r5,r19
  124fac:	b809883a 	mov	r4,r23
  124fb0:	012d2940 	call	12d294 <__ssrefill_r>
  124fb4:	103f971e 	bne	r2,zero,124e14 <_gp+0xfffe173c>
  124fb8:	b4000017 	ldw	r16,0(r22)
  124fbc:	003ed206 	br	124b08 <_gp+0xfffe1430>
  124fc0:	980b883a 	mov	r5,r19
  124fc4:	b809883a 	mov	r4,r23
  124fc8:	012d2940 	call	12d294 <__ssrefill_r>
  124fcc:	103f911e 	bne	r2,zero,124e14 <_gp+0xfffe173c>
  124fd0:	010004f4 	movhi	r4,19
  124fd4:	212d9a04 	addi	r4,r4,-18840
  124fd8:	01400404 	movi	r5,16
  124fdc:	b4000017 	ldw	r16,0(r22)
  124fe0:	d900a115 	stw	r4,644(sp)
  124fe4:	d9409e15 	stw	r5,632(sp)
  124fe8:	050000c4 	movi	r20,3
  124fec:	003e3d06 	br	1248e4 <_gp+0xfffe120c>
  124ff0:	980b883a 	mov	r5,r19
  124ff4:	b809883a 	mov	r4,r23
  124ff8:	012d2940 	call	12d294 <__ssrefill_r>
  124ffc:	103f851e 	bne	r2,zero,124e14 <_gp+0xfffe173c>
  125000:	b4000017 	ldw	r16,0(r22)
  125004:	05000084 	movi	r20,2
  125008:	003e3606 	br	1248e4 <_gp+0xfffe120c>
  12500c:	980b883a 	mov	r5,r19
  125010:	b809883a 	mov	r4,r23
  125014:	012d2940 	call	12d294 <__ssrefill_r>
  125018:	103eea26 	beq	r2,zero,124bc4 <_gp+0xfffe14ec>
  12501c:	003f7d06 	br	124e14 <_gp+0xfffe173c>
  125020:	980b883a 	mov	r5,r19
  125024:	b809883a 	mov	r4,r23
  125028:	012d2940 	call	12d294 <__ssrefill_r>
  12502c:	103f791e 	bne	r2,zero,124e14 <_gp+0xfffe173c>
  125030:	b4000017 	ldw	r16,0(r22)
  125034:	05000104 	movi	r20,4
  125038:	003e2a06 	br	1248e4 <_gp+0xfffe120c>
  12503c:	980b883a 	mov	r5,r19
  125040:	b809883a 	mov	r4,r23
  125044:	012d2940 	call	12d294 <__ssrefill_r>
  125048:	103f721e 	bne	r2,zero,124e14 <_gp+0xfffe173c>
  12504c:	b4000017 	ldw	r16,0(r22)
  125050:	003e8c06 	br	124a84 <_gp+0xfffe13ac>
  125054:	980b883a 	mov	r5,r19
  125058:	b809883a 	mov	r4,r23
  12505c:	012d2940 	call	12d294 <__ssrefill_r>
  125060:	103f6c1e 	bne	r2,zero,124e14 <_gp+0xfffe173c>
  125064:	008004f4 	movhi	r2,19
  125068:	10ad9a04 	addi	r2,r2,-18840
  12506c:	00c00284 	movi	r3,10
  125070:	b4000017 	ldw	r16,0(r22)
  125074:	d880a115 	stw	r2,644(sp)
  125078:	d8c09e15 	stw	r3,632(sp)
  12507c:	050000c4 	movi	r20,3
  125080:	003e1806 	br	1248e4 <_gp+0xfffe120c>
  125084:	980b883a 	mov	r5,r19
  125088:	b809883a 	mov	r4,r23
  12508c:	012d2940 	call	12d294 <__ssrefill_r>
  125090:	103f601e 	bne	r2,zero,124e14 <_gp+0xfffe173c>
  125094:	008004f4 	movhi	r2,19
  125098:	10ad9a04 	addi	r2,r2,-18840
  12509c:	00c00204 	movi	r3,8
  1250a0:	b4000017 	ldw	r16,0(r22)
  1250a4:	d880a115 	stw	r2,644(sp)
  1250a8:	d8c09e15 	stw	r3,632(sp)
  1250ac:	050000c4 	movi	r20,3
  1250b0:	003e0c06 	br	1248e4 <_gp+0xfffe120c>
  1250b4:	980b883a 	mov	r5,r19
  1250b8:	b809883a 	mov	r4,r23
  1250bc:	012d2940 	call	12d294 <__ssrefill_r>
  1250c0:	103f541e 	bne	r2,zero,124e14 <_gp+0xfffe173c>
  1250c4:	008004f4 	movhi	r2,19
  1250c8:	10ac3c04 	addi	r2,r2,-20240
  1250cc:	b4000017 	ldw	r16,0(r22)
  1250d0:	d880a115 	stw	r2,644(sp)
  1250d4:	d8009e15 	stw	zero,632(sp)
  1250d8:	050000c4 	movi	r20,3
  1250dc:	003e0106 	br	1248e4 <_gp+0xfffe120c>
  1250e0:	980b883a 	mov	r5,r19
  1250e4:	b809883a 	mov	r4,r23
  1250e8:	012d2940 	call	12d294 <__ssrefill_r>
  1250ec:	103f491e 	bne	r2,zero,124e14 <_gp+0xfffe173c>
  1250f0:	008004f4 	movhi	r2,19
  1250f4:	10ad9a04 	addi	r2,r2,-18840
  1250f8:	00c00404 	movi	r3,16
  1250fc:	b4000017 	ldw	r16,0(r22)
  125100:	d880a115 	stw	r2,644(sp)
  125104:	d8c09e15 	stw	r3,632(sp)
  125108:	050000c4 	movi	r20,3
  12510c:	003df506 	br	1248e4 <_gp+0xfffe120c>
  125110:	014000c4 	movi	r5,3
  125114:	a1416726 	beq	r20,r5,1256b4 <__ssvfscanf_r+0x1208>
  125118:	01000104 	movi	r4,4
  12511c:	a101491e 	bne	r20,r4,125644 <__ssvfscanf_r+0x1198>
  125120:	b809883a 	mov	r4,r23
  125124:	01278780 	call	127878 <_localeconv_r>
  125128:	10800017 	ldw	r2,0(r2)
  12512c:	e0ffffc4 	addi	r3,fp,-1
  125130:	d880a315 	stw	r2,652(sp)
  125134:	00805704 	movi	r2,348
  125138:	10c21e2e 	bgeu	r2,r3,1259b4 <__ssvfscanf_r+0x1508>
  12513c:	e73fa8c4 	addi	fp,fp,-349
  125140:	df00a215 	stw	fp,648(sp)
  125144:	07005744 	movi	fp,349
  125148:	8d01e014 	ori	r20,r17,1920
  12514c:	0023883a 	mov	r17,zero
  125150:	dc000104 	addi	r16,sp,4
  125154:	002b883a 	mov	r21,zero
  125158:	8805883a 	mov	r2,r17
  12515c:	0007883a 	mov	r3,zero
  125160:	8023883a 	mov	r17,r16
  125164:	b80d883a 	mov	r6,r23
  125168:	e021883a 	mov	r16,fp
  12516c:	a82f883a 	mov	r23,r21
  125170:	d800a515 	stw	zero,660(sp)
  125174:	d800a415 	stw	zero,656(sp)
  125178:	d8009f15 	stw	zero,636(sp)
  12517c:	01c01384 	movi	r7,78
  125180:	182b883a 	mov	r21,r3
  125184:	1039883a 	mov	fp,r2
  125188:	99000017 	ldw	r4,0(r19)
  12518c:	21400003 	ldbu	r5,0(r4)
  125190:	28bff544 	addi	r2,r5,-43
  125194:	10803fcc 	andi	r2,r2,255
  125198:	38810e36 	bltu	r7,r2,1255d4 <__ssvfscanf_r+0x1128>
  12519c:	100490ba 	slli	r2,r2,2
  1251a0:	00c004b4 	movhi	r3,18
  1251a4:	18d46d04 	addi	r3,r3,20916
  1251a8:	10c5883a 	add	r2,r2,r3
  1251ac:	10800017 	ldw	r2,0(r2)
  1251b0:	1000683a 	jmp	r2
  1251b4:	001254a8 	cmpgeui	zero,zero,18770
  1251b8:	001255d4 	movui	zero,18775
  1251bc:	001254a8 	cmpgeui	zero,zero,18770
  1251c0:	001255d4 	movui	zero,18775
  1251c4:	001255d4 	movui	zero,18775
  1251c8:	0012547c 	xorhi	zero,zero,18769
  1251cc:	001252f0 	cmpltui	zero,zero,18763
  1251d0:	001252f0 	cmpltui	zero,zero,18763
  1251d4:	001252f0 	cmpltui	zero,zero,18763
  1251d8:	001252f0 	cmpltui	zero,zero,18763
  1251dc:	001252f0 	cmpltui	zero,zero,18763
  1251e0:	001252f0 	cmpltui	zero,zero,18763
  1251e4:	001252f0 	cmpltui	zero,zero,18763
  1251e8:	001252f0 	cmpltui	zero,zero,18763
  1251ec:	001252f0 	cmpltui	zero,zero,18763
  1251f0:	001255d4 	movui	zero,18775
  1251f4:	001255d4 	movui	zero,18775
  1251f8:	001255d4 	movui	zero,18775
  1251fc:	001255d4 	movui	zero,18775
  125200:	001255d4 	movui	zero,18775
  125204:	001255d4 	movui	zero,18775
  125208:	001255d4 	movui	zero,18775
  12520c:	001255c4 	movi	zero,18775
  125210:	001255d4 	movui	zero,18775
  125214:	001255d4 	movui	zero,18775
  125218:	001255d4 	movui	zero,18775
  12521c:	00125580 	call	12558 <__alt_mem_onchip_flash_data-0x6daa8>
  125220:	00125564 	muli	zero,zero,18773
  125224:	001255d4 	movui	zero,18775
  125228:	001255d4 	movui	zero,18775
  12522c:	0012552c 	andhi	zero,zero,18772
  125230:	001255d4 	movui	zero,18775
  125234:	001255d4 	movui	zero,18775
  125238:	001255d4 	movui	zero,18775
  12523c:	001255d4 	movui	zero,18775
  125240:	001254f4 	movhi	zero,18771
  125244:	001255d4 	movui	zero,18775
  125248:	001255d4 	movui	zero,18775
  12524c:	001255d4 	movui	zero,18775
  125250:	001255d4 	movui	zero,18775
  125254:	001255d4 	movui	zero,18775
  125258:	001254d8 	cmpnei	zero,zero,18771
  12525c:	001255d4 	movui	zero,18775
  125260:	001255d4 	movui	zero,18775
  125264:	001255d4 	movui	zero,18775
  125268:	001255d4 	movui	zero,18775
  12526c:	001254bc 	xorhi	zero,zero,18770
  125270:	001255d4 	movui	zero,18775
  125274:	001255d4 	movui	zero,18775
  125278:	001255d4 	movui	zero,18775
  12527c:	001255d4 	movui	zero,18775
  125280:	001255d4 	movui	zero,18775
  125284:	001255d4 	movui	zero,18775
  125288:	001255d4 	movui	zero,18775
  12528c:	001255c4 	movi	zero,18775
  125290:	001255d4 	movui	zero,18775
  125294:	001255d4 	movui	zero,18775
  125298:	001255d4 	movui	zero,18775
  12529c:	00125580 	call	12558 <__alt_mem_onchip_flash_data-0x6daa8>
  1252a0:	00125564 	muli	zero,zero,18773
  1252a4:	001255d4 	movui	zero,18775
  1252a8:	001255d4 	movui	zero,18775
  1252ac:	0012552c 	andhi	zero,zero,18772
  1252b0:	001255d4 	movui	zero,18775
  1252b4:	001255d4 	movui	zero,18775
  1252b8:	001255d4 	movui	zero,18775
  1252bc:	001255d4 	movui	zero,18775
  1252c0:	001254f4 	movhi	zero,18771
  1252c4:	001255d4 	movui	zero,18775
  1252c8:	001255d4 	movui	zero,18775
  1252cc:	001255d4 	movui	zero,18775
  1252d0:	001255d4 	movui	zero,18775
  1252d4:	001255d4 	movui	zero,18775
  1252d8:	001254d8 	cmpnei	zero,zero,18771
  1252dc:	001255d4 	movui	zero,18775
  1252e0:	001255d4 	movui	zero,18775
  1252e4:	001255d4 	movui	zero,18775
  1252e8:	001255d4 	movui	zero,18775
  1252ec:	001254bc 	xorhi	zero,zero,18770
  1252f0:	a8803fcc 	andi	r2,r21,255
  1252f4:	1080201c 	xori	r2,r2,128
  1252f8:	10bfe004 	addi	r2,r2,-128
  1252fc:	b885883a 	add	r2,r23,r2
  125300:	10000d1e 	bne	r2,zero,125338 <__ssvfscanf_r+0xe8c>
  125304:	00bf9fc4 	movi	r2,-385
  125308:	a0a8703a 	and	r20,r20,r2
  12530c:	89400005 	stb	r5,0(r17)
  125310:	8c400044 	addi	r17,r17,1
  125314:	98800117 	ldw	r2,4(r19)
  125318:	843fffc4 	addi	r16,r16,-1
  12531c:	94800044 	addi	r18,r18,1
  125320:	10bfffc4 	addi	r2,r2,-1
  125324:	98800115 	stw	r2,4(r19)
  125328:	0080b40e 	bge	zero,r2,1255fc <__ssvfscanf_r+0x1150>
  12532c:	21000044 	addi	r4,r4,1
  125330:	99000015 	stw	r4,0(r19)
  125334:	803f941e 	bne	r16,zero,125188 <_gp+0xfffe1ab0>
  125338:	8821883a 	mov	r16,r17
  12533c:	a807883a 	mov	r3,r21
  125340:	e023883a 	mov	r17,fp
  125344:	b82b883a 	mov	r21,r23
  125348:	302f883a 	mov	r23,r6
  12534c:	e001961e 	bne	fp,zero,1259a8 <__ssvfscanf_r+0x14fc>
  125350:	ab3fffc4 	addi	r12,r21,-1
  125354:	00800044 	movi	r2,1
  125358:	1302a22e 	bgeu	r2,r12,125de4 <__ssvfscanf_r+0x1938>
  12535c:	18803fcc 	andi	r2,r3,255
  125360:	1080201c 	xori	r2,r2,128
  125364:	10bfe004 	addi	r2,r2,-128
  125368:	113fffc4 	addi	r4,r2,-1
  12536c:	01400184 	movi	r5,6
  125370:	29001136 	bltu	r5,r4,1253b8 <__ssvfscanf_r+0xf0c>
  125374:	01000084 	movi	r4,2
  125378:	2082770e 	bge	r4,r2,125d58 <__ssvfscanf_r+0x18ac>
  12537c:	054000c4 	movi	r21,3
  125380:	1839883a 	mov	fp,r3
  125384:	15400c26 	beq	r2,r21,1253b8 <__ssvfscanf_r+0xf0c>
  125388:	9425c83a 	sub	r18,r18,r16
  12538c:	843fffc4 	addi	r16,r16,-1
  125390:	81400007 	ldb	r5,0(r16)
  125394:	980d883a 	mov	r6,r19
  125398:	b809883a 	mov	r4,r23
  12539c:	012d18c0 	call	12d18c <_sungetc_r>
  1253a0:	e0bfffc4 	addi	r2,fp,-1
  1253a4:	10c03fcc 	andi	r3,r2,255
  1253a8:	8493883a 	add	r9,r16,r18
  1253ac:	1039883a 	mov	fp,r2
  1253b0:	a8fff636 	bltu	r21,r3,12538c <_gp+0xfffe1cb4>
  1253b4:	4825883a 	mov	r18,r9
  1253b8:	a080400c 	andi	r2,r20,256
  1253bc:	10001426 	beq	r2,zero,125410 <__ssvfscanf_r+0xf64>
  1253c0:	a081000c 	andi	r2,r20,1024
  1253c4:	10027b1e 	bne	r2,zero,125db4 <__ssvfscanf_r+0x1908>
  1253c8:	817fffc7 	ldb	r5,-1(r16)
  1253cc:	00801944 	movi	r2,101
  1253d0:	873fffc4 	addi	fp,r16,-1
  1253d4:	957fffc4 	addi	r21,r18,-1
  1253d8:	28800826 	beq	r5,r2,1253fc <__ssvfscanf_r+0xf50>
  1253dc:	00801144 	movi	r2,69
  1253e0:	28800626 	beq	r5,r2,1253fc <__ssvfscanf_r+0xf50>
  1253e4:	980d883a 	mov	r6,r19
  1253e8:	b809883a 	mov	r4,r23
  1253ec:	012d18c0 	call	12d18c <_sungetc_r>
  1253f0:	817fff87 	ldb	r5,-2(r16)
  1253f4:	873fff84 	addi	fp,r16,-2
  1253f8:	957fff84 	addi	r21,r18,-2
  1253fc:	980d883a 	mov	r6,r19
  125400:	b809883a 	mov	r4,r23
  125404:	012d18c0 	call	12d18c <_sungetc_r>
  125408:	a825883a 	mov	r18,r21
  12540c:	e021883a 	mov	r16,fp
  125410:	a080040c 	andi	r2,r20,16
  125414:	103e451e 	bne	r2,zero,124d2c <_gp+0xfffe1654>
  125418:	80000005 	stb	zero,0(r16)
  12541c:	a081800c 	andi	r2,r20,1536
  125420:	01010004 	movi	r4,1024
  125424:	1101ea26 	beq	r2,r4,125bd0 <__ssvfscanf_r+0x1724>
  125428:	d8c0a417 	ldw	r3,656(sp)
  12542c:	1801f41e 	bne	r3,zero,125c00 <__ssvfscanf_r+0x1754>
  125430:	000d883a 	mov	r6,zero
  125434:	d9400104 	addi	r5,sp,4
  125438:	b809883a 	mov	r4,r23
  12543c:	01299f40 	call	1299f4 <_strtod_r>
  125440:	1021883a 	mov	r16,r2
  125444:	a080004c 	andi	r2,r20,1
  125448:	1001b926 	beq	r2,zero,125b30 <__ssvfscanf_r+0x1684>
  12544c:	d9009c17 	ldw	r4,624(sp)
  125450:	20800017 	ldw	r2,0(r4)
  125454:	21000104 	addi	r4,r4,4
  125458:	d9009c15 	stw	r4,624(sp)
  12545c:	14000015 	stw	r16,0(r2)
  125460:	10c00115 	stw	r3,4(r2)
  125464:	d8c0a017 	ldw	r3,640(sp)
  125468:	dd009d17 	ldw	r20,628(sp)
  12546c:	18c00044 	addi	r3,r3,1
  125470:	d8c0a015 	stw	r3,640(sp)
  125474:	a00d883a 	mov	r6,r20
  125478:	003c4906 	br	1245a0 <_gp+0xfffe0ec8>
  12547c:	a080400c 	andi	r2,r20,256
  125480:	103f9b26 	beq	r2,zero,1252f0 <_gp+0xfffe1c18>
  125484:	d8c0a217 	ldw	r3,648(sp)
  125488:	00bfdfc4 	movi	r2,-129
  12548c:	a0a8703a 	and	r20,r20,r2
  125490:	e7000044 	addi	fp,fp,1
  125494:	183f9f26 	beq	r3,zero,125314 <_gp+0xfffe1c3c>
  125498:	18ffffc4 	addi	r3,r3,-1
  12549c:	d8c0a215 	stw	r3,648(sp)
  1254a0:	84000044 	addi	r16,r16,1
  1254a4:	003f9b06 	br	125314 <_gp+0xfffe1c3c>
  1254a8:	a080200c 	andi	r2,r20,128
  1254ac:	103fa226 	beq	r2,zero,125338 <_gp+0xfffe1c60>
  1254b0:	00bfdfc4 	movi	r2,-129
  1254b4:	a0a8703a 	and	r20,r20,r2
  1254b8:	003f9406 	br	12530c <_gp+0xfffe1c34>
  1254bc:	a8803fcc 	andi	r2,r21,255
  1254c0:	1080201c 	xori	r2,r2,128
  1254c4:	10bfe004 	addi	r2,r2,-128
  1254c8:	00c001c4 	movi	r3,7
  1254cc:	10ff9a1e 	bne	r2,r3,125338 <_gp+0xfffe1c60>
  1254d0:	05400204 	movi	r21,8
  1254d4:	003f8d06 	br	12530c <_gp+0xfffe1c34>
  1254d8:	a8803fcc 	andi	r2,r21,255
  1254dc:	1080201c 	xori	r2,r2,128
  1254e0:	10bfe004 	addi	r2,r2,-128
  1254e4:	02000184 	movi	r8,6
  1254e8:	123f931e 	bne	r2,r8,125338 <_gp+0xfffe1c60>
  1254ec:	054001c4 	movi	r21,7
  1254f0:	003f8606 	br	12530c <_gp+0xfffe1c34>
  1254f4:	b8004f1e 	bne	r23,zero,125634 <__ssvfscanf_r+0x1188>
  1254f8:	e000031e 	bne	fp,zero,125508 <__ssvfscanf_r+0x105c>
  1254fc:	a081c00c 	andi	r2,r20,1792
  125500:	0201c004 	movi	r8,1792
  125504:	1201a226 	beq	r2,r8,125b90 <__ssvfscanf_r+0x16e4>
  125508:	a8803fcc 	andi	r2,r21,255
  12550c:	1080201c 	xori	r2,r2,128
  125510:	10bfe004 	addi	r2,r2,-128
  125514:	02000044 	movi	r8,1
  125518:	12000226 	beq	r2,r8,125524 <__ssvfscanf_r+0x1078>
  12551c:	02000104 	movi	r8,4
  125520:	123f851e 	bne	r2,r8,125338 <_gp+0xfffe1c60>
  125524:	ad400044 	addi	r21,r21,1
  125528:	003f7806 	br	12530c <_gp+0xfffe1c34>
  12552c:	a8803fcc 	andi	r2,r21,255
  125530:	1080201c 	xori	r2,r2,128
  125534:	10bfe004 	addi	r2,r2,-128
  125538:	1000391e 	bne	r2,zero,125620 <__ssvfscanf_r+0x1174>
  12553c:	e001151e 	bne	fp,zero,125994 <__ssvfscanf_r+0x14e8>
  125540:	a081c00c 	andi	r2,r20,1792
  125544:	0201c004 	movi	r8,1792
  125548:	12019b26 	beq	r2,r8,125bb8 <__ssvfscanf_r+0x170c>
  12554c:	8821883a 	mov	r16,r17
  125550:	a807883a 	mov	r3,r21
  125554:	e023883a 	mov	r17,fp
  125558:	b82b883a 	mov	r21,r23
  12555c:	302f883a 	mov	r23,r6
  125560:	003f7b06 	br	125350 <_gp+0xfffe1c78>
  125564:	a8803fcc 	andi	r2,r21,255
  125568:	1080201c 	xori	r2,r2,128
  12556c:	10bfe004 	addi	r2,r2,-128
  125570:	02000084 	movi	r8,2
  125574:	123f701e 	bne	r2,r8,125338 <_gp+0xfffe1c60>
  125578:	054000c4 	movi	r21,3
  12557c:	003f6306 	br	12530c <_gp+0xfffe1c34>
  125580:	a081400c 	andi	r2,r20,1280
  125584:	00c10004 	movi	r3,1024
  125588:	10c00326 	beq	r2,r3,125598 <__ssvfscanf_r+0x10ec>
  12558c:	a0c4703a 	and	r2,r20,r3
  125590:	103f6926 	beq	r2,zero,125338 <_gp+0xfffe1c60>
  125594:	e03fed26 	beq	fp,zero,12554c <_gp+0xfffe1e74>
  125598:	a080800c 	andi	r2,r20,512
  12559c:	1000041e 	bne	r2,zero,1255b0 <__ssvfscanf_r+0x1104>
  1255a0:	d8c09f17 	ldw	r3,636(sp)
  1255a4:	dc40a515 	stw	r17,660(sp)
  1255a8:	e0f9c83a 	sub	fp,fp,r3
  1255ac:	df00a415 	stw	fp,656(sp)
  1255b0:	00be1fc4 	movi	r2,-1921
  1255b4:	a0a8703a 	and	r20,r20,r2
  1255b8:	a5006014 	ori	r20,r20,384
  1255bc:	0039883a 	mov	fp,zero
  1255c0:	003f5206 	br	12530c <_gp+0xfffe1c34>
  1255c4:	00800044 	movi	r2,1
  1255c8:	b8bf5b1e 	bne	r23,r2,125338 <_gp+0xfffe1c60>
  1255cc:	05c00084 	movi	r23,2
  1255d0:	003f4e06 	br	12530c <_gp+0xfffe1c34>
  1255d4:	d8c0a317 	ldw	r3,652(sp)
  1255d8:	2a003fcc 	andi	r8,r5,255
  1255dc:	18800003 	ldbu	r2,0(r3)
  1255e0:	40bf551e 	bne	r8,r2,125338 <_gp+0xfffe1c60>
  1255e4:	a080800c 	andi	r2,r20,512
  1255e8:	103f5326 	beq	r2,zero,125338 <_gp+0xfffe1c60>
  1255ec:	00bf5fc4 	movi	r2,-641
  1255f0:	a0a8703a 	and	r20,r20,r2
  1255f4:	df009f15 	stw	fp,636(sp)
  1255f8:	003f4406 	br	12530c <_gp+0xfffe1c34>
  1255fc:	3009883a 	mov	r4,r6
  125600:	980b883a 	mov	r5,r19
  125604:	d980a915 	stw	r6,676(sp)
  125608:	d9c0aa15 	stw	r7,680(sp)
  12560c:	012d2940 	call	12d294 <__ssrefill_r>
  125610:	d980a917 	ldw	r6,676(sp)
  125614:	d9c0aa17 	ldw	r7,680(sp)
  125618:	103f4626 	beq	r2,zero,125334 <_gp+0xfffe1c5c>
  12561c:	003f4606 	br	125338 <_gp+0xfffe1c60>
  125620:	020000c4 	movi	r8,3
  125624:	123fbf26 	beq	r2,r8,125524 <_gp+0xfffe1e4c>
  125628:	02000144 	movi	r8,5
  12562c:	123fbd26 	beq	r2,r8,125524 <_gp+0xfffe1e4c>
  125630:	003f4106 	br	125338 <_gp+0xfffe1c60>
  125634:	00800084 	movi	r2,2
  125638:	b8bfb31e 	bne	r23,r2,125508 <_gp+0xfffe1e30>
  12563c:	05c000c4 	movi	r23,3
  125640:	003f3206 	br	12530c <_gp+0xfffe1c34>
  125644:	e000011e 	bne	fp,zero,12564c <__ssvfscanf_r+0x11a0>
  125648:	073fffc4 	movi	fp,-1
  12564c:	8900004c 	andi	r4,r17,1
  125650:	20011d1e 	bne	r4,zero,125ac8 <__ssvfscanf_r+0x161c>
  125654:	8c40040c 	andi	r17,r17,16
  125658:	8800da26 	beq	r17,zero,1259c4 <__ssvfscanf_r+0x1518>
  12565c:	0023883a 	mov	r17,zero
  125660:	00000306 	br	125670 <__ssvfscanf_r+0x11c4>
  125664:	18800003 	ldbu	r2,0(r3)
  125668:	8085883a 	add	r2,r16,r2
  12566c:	10800043 	ldbu	r2,1(r2)
  125670:	1080020c 	andi	r2,r2,8
  125674:	1000fc1e 	bne	r2,zero,125a68 <__ssvfscanf_r+0x15bc>
  125678:	98800117 	ldw	r2,4(r19)
  12567c:	18c00044 	addi	r3,r3,1
  125680:	8c400044 	addi	r17,r17,1
  125684:	10bfffc4 	addi	r2,r2,-1
  125688:	98800115 	stw	r2,4(r19)
  12568c:	98c00015 	stw	r3,0(r19)
  125690:	8f00f526 	beq	r17,fp,125a68 <__ssvfscanf_r+0x15bc>
  125694:	00bff316 	blt	zero,r2,125664 <_gp+0xfffe1f8c>
  125698:	980b883a 	mov	r5,r19
  12569c:	b809883a 	mov	r4,r23
  1256a0:	012d2940 	call	12d294 <__ssrefill_r>
  1256a4:	1000f01e 	bne	r2,zero,125a68 <__ssvfscanf_r+0x15bc>
  1256a8:	b4000017 	ldw	r16,0(r22)
  1256ac:	98c00017 	ldw	r3,0(r19)
  1256b0:	003fec06 	br	125664 <_gp+0xfffe1f8c>
  1256b4:	e0bfffc4 	addi	r2,fp,-1
  1256b8:	01405704 	movi	r5,348
  1256bc:	2880bf2e 	bgeu	r5,r2,1259bc <__ssvfscanf_r+0x1510>
  1256c0:	e1ffa8c4 	addi	r7,fp,-349
  1256c4:	07005744 	movi	fp,349
  1256c8:	8c436014 	ori	r17,r17,3456
  1256cc:	9013883a 	mov	r9,r18
  1256d0:	8825883a 	mov	r18,r17
  1256d4:	dc409e17 	ldw	r17,632(sp)
  1256d8:	0029883a 	mov	r20,zero
  1256dc:	dc000104 	addi	r16,sp,4
  1256e0:	05401344 	movi	r21,77
  1256e4:	02c08004 	movi	r11,512
  1256e8:	01bf7fc4 	movi	r6,-513
  1256ec:	023fdfc4 	movi	r8,-129
  1256f0:	20bff544 	addi	r2,r4,-43
  1256f4:	10803fcc 	andi	r2,r2,255
  1256f8:	a8807236 	bltu	r21,r2,1258c4 <__ssvfscanf_r+0x1418>
  1256fc:	100490ba 	slli	r2,r2,2
  125700:	014004b4 	movhi	r5,18
  125704:	2955c504 	addi	r5,r5,22292
  125708:	1145883a 	add	r2,r2,r5
  12570c:	10800017 	ldw	r2,0(r2)
  125710:	1000683a 	jmp	r2
  125714:	00125948 	cmpgei	zero,zero,18789
  125718:	001258c4 	movi	zero,18787
  12571c:	00125948 	cmpgei	zero,zero,18789
  125720:	001258c4 	movi	zero,18787
  125724:	001258c4 	movi	zero,18787
  125728:	00125920 	cmpeqi	zero,zero,18788
  12572c:	00125900 	call	12590 <__alt_mem_onchip_flash_data-0x6da70>
  125730:	00125900 	call	12590 <__alt_mem_onchip_flash_data-0x6da70>
  125734:	00125900 	call	12590 <__alt_mem_onchip_flash_data-0x6da70>
  125738:	00125900 	call	12590 <__alt_mem_onchip_flash_data-0x6da70>
  12573c:	00125900 	call	12590 <__alt_mem_onchip_flash_data-0x6da70>
  125740:	00125900 	call	12590 <__alt_mem_onchip_flash_data-0x6da70>
  125744:	00125900 	call	12590 <__alt_mem_onchip_flash_data-0x6da70>
  125748:	001258a8 	cmpgeui	zero,zero,18786
  12574c:	001258a8 	cmpgeui	zero,zero,18786
  125750:	001258c4 	movi	zero,18787
  125754:	001258c4 	movi	zero,18787
  125758:	001258c4 	movi	zero,18787
  12575c:	001258c4 	movi	zero,18787
  125760:	001258c4 	movi	zero,18787
  125764:	001258c4 	movi	zero,18787
  125768:	001258c4 	movi	zero,18787
  12576c:	00125894 	movui	zero,18786
  125770:	00125894 	movui	zero,18786
  125774:	00125894 	movui	zero,18786
  125778:	00125894 	movui	zero,18786
  12577c:	00125894 	movui	zero,18786
  125780:	00125894 	movui	zero,18786
  125784:	001258c4 	movi	zero,18787
  125788:	001258c4 	movi	zero,18787
  12578c:	001258c4 	movi	zero,18787
  125790:	001258c4 	movi	zero,18787
  125794:	001258c4 	movi	zero,18787
  125798:	001258c4 	movi	zero,18787
  12579c:	001258c4 	movi	zero,18787
  1257a0:	001258c4 	movi	zero,18787
  1257a4:	001258c4 	movi	zero,18787
  1257a8:	001258c4 	movi	zero,18787
  1257ac:	001258c4 	movi	zero,18787
  1257b0:	001258c4 	movi	zero,18787
  1257b4:	001258c4 	movi	zero,18787
  1257b8:	001258c4 	movi	zero,18787
  1257bc:	001258c4 	movi	zero,18787
  1257c0:	001258c4 	movi	zero,18787
  1257c4:	001258c4 	movi	zero,18787
  1257c8:	0012584c 	andi	zero,zero,18785
  1257cc:	001258c4 	movi	zero,18787
  1257d0:	001258c4 	movi	zero,18787
  1257d4:	001258c4 	movi	zero,18787
  1257d8:	001258c4 	movi	zero,18787
  1257dc:	001258c4 	movi	zero,18787
  1257e0:	001258c4 	movi	zero,18787
  1257e4:	001258c4 	movi	zero,18787
  1257e8:	001258c4 	movi	zero,18787
  1257ec:	00125894 	movui	zero,18786
  1257f0:	00125894 	movui	zero,18786
  1257f4:	00125894 	movui	zero,18786
  1257f8:	00125894 	movui	zero,18786
  1257fc:	00125894 	movui	zero,18786
  125800:	00125894 	movui	zero,18786
  125804:	001258c4 	movi	zero,18787
  125808:	001258c4 	movi	zero,18787
  12580c:	001258c4 	movi	zero,18787
  125810:	001258c4 	movi	zero,18787
  125814:	001258c4 	movi	zero,18787
  125818:	001258c4 	movi	zero,18787
  12581c:	001258c4 	movi	zero,18787
  125820:	001258c4 	movi	zero,18787
  125824:	001258c4 	movi	zero,18787
  125828:	001258c4 	movi	zero,18787
  12582c:	001258c4 	movi	zero,18787
  125830:	001258c4 	movi	zero,18787
  125834:	001258c4 	movi	zero,18787
  125838:	001258c4 	movi	zero,18787
  12583c:	001258c4 	movi	zero,18787
  125840:	001258c4 	movi	zero,18787
  125844:	001258c4 	movi	zero,18787
  125848:	0012584c 	andi	zero,zero,18785
  12584c:	9081800c 	andi	r2,r18,1536
  125850:	12c01c1e 	bne	r2,r11,1258c4 <__ssvfscanf_r+0x1418>
  125854:	91a4703a 	and	r18,r18,r6
  125858:	94814014 	ori	r18,r18,1280
  12585c:	04400404 	movi	r17,16
  125860:	81000005 	stb	r4,0(r16)
  125864:	84000044 	addi	r16,r16,1
  125868:	98800117 	ldw	r2,4(r19)
  12586c:	10bfffc4 	addi	r2,r2,-1
  125870:	98800115 	stw	r2,4(r19)
  125874:	0080380e 	bge	zero,r2,125958 <__ssvfscanf_r+0x14ac>
  125878:	18c00044 	addi	r3,r3,1
  12587c:	98c00015 	stw	r3,0(r19)
  125880:	e73fffc4 	addi	fp,fp,-1
  125884:	e0000f26 	beq	fp,zero,1258c4 <__ssvfscanf_r+0x1418>
  125888:	98c00017 	ldw	r3,0(r19)
  12588c:	19000003 	ldbu	r4,0(r3)
  125890:	003f9706 	br	1256f0 <_gp+0xfffe2018>
  125894:	00800284 	movi	r2,10
  125898:	14400a0e 	bge	r2,r17,1258c4 <__ssvfscanf_r+0x1418>
  12589c:	00bd1fc4 	movi	r2,-2945
  1258a0:	90a4703a 	and	r18,r18,r2
  1258a4:	003fee06 	br	125860 <_gp+0xfffe2188>
  1258a8:	01400534 	movhi	r5,20
  1258ac:	8c63883a 	add	r17,r17,r17
  1258b0:	2964d184 	addi	r5,r5,-27834
  1258b4:	2c45883a 	add	r2,r5,r17
  1258b8:	1440000f 	ldh	r17,0(r2)
  1258bc:	00800204 	movi	r2,8
  1258c0:	147ff616 	blt	r2,r17,12589c <_gp+0xfffe21c4>
  1258c4:	dc409e15 	stw	r17,632(sp)
  1258c8:	9023883a 	mov	r17,r18
  1258cc:	8880400c 	andi	r2,r17,256
  1258d0:	4825883a 	mov	r18,r9
  1258d4:	10000426 	beq	r2,zero,1258e8 <__ssvfscanf_r+0x143c>
  1258d8:	d8800104 	addi	r2,sp,4
  1258dc:	1400b036 	bltu	r2,r16,125ba0 <__ssvfscanf_r+0x16f4>
  1258e0:	d8c00104 	addi	r3,sp,4
  1258e4:	1c3b3226 	beq	r3,r16,1245b0 <_gp+0xfffe0ed8>
  1258e8:	8880040c 	andi	r2,r17,16
  1258ec:	10006226 	beq	r2,zero,125a78 <__ssvfscanf_r+0x15cc>
  1258f0:	d8800104 	addi	r2,sp,4
  1258f4:	80a1c83a 	sub	r16,r16,r2
  1258f8:	8521883a 	add	r16,r16,r20
  1258fc:	003ca506 	br	124b94 <_gp+0xfffe14bc>
  125900:	01400534 	movhi	r5,20
  125904:	8c63883a 	add	r17,r17,r17
  125908:	2964d184 	addi	r5,r5,-27834
  12590c:	2c45883a 	add	r2,r5,r17
  125910:	1440000f 	ldh	r17,0(r2)
  125914:	00bd1fc4 	movi	r2,-2945
  125918:	90a4703a 	and	r18,r18,r2
  12591c:	003fd006 	br	125860 <_gp+0xfffe2188>
  125920:	9082000c 	andi	r2,r18,2048
  125924:	103fce26 	beq	r2,zero,125860 <_gp+0xfffe2188>
  125928:	8800021e 	bne	r17,zero,125934 <__ssvfscanf_r+0x1488>
  12592c:	94808014 	ori	r18,r18,512
  125930:	04400204 	movi	r17,8
  125934:	9081000c 	andi	r2,r18,1024
  125938:	10008626 	beq	r2,zero,125b54 <__ssvfscanf_r+0x16a8>
  12593c:	00be9fc4 	movi	r2,-1409
  125940:	90a4703a 	and	r18,r18,r2
  125944:	003fc606 	br	125860 <_gp+0xfffe2188>
  125948:	9080200c 	andi	r2,r18,128
  12594c:	103fdd26 	beq	r2,zero,1258c4 <_gp+0xfffe21ec>
  125950:	9224703a 	and	r18,r18,r8
  125954:	003fc206 	br	125860 <_gp+0xfffe2188>
  125958:	980b883a 	mov	r5,r19
  12595c:	b809883a 	mov	r4,r23
  125960:	d980a915 	stw	r6,676(sp)
  125964:	d9c0aa15 	stw	r7,680(sp)
  125968:	da00a715 	stw	r8,668(sp)
  12596c:	da40a815 	stw	r9,672(sp)
  125970:	dac0a615 	stw	r11,664(sp)
  125974:	012d2940 	call	12d294 <__ssrefill_r>
  125978:	d980a917 	ldw	r6,676(sp)
  12597c:	d9c0aa17 	ldw	r7,680(sp)
  125980:	da00a717 	ldw	r8,668(sp)
  125984:	da40a817 	ldw	r9,672(sp)
  125988:	dac0a617 	ldw	r11,664(sp)
  12598c:	103fbc26 	beq	r2,zero,125880 <_gp+0xfffe21a8>
  125990:	003fcc06 	br	1258c4 <_gp+0xfffe21ec>
  125994:	8821883a 	mov	r16,r17
  125998:	a807883a 	mov	r3,r21
  12599c:	e023883a 	mov	r17,fp
  1259a0:	b82b883a 	mov	r21,r23
  1259a4:	302f883a 	mov	r23,r6
  1259a8:	00bfbfc4 	movi	r2,-257
  1259ac:	a0a8703a 	and	r20,r20,r2
  1259b0:	003e6706 	br	125350 <_gp+0xfffe1c78>
  1259b4:	d800a215 	stw	zero,648(sp)
  1259b8:	003de306 	br	125148 <_gp+0xfffe1a70>
  1259bc:	000f883a 	mov	r7,zero
  1259c0:	003f4106 	br	1256c8 <_gp+0xfffe1ff0>
  1259c4:	d9409c17 	ldw	r5,624(sp)
  1259c8:	e2bfffc4 	addi	r10,fp,-1
  1259cc:	2c400017 	ldw	r17,0(r5)
  1259d0:	2c000104 	addi	r16,r5,4
  1259d4:	8aa9883a 	add	r20,r17,r10
  1259d8:	880b883a 	mov	r5,r17
  1259dc:	00000606 	br	1259f8 <__ssvfscanf_r+0x154c>
  1259e0:	98c00017 	ldw	r3,0(r19)
  1259e4:	b1000017 	ldw	r4,0(r22)
  1259e8:	a80b883a 	mov	r5,r21
  1259ec:	18800003 	ldbu	r2,0(r3)
  1259f0:	2085883a 	add	r2,r4,r2
  1259f4:	10800043 	ldbu	r2,1(r2)
  1259f8:	1080020c 	andi	r2,r2,8
  1259fc:	1000621e 	bne	r2,zero,125b88 <__ssvfscanf_r+0x16dc>
  125a00:	98800117 	ldw	r2,4(r19)
  125a04:	19000044 	addi	r4,r3,1
  125a08:	99000015 	stw	r4,0(r19)
  125a0c:	10bfffc4 	addi	r2,r2,-1
  125a10:	98800115 	stw	r2,4(r19)
  125a14:	18800003 	ldbu	r2,0(r3)
  125a18:	2d400044 	addi	r21,r5,1
  125a1c:	a839883a 	mov	fp,r21
  125a20:	28800005 	stb	r2,0(r5)
  125a24:	2d000626 	beq	r5,r20,125a40 <__ssvfscanf_r+0x1594>
  125a28:	98800117 	ldw	r2,4(r19)
  125a2c:	00bfec16 	blt	zero,r2,1259e0 <_gp+0xfffe2308>
  125a30:	980b883a 	mov	r5,r19
  125a34:	b809883a 	mov	r4,r23
  125a38:	012d2940 	call	12d294 <__ssrefill_r>
  125a3c:	103fe826 	beq	r2,zero,1259e0 <_gp+0xfffe2308>
  125a40:	d880a017 	ldw	r2,640(sp)
  125a44:	dd009d17 	ldw	r20,628(sp)
  125a48:	e463c83a 	sub	r17,fp,r17
  125a4c:	10800044 	addi	r2,r2,1
  125a50:	e0000005 	stb	zero,0(fp)
  125a54:	9465883a 	add	r18,r18,r17
  125a58:	d880a015 	stw	r2,640(sp)
  125a5c:	dc009c15 	stw	r16,624(sp)
  125a60:	a00d883a 	mov	r6,r20
  125a64:	003ace06 	br	1245a0 <_gp+0xfffe0ec8>
  125a68:	dd009d17 	ldw	r20,628(sp)
  125a6c:	9465883a 	add	r18,r18,r17
  125a70:	a00d883a 	mov	r6,r20
  125a74:	003aca06 	br	1245a0 <_gp+0xfffe0ec8>
  125a78:	d8c0a117 	ldw	r3,644(sp)
  125a7c:	d9c09e17 	ldw	r7,632(sp)
  125a80:	000d883a 	mov	r6,zero
  125a84:	d9400104 	addi	r5,sp,4
  125a88:	b809883a 	mov	r4,r23
  125a8c:	80000005 	stb	zero,0(r16)
  125a90:	183ee83a 	callr	r3
  125a94:	88c0080c 	andi	r3,r17,32
  125a98:	1800351e 	bne	r3,zero,125b70 <__ssvfscanf_r+0x16c4>
  125a9c:	88c0010c 	andi	r3,r17,4
  125aa0:	18007026 	beq	r3,zero,125c64 <__ssvfscanf_r+0x17b8>
  125aa4:	d9409c17 	ldw	r5,624(sp)
  125aa8:	28c00017 	ldw	r3,0(r5)
  125aac:	29400104 	addi	r5,r5,4
  125ab0:	d9409c15 	stw	r5,624(sp)
  125ab4:	1880000d 	sth	r2,0(r3)
  125ab8:	d940a017 	ldw	r5,640(sp)
  125abc:	29400044 	addi	r5,r5,1
  125ac0:	d940a015 	stw	r5,640(sp)
  125ac4:	003f8a06 	br	1258f0 <_gp+0xfffe2218>
  125ac8:	dd409904 	addi	r21,sp,612
  125acc:	8c40040c 	andi	r17,r17,16
  125ad0:	01800204 	movi	r6,8
  125ad4:	000b883a 	mov	r5,zero
  125ad8:	a809883a 	mov	r4,r21
  125adc:	01214d80 	call	1214d8 <memset>
  125ae0:	8800391e 	bne	r17,zero,125bc8 <__ssvfscanf_r+0x171c>
  125ae4:	d8c09c17 	ldw	r3,624(sp)
  125ae8:	1d000017 	ldw	r20,0(r3)
  125aec:	18c00104 	addi	r3,r3,4
  125af0:	d8c09c15 	stw	r3,624(sp)
  125af4:	000d883a 	mov	r6,zero
  125af8:	3021883a 	mov	r16,r6
  125afc:	dc409f15 	stw	r17,636(sp)
  125b00:	98800017 	ldw	r2,0(r19)
  125b04:	b0c00017 	ldw	r3,0(r22)
  125b08:	10800003 	ldbu	r2,0(r2)
  125b0c:	1885883a 	add	r2,r3,r2
  125b10:	10800043 	ldbu	r2,1(r2)
  125b14:	1080020c 	andi	r2,r2,8
  125b18:	1000011e 	bne	r2,zero,125b20 <__ssvfscanf_r+0x1674>
  125b1c:	e000651e 	bne	fp,zero,125cb4 <__ssvfscanf_r+0x1808>
  125b20:	dc409f17 	ldw	r17,636(sp)
  125b24:	883c811e 	bne	r17,zero,124d2c <_gp+0xfffe1654>
  125b28:	a0000015 	stw	zero,0(r20)
  125b2c:	003c7c06 	br	124d20 <_gp+0xfffe1648>
  125b30:	a2c0008c 	andi	r11,r20,2
  125b34:	58003c26 	beq	r11,zero,125c28 <__ssvfscanf_r+0x177c>
  125b38:	d9409c17 	ldw	r5,624(sp)
  125b3c:	28800017 	ldw	r2,0(r5)
  125b40:	29400104 	addi	r5,r5,4
  125b44:	d9409c15 	stw	r5,624(sp)
  125b48:	14000015 	stw	r16,0(r2)
  125b4c:	10c00115 	stw	r3,4(r2)
  125b50:	003e4406 	br	125464 <_gp+0xfffe1d8c>
  125b54:	00bf1fc4 	movi	r2,-897
  125b58:	90a4703a 	and	r18,r18,r2
  125b5c:	38000226 	beq	r7,zero,125b68 <__ssvfscanf_r+0x16bc>
  125b60:	39ffffc4 	addi	r7,r7,-1
  125b64:	e7000044 	addi	fp,fp,1
  125b68:	a5000044 	addi	r20,r20,1
  125b6c:	003f3e06 	br	125868 <_gp+0xfffe2190>
  125b70:	d9009c17 	ldw	r4,624(sp)
  125b74:	20c00017 	ldw	r3,0(r4)
  125b78:	21000104 	addi	r4,r4,4
  125b7c:	d9009c15 	stw	r4,624(sp)
  125b80:	18800015 	stw	r2,0(r3)
  125b84:	003fcc06 	br	125ab8 <_gp+0xfffe23e0>
  125b88:	2839883a 	mov	fp,r5
  125b8c:	003fac06 	br	125a40 <_gp+0xfffe2368>
  125b90:	00be1fc4 	movi	r2,-1921
  125b94:	a0a8703a 	and	r20,r20,r2
  125b98:	05c00044 	movi	r23,1
  125b9c:	003ddb06 	br	12530c <_gp+0xfffe1c34>
  125ba0:	817fffc7 	ldb	r5,-1(r16)
  125ba4:	980d883a 	mov	r6,r19
  125ba8:	b809883a 	mov	r4,r23
  125bac:	843fffc4 	addi	r16,r16,-1
  125bb0:	012d18c0 	call	12d18c <_sungetc_r>
  125bb4:	003f4a06 	br	1258e0 <_gp+0xfffe2208>
  125bb8:	00fe1fc4 	movi	r3,-1921
  125bbc:	a0e8703a 	and	r20,r20,r3
  125bc0:	05400044 	movi	r21,1
  125bc4:	003dd106 	br	12530c <_gp+0xfffe1c34>
  125bc8:	dd009b04 	addi	r20,sp,620
  125bcc:	003fc906 	br	125af4 <_gp+0xfffe241c>
  125bd0:	d8c09f17 	ldw	r3,636(sp)
  125bd4:	88e3c83a 	sub	r17,r17,r3
  125bd8:	044dc83a 	sub	r6,zero,r17
  125bdc:	883e1426 	beq	r17,zero,125430 <_gp+0xfffe1d58>
  125be0:	d88055c4 	addi	r2,sp,343
  125be4:	80800136 	bltu	r16,r2,125bec <__ssvfscanf_r+0x1740>
  125be8:	dc005584 	addi	r16,sp,342
  125bec:	01400534 	movhi	r5,20
  125bf0:	2964d004 	addi	r5,r5,-27840
  125bf4:	8009883a 	mov	r4,r16
  125bf8:	01216580 	call	121658 <sprintf>
  125bfc:	003e0c06 	br	125430 <_gp+0xfffe1d58>
  125c00:	d8c0a517 	ldw	r3,660(sp)
  125c04:	000d883a 	mov	r6,zero
  125c08:	01c00284 	movi	r7,10
  125c0c:	19400044 	addi	r5,r3,1
  125c10:	b809883a 	mov	r4,r23
  125c14:	012b0f00 	call	12b0f0 <_strtol_r>
  125c18:	d8c0a417 	ldw	r3,656(sp)
  125c1c:	dc00a517 	ldw	r16,660(sp)
  125c20:	10cdc83a 	sub	r6,r2,r3
  125c24:	003fee06 	br	125be0 <_gp+0xfffe2508>
  125c28:	d8809c17 	ldw	r2,624(sp)
  125c2c:	180b883a 	mov	r5,r3
  125c30:	8009883a 	mov	r4,r16
  125c34:	15000017 	ldw	r20,0(r2)
  125c38:	14400104 	addi	r17,r2,4
  125c3c:	d8c0a615 	stw	r3,664(sp)
  125c40:	01295b00 	call	1295b0 <__fpclassifyd>
  125c44:	d8c0a617 	ldw	r3,664(sp)
  125c48:	10007226 	beq	r2,zero,125e14 <__ssvfscanf_r+0x1968>
  125c4c:	8009883a 	mov	r4,r16
  125c50:	180b883a 	mov	r5,r3
  125c54:	013407c0 	call	13407c <__truncdfsf2>
  125c58:	a0800015 	stw	r2,0(r20)
  125c5c:	dc409c15 	stw	r17,624(sp)
  125c60:	003e0006 	br	125464 <_gp+0xfffe1d8c>
  125c64:	88c0004c 	andi	r3,r17,1
  125c68:	183fc11e 	bne	r3,zero,125b70 <_gp+0xfffe2498>
  125c6c:	8c40008c 	andi	r17,r17,2
  125c70:	883fbf26 	beq	r17,zero,125b70 <_gp+0xfffe2498>
  125c74:	d940a117 	ldw	r5,644(sp)
  125c78:	008004f4 	movhi	r2,19
  125c7c:	10ad9a04 	addi	r2,r2,-18840
  125c80:	d9c09e17 	ldw	r7,632(sp)
  125c84:	000d883a 	mov	r6,zero
  125c88:	28806726 	beq	r5,r2,125e28 <__ssvfscanf_r+0x197c>
  125c8c:	d9400104 	addi	r5,sp,4
  125c90:	b809883a 	mov	r4,r23
  125c94:	012b3640 	call	12b364 <_strtoll_r>
  125c98:	d9409c17 	ldw	r5,624(sp)
  125c9c:	29000017 	ldw	r4,0(r5)
  125ca0:	29400104 	addi	r5,r5,4
  125ca4:	d9409c15 	stw	r5,624(sp)
  125ca8:	20800015 	stw	r2,0(r4)
  125cac:	20c00115 	stw	r3,4(r4)
  125cb0:	003f8106 	br	125ab8 <_gp+0xfffe23e0>
  125cb4:	01278540 	call	127854 <__locale_mb_cur_max>
  125cb8:	80bc5626 	beq	r16,r2,124e14 <_gp+0xfffe173c>
  125cbc:	98800017 	ldw	r2,0(r19)
  125cc0:	99000117 	ldw	r4,4(r19)
  125cc4:	d9400104 	addi	r5,sp,4
  125cc8:	12000003 	ldbu	r8,0(r2)
  125ccc:	213fffc4 	addi	r4,r4,-1
  125cd0:	10800044 	addi	r2,r2,1
  125cd4:	99000115 	stw	r4,4(r19)
  125cd8:	98800015 	stw	r2,0(r19)
  125cdc:	84400044 	addi	r17,r16,1
  125ce0:	dd400015 	stw	r21,0(sp)
  125ce4:	2c21883a 	add	r16,r5,r16
  125ce8:	280d883a 	mov	r6,r5
  125cec:	880f883a 	mov	r7,r17
  125cf0:	a00b883a 	mov	r5,r20
  125cf4:	b809883a 	mov	r4,r23
  125cf8:	82000005 	stb	r8,0(r16)
  125cfc:	01281140 	call	128114 <_mbrtowc_r>
  125d00:	00ffffc4 	movi	r3,-1
  125d04:	10fc4326 	beq	r2,r3,124e14 <_gp+0xfffe173c>
  125d08:	103c371e 	bne	r2,zero,124de8 <_gp+0xfffe1710>
  125d0c:	a0000015 	stw	zero,0(r20)
  125d10:	0009883a 	mov	r4,zero
  125d14:	012779c0 	call	12779c <iswspace>
  125d18:	10001b26 	beq	r2,zero,125d88 <__ssvfscanf_r+0x18dc>
  125d1c:	8821883a 	mov	r16,r17
  125d20:	dc409f17 	ldw	r17,636(sp)
  125d24:	803f7f26 	beq	r16,zero,125b24 <_gp+0xfffe244c>
  125d28:	843fffc4 	addi	r16,r16,-1
  125d2c:	d9400104 	addi	r5,sp,4
  125d30:	2c2b883a 	add	r21,r5,r16
  125d34:	00000106 	br	125d3c <__ssvfscanf_r+0x1890>
  125d38:	843fffc4 	addi	r16,r16,-1
  125d3c:	a9400003 	ldbu	r5,0(r21)
  125d40:	980d883a 	mov	r6,r19
  125d44:	b809883a 	mov	r4,r23
  125d48:	012d18c0 	call	12d18c <_sungetc_r>
  125d4c:	ad7fffc4 	addi	r21,r21,-1
  125d50:	803ff91e 	bne	r16,zero,125d38 <_gp+0xfffe2660>
  125d54:	003f7306 	br	125b24 <_gp+0xfffe244c>
  125d58:	d9400104 	addi	r5,sp,4
  125d5c:	802b883a 	mov	r21,r16
  125d60:	9839883a 	mov	fp,r19
  125d64:	2c3a122e 	bgeu	r5,r16,1245b0 <_gp+0xfffe0ed8>
  125d68:	ad7fffc4 	addi	r21,r21,-1
  125d6c:	a9400007 	ldb	r5,0(r21)
  125d70:	e00d883a 	mov	r6,fp
  125d74:	b809883a 	mov	r4,r23
  125d78:	012d18c0 	call	12d18c <_sungetc_r>
  125d7c:	d8800104 	addi	r2,sp,4
  125d80:	157ff91e 	bne	r2,r21,125d68 <_gp+0xfffe2690>
  125d84:	003a0a06 	br	1245b0 <_gp+0xfffe0ed8>
  125d88:	d8c09f17 	ldw	r3,636(sp)
  125d8c:	9465883a 	add	r18,r18,r17
  125d90:	e73fffc4 	addi	fp,fp,-1
  125d94:	1800051e 	bne	r3,zero,125dac <__ssvfscanf_r+0x1900>
  125d98:	a5000104 	addi	r20,r20,4
  125d9c:	0021883a 	mov	r16,zero
  125da0:	003c1406 	br	124df4 <_gp+0xfffe171c>
  125da4:	a1000017 	ldw	r4,0(r20)
  125da8:	003fda06 	br	125d14 <_gp+0xfffe263c>
  125dac:	0021883a 	mov	r16,zero
  125db0:	003c1006 	br	124df4 <_gp+0xfffe171c>
  125db4:	d8c00104 	addi	r3,sp,4
  125db8:	802b883a 	mov	r21,r16
  125dbc:	9839883a 	mov	fp,r19
  125dc0:	1c39fb2e 	bgeu	r3,r16,1245b0 <_gp+0xfffe0ed8>
  125dc4:	ad7fffc4 	addi	r21,r21,-1
  125dc8:	a9400007 	ldb	r5,0(r21)
  125dcc:	b809883a 	mov	r4,r23
  125dd0:	e00d883a 	mov	r6,fp
  125dd4:	012d18c0 	call	12d18c <_sungetc_r>
  125dd8:	d9000104 	addi	r4,sp,4
  125ddc:	257ff91e 	bne	r4,r21,125dc4 <_gp+0xfffe26ec>
  125de0:	0039f306 	br	1245b0 <_gp+0xfffe0ed8>
  125de4:	d8c00104 	addi	r3,sp,4
  125de8:	802b883a 	mov	r21,r16
  125dec:	9839883a 	mov	fp,r19
  125df0:	1c39ef2e 	bgeu	r3,r16,1245b0 <_gp+0xfffe0ed8>
  125df4:	ad7fffc4 	addi	r21,r21,-1
  125df8:	a9400007 	ldb	r5,0(r21)
  125dfc:	b809883a 	mov	r4,r23
  125e00:	e00d883a 	mov	r6,fp
  125e04:	012d18c0 	call	12d18c <_sungetc_r>
  125e08:	d9000104 	addi	r4,sp,4
  125e0c:	257ff91e 	bne	r4,r21,125df4 <_gp+0xfffe271c>
  125e10:	0039e706 	br	1245b0 <_gp+0xfffe0ed8>
  125e14:	0009883a 	mov	r4,zero
  125e18:	01297480 	call	129748 <nanf>
  125e1c:	a0800015 	stw	r2,0(r20)
  125e20:	dc409c15 	stw	r17,624(sp)
  125e24:	003d8f06 	br	125464 <_gp+0xfffe1d8c>
  125e28:	d9400104 	addi	r5,sp,4
  125e2c:	b809883a 	mov	r4,r23
  125e30:	012b8fc0 	call	12b8fc <_strtoull_r>
  125e34:	003f9806 	br	125c98 <_gp+0xfffe25c0>

00125e38 <_write_r>:
  125e38:	defffd04 	addi	sp,sp,-12
  125e3c:	2805883a 	mov	r2,r5
  125e40:	dc000015 	stw	r16,0(sp)
  125e44:	04000534 	movhi	r16,20
  125e48:	dc400115 	stw	r17,4(sp)
  125e4c:	300b883a 	mov	r5,r6
  125e50:	84350e04 	addi	r16,r16,-11208
  125e54:	2023883a 	mov	r17,r4
  125e58:	380d883a 	mov	r6,r7
  125e5c:	1009883a 	mov	r4,r2
  125e60:	dfc00215 	stw	ra,8(sp)
  125e64:	80000015 	stw	zero,0(r16)
  125e68:	0134d800 	call	134d80 <write>
  125e6c:	00ffffc4 	movi	r3,-1
  125e70:	10c00526 	beq	r2,r3,125e88 <_write_r+0x50>
  125e74:	dfc00217 	ldw	ra,8(sp)
  125e78:	dc400117 	ldw	r17,4(sp)
  125e7c:	dc000017 	ldw	r16,0(sp)
  125e80:	dec00304 	addi	sp,sp,12
  125e84:	f800283a 	ret
  125e88:	80c00017 	ldw	r3,0(r16)
  125e8c:	183ff926 	beq	r3,zero,125e74 <_gp+0xfffe279c>
  125e90:	88c00015 	stw	r3,0(r17)
  125e94:	003ff706 	br	125e74 <_gp+0xfffe279c>

00125e98 <_close_r>:
  125e98:	defffd04 	addi	sp,sp,-12
  125e9c:	dc000015 	stw	r16,0(sp)
  125ea0:	04000534 	movhi	r16,20
  125ea4:	dc400115 	stw	r17,4(sp)
  125ea8:	84350e04 	addi	r16,r16,-11208
  125eac:	2023883a 	mov	r17,r4
  125eb0:	2809883a 	mov	r4,r5
  125eb4:	dfc00215 	stw	ra,8(sp)
  125eb8:	80000015 	stw	zero,0(r16)
  125ebc:	01342c40 	call	1342c4 <close>
  125ec0:	00ffffc4 	movi	r3,-1
  125ec4:	10c00526 	beq	r2,r3,125edc <_close_r+0x44>
  125ec8:	dfc00217 	ldw	ra,8(sp)
  125ecc:	dc400117 	ldw	r17,4(sp)
  125ed0:	dc000017 	ldw	r16,0(sp)
  125ed4:	dec00304 	addi	sp,sp,12
  125ed8:	f800283a 	ret
  125edc:	80c00017 	ldw	r3,0(r16)
  125ee0:	183ff926 	beq	r3,zero,125ec8 <_gp+0xfffe27f0>
  125ee4:	88c00015 	stw	r3,0(r17)
  125ee8:	003ff706 	br	125ec8 <_gp+0xfffe27f0>

00125eec <quorem>:
  125eec:	defff204 	addi	sp,sp,-56
  125ef0:	ddc00b15 	stw	r23,44(sp)
  125ef4:	20800417 	ldw	r2,16(r4)
  125ef8:	2dc00417 	ldw	r23,16(r5)
  125efc:	dfc00d15 	stw	ra,52(sp)
  125f00:	df000c15 	stw	fp,48(sp)
  125f04:	dd800a15 	stw	r22,40(sp)
  125f08:	dd400915 	stw	r21,36(sp)
  125f0c:	dd000815 	stw	r20,32(sp)
  125f10:	dcc00715 	stw	r19,28(sp)
  125f14:	dc800615 	stw	r18,24(sp)
  125f18:	dc400515 	stw	r17,20(sp)
  125f1c:	dc000415 	stw	r16,16(sp)
  125f20:	15c07a16 	blt	r2,r23,12610c <quorem+0x220>
  125f24:	bdffffc4 	addi	r23,r23,-1
  125f28:	bde9883a 	add	r20,r23,r23
  125f2c:	28c00504 	addi	r3,r5,20
  125f30:	a529883a 	add	r20,r20,r20
  125f34:	1d39883a 	add	fp,r3,r20
  125f38:	24c00504 	addi	r19,r4,20
  125f3c:	d9400215 	stw	r5,8(sp)
  125f40:	9d29883a 	add	r20,r19,r20
  125f44:	e1400017 	ldw	r5,0(fp)
  125f48:	d9000015 	stw	r4,0(sp)
  125f4c:	a1000017 	ldw	r4,0(r20)
  125f50:	29400044 	addi	r5,r5,1
  125f54:	d8c00115 	stw	r3,4(sp)
  125f58:	dd000315 	stw	r20,12(sp)
  125f5c:	01212ac0 	call	1212ac <__udivsi3>
  125f60:	1025883a 	mov	r18,r2
  125f64:	10003026 	beq	r2,zero,126028 <quorem+0x13c>
  125f68:	dc400117 	ldw	r17,4(sp)
  125f6c:	9829883a 	mov	r20,r19
  125f70:	002d883a 	mov	r22,zero
  125f74:	0021883a 	mov	r16,zero
  125f78:	8d400017 	ldw	r21,0(r17)
  125f7c:	900b883a 	mov	r5,r18
  125f80:	8c400104 	addi	r17,r17,4
  125f84:	a93fffcc 	andi	r4,r21,65535
  125f88:	01213680 	call	121368 <__mulsi3>
  125f8c:	a808d43a 	srli	r4,r21,16
  125f90:	900b883a 	mov	r5,r18
  125f94:	15ad883a 	add	r22,r2,r22
  125f98:	01213680 	call	121368 <__mulsi3>
  125f9c:	a1000017 	ldw	r4,0(r20)
  125fa0:	b00cd43a 	srli	r6,r22,16
  125fa4:	b0ffffcc 	andi	r3,r22,65535
  125fa8:	217fffcc 	andi	r5,r4,65535
  125fac:	2c21883a 	add	r16,r5,r16
  125fb0:	80c7c83a 	sub	r3,r16,r3
  125fb4:	2008d43a 	srli	r4,r4,16
  125fb8:	1185883a 	add	r2,r2,r6
  125fbc:	1821d43a 	srai	r16,r3,16
  125fc0:	117fffcc 	andi	r5,r2,65535
  125fc4:	2149c83a 	sub	r4,r4,r5
  125fc8:	2421883a 	add	r16,r4,r16
  125fcc:	8008943a 	slli	r4,r16,16
  125fd0:	18ffffcc 	andi	r3,r3,65535
  125fd4:	102cd43a 	srli	r22,r2,16
  125fd8:	20c8b03a 	or	r4,r4,r3
  125fdc:	a1000015 	stw	r4,0(r20)
  125fe0:	8021d43a 	srai	r16,r16,16
  125fe4:	a5000104 	addi	r20,r20,4
  125fe8:	e47fe32e 	bgeu	fp,r17,125f78 <_gp+0xfffe28a0>
  125fec:	d8c00317 	ldw	r3,12(sp)
  125ff0:	18800017 	ldw	r2,0(r3)
  125ff4:	10000c1e 	bne	r2,zero,126028 <quorem+0x13c>
  125ff8:	18bfff04 	addi	r2,r3,-4
  125ffc:	9880082e 	bgeu	r19,r2,126020 <quorem+0x134>
  126000:	18ffff17 	ldw	r3,-4(r3)
  126004:	18000326 	beq	r3,zero,126014 <quorem+0x128>
  126008:	00000506 	br	126020 <quorem+0x134>
  12600c:	10c00017 	ldw	r3,0(r2)
  126010:	1800031e 	bne	r3,zero,126020 <quorem+0x134>
  126014:	10bfff04 	addi	r2,r2,-4
  126018:	bdffffc4 	addi	r23,r23,-1
  12601c:	98bffb36 	bltu	r19,r2,12600c <_gp+0xfffe2934>
  126020:	d8c00017 	ldw	r3,0(sp)
  126024:	1dc00415 	stw	r23,16(r3)
  126028:	d9400217 	ldw	r5,8(sp)
  12602c:	d9000017 	ldw	r4,0(sp)
  126030:	0128e1c0 	call	128e1c <__mcmp>
  126034:	10002816 	blt	r2,zero,1260d8 <quorem+0x1ec>
  126038:	dc400117 	ldw	r17,4(sp)
  12603c:	94800044 	addi	r18,r18,1
  126040:	980d883a 	mov	r6,r19
  126044:	0007883a 	mov	r3,zero
  126048:	31000017 	ldw	r4,0(r6)
  12604c:	89400017 	ldw	r5,0(r17)
  126050:	31800104 	addi	r6,r6,4
  126054:	20bfffcc 	andi	r2,r4,65535
  126058:	10c7883a 	add	r3,r2,r3
  12605c:	28bfffcc 	andi	r2,r5,65535
  126060:	1885c83a 	sub	r2,r3,r2
  126064:	280ad43a 	srli	r5,r5,16
  126068:	2008d43a 	srli	r4,r4,16
  12606c:	1007d43a 	srai	r3,r2,16
  126070:	10bfffcc 	andi	r2,r2,65535
  126074:	2149c83a 	sub	r4,r4,r5
  126078:	20c9883a 	add	r4,r4,r3
  12607c:	200a943a 	slli	r5,r4,16
  126080:	8c400104 	addi	r17,r17,4
  126084:	2007d43a 	srai	r3,r4,16
  126088:	2884b03a 	or	r2,r5,r2
  12608c:	30bfff15 	stw	r2,-4(r6)
  126090:	e47fed2e 	bgeu	fp,r17,126048 <_gp+0xfffe2970>
  126094:	bdc5883a 	add	r2,r23,r23
  126098:	1085883a 	add	r2,r2,r2
  12609c:	9887883a 	add	r3,r19,r2
  1260a0:	18800017 	ldw	r2,0(r3)
  1260a4:	10000c1e 	bne	r2,zero,1260d8 <quorem+0x1ec>
  1260a8:	18bfff04 	addi	r2,r3,-4
  1260ac:	9880082e 	bgeu	r19,r2,1260d0 <quorem+0x1e4>
  1260b0:	18ffff17 	ldw	r3,-4(r3)
  1260b4:	18000326 	beq	r3,zero,1260c4 <quorem+0x1d8>
  1260b8:	00000506 	br	1260d0 <quorem+0x1e4>
  1260bc:	10c00017 	ldw	r3,0(r2)
  1260c0:	1800031e 	bne	r3,zero,1260d0 <quorem+0x1e4>
  1260c4:	10bfff04 	addi	r2,r2,-4
  1260c8:	bdffffc4 	addi	r23,r23,-1
  1260cc:	98bffb36 	bltu	r19,r2,1260bc <_gp+0xfffe29e4>
  1260d0:	d8c00017 	ldw	r3,0(sp)
  1260d4:	1dc00415 	stw	r23,16(r3)
  1260d8:	9005883a 	mov	r2,r18
  1260dc:	dfc00d17 	ldw	ra,52(sp)
  1260e0:	df000c17 	ldw	fp,48(sp)
  1260e4:	ddc00b17 	ldw	r23,44(sp)
  1260e8:	dd800a17 	ldw	r22,40(sp)
  1260ec:	dd400917 	ldw	r21,36(sp)
  1260f0:	dd000817 	ldw	r20,32(sp)
  1260f4:	dcc00717 	ldw	r19,28(sp)
  1260f8:	dc800617 	ldw	r18,24(sp)
  1260fc:	dc400517 	ldw	r17,20(sp)
  126100:	dc000417 	ldw	r16,16(sp)
  126104:	dec00e04 	addi	sp,sp,56
  126108:	f800283a 	ret
  12610c:	0005883a 	mov	r2,zero
  126110:	003ff206 	br	1260dc <_gp+0xfffe2a04>

00126114 <_dtoa_r>:
  126114:	20801017 	ldw	r2,64(r4)
  126118:	deffde04 	addi	sp,sp,-136
  12611c:	df002015 	stw	fp,128(sp)
  126120:	dcc01b15 	stw	r19,108(sp)
  126124:	dc801a15 	stw	r18,104(sp)
  126128:	dc401915 	stw	r17,100(sp)
  12612c:	dc001815 	stw	r16,96(sp)
  126130:	dfc02115 	stw	ra,132(sp)
  126134:	ddc01f15 	stw	r23,124(sp)
  126138:	dd801e15 	stw	r22,120(sp)
  12613c:	dd401d15 	stw	r21,116(sp)
  126140:	dd001c15 	stw	r20,112(sp)
  126144:	d9c00315 	stw	r7,12(sp)
  126148:	2039883a 	mov	fp,r4
  12614c:	3023883a 	mov	r17,r6
  126150:	2825883a 	mov	r18,r5
  126154:	dc002417 	ldw	r16,144(sp)
  126158:	3027883a 	mov	r19,r6
  12615c:	10000826 	beq	r2,zero,126180 <_dtoa_r+0x6c>
  126160:	21801117 	ldw	r6,68(r4)
  126164:	00c00044 	movi	r3,1
  126168:	100b883a 	mov	r5,r2
  12616c:	1986983a 	sll	r3,r3,r6
  126170:	11800115 	stw	r6,4(r2)
  126174:	10c00215 	stw	r3,8(r2)
  126178:	01285400 	call	128540 <_Bfree>
  12617c:	e0001015 	stw	zero,64(fp)
  126180:	88002e16 	blt	r17,zero,12623c <_dtoa_r+0x128>
  126184:	80000015 	stw	zero,0(r16)
  126188:	889ffc2c 	andhi	r2,r17,32752
  12618c:	00dffc34 	movhi	r3,32752
  126190:	10c01c26 	beq	r2,r3,126204 <_dtoa_r+0xf0>
  126194:	000d883a 	mov	r6,zero
  126198:	000f883a 	mov	r7,zero
  12619c:	9009883a 	mov	r4,r18
  1261a0:	980b883a 	mov	r5,r19
  1261a4:	0132ab80 	call	132ab8 <__eqdf2>
  1261a8:	10002b1e 	bne	r2,zero,126258 <_dtoa_r+0x144>
  1261ac:	d9c02317 	ldw	r7,140(sp)
  1261b0:	00800044 	movi	r2,1
  1261b4:	38800015 	stw	r2,0(r7)
  1261b8:	d8802517 	ldw	r2,148(sp)
  1261bc:	10019e26 	beq	r2,zero,126838 <_dtoa_r+0x724>
  1261c0:	d8c02517 	ldw	r3,148(sp)
  1261c4:	00800534 	movhi	r2,20
  1261c8:	10a4c744 	addi	r2,r2,-27875
  1261cc:	18800015 	stw	r2,0(r3)
  1261d0:	10bfffc4 	addi	r2,r2,-1
  1261d4:	dfc02117 	ldw	ra,132(sp)
  1261d8:	df002017 	ldw	fp,128(sp)
  1261dc:	ddc01f17 	ldw	r23,124(sp)
  1261e0:	dd801e17 	ldw	r22,120(sp)
  1261e4:	dd401d17 	ldw	r21,116(sp)
  1261e8:	dd001c17 	ldw	r20,112(sp)
  1261ec:	dcc01b17 	ldw	r19,108(sp)
  1261f0:	dc801a17 	ldw	r18,104(sp)
  1261f4:	dc401917 	ldw	r17,100(sp)
  1261f8:	dc001817 	ldw	r16,96(sp)
  1261fc:	dec02204 	addi	sp,sp,136
  126200:	f800283a 	ret
  126204:	d8c02317 	ldw	r3,140(sp)
  126208:	0089c3c4 	movi	r2,9999
  12620c:	18800015 	stw	r2,0(r3)
  126210:	90017726 	beq	r18,zero,1267f0 <_dtoa_r+0x6dc>
  126214:	00800534 	movhi	r2,20
  126218:	10a57e04 	addi	r2,r2,-27144
  12621c:	d9002517 	ldw	r4,148(sp)
  126220:	203fec26 	beq	r4,zero,1261d4 <_gp+0xfffe2afc>
  126224:	10c000c7 	ldb	r3,3(r2)
  126228:	1801781e 	bne	r3,zero,12680c <_dtoa_r+0x6f8>
  12622c:	10c000c4 	addi	r3,r2,3
  126230:	d9802517 	ldw	r6,148(sp)
  126234:	30c00015 	stw	r3,0(r6)
  126238:	003fe606 	br	1261d4 <_gp+0xfffe2afc>
  12623c:	04e00034 	movhi	r19,32768
  126240:	9cffffc4 	addi	r19,r19,-1
  126244:	00800044 	movi	r2,1
  126248:	8ce6703a 	and	r19,r17,r19
  12624c:	80800015 	stw	r2,0(r16)
  126250:	9823883a 	mov	r17,r19
  126254:	003fcc06 	br	126188 <_gp+0xfffe2ab0>
  126258:	d8800204 	addi	r2,sp,8
  12625c:	d8800015 	stw	r2,0(sp)
  126260:	d9c00104 	addi	r7,sp,4
  126264:	900b883a 	mov	r5,r18
  126268:	980d883a 	mov	r6,r19
  12626c:	e009883a 	mov	r4,fp
  126270:	8820d53a 	srli	r16,r17,20
  126274:	01291e80 	call	1291e8 <__d2b>
  126278:	d8800915 	stw	r2,36(sp)
  12627c:	8001651e 	bne	r16,zero,126814 <_dtoa_r+0x700>
  126280:	dd800217 	ldw	r22,8(sp)
  126284:	dc000117 	ldw	r16,4(sp)
  126288:	00800804 	movi	r2,32
  12628c:	b421883a 	add	r16,r22,r16
  126290:	80c10c84 	addi	r3,r16,1074
  126294:	10c2d10e 	bge	r2,r3,126ddc <_dtoa_r+0xcc8>
  126298:	00801004 	movi	r2,64
  12629c:	81010484 	addi	r4,r16,1042
  1262a0:	10c7c83a 	sub	r3,r2,r3
  1262a4:	9108d83a 	srl	r4,r18,r4
  1262a8:	88e2983a 	sll	r17,r17,r3
  1262ac:	2448b03a 	or	r4,r4,r17
  1262b0:	0133fd40 	call	133fd4 <__floatunsidf>
  1262b4:	017f8434 	movhi	r5,65040
  1262b8:	01800044 	movi	r6,1
  1262bc:	1009883a 	mov	r4,r2
  1262c0:	194b883a 	add	r5,r3,r5
  1262c4:	843fffc4 	addi	r16,r16,-1
  1262c8:	d9801115 	stw	r6,68(sp)
  1262cc:	000d883a 	mov	r6,zero
  1262d0:	01cffe34 	movhi	r7,16376
  1262d4:	013357c0 	call	13357c <__subdf3>
  1262d8:	0198dbf4 	movhi	r6,25455
  1262dc:	01cff4f4 	movhi	r7,16339
  1262e0:	3190d844 	addi	r6,r6,17249
  1262e4:	39e1e9c4 	addi	r7,r7,-30809
  1262e8:	1009883a 	mov	r4,r2
  1262ec:	180b883a 	mov	r5,r3
  1262f0:	0132d100 	call	132d10 <__muldf3>
  1262f4:	01a2d874 	movhi	r6,35681
  1262f8:	01cff1f4 	movhi	r7,16327
  1262fc:	31b22cc4 	addi	r6,r6,-14157
  126300:	39e28a04 	addi	r7,r7,-30168
  126304:	180b883a 	mov	r5,r3
  126308:	1009883a 	mov	r4,r2
  12630c:	013183c0 	call	13183c <__adddf3>
  126310:	8009883a 	mov	r4,r16
  126314:	1029883a 	mov	r20,r2
  126318:	1823883a 	mov	r17,r3
  12631c:	0133ef80 	call	133ef8 <__floatsidf>
  126320:	019427f4 	movhi	r6,20639
  126324:	01cff4f4 	movhi	r7,16339
  126328:	319e7ec4 	addi	r6,r6,31227
  12632c:	39d104c4 	addi	r7,r7,17427
  126330:	1009883a 	mov	r4,r2
  126334:	180b883a 	mov	r5,r3
  126338:	0132d100 	call	132d10 <__muldf3>
  12633c:	100d883a 	mov	r6,r2
  126340:	180f883a 	mov	r7,r3
  126344:	a009883a 	mov	r4,r20
  126348:	880b883a 	mov	r5,r17
  12634c:	013183c0 	call	13183c <__adddf3>
  126350:	1009883a 	mov	r4,r2
  126354:	180b883a 	mov	r5,r3
  126358:	1029883a 	mov	r20,r2
  12635c:	1823883a 	mov	r17,r3
  126360:	0133e780 	call	133e78 <__fixdfsi>
  126364:	000d883a 	mov	r6,zero
  126368:	000f883a 	mov	r7,zero
  12636c:	a009883a 	mov	r4,r20
  126370:	880b883a 	mov	r5,r17
  126374:	d8800515 	stw	r2,20(sp)
  126378:	0132c1c0 	call	132c1c <__ledf2>
  12637c:	10028716 	blt	r2,zero,126d9c <_dtoa_r+0xc88>
  126380:	d8c00517 	ldw	r3,20(sp)
  126384:	00800584 	movi	r2,22
  126388:	10c27536 	bltu	r2,r3,126d60 <_dtoa_r+0xc4c>
  12638c:	180490fa 	slli	r2,r3,3
  126390:	00c00534 	movhi	r3,20
  126394:	18e59a04 	addi	r3,r3,-27032
  126398:	1885883a 	add	r2,r3,r2
  12639c:	11000017 	ldw	r4,0(r2)
  1263a0:	11400117 	ldw	r5,4(r2)
  1263a4:	900d883a 	mov	r6,r18
  1263a8:	980f883a 	mov	r7,r19
  1263ac:	0132b400 	call	132b40 <__gedf2>
  1263b0:	00828d0e 	bge	zero,r2,126de8 <_dtoa_r+0xcd4>
  1263b4:	d9000517 	ldw	r4,20(sp)
  1263b8:	d8000e15 	stw	zero,56(sp)
  1263bc:	213fffc4 	addi	r4,r4,-1
  1263c0:	d9000515 	stw	r4,20(sp)
  1263c4:	b42dc83a 	sub	r22,r22,r16
  1263c8:	b5bfffc4 	addi	r22,r22,-1
  1263cc:	b0026f16 	blt	r22,zero,126d8c <_dtoa_r+0xc78>
  1263d0:	d8000815 	stw	zero,32(sp)
  1263d4:	d9c00517 	ldw	r7,20(sp)
  1263d8:	38026416 	blt	r7,zero,126d6c <_dtoa_r+0xc58>
  1263dc:	b1ed883a 	add	r22,r22,r7
  1263e0:	d9c00d15 	stw	r7,52(sp)
  1263e4:	d8000a15 	stw	zero,40(sp)
  1263e8:	d9800317 	ldw	r6,12(sp)
  1263ec:	00800244 	movi	r2,9
  1263f0:	11811436 	bltu	r2,r6,126844 <_dtoa_r+0x730>
  1263f4:	00800144 	movi	r2,5
  1263f8:	1184e10e 	bge	r2,r6,127780 <_dtoa_r+0x166c>
  1263fc:	31bfff04 	addi	r6,r6,-4
  126400:	d9800315 	stw	r6,12(sp)
  126404:	0023883a 	mov	r17,zero
  126408:	d9800317 	ldw	r6,12(sp)
  12640c:	008000c4 	movi	r2,3
  126410:	30836726 	beq	r6,r2,1271b0 <_dtoa_r+0x109c>
  126414:	1183410e 	bge	r2,r6,12711c <_dtoa_r+0x1008>
  126418:	d9c00317 	ldw	r7,12(sp)
  12641c:	00800104 	movi	r2,4
  126420:	38827c26 	beq	r7,r2,126e14 <_dtoa_r+0xd00>
  126424:	00800144 	movi	r2,5
  126428:	3884c41e 	bne	r7,r2,12773c <_dtoa_r+0x1628>
  12642c:	00800044 	movi	r2,1
  126430:	d8800b15 	stw	r2,44(sp)
  126434:	d8c00517 	ldw	r3,20(sp)
  126438:	d9002217 	ldw	r4,136(sp)
  12643c:	1907883a 	add	r3,r3,r4
  126440:	19800044 	addi	r6,r3,1
  126444:	d8c00c15 	stw	r3,48(sp)
  126448:	d9800615 	stw	r6,24(sp)
  12644c:	0183a40e 	bge	zero,r6,1272e0 <_dtoa_r+0x11cc>
  126450:	d9800617 	ldw	r6,24(sp)
  126454:	3021883a 	mov	r16,r6
  126458:	e0001115 	stw	zero,68(fp)
  12645c:	008005c4 	movi	r2,23
  126460:	1184c92e 	bgeu	r2,r6,127788 <_dtoa_r+0x1674>
  126464:	00c00044 	movi	r3,1
  126468:	00800104 	movi	r2,4
  12646c:	1085883a 	add	r2,r2,r2
  126470:	11000504 	addi	r4,r2,20
  126474:	180b883a 	mov	r5,r3
  126478:	18c00044 	addi	r3,r3,1
  12647c:	313ffb2e 	bgeu	r6,r4,12646c <_gp+0xfffe2d94>
  126480:	e1401115 	stw	r5,68(fp)
  126484:	e009883a 	mov	r4,fp
  126488:	01284980 	call	128498 <_Balloc>
  12648c:	d8800715 	stw	r2,28(sp)
  126490:	e0801015 	stw	r2,64(fp)
  126494:	00800384 	movi	r2,14
  126498:	1400f736 	bltu	r2,r16,126878 <_dtoa_r+0x764>
  12649c:	8800f626 	beq	r17,zero,126878 <_dtoa_r+0x764>
  1264a0:	d9c00517 	ldw	r7,20(sp)
  1264a4:	01c39a0e 	bge	zero,r7,127310 <_dtoa_r+0x11fc>
  1264a8:	388003cc 	andi	r2,r7,15
  1264ac:	100490fa 	slli	r2,r2,3
  1264b0:	382bd13a 	srai	r21,r7,4
  1264b4:	00c00534 	movhi	r3,20
  1264b8:	18e59a04 	addi	r3,r3,-27032
  1264bc:	1885883a 	add	r2,r3,r2
  1264c0:	a8c0040c 	andi	r3,r21,16
  1264c4:	12400017 	ldw	r9,0(r2)
  1264c8:	12000117 	ldw	r8,4(r2)
  1264cc:	18037926 	beq	r3,zero,1272b4 <_dtoa_r+0x11a0>
  1264d0:	00800534 	movhi	r2,20
  1264d4:	10a59004 	addi	r2,r2,-27072
  1264d8:	11800817 	ldw	r6,32(r2)
  1264dc:	11c00917 	ldw	r7,36(r2)
  1264e0:	9009883a 	mov	r4,r18
  1264e4:	980b883a 	mov	r5,r19
  1264e8:	da001715 	stw	r8,92(sp)
  1264ec:	da401615 	stw	r9,88(sp)
  1264f0:	01320e80 	call	1320e8 <__divdf3>
  1264f4:	da001717 	ldw	r8,92(sp)
  1264f8:	da401617 	ldw	r9,88(sp)
  1264fc:	ad4003cc 	andi	r21,r21,15
  126500:	040000c4 	movi	r16,3
  126504:	1023883a 	mov	r17,r2
  126508:	1829883a 	mov	r20,r3
  12650c:	a8001126 	beq	r21,zero,126554 <_dtoa_r+0x440>
  126510:	05c00534 	movhi	r23,20
  126514:	bde59004 	addi	r23,r23,-27072
  126518:	4805883a 	mov	r2,r9
  12651c:	4007883a 	mov	r3,r8
  126520:	a980004c 	andi	r6,r21,1
  126524:	1009883a 	mov	r4,r2
  126528:	a82bd07a 	srai	r21,r21,1
  12652c:	180b883a 	mov	r5,r3
  126530:	30000426 	beq	r6,zero,126544 <_dtoa_r+0x430>
  126534:	b9800017 	ldw	r6,0(r23)
  126538:	b9c00117 	ldw	r7,4(r23)
  12653c:	84000044 	addi	r16,r16,1
  126540:	0132d100 	call	132d10 <__muldf3>
  126544:	bdc00204 	addi	r23,r23,8
  126548:	a83ff51e 	bne	r21,zero,126520 <_gp+0xfffe2e48>
  12654c:	1013883a 	mov	r9,r2
  126550:	1811883a 	mov	r8,r3
  126554:	480d883a 	mov	r6,r9
  126558:	400f883a 	mov	r7,r8
  12655c:	8809883a 	mov	r4,r17
  126560:	a00b883a 	mov	r5,r20
  126564:	01320e80 	call	1320e8 <__divdf3>
  126568:	d8800f15 	stw	r2,60(sp)
  12656c:	d8c01015 	stw	r3,64(sp)
  126570:	d8c00e17 	ldw	r3,56(sp)
  126574:	18000626 	beq	r3,zero,126590 <_dtoa_r+0x47c>
  126578:	d9000f17 	ldw	r4,60(sp)
  12657c:	d9401017 	ldw	r5,64(sp)
  126580:	000d883a 	mov	r6,zero
  126584:	01cffc34 	movhi	r7,16368
  126588:	0132c1c0 	call	132c1c <__ledf2>
  12658c:	10040b16 	blt	r2,zero,1275bc <_dtoa_r+0x14a8>
  126590:	8009883a 	mov	r4,r16
  126594:	0133ef80 	call	133ef8 <__floatsidf>
  126598:	d9800f17 	ldw	r6,60(sp)
  12659c:	d9c01017 	ldw	r7,64(sp)
  1265a0:	1009883a 	mov	r4,r2
  1265a4:	180b883a 	mov	r5,r3
  1265a8:	0132d100 	call	132d10 <__muldf3>
  1265ac:	000d883a 	mov	r6,zero
  1265b0:	01d00734 	movhi	r7,16412
  1265b4:	1009883a 	mov	r4,r2
  1265b8:	180b883a 	mov	r5,r3
  1265bc:	013183c0 	call	13183c <__adddf3>
  1265c0:	1021883a 	mov	r16,r2
  1265c4:	d8800617 	ldw	r2,24(sp)
  1265c8:	047f3034 	movhi	r17,64704
  1265cc:	1c63883a 	add	r17,r3,r17
  1265d0:	10031826 	beq	r2,zero,127234 <_dtoa_r+0x1120>
  1265d4:	d8c00517 	ldw	r3,20(sp)
  1265d8:	db000617 	ldw	r12,24(sp)
  1265dc:	d8c01315 	stw	r3,76(sp)
  1265e0:	d9000b17 	ldw	r4,44(sp)
  1265e4:	20038f26 	beq	r4,zero,127424 <_dtoa_r+0x1310>
  1265e8:	60bfffc4 	addi	r2,r12,-1
  1265ec:	100490fa 	slli	r2,r2,3
  1265f0:	00c00534 	movhi	r3,20
  1265f4:	18e59a04 	addi	r3,r3,-27032
  1265f8:	1885883a 	add	r2,r3,r2
  1265fc:	11800017 	ldw	r6,0(r2)
  126600:	11c00117 	ldw	r7,4(r2)
  126604:	d8800717 	ldw	r2,28(sp)
  126608:	0009883a 	mov	r4,zero
  12660c:	014ff834 	movhi	r5,16352
  126610:	db001615 	stw	r12,88(sp)
  126614:	15c00044 	addi	r23,r2,1
  126618:	01320e80 	call	1320e8 <__divdf3>
  12661c:	800d883a 	mov	r6,r16
  126620:	880f883a 	mov	r7,r17
  126624:	1009883a 	mov	r4,r2
  126628:	180b883a 	mov	r5,r3
  12662c:	013357c0 	call	13357c <__subdf3>
  126630:	d9401017 	ldw	r5,64(sp)
  126634:	d9000f17 	ldw	r4,60(sp)
  126638:	102b883a 	mov	r21,r2
  12663c:	d8c01215 	stw	r3,72(sp)
  126640:	0133e780 	call	133e78 <__fixdfsi>
  126644:	1009883a 	mov	r4,r2
  126648:	1029883a 	mov	r20,r2
  12664c:	0133ef80 	call	133ef8 <__floatsidf>
  126650:	d9000f17 	ldw	r4,60(sp)
  126654:	d9401017 	ldw	r5,64(sp)
  126658:	100d883a 	mov	r6,r2
  12665c:	180f883a 	mov	r7,r3
  126660:	013357c0 	call	13357c <__subdf3>
  126664:	1823883a 	mov	r17,r3
  126668:	d8c00717 	ldw	r3,28(sp)
  12666c:	d9401217 	ldw	r5,72(sp)
  126670:	a2000c04 	addi	r8,r20,48
  126674:	1021883a 	mov	r16,r2
  126678:	1a000005 	stb	r8,0(r3)
  12667c:	800d883a 	mov	r6,r16
  126680:	880f883a 	mov	r7,r17
  126684:	a809883a 	mov	r4,r21
  126688:	4029883a 	mov	r20,r8
  12668c:	0132b400 	call	132b40 <__gedf2>
  126690:	00841d16 	blt	zero,r2,127708 <_dtoa_r+0x15f4>
  126694:	800d883a 	mov	r6,r16
  126698:	880f883a 	mov	r7,r17
  12669c:	0009883a 	mov	r4,zero
  1266a0:	014ffc34 	movhi	r5,16368
  1266a4:	013357c0 	call	13357c <__subdf3>
  1266a8:	d9401217 	ldw	r5,72(sp)
  1266ac:	100d883a 	mov	r6,r2
  1266b0:	180f883a 	mov	r7,r3
  1266b4:	a809883a 	mov	r4,r21
  1266b8:	0132b400 	call	132b40 <__gedf2>
  1266bc:	db001617 	ldw	r12,88(sp)
  1266c0:	00840e16 	blt	zero,r2,1276fc <_dtoa_r+0x15e8>
  1266c4:	00800044 	movi	r2,1
  1266c8:	13006b0e 	bge	r2,r12,126878 <_dtoa_r+0x764>
  1266cc:	d9000717 	ldw	r4,28(sp)
  1266d0:	dd800f15 	stw	r22,60(sp)
  1266d4:	dcc01015 	stw	r19,64(sp)
  1266d8:	2319883a 	add	r12,r4,r12
  1266dc:	dcc01217 	ldw	r19,72(sp)
  1266e0:	602d883a 	mov	r22,r12
  1266e4:	dc801215 	stw	r18,72(sp)
  1266e8:	b825883a 	mov	r18,r23
  1266ec:	00000906 	br	126714 <_dtoa_r+0x600>
  1266f0:	013357c0 	call	13357c <__subdf3>
  1266f4:	a80d883a 	mov	r6,r21
  1266f8:	980f883a 	mov	r7,r19
  1266fc:	1009883a 	mov	r4,r2
  126700:	180b883a 	mov	r5,r3
  126704:	0132c1c0 	call	132c1c <__ledf2>
  126708:	1003e816 	blt	r2,zero,1276ac <_dtoa_r+0x1598>
  12670c:	b825883a 	mov	r18,r23
  126710:	bd83e926 	beq	r23,r22,1276b8 <_dtoa_r+0x15a4>
  126714:	a809883a 	mov	r4,r21
  126718:	980b883a 	mov	r5,r19
  12671c:	000d883a 	mov	r6,zero
  126720:	01d00934 	movhi	r7,16420
  126724:	0132d100 	call	132d10 <__muldf3>
  126728:	000d883a 	mov	r6,zero
  12672c:	01d00934 	movhi	r7,16420
  126730:	8009883a 	mov	r4,r16
  126734:	880b883a 	mov	r5,r17
  126738:	102b883a 	mov	r21,r2
  12673c:	1827883a 	mov	r19,r3
  126740:	0132d100 	call	132d10 <__muldf3>
  126744:	180b883a 	mov	r5,r3
  126748:	1009883a 	mov	r4,r2
  12674c:	1821883a 	mov	r16,r3
  126750:	1023883a 	mov	r17,r2
  126754:	0133e780 	call	133e78 <__fixdfsi>
  126758:	1009883a 	mov	r4,r2
  12675c:	1029883a 	mov	r20,r2
  126760:	0133ef80 	call	133ef8 <__floatsidf>
  126764:	8809883a 	mov	r4,r17
  126768:	800b883a 	mov	r5,r16
  12676c:	100d883a 	mov	r6,r2
  126770:	180f883a 	mov	r7,r3
  126774:	013357c0 	call	13357c <__subdf3>
  126778:	a5000c04 	addi	r20,r20,48
  12677c:	a80d883a 	mov	r6,r21
  126780:	980f883a 	mov	r7,r19
  126784:	1009883a 	mov	r4,r2
  126788:	180b883a 	mov	r5,r3
  12678c:	95000005 	stb	r20,0(r18)
  126790:	1021883a 	mov	r16,r2
  126794:	1823883a 	mov	r17,r3
  126798:	0132c1c0 	call	132c1c <__ledf2>
  12679c:	bdc00044 	addi	r23,r23,1
  1267a0:	800d883a 	mov	r6,r16
  1267a4:	880f883a 	mov	r7,r17
  1267a8:	0009883a 	mov	r4,zero
  1267ac:	014ffc34 	movhi	r5,16368
  1267b0:	103fcf0e 	bge	r2,zero,1266f0 <_gp+0xfffe3018>
  1267b4:	d8c01317 	ldw	r3,76(sp)
  1267b8:	d8c00515 	stw	r3,20(sp)
  1267bc:	d9400917 	ldw	r5,36(sp)
  1267c0:	e009883a 	mov	r4,fp
  1267c4:	01285400 	call	128540 <_Bfree>
  1267c8:	d9000517 	ldw	r4,20(sp)
  1267cc:	d9802317 	ldw	r6,140(sp)
  1267d0:	d9c02517 	ldw	r7,148(sp)
  1267d4:	b8000005 	stb	zero,0(r23)
  1267d8:	20800044 	addi	r2,r4,1
  1267dc:	30800015 	stw	r2,0(r6)
  1267e0:	3802aa26 	beq	r7,zero,12728c <_dtoa_r+0x1178>
  1267e4:	3dc00015 	stw	r23,0(r7)
  1267e8:	d8800717 	ldw	r2,28(sp)
  1267ec:	003e7906 	br	1261d4 <_gp+0xfffe2afc>
  1267f0:	00800434 	movhi	r2,16
  1267f4:	10bfffc4 	addi	r2,r2,-1
  1267f8:	88a2703a 	and	r17,r17,r2
  1267fc:	883e851e 	bne	r17,zero,126214 <_gp+0xfffe2b3c>
  126800:	00800534 	movhi	r2,20
  126804:	10a57b04 	addi	r2,r2,-27156
  126808:	003e8406 	br	12621c <_gp+0xfffe2b44>
  12680c:	10c00204 	addi	r3,r2,8
  126810:	003e8706 	br	126230 <_gp+0xfffe2b58>
  126814:	01400434 	movhi	r5,16
  126818:	297fffc4 	addi	r5,r5,-1
  12681c:	994a703a 	and	r5,r19,r5
  126820:	9009883a 	mov	r4,r18
  126824:	843f0044 	addi	r16,r16,-1023
  126828:	294ffc34 	orhi	r5,r5,16368
  12682c:	dd800217 	ldw	r22,8(sp)
  126830:	d8001115 	stw	zero,68(sp)
  126834:	003ea506 	br	1262cc <_gp+0xfffe2bf4>
  126838:	00800534 	movhi	r2,20
  12683c:	10a4c704 	addi	r2,r2,-27876
  126840:	003e6406 	br	1261d4 <_gp+0xfffe2afc>
  126844:	e0001115 	stw	zero,68(fp)
  126848:	000b883a 	mov	r5,zero
  12684c:	e009883a 	mov	r4,fp
  126850:	01284980 	call	128498 <_Balloc>
  126854:	01bfffc4 	movi	r6,-1
  126858:	01c00044 	movi	r7,1
  12685c:	d8800715 	stw	r2,28(sp)
  126860:	d9800c15 	stw	r6,48(sp)
  126864:	e0801015 	stw	r2,64(fp)
  126868:	d8000315 	stw	zero,12(sp)
  12686c:	d9c00b15 	stw	r7,44(sp)
  126870:	d9800615 	stw	r6,24(sp)
  126874:	d8002215 	stw	zero,136(sp)
  126878:	d8800117 	ldw	r2,4(sp)
  12687c:	10008916 	blt	r2,zero,126aa4 <_dtoa_r+0x990>
  126880:	d9000517 	ldw	r4,20(sp)
  126884:	00c00384 	movi	r3,14
  126888:	19008616 	blt	r3,r4,126aa4 <_dtoa_r+0x990>
  12688c:	200490fa 	slli	r2,r4,3
  126890:	00c00534 	movhi	r3,20
  126894:	d9802217 	ldw	r6,136(sp)
  126898:	18e59a04 	addi	r3,r3,-27032
  12689c:	1885883a 	add	r2,r3,r2
  1268a0:	14000017 	ldw	r16,0(r2)
  1268a4:	14400117 	ldw	r17,4(r2)
  1268a8:	30016316 	blt	r6,zero,126e38 <_dtoa_r+0xd24>
  1268ac:	800d883a 	mov	r6,r16
  1268b0:	880f883a 	mov	r7,r17
  1268b4:	9009883a 	mov	r4,r18
  1268b8:	980b883a 	mov	r5,r19
  1268bc:	01320e80 	call	1320e8 <__divdf3>
  1268c0:	180b883a 	mov	r5,r3
  1268c4:	1009883a 	mov	r4,r2
  1268c8:	0133e780 	call	133e78 <__fixdfsi>
  1268cc:	1009883a 	mov	r4,r2
  1268d0:	102b883a 	mov	r21,r2
  1268d4:	0133ef80 	call	133ef8 <__floatsidf>
  1268d8:	800d883a 	mov	r6,r16
  1268dc:	880f883a 	mov	r7,r17
  1268e0:	1009883a 	mov	r4,r2
  1268e4:	180b883a 	mov	r5,r3
  1268e8:	0132d100 	call	132d10 <__muldf3>
  1268ec:	100d883a 	mov	r6,r2
  1268f0:	180f883a 	mov	r7,r3
  1268f4:	9009883a 	mov	r4,r18
  1268f8:	980b883a 	mov	r5,r19
  1268fc:	013357c0 	call	13357c <__subdf3>
  126900:	d9c00717 	ldw	r7,28(sp)
  126904:	1009883a 	mov	r4,r2
  126908:	a8800c04 	addi	r2,r21,48
  12690c:	38800005 	stb	r2,0(r7)
  126910:	3dc00044 	addi	r23,r7,1
  126914:	d9c00617 	ldw	r7,24(sp)
  126918:	01800044 	movi	r6,1
  12691c:	180b883a 	mov	r5,r3
  126920:	2005883a 	mov	r2,r4
  126924:	39803826 	beq	r7,r6,126a08 <_dtoa_r+0x8f4>
  126928:	000d883a 	mov	r6,zero
  12692c:	01d00934 	movhi	r7,16420
  126930:	0132d100 	call	132d10 <__muldf3>
  126934:	000d883a 	mov	r6,zero
  126938:	000f883a 	mov	r7,zero
  12693c:	1009883a 	mov	r4,r2
  126940:	180b883a 	mov	r5,r3
  126944:	1025883a 	mov	r18,r2
  126948:	1827883a 	mov	r19,r3
  12694c:	0132ab80 	call	132ab8 <__eqdf2>
  126950:	103f9a26 	beq	r2,zero,1267bc <_gp+0xfffe30e4>
  126954:	d9c00617 	ldw	r7,24(sp)
  126958:	d8c00717 	ldw	r3,28(sp)
  12695c:	b829883a 	mov	r20,r23
  126960:	38bfffc4 	addi	r2,r7,-1
  126964:	18ad883a 	add	r22,r3,r2
  126968:	00000a06 	br	126994 <_dtoa_r+0x880>
  12696c:	0132d100 	call	132d10 <__muldf3>
  126970:	000d883a 	mov	r6,zero
  126974:	000f883a 	mov	r7,zero
  126978:	1009883a 	mov	r4,r2
  12697c:	180b883a 	mov	r5,r3
  126980:	1025883a 	mov	r18,r2
  126984:	1827883a 	mov	r19,r3
  126988:	b829883a 	mov	r20,r23
  12698c:	0132ab80 	call	132ab8 <__eqdf2>
  126990:	103f8a26 	beq	r2,zero,1267bc <_gp+0xfffe30e4>
  126994:	800d883a 	mov	r6,r16
  126998:	880f883a 	mov	r7,r17
  12699c:	9009883a 	mov	r4,r18
  1269a0:	980b883a 	mov	r5,r19
  1269a4:	01320e80 	call	1320e8 <__divdf3>
  1269a8:	180b883a 	mov	r5,r3
  1269ac:	1009883a 	mov	r4,r2
  1269b0:	0133e780 	call	133e78 <__fixdfsi>
  1269b4:	1009883a 	mov	r4,r2
  1269b8:	102b883a 	mov	r21,r2
  1269bc:	0133ef80 	call	133ef8 <__floatsidf>
  1269c0:	800d883a 	mov	r6,r16
  1269c4:	880f883a 	mov	r7,r17
  1269c8:	1009883a 	mov	r4,r2
  1269cc:	180b883a 	mov	r5,r3
  1269d0:	0132d100 	call	132d10 <__muldf3>
  1269d4:	100d883a 	mov	r6,r2
  1269d8:	180f883a 	mov	r7,r3
  1269dc:	9009883a 	mov	r4,r18
  1269e0:	980b883a 	mov	r5,r19
  1269e4:	013357c0 	call	13357c <__subdf3>
  1269e8:	aa000c04 	addi	r8,r21,48
  1269ec:	a2000005 	stb	r8,0(r20)
  1269f0:	000d883a 	mov	r6,zero
  1269f4:	01d00934 	movhi	r7,16420
  1269f8:	1009883a 	mov	r4,r2
  1269fc:	180b883a 	mov	r5,r3
  126a00:	a5c00044 	addi	r23,r20,1
  126a04:	b53fd91e 	bne	r22,r20,12696c <_gp+0xfffe3294>
  126a08:	100d883a 	mov	r6,r2
  126a0c:	180f883a 	mov	r7,r3
  126a10:	1009883a 	mov	r4,r2
  126a14:	180b883a 	mov	r5,r3
  126a18:	013183c0 	call	13183c <__adddf3>
  126a1c:	100d883a 	mov	r6,r2
  126a20:	180f883a 	mov	r7,r3
  126a24:	8009883a 	mov	r4,r16
  126a28:	880b883a 	mov	r5,r17
  126a2c:	1027883a 	mov	r19,r2
  126a30:	1825883a 	mov	r18,r3
  126a34:	0132c1c0 	call	132c1c <__ledf2>
  126a38:	10000816 	blt	r2,zero,126a5c <_dtoa_r+0x948>
  126a3c:	980d883a 	mov	r6,r19
  126a40:	900f883a 	mov	r7,r18
  126a44:	8009883a 	mov	r4,r16
  126a48:	880b883a 	mov	r5,r17
  126a4c:	0132ab80 	call	132ab8 <__eqdf2>
  126a50:	103f5a1e 	bne	r2,zero,1267bc <_gp+0xfffe30e4>
  126a54:	ad40004c 	andi	r21,r21,1
  126a58:	a83f5826 	beq	r21,zero,1267bc <_gp+0xfffe30e4>
  126a5c:	bd3fffc3 	ldbu	r20,-1(r23)
  126a60:	b8bfffc4 	addi	r2,r23,-1
  126a64:	1007883a 	mov	r3,r2
  126a68:	01400e44 	movi	r5,57
  126a6c:	d9800717 	ldw	r6,28(sp)
  126a70:	00000506 	br	126a88 <_dtoa_r+0x974>
  126a74:	18ffffc4 	addi	r3,r3,-1
  126a78:	11824726 	beq	r2,r6,127398 <_dtoa_r+0x1284>
  126a7c:	1d000003 	ldbu	r20,0(r3)
  126a80:	102f883a 	mov	r23,r2
  126a84:	10bfffc4 	addi	r2,r2,-1
  126a88:	a1003fcc 	andi	r4,r20,255
  126a8c:	2100201c 	xori	r4,r4,128
  126a90:	213fe004 	addi	r4,r4,-128
  126a94:	217ff726 	beq	r4,r5,126a74 <_gp+0xfffe339c>
  126a98:	a2000044 	addi	r8,r20,1
  126a9c:	12000005 	stb	r8,0(r2)
  126aa0:	003f4606 	br	1267bc <_gp+0xfffe30e4>
  126aa4:	d9000b17 	ldw	r4,44(sp)
  126aa8:	2000c826 	beq	r4,zero,126dcc <_dtoa_r+0xcb8>
  126aac:	d9800317 	ldw	r6,12(sp)
  126ab0:	00c00044 	movi	r3,1
  126ab4:	1980f90e 	bge	r3,r6,126e9c <_dtoa_r+0xd88>
  126ab8:	d8800617 	ldw	r2,24(sp)
  126abc:	d8c00a17 	ldw	r3,40(sp)
  126ac0:	157fffc4 	addi	r21,r2,-1
  126ac4:	1d41f316 	blt	r3,r21,127294 <_dtoa_r+0x1180>
  126ac8:	1d6bc83a 	sub	r21,r3,r21
  126acc:	d9c00617 	ldw	r7,24(sp)
  126ad0:	3802aa16 	blt	r7,zero,12757c <_dtoa_r+0x1468>
  126ad4:	dd000817 	ldw	r20,32(sp)
  126ad8:	d8800617 	ldw	r2,24(sp)
  126adc:	d8c00817 	ldw	r3,32(sp)
  126ae0:	01400044 	movi	r5,1
  126ae4:	e009883a 	mov	r4,fp
  126ae8:	1887883a 	add	r3,r3,r2
  126aec:	d8c00815 	stw	r3,32(sp)
  126af0:	b0ad883a 	add	r22,r22,r2
  126af4:	01288cc0 	call	1288cc <__i2b>
  126af8:	1023883a 	mov	r17,r2
  126afc:	a0000826 	beq	r20,zero,126b20 <_dtoa_r+0xa0c>
  126b00:	0580070e 	bge	zero,r22,126b20 <_dtoa_r+0xa0c>
  126b04:	a005883a 	mov	r2,r20
  126b08:	b500b916 	blt	r22,r20,126df0 <_dtoa_r+0xcdc>
  126b0c:	d9000817 	ldw	r4,32(sp)
  126b10:	a0a9c83a 	sub	r20,r20,r2
  126b14:	b0adc83a 	sub	r22,r22,r2
  126b18:	2089c83a 	sub	r4,r4,r2
  126b1c:	d9000815 	stw	r4,32(sp)
  126b20:	d9800a17 	ldw	r6,40(sp)
  126b24:	0181810e 	bge	zero,r6,12712c <_dtoa_r+0x1018>
  126b28:	d9c00b17 	ldw	r7,44(sp)
  126b2c:	3800b326 	beq	r7,zero,126dfc <_dtoa_r+0xce8>
  126b30:	a800b226 	beq	r21,zero,126dfc <_dtoa_r+0xce8>
  126b34:	880b883a 	mov	r5,r17
  126b38:	a80d883a 	mov	r6,r21
  126b3c:	e009883a 	mov	r4,fp
  126b40:	0128b940 	call	128b94 <__pow5mult>
  126b44:	d9800917 	ldw	r6,36(sp)
  126b48:	100b883a 	mov	r5,r2
  126b4c:	e009883a 	mov	r4,fp
  126b50:	1023883a 	mov	r17,r2
  126b54:	01289080 	call	128908 <__multiply>
  126b58:	1021883a 	mov	r16,r2
  126b5c:	d8800a17 	ldw	r2,40(sp)
  126b60:	d9400917 	ldw	r5,36(sp)
  126b64:	e009883a 	mov	r4,fp
  126b68:	1545c83a 	sub	r2,r2,r21
  126b6c:	d8800a15 	stw	r2,40(sp)
  126b70:	01285400 	call	128540 <_Bfree>
  126b74:	d8c00a17 	ldw	r3,40(sp)
  126b78:	18009f1e 	bne	r3,zero,126df8 <_dtoa_r+0xce4>
  126b7c:	05c00044 	movi	r23,1
  126b80:	e009883a 	mov	r4,fp
  126b84:	b80b883a 	mov	r5,r23
  126b88:	01288cc0 	call	1288cc <__i2b>
  126b8c:	d9000d17 	ldw	r4,52(sp)
  126b90:	102b883a 	mov	r21,r2
  126b94:	2000ce26 	beq	r4,zero,126ed0 <_dtoa_r+0xdbc>
  126b98:	200d883a 	mov	r6,r4
  126b9c:	100b883a 	mov	r5,r2
  126ba0:	e009883a 	mov	r4,fp
  126ba4:	0128b940 	call	128b94 <__pow5mult>
  126ba8:	d9800317 	ldw	r6,12(sp)
  126bac:	102b883a 	mov	r21,r2
  126bb0:	b981810e 	bge	r23,r6,1271b8 <_dtoa_r+0x10a4>
  126bb4:	0027883a 	mov	r19,zero
  126bb8:	a8800417 	ldw	r2,16(r21)
  126bbc:	05c00804 	movi	r23,32
  126bc0:	10800104 	addi	r2,r2,4
  126bc4:	1085883a 	add	r2,r2,r2
  126bc8:	1085883a 	add	r2,r2,r2
  126bcc:	a885883a 	add	r2,r21,r2
  126bd0:	11000017 	ldw	r4,0(r2)
  126bd4:	01287b40 	call	1287b4 <__hi0bits>
  126bd8:	b885c83a 	sub	r2,r23,r2
  126bdc:	1585883a 	add	r2,r2,r22
  126be0:	108007cc 	andi	r2,r2,31
  126be4:	1000b326 	beq	r2,zero,126eb4 <_dtoa_r+0xda0>
  126be8:	00c00804 	movi	r3,32
  126bec:	1887c83a 	sub	r3,r3,r2
  126bf0:	01000104 	movi	r4,4
  126bf4:	20c2cd0e 	bge	r4,r3,12772c <_dtoa_r+0x1618>
  126bf8:	00c00704 	movi	r3,28
  126bfc:	1885c83a 	sub	r2,r3,r2
  126c00:	d8c00817 	ldw	r3,32(sp)
  126c04:	a0a9883a 	add	r20,r20,r2
  126c08:	b0ad883a 	add	r22,r22,r2
  126c0c:	1887883a 	add	r3,r3,r2
  126c10:	d8c00815 	stw	r3,32(sp)
  126c14:	d9800817 	ldw	r6,32(sp)
  126c18:	0180040e 	bge	zero,r6,126c2c <_dtoa_r+0xb18>
  126c1c:	800b883a 	mov	r5,r16
  126c20:	e009883a 	mov	r4,fp
  126c24:	0128cd40 	call	128cd4 <__lshift>
  126c28:	1021883a 	mov	r16,r2
  126c2c:	0580050e 	bge	zero,r22,126c44 <_dtoa_r+0xb30>
  126c30:	a80b883a 	mov	r5,r21
  126c34:	b00d883a 	mov	r6,r22
  126c38:	e009883a 	mov	r4,fp
  126c3c:	0128cd40 	call	128cd4 <__lshift>
  126c40:	102b883a 	mov	r21,r2
  126c44:	d9c00e17 	ldw	r7,56(sp)
  126c48:	3801211e 	bne	r7,zero,1270d0 <_dtoa_r+0xfbc>
  126c4c:	d9800617 	ldw	r6,24(sp)
  126c50:	0181380e 	bge	zero,r6,127134 <_dtoa_r+0x1020>
  126c54:	d8c00b17 	ldw	r3,44(sp)
  126c58:	1800ab1e 	bne	r3,zero,126f08 <_dtoa_r+0xdf4>
  126c5c:	dc800717 	ldw	r18,28(sp)
  126c60:	dcc00617 	ldw	r19,24(sp)
  126c64:	9029883a 	mov	r20,r18
  126c68:	00000206 	br	126c74 <_dtoa_r+0xb60>
  126c6c:	01285680 	call	128568 <__multadd>
  126c70:	1021883a 	mov	r16,r2
  126c74:	a80b883a 	mov	r5,r21
  126c78:	8009883a 	mov	r4,r16
  126c7c:	0125eec0 	call	125eec <quorem>
  126c80:	10800c04 	addi	r2,r2,48
  126c84:	90800005 	stb	r2,0(r18)
  126c88:	94800044 	addi	r18,r18,1
  126c8c:	9507c83a 	sub	r3,r18,r20
  126c90:	000f883a 	mov	r7,zero
  126c94:	01800284 	movi	r6,10
  126c98:	800b883a 	mov	r5,r16
  126c9c:	e009883a 	mov	r4,fp
  126ca0:	1cfff216 	blt	r3,r19,126c6c <_gp+0xfffe3594>
  126ca4:	1011883a 	mov	r8,r2
  126ca8:	d8800617 	ldw	r2,24(sp)
  126cac:	0082370e 	bge	zero,r2,12758c <_dtoa_r+0x1478>
  126cb0:	d9000717 	ldw	r4,28(sp)
  126cb4:	0025883a 	mov	r18,zero
  126cb8:	20af883a 	add	r23,r4,r2
  126cbc:	01800044 	movi	r6,1
  126cc0:	800b883a 	mov	r5,r16
  126cc4:	e009883a 	mov	r4,fp
  126cc8:	da001715 	stw	r8,92(sp)
  126ccc:	0128cd40 	call	128cd4 <__lshift>
  126cd0:	a80b883a 	mov	r5,r21
  126cd4:	1009883a 	mov	r4,r2
  126cd8:	d8800915 	stw	r2,36(sp)
  126cdc:	0128e1c0 	call	128e1c <__mcmp>
  126ce0:	da001717 	ldw	r8,92(sp)
  126ce4:	0081800e 	bge	zero,r2,1272e8 <_dtoa_r+0x11d4>
  126ce8:	b93fffc3 	ldbu	r4,-1(r23)
  126cec:	b8bfffc4 	addi	r2,r23,-1
  126cf0:	1007883a 	mov	r3,r2
  126cf4:	01800e44 	movi	r6,57
  126cf8:	d9c00717 	ldw	r7,28(sp)
  126cfc:	00000506 	br	126d14 <_dtoa_r+0xc00>
  126d00:	18ffffc4 	addi	r3,r3,-1
  126d04:	11c12326 	beq	r2,r7,127194 <_dtoa_r+0x1080>
  126d08:	19000003 	ldbu	r4,0(r3)
  126d0c:	102f883a 	mov	r23,r2
  126d10:	10bfffc4 	addi	r2,r2,-1
  126d14:	21403fcc 	andi	r5,r4,255
  126d18:	2940201c 	xori	r5,r5,128
  126d1c:	297fe004 	addi	r5,r5,-128
  126d20:	29bff726 	beq	r5,r6,126d00 <_gp+0xfffe3628>
  126d24:	21000044 	addi	r4,r4,1
  126d28:	11000005 	stb	r4,0(r2)
  126d2c:	a80b883a 	mov	r5,r21
  126d30:	e009883a 	mov	r4,fp
  126d34:	01285400 	call	128540 <_Bfree>
  126d38:	883ea026 	beq	r17,zero,1267bc <_gp+0xfffe30e4>
  126d3c:	90000426 	beq	r18,zero,126d50 <_dtoa_r+0xc3c>
  126d40:	94400326 	beq	r18,r17,126d50 <_dtoa_r+0xc3c>
  126d44:	900b883a 	mov	r5,r18
  126d48:	e009883a 	mov	r4,fp
  126d4c:	01285400 	call	128540 <_Bfree>
  126d50:	880b883a 	mov	r5,r17
  126d54:	e009883a 	mov	r4,fp
  126d58:	01285400 	call	128540 <_Bfree>
  126d5c:	003e9706 	br	1267bc <_gp+0xfffe30e4>
  126d60:	01800044 	movi	r6,1
  126d64:	d9800e15 	stw	r6,56(sp)
  126d68:	003d9606 	br	1263c4 <_gp+0xfffe2cec>
  126d6c:	d8800817 	ldw	r2,32(sp)
  126d70:	d8c00517 	ldw	r3,20(sp)
  126d74:	d8000d15 	stw	zero,52(sp)
  126d78:	10c5c83a 	sub	r2,r2,r3
  126d7c:	00c9c83a 	sub	r4,zero,r3
  126d80:	d8800815 	stw	r2,32(sp)
  126d84:	d9000a15 	stw	r4,40(sp)
  126d88:	003d9706 	br	1263e8 <_gp+0xfffe2d10>
  126d8c:	05adc83a 	sub	r22,zero,r22
  126d90:	dd800815 	stw	r22,32(sp)
  126d94:	002d883a 	mov	r22,zero
  126d98:	003d8e06 	br	1263d4 <_gp+0xfffe2cfc>
  126d9c:	d9000517 	ldw	r4,20(sp)
  126da0:	0133ef80 	call	133ef8 <__floatsidf>
  126da4:	100d883a 	mov	r6,r2
  126da8:	180f883a 	mov	r7,r3
  126dac:	a009883a 	mov	r4,r20
  126db0:	880b883a 	mov	r5,r17
  126db4:	0132ab80 	call	132ab8 <__eqdf2>
  126db8:	103d7126 	beq	r2,zero,126380 <_gp+0xfffe2ca8>
  126dbc:	d9c00517 	ldw	r7,20(sp)
  126dc0:	39ffffc4 	addi	r7,r7,-1
  126dc4:	d9c00515 	stw	r7,20(sp)
  126dc8:	003d6d06 	br	126380 <_gp+0xfffe2ca8>
  126dcc:	dd400a17 	ldw	r21,40(sp)
  126dd0:	dd000817 	ldw	r20,32(sp)
  126dd4:	0023883a 	mov	r17,zero
  126dd8:	003f4806 	br	126afc <_gp+0xfffe3424>
  126ddc:	10e3c83a 	sub	r17,r2,r3
  126de0:	9448983a 	sll	r4,r18,r17
  126de4:	003d3206 	br	1262b0 <_gp+0xfffe2bd8>
  126de8:	d8000e15 	stw	zero,56(sp)
  126dec:	003d7506 	br	1263c4 <_gp+0xfffe2cec>
  126df0:	b005883a 	mov	r2,r22
  126df4:	003f4506 	br	126b0c <_gp+0xfffe3434>
  126df8:	dc000915 	stw	r16,36(sp)
  126dfc:	d9800a17 	ldw	r6,40(sp)
  126e00:	d9400917 	ldw	r5,36(sp)
  126e04:	e009883a 	mov	r4,fp
  126e08:	0128b940 	call	128b94 <__pow5mult>
  126e0c:	1021883a 	mov	r16,r2
  126e10:	003f5a06 	br	126b7c <_gp+0xfffe34a4>
  126e14:	01c00044 	movi	r7,1
  126e18:	d9c00b15 	stw	r7,44(sp)
  126e1c:	d8802217 	ldw	r2,136(sp)
  126e20:	0081280e 	bge	zero,r2,1272c4 <_dtoa_r+0x11b0>
  126e24:	100d883a 	mov	r6,r2
  126e28:	1021883a 	mov	r16,r2
  126e2c:	d8800c15 	stw	r2,48(sp)
  126e30:	d8800615 	stw	r2,24(sp)
  126e34:	003d8806 	br	126458 <_gp+0xfffe2d80>
  126e38:	d8800617 	ldw	r2,24(sp)
  126e3c:	00be9b16 	blt	zero,r2,1268ac <_gp+0xfffe31d4>
  126e40:	10010f1e 	bne	r2,zero,127280 <_dtoa_r+0x116c>
  126e44:	880b883a 	mov	r5,r17
  126e48:	000d883a 	mov	r6,zero
  126e4c:	01d00534 	movhi	r7,16404
  126e50:	8009883a 	mov	r4,r16
  126e54:	0132d100 	call	132d10 <__muldf3>
  126e58:	900d883a 	mov	r6,r18
  126e5c:	980f883a 	mov	r7,r19
  126e60:	1009883a 	mov	r4,r2
  126e64:	180b883a 	mov	r5,r3
  126e68:	0132b400 	call	132b40 <__gedf2>
  126e6c:	002b883a 	mov	r21,zero
  126e70:	0023883a 	mov	r17,zero
  126e74:	1000bf16 	blt	r2,zero,127174 <_dtoa_r+0x1060>
  126e78:	d9802217 	ldw	r6,136(sp)
  126e7c:	ddc00717 	ldw	r23,28(sp)
  126e80:	018c303a 	nor	r6,zero,r6
  126e84:	d9800515 	stw	r6,20(sp)
  126e88:	a80b883a 	mov	r5,r21
  126e8c:	e009883a 	mov	r4,fp
  126e90:	01285400 	call	128540 <_Bfree>
  126e94:	883e4926 	beq	r17,zero,1267bc <_gp+0xfffe30e4>
  126e98:	003fad06 	br	126d50 <_gp+0xfffe3678>
  126e9c:	d9c01117 	ldw	r7,68(sp)
  126ea0:	3801bc26 	beq	r7,zero,127594 <_dtoa_r+0x1480>
  126ea4:	10810cc4 	addi	r2,r2,1075
  126ea8:	dd400a17 	ldw	r21,40(sp)
  126eac:	dd000817 	ldw	r20,32(sp)
  126eb0:	003f0a06 	br	126adc <_gp+0xfffe3404>
  126eb4:	00800704 	movi	r2,28
  126eb8:	d9000817 	ldw	r4,32(sp)
  126ebc:	a0a9883a 	add	r20,r20,r2
  126ec0:	b0ad883a 	add	r22,r22,r2
  126ec4:	2089883a 	add	r4,r4,r2
  126ec8:	d9000815 	stw	r4,32(sp)
  126ecc:	003f5106 	br	126c14 <_gp+0xfffe353c>
  126ed0:	d8c00317 	ldw	r3,12(sp)
  126ed4:	b8c1fc0e 	bge	r23,r3,1276c8 <_dtoa_r+0x15b4>
  126ed8:	0027883a 	mov	r19,zero
  126edc:	b805883a 	mov	r2,r23
  126ee0:	003f3e06 	br	126bdc <_gp+0xfffe3504>
  126ee4:	880b883a 	mov	r5,r17
  126ee8:	e009883a 	mov	r4,fp
  126eec:	000f883a 	mov	r7,zero
  126ef0:	01800284 	movi	r6,10
  126ef4:	01285680 	call	128568 <__multadd>
  126ef8:	d9000c17 	ldw	r4,48(sp)
  126efc:	1023883a 	mov	r17,r2
  126f00:	0102040e 	bge	zero,r4,127714 <_dtoa_r+0x1600>
  126f04:	d9000615 	stw	r4,24(sp)
  126f08:	0500050e 	bge	zero,r20,126f20 <_dtoa_r+0xe0c>
  126f0c:	880b883a 	mov	r5,r17
  126f10:	a00d883a 	mov	r6,r20
  126f14:	e009883a 	mov	r4,fp
  126f18:	0128cd40 	call	128cd4 <__lshift>
  126f1c:	1023883a 	mov	r17,r2
  126f20:	9801241e 	bne	r19,zero,1273b4 <_dtoa_r+0x12a0>
  126f24:	8829883a 	mov	r20,r17
  126f28:	d9000617 	ldw	r4,24(sp)
  126f2c:	dcc00717 	ldw	r19,28(sp)
  126f30:	9480004c 	andi	r18,r18,1
  126f34:	20bfffc4 	addi	r2,r4,-1
  126f38:	9885883a 	add	r2,r19,r2
  126f3c:	d8800415 	stw	r2,16(sp)
  126f40:	dc800615 	stw	r18,24(sp)
  126f44:	a80b883a 	mov	r5,r21
  126f48:	8009883a 	mov	r4,r16
  126f4c:	0125eec0 	call	125eec <quorem>
  126f50:	880b883a 	mov	r5,r17
  126f54:	8009883a 	mov	r4,r16
  126f58:	102f883a 	mov	r23,r2
  126f5c:	0128e1c0 	call	128e1c <__mcmp>
  126f60:	a80b883a 	mov	r5,r21
  126f64:	a00d883a 	mov	r6,r20
  126f68:	e009883a 	mov	r4,fp
  126f6c:	102d883a 	mov	r22,r2
  126f70:	0128e7c0 	call	128e7c <__mdiff>
  126f74:	1007883a 	mov	r3,r2
  126f78:	10800317 	ldw	r2,12(r2)
  126f7c:	bc800c04 	addi	r18,r23,48
  126f80:	180b883a 	mov	r5,r3
  126f84:	10004e1e 	bne	r2,zero,1270c0 <_dtoa_r+0xfac>
  126f88:	8009883a 	mov	r4,r16
  126f8c:	d8c01615 	stw	r3,88(sp)
  126f90:	0128e1c0 	call	128e1c <__mcmp>
  126f94:	d8c01617 	ldw	r3,88(sp)
  126f98:	e009883a 	mov	r4,fp
  126f9c:	d8801615 	stw	r2,88(sp)
  126fa0:	180b883a 	mov	r5,r3
  126fa4:	01285400 	call	128540 <_Bfree>
  126fa8:	d8801617 	ldw	r2,88(sp)
  126fac:	1000041e 	bne	r2,zero,126fc0 <_dtoa_r+0xeac>
  126fb0:	d9800317 	ldw	r6,12(sp)
  126fb4:	3000021e 	bne	r6,zero,126fc0 <_dtoa_r+0xeac>
  126fb8:	d8c00617 	ldw	r3,24(sp)
  126fbc:	18003726 	beq	r3,zero,12709c <_dtoa_r+0xf88>
  126fc0:	b0002016 	blt	r22,zero,127044 <_dtoa_r+0xf30>
  126fc4:	b000041e 	bne	r22,zero,126fd8 <_dtoa_r+0xec4>
  126fc8:	d9000317 	ldw	r4,12(sp)
  126fcc:	2000021e 	bne	r4,zero,126fd8 <_dtoa_r+0xec4>
  126fd0:	d8c00617 	ldw	r3,24(sp)
  126fd4:	18001b26 	beq	r3,zero,127044 <_dtoa_r+0xf30>
  126fd8:	00810716 	blt	zero,r2,1273f8 <_dtoa_r+0x12e4>
  126fdc:	d8c00417 	ldw	r3,16(sp)
  126fe0:	9d800044 	addi	r22,r19,1
  126fe4:	9c800005 	stb	r18,0(r19)
  126fe8:	b02f883a 	mov	r23,r22
  126fec:	98c10626 	beq	r19,r3,127408 <_dtoa_r+0x12f4>
  126ff0:	800b883a 	mov	r5,r16
  126ff4:	000f883a 	mov	r7,zero
  126ff8:	01800284 	movi	r6,10
  126ffc:	e009883a 	mov	r4,fp
  127000:	01285680 	call	128568 <__multadd>
  127004:	1021883a 	mov	r16,r2
  127008:	000f883a 	mov	r7,zero
  12700c:	01800284 	movi	r6,10
  127010:	880b883a 	mov	r5,r17
  127014:	e009883a 	mov	r4,fp
  127018:	8d002526 	beq	r17,r20,1270b0 <_dtoa_r+0xf9c>
  12701c:	01285680 	call	128568 <__multadd>
  127020:	a00b883a 	mov	r5,r20
  127024:	000f883a 	mov	r7,zero
  127028:	01800284 	movi	r6,10
  12702c:	e009883a 	mov	r4,fp
  127030:	1023883a 	mov	r17,r2
  127034:	01285680 	call	128568 <__multadd>
  127038:	1029883a 	mov	r20,r2
  12703c:	b027883a 	mov	r19,r22
  127040:	003fc006 	br	126f44 <_gp+0xfffe386c>
  127044:	9011883a 	mov	r8,r18
  127048:	00800e0e 	bge	zero,r2,127084 <_dtoa_r+0xf70>
  12704c:	800b883a 	mov	r5,r16
  127050:	01800044 	movi	r6,1
  127054:	e009883a 	mov	r4,fp
  127058:	da001715 	stw	r8,92(sp)
  12705c:	0128cd40 	call	128cd4 <__lshift>
  127060:	a80b883a 	mov	r5,r21
  127064:	1009883a 	mov	r4,r2
  127068:	1021883a 	mov	r16,r2
  12706c:	0128e1c0 	call	128e1c <__mcmp>
  127070:	da001717 	ldw	r8,92(sp)
  127074:	0081960e 	bge	zero,r2,1276d0 <_dtoa_r+0x15bc>
  127078:	00800e44 	movi	r2,57
  12707c:	40817026 	beq	r8,r2,127640 <_dtoa_r+0x152c>
  127080:	ba000c44 	addi	r8,r23,49
  127084:	8825883a 	mov	r18,r17
  127088:	9dc00044 	addi	r23,r19,1
  12708c:	9a000005 	stb	r8,0(r19)
  127090:	a023883a 	mov	r17,r20
  127094:	dc000915 	stw	r16,36(sp)
  127098:	003f2406 	br	126d2c <_gp+0xfffe3654>
  12709c:	00800e44 	movi	r2,57
  1270a0:	9011883a 	mov	r8,r18
  1270a4:	90816626 	beq	r18,r2,127640 <_dtoa_r+0x152c>
  1270a8:	05bff516 	blt	zero,r22,127080 <_gp+0xfffe39a8>
  1270ac:	003ff506 	br	127084 <_gp+0xfffe39ac>
  1270b0:	01285680 	call	128568 <__multadd>
  1270b4:	1023883a 	mov	r17,r2
  1270b8:	1029883a 	mov	r20,r2
  1270bc:	003fdf06 	br	12703c <_gp+0xfffe3964>
  1270c0:	e009883a 	mov	r4,fp
  1270c4:	01285400 	call	128540 <_Bfree>
  1270c8:	00800044 	movi	r2,1
  1270cc:	003fbc06 	br	126fc0 <_gp+0xfffe38e8>
  1270d0:	a80b883a 	mov	r5,r21
  1270d4:	8009883a 	mov	r4,r16
  1270d8:	0128e1c0 	call	128e1c <__mcmp>
  1270dc:	103edb0e 	bge	r2,zero,126c4c <_gp+0xfffe3574>
  1270e0:	800b883a 	mov	r5,r16
  1270e4:	000f883a 	mov	r7,zero
  1270e8:	01800284 	movi	r6,10
  1270ec:	e009883a 	mov	r4,fp
  1270f0:	01285680 	call	128568 <__multadd>
  1270f4:	1021883a 	mov	r16,r2
  1270f8:	d8800517 	ldw	r2,20(sp)
  1270fc:	d8c00b17 	ldw	r3,44(sp)
  127100:	10bfffc4 	addi	r2,r2,-1
  127104:	d8800515 	stw	r2,20(sp)
  127108:	183f761e 	bne	r3,zero,126ee4 <_gp+0xfffe380c>
  12710c:	d9000c17 	ldw	r4,48(sp)
  127110:	0101730e 	bge	zero,r4,1276e0 <_dtoa_r+0x15cc>
  127114:	d9000615 	stw	r4,24(sp)
  127118:	003ed006 	br	126c5c <_gp+0xfffe3584>
  12711c:	00800084 	movi	r2,2
  127120:	3081861e 	bne	r6,r2,12773c <_dtoa_r+0x1628>
  127124:	d8000b15 	stw	zero,44(sp)
  127128:	003f3c06 	br	126e1c <_gp+0xfffe3744>
  12712c:	dc000917 	ldw	r16,36(sp)
  127130:	003e9206 	br	126b7c <_gp+0xfffe34a4>
  127134:	d9c00317 	ldw	r7,12(sp)
  127138:	00800084 	movi	r2,2
  12713c:	11fec50e 	bge	r2,r7,126c54 <_gp+0xfffe357c>
  127140:	d9000617 	ldw	r4,24(sp)
  127144:	20013c1e 	bne	r4,zero,127638 <_dtoa_r+0x1524>
  127148:	a80b883a 	mov	r5,r21
  12714c:	000f883a 	mov	r7,zero
  127150:	01800144 	movi	r6,5
  127154:	e009883a 	mov	r4,fp
  127158:	01285680 	call	128568 <__multadd>
  12715c:	100b883a 	mov	r5,r2
  127160:	8009883a 	mov	r4,r16
  127164:	102b883a 	mov	r21,r2
  127168:	0128e1c0 	call	128e1c <__mcmp>
  12716c:	dc000915 	stw	r16,36(sp)
  127170:	00bf410e 	bge	zero,r2,126e78 <_gp+0xfffe37a0>
  127174:	d9c00717 	ldw	r7,28(sp)
  127178:	00800c44 	movi	r2,49
  12717c:	38800005 	stb	r2,0(r7)
  127180:	d8800517 	ldw	r2,20(sp)
  127184:	3dc00044 	addi	r23,r7,1
  127188:	10800044 	addi	r2,r2,1
  12718c:	d8800515 	stw	r2,20(sp)
  127190:	003f3d06 	br	126e88 <_gp+0xfffe37b0>
  127194:	d9800517 	ldw	r6,20(sp)
  127198:	d9c00717 	ldw	r7,28(sp)
  12719c:	00800c44 	movi	r2,49
  1271a0:	31800044 	addi	r6,r6,1
  1271a4:	d9800515 	stw	r6,20(sp)
  1271a8:	38800005 	stb	r2,0(r7)
  1271ac:	003edf06 	br	126d2c <_gp+0xfffe3654>
  1271b0:	d8000b15 	stw	zero,44(sp)
  1271b4:	003c9f06 	br	126434 <_gp+0xfffe2d5c>
  1271b8:	903e7e1e 	bne	r18,zero,126bb4 <_gp+0xfffe34dc>
  1271bc:	00800434 	movhi	r2,16
  1271c0:	10bfffc4 	addi	r2,r2,-1
  1271c4:	9884703a 	and	r2,r19,r2
  1271c8:	1000ea1e 	bne	r2,zero,127574 <_dtoa_r+0x1460>
  1271cc:	9cdffc2c 	andhi	r19,r19,32752
  1271d0:	9800e826 	beq	r19,zero,127574 <_dtoa_r+0x1460>
  1271d4:	d9c00817 	ldw	r7,32(sp)
  1271d8:	b5800044 	addi	r22,r22,1
  1271dc:	04c00044 	movi	r19,1
  1271e0:	39c00044 	addi	r7,r7,1
  1271e4:	d9c00815 	stw	r7,32(sp)
  1271e8:	d8800d17 	ldw	r2,52(sp)
  1271ec:	103e721e 	bne	r2,zero,126bb8 <_gp+0xfffe34e0>
  1271f0:	00800044 	movi	r2,1
  1271f4:	003e7906 	br	126bdc <_gp+0xfffe3504>
  1271f8:	8009883a 	mov	r4,r16
  1271fc:	0133ef80 	call	133ef8 <__floatsidf>
  127200:	d9800f17 	ldw	r6,60(sp)
  127204:	d9c01017 	ldw	r7,64(sp)
  127208:	1009883a 	mov	r4,r2
  12720c:	180b883a 	mov	r5,r3
  127210:	0132d100 	call	132d10 <__muldf3>
  127214:	000d883a 	mov	r6,zero
  127218:	01d00734 	movhi	r7,16412
  12721c:	1009883a 	mov	r4,r2
  127220:	180b883a 	mov	r5,r3
  127224:	013183c0 	call	13183c <__adddf3>
  127228:	047f3034 	movhi	r17,64704
  12722c:	1021883a 	mov	r16,r2
  127230:	1c63883a 	add	r17,r3,r17
  127234:	d9000f17 	ldw	r4,60(sp)
  127238:	d9401017 	ldw	r5,64(sp)
  12723c:	000d883a 	mov	r6,zero
  127240:	01d00534 	movhi	r7,16404
  127244:	013357c0 	call	13357c <__subdf3>
  127248:	800d883a 	mov	r6,r16
  12724c:	880f883a 	mov	r7,r17
  127250:	1009883a 	mov	r4,r2
  127254:	180b883a 	mov	r5,r3
  127258:	102b883a 	mov	r21,r2
  12725c:	1829883a 	mov	r20,r3
  127260:	0132b400 	call	132b40 <__gedf2>
  127264:	00806c16 	blt	zero,r2,127418 <_dtoa_r+0x1304>
  127268:	89e0003c 	xorhi	r7,r17,32768
  12726c:	800d883a 	mov	r6,r16
  127270:	a809883a 	mov	r4,r21
  127274:	a00b883a 	mov	r5,r20
  127278:	0132c1c0 	call	132c1c <__ledf2>
  12727c:	103d7e0e 	bge	r2,zero,126878 <_gp+0xfffe31a0>
  127280:	002b883a 	mov	r21,zero
  127284:	0023883a 	mov	r17,zero
  127288:	003efb06 	br	126e78 <_gp+0xfffe37a0>
  12728c:	d8800717 	ldw	r2,28(sp)
  127290:	003bd006 	br	1261d4 <_gp+0xfffe2afc>
  127294:	d9000a17 	ldw	r4,40(sp)
  127298:	d9800d17 	ldw	r6,52(sp)
  12729c:	dd400a15 	stw	r21,40(sp)
  1272a0:	a905c83a 	sub	r2,r21,r4
  1272a4:	308d883a 	add	r6,r6,r2
  1272a8:	d9800d15 	stw	r6,52(sp)
  1272ac:	002b883a 	mov	r21,zero
  1272b0:	003e0606 	br	126acc <_gp+0xfffe33f4>
  1272b4:	9023883a 	mov	r17,r18
  1272b8:	9829883a 	mov	r20,r19
  1272bc:	04000084 	movi	r16,2
  1272c0:	003c9206 	br	12650c <_gp+0xfffe2e34>
  1272c4:	04000044 	movi	r16,1
  1272c8:	dc000c15 	stw	r16,48(sp)
  1272cc:	dc000615 	stw	r16,24(sp)
  1272d0:	dc002215 	stw	r16,136(sp)
  1272d4:	e0001115 	stw	zero,68(fp)
  1272d8:	000b883a 	mov	r5,zero
  1272dc:	003c6906 	br	126484 <_gp+0xfffe2dac>
  1272e0:	3021883a 	mov	r16,r6
  1272e4:	003ffb06 	br	1272d4 <_gp+0xfffe3bfc>
  1272e8:	1000021e 	bne	r2,zero,1272f4 <_dtoa_r+0x11e0>
  1272ec:	4200004c 	andi	r8,r8,1
  1272f0:	403e7d1e 	bne	r8,zero,126ce8 <_gp+0xfffe3610>
  1272f4:	01000c04 	movi	r4,48
  1272f8:	00000106 	br	127300 <_dtoa_r+0x11ec>
  1272fc:	102f883a 	mov	r23,r2
  127300:	b8bfffc4 	addi	r2,r23,-1
  127304:	10c00007 	ldb	r3,0(r2)
  127308:	193ffc26 	beq	r3,r4,1272fc <_gp+0xfffe3c24>
  12730c:	003e8706 	br	126d2c <_gp+0xfffe3654>
  127310:	d8800517 	ldw	r2,20(sp)
  127314:	00a3c83a 	sub	r17,zero,r2
  127318:	8800a426 	beq	r17,zero,1275ac <_dtoa_r+0x1498>
  12731c:	888003cc 	andi	r2,r17,15
  127320:	100490fa 	slli	r2,r2,3
  127324:	00c00534 	movhi	r3,20
  127328:	18e59a04 	addi	r3,r3,-27032
  12732c:	1885883a 	add	r2,r3,r2
  127330:	11800017 	ldw	r6,0(r2)
  127334:	11c00117 	ldw	r7,4(r2)
  127338:	9009883a 	mov	r4,r18
  12733c:	980b883a 	mov	r5,r19
  127340:	8823d13a 	srai	r17,r17,4
  127344:	0132d100 	call	132d10 <__muldf3>
  127348:	d8800f15 	stw	r2,60(sp)
  12734c:	d8c01015 	stw	r3,64(sp)
  127350:	8800e826 	beq	r17,zero,1276f4 <_dtoa_r+0x15e0>
  127354:	05000534 	movhi	r20,20
  127358:	a5259004 	addi	r20,r20,-27072
  12735c:	04000084 	movi	r16,2
  127360:	8980004c 	andi	r6,r17,1
  127364:	1009883a 	mov	r4,r2
  127368:	8823d07a 	srai	r17,r17,1
  12736c:	180b883a 	mov	r5,r3
  127370:	30000426 	beq	r6,zero,127384 <_dtoa_r+0x1270>
  127374:	a1800017 	ldw	r6,0(r20)
  127378:	a1c00117 	ldw	r7,4(r20)
  12737c:	84000044 	addi	r16,r16,1
  127380:	0132d100 	call	132d10 <__muldf3>
  127384:	a5000204 	addi	r20,r20,8
  127388:	883ff51e 	bne	r17,zero,127360 <_gp+0xfffe3c88>
  12738c:	d8800f15 	stw	r2,60(sp)
  127390:	d8c01015 	stw	r3,64(sp)
  127394:	003c7606 	br	126570 <_gp+0xfffe2e98>
  127398:	00c00c04 	movi	r3,48
  12739c:	10c00005 	stb	r3,0(r2)
  1273a0:	d8c00517 	ldw	r3,20(sp)
  1273a4:	bd3fffc3 	ldbu	r20,-1(r23)
  1273a8:	18c00044 	addi	r3,r3,1
  1273ac:	d8c00515 	stw	r3,20(sp)
  1273b0:	003db906 	br	126a98 <_gp+0xfffe33c0>
  1273b4:	89400117 	ldw	r5,4(r17)
  1273b8:	e009883a 	mov	r4,fp
  1273bc:	01284980 	call	128498 <_Balloc>
  1273c0:	89800417 	ldw	r6,16(r17)
  1273c4:	89400304 	addi	r5,r17,12
  1273c8:	11000304 	addi	r4,r2,12
  1273cc:	31800084 	addi	r6,r6,2
  1273d0:	318d883a 	add	r6,r6,r6
  1273d4:	318d883a 	add	r6,r6,r6
  1273d8:	1027883a 	mov	r19,r2
  1273dc:	01213900 	call	121390 <memcpy>
  1273e0:	01800044 	movi	r6,1
  1273e4:	980b883a 	mov	r5,r19
  1273e8:	e009883a 	mov	r4,fp
  1273ec:	0128cd40 	call	128cd4 <__lshift>
  1273f0:	1029883a 	mov	r20,r2
  1273f4:	003ecc06 	br	126f28 <_gp+0xfffe3850>
  1273f8:	00800e44 	movi	r2,57
  1273fc:	90809026 	beq	r18,r2,127640 <_dtoa_r+0x152c>
  127400:	92000044 	addi	r8,r18,1
  127404:	003f1f06 	br	127084 <_gp+0xfffe39ac>
  127408:	9011883a 	mov	r8,r18
  12740c:	8825883a 	mov	r18,r17
  127410:	a023883a 	mov	r17,r20
  127414:	003e2906 	br	126cbc <_gp+0xfffe35e4>
  127418:	002b883a 	mov	r21,zero
  12741c:	0023883a 	mov	r17,zero
  127420:	003f5406 	br	127174 <_gp+0xfffe3a9c>
  127424:	61bfffc4 	addi	r6,r12,-1
  127428:	300490fa 	slli	r2,r6,3
  12742c:	00c00534 	movhi	r3,20
  127430:	18e59a04 	addi	r3,r3,-27032
  127434:	1885883a 	add	r2,r3,r2
  127438:	11000017 	ldw	r4,0(r2)
  12743c:	11400117 	ldw	r5,4(r2)
  127440:	d8800717 	ldw	r2,28(sp)
  127444:	880f883a 	mov	r7,r17
  127448:	d9801215 	stw	r6,72(sp)
  12744c:	800d883a 	mov	r6,r16
  127450:	db001615 	stw	r12,88(sp)
  127454:	15c00044 	addi	r23,r2,1
  127458:	0132d100 	call	132d10 <__muldf3>
  12745c:	d9401017 	ldw	r5,64(sp)
  127460:	d9000f17 	ldw	r4,60(sp)
  127464:	d8c01515 	stw	r3,84(sp)
  127468:	d8801415 	stw	r2,80(sp)
  12746c:	0133e780 	call	133e78 <__fixdfsi>
  127470:	1009883a 	mov	r4,r2
  127474:	1021883a 	mov	r16,r2
  127478:	0133ef80 	call	133ef8 <__floatsidf>
  12747c:	d9000f17 	ldw	r4,60(sp)
  127480:	d9401017 	ldw	r5,64(sp)
  127484:	100d883a 	mov	r6,r2
  127488:	180f883a 	mov	r7,r3
  12748c:	013357c0 	call	13357c <__subdf3>
  127490:	1829883a 	mov	r20,r3
  127494:	d8c00717 	ldw	r3,28(sp)
  127498:	84000c04 	addi	r16,r16,48
  12749c:	1023883a 	mov	r17,r2
  1274a0:	1c000005 	stb	r16,0(r3)
  1274a4:	db001617 	ldw	r12,88(sp)
  1274a8:	00800044 	movi	r2,1
  1274ac:	60802226 	beq	r12,r2,127538 <_dtoa_r+0x1424>
  1274b0:	d9c00717 	ldw	r7,28(sp)
  1274b4:	8805883a 	mov	r2,r17
  1274b8:	b82b883a 	mov	r21,r23
  1274bc:	3b19883a 	add	r12,r7,r12
  1274c0:	6023883a 	mov	r17,r12
  1274c4:	a007883a 	mov	r3,r20
  1274c8:	dc800f15 	stw	r18,60(sp)
  1274cc:	000d883a 	mov	r6,zero
  1274d0:	01d00934 	movhi	r7,16420
  1274d4:	1009883a 	mov	r4,r2
  1274d8:	180b883a 	mov	r5,r3
  1274dc:	0132d100 	call	132d10 <__muldf3>
  1274e0:	180b883a 	mov	r5,r3
  1274e4:	1009883a 	mov	r4,r2
  1274e8:	1829883a 	mov	r20,r3
  1274ec:	1025883a 	mov	r18,r2
  1274f0:	0133e780 	call	133e78 <__fixdfsi>
  1274f4:	1009883a 	mov	r4,r2
  1274f8:	1021883a 	mov	r16,r2
  1274fc:	0133ef80 	call	133ef8 <__floatsidf>
  127500:	100d883a 	mov	r6,r2
  127504:	180f883a 	mov	r7,r3
  127508:	9009883a 	mov	r4,r18
  12750c:	a00b883a 	mov	r5,r20
  127510:	84000c04 	addi	r16,r16,48
  127514:	013357c0 	call	13357c <__subdf3>
  127518:	ad400044 	addi	r21,r21,1
  12751c:	ac3fffc5 	stb	r16,-1(r21)
  127520:	ac7fea1e 	bne	r21,r17,1274cc <_gp+0xfffe3df4>
  127524:	1023883a 	mov	r17,r2
  127528:	d8801217 	ldw	r2,72(sp)
  12752c:	dc800f17 	ldw	r18,60(sp)
  127530:	1829883a 	mov	r20,r3
  127534:	b8af883a 	add	r23,r23,r2
  127538:	d9001417 	ldw	r4,80(sp)
  12753c:	d9401517 	ldw	r5,84(sp)
  127540:	000d883a 	mov	r6,zero
  127544:	01cff834 	movhi	r7,16352
  127548:	013183c0 	call	13183c <__adddf3>
  12754c:	880d883a 	mov	r6,r17
  127550:	a00f883a 	mov	r7,r20
  127554:	1009883a 	mov	r4,r2
  127558:	180b883a 	mov	r5,r3
  12755c:	0132c1c0 	call	132c1c <__ledf2>
  127560:	10003e0e 	bge	r2,zero,12765c <_dtoa_r+0x1548>
  127564:	d9001317 	ldw	r4,76(sp)
  127568:	bd3fffc3 	ldbu	r20,-1(r23)
  12756c:	d9000515 	stw	r4,20(sp)
  127570:	003d3b06 	br	126a60 <_gp+0xfffe3388>
  127574:	0027883a 	mov	r19,zero
  127578:	003f1b06 	br	1271e8 <_gp+0xfffe3b10>
  12757c:	d8800817 	ldw	r2,32(sp)
  127580:	11e9c83a 	sub	r20,r2,r7
  127584:	0005883a 	mov	r2,zero
  127588:	003d5406 	br	126adc <_gp+0xfffe3404>
  12758c:	00800044 	movi	r2,1
  127590:	003dc706 	br	126cb0 <_gp+0xfffe35d8>
  127594:	d8c00217 	ldw	r3,8(sp)
  127598:	00800d84 	movi	r2,54
  12759c:	dd400a17 	ldw	r21,40(sp)
  1275a0:	10c5c83a 	sub	r2,r2,r3
  1275a4:	dd000817 	ldw	r20,32(sp)
  1275a8:	003d4c06 	br	126adc <_gp+0xfffe3404>
  1275ac:	dc800f15 	stw	r18,60(sp)
  1275b0:	dcc01015 	stw	r19,64(sp)
  1275b4:	04000084 	movi	r16,2
  1275b8:	003bed06 	br	126570 <_gp+0xfffe2e98>
  1275bc:	d9000617 	ldw	r4,24(sp)
  1275c0:	203f0d26 	beq	r4,zero,1271f8 <_gp+0xfffe3b20>
  1275c4:	d9800c17 	ldw	r6,48(sp)
  1275c8:	01bcab0e 	bge	zero,r6,126878 <_gp+0xfffe31a0>
  1275cc:	d9401017 	ldw	r5,64(sp)
  1275d0:	d9000f17 	ldw	r4,60(sp)
  1275d4:	000d883a 	mov	r6,zero
  1275d8:	01d00934 	movhi	r7,16420
  1275dc:	0132d100 	call	132d10 <__muldf3>
  1275e0:	81000044 	addi	r4,r16,1
  1275e4:	d8800f15 	stw	r2,60(sp)
  1275e8:	d8c01015 	stw	r3,64(sp)
  1275ec:	0133ef80 	call	133ef8 <__floatsidf>
  1275f0:	d9800f17 	ldw	r6,60(sp)
  1275f4:	d9c01017 	ldw	r7,64(sp)
  1275f8:	1009883a 	mov	r4,r2
  1275fc:	180b883a 	mov	r5,r3
  127600:	0132d100 	call	132d10 <__muldf3>
  127604:	01d00734 	movhi	r7,16412
  127608:	000d883a 	mov	r6,zero
  12760c:	1009883a 	mov	r4,r2
  127610:	180b883a 	mov	r5,r3
  127614:	013183c0 	call	13183c <__adddf3>
  127618:	d9c00517 	ldw	r7,20(sp)
  12761c:	047f3034 	movhi	r17,64704
  127620:	1021883a 	mov	r16,r2
  127624:	39ffffc4 	addi	r7,r7,-1
  127628:	d9c01315 	stw	r7,76(sp)
  12762c:	1c63883a 	add	r17,r3,r17
  127630:	db000c17 	ldw	r12,48(sp)
  127634:	003bea06 	br	1265e0 <_gp+0xfffe2f08>
  127638:	dc000915 	stw	r16,36(sp)
  12763c:	003e0e06 	br	126e78 <_gp+0xfffe37a0>
  127640:	01000e44 	movi	r4,57
  127644:	8825883a 	mov	r18,r17
  127648:	9dc00044 	addi	r23,r19,1
  12764c:	99000005 	stb	r4,0(r19)
  127650:	a023883a 	mov	r17,r20
  127654:	dc000915 	stw	r16,36(sp)
  127658:	003da406 	br	126cec <_gp+0xfffe3614>
  12765c:	d9801417 	ldw	r6,80(sp)
  127660:	d9c01517 	ldw	r7,84(sp)
  127664:	0009883a 	mov	r4,zero
  127668:	014ff834 	movhi	r5,16352
  12766c:	013357c0 	call	13357c <__subdf3>
  127670:	880d883a 	mov	r6,r17
  127674:	a00f883a 	mov	r7,r20
  127678:	1009883a 	mov	r4,r2
  12767c:	180b883a 	mov	r5,r3
  127680:	0132b400 	call	132b40 <__gedf2>
  127684:	00bc7c0e 	bge	zero,r2,126878 <_gp+0xfffe31a0>
  127688:	01000c04 	movi	r4,48
  12768c:	00000106 	br	127694 <_dtoa_r+0x1580>
  127690:	102f883a 	mov	r23,r2
  127694:	b8bfffc4 	addi	r2,r23,-1
  127698:	10c00007 	ldb	r3,0(r2)
  12769c:	193ffc26 	beq	r3,r4,127690 <_gp+0xfffe3fb8>
  1276a0:	d9801317 	ldw	r6,76(sp)
  1276a4:	d9800515 	stw	r6,20(sp)
  1276a8:	003c4406 	br	1267bc <_gp+0xfffe30e4>
  1276ac:	d9801317 	ldw	r6,76(sp)
  1276b0:	d9800515 	stw	r6,20(sp)
  1276b4:	003cea06 	br	126a60 <_gp+0xfffe3388>
  1276b8:	dd800f17 	ldw	r22,60(sp)
  1276bc:	dcc01017 	ldw	r19,64(sp)
  1276c0:	dc801217 	ldw	r18,72(sp)
  1276c4:	003c6c06 	br	126878 <_gp+0xfffe31a0>
  1276c8:	903e031e 	bne	r18,zero,126ed8 <_gp+0xfffe3800>
  1276cc:	003ebb06 	br	1271bc <_gp+0xfffe3ae4>
  1276d0:	103e6c1e 	bne	r2,zero,127084 <_gp+0xfffe39ac>
  1276d4:	4080004c 	andi	r2,r8,1
  1276d8:	103e6a26 	beq	r2,zero,127084 <_gp+0xfffe39ac>
  1276dc:	003e6606 	br	127078 <_gp+0xfffe39a0>
  1276e0:	d8c00317 	ldw	r3,12(sp)
  1276e4:	00800084 	movi	r2,2
  1276e8:	10c02916 	blt	r2,r3,127790 <_dtoa_r+0x167c>
  1276ec:	d9000c17 	ldw	r4,48(sp)
  1276f0:	003e8806 	br	127114 <_gp+0xfffe3a3c>
  1276f4:	04000084 	movi	r16,2
  1276f8:	003b9d06 	br	126570 <_gp+0xfffe2e98>
  1276fc:	d9001317 	ldw	r4,76(sp)
  127700:	d9000515 	stw	r4,20(sp)
  127704:	003cd606 	br	126a60 <_gp+0xfffe3388>
  127708:	d8801317 	ldw	r2,76(sp)
  12770c:	d8800515 	stw	r2,20(sp)
  127710:	003c2a06 	br	1267bc <_gp+0xfffe30e4>
  127714:	d9800317 	ldw	r6,12(sp)
  127718:	00800084 	movi	r2,2
  12771c:	11801516 	blt	r2,r6,127774 <_dtoa_r+0x1660>
  127720:	d9c00c17 	ldw	r7,48(sp)
  127724:	d9c00615 	stw	r7,24(sp)
  127728:	003df706 	br	126f08 <_gp+0xfffe3830>
  12772c:	193d3926 	beq	r3,r4,126c14 <_gp+0xfffe353c>
  127730:	00c00f04 	movi	r3,60
  127734:	1885c83a 	sub	r2,r3,r2
  127738:	003ddf06 	br	126eb8 <_gp+0xfffe37e0>
  12773c:	e009883a 	mov	r4,fp
  127740:	e0001115 	stw	zero,68(fp)
  127744:	000b883a 	mov	r5,zero
  127748:	01284980 	call	128498 <_Balloc>
  12774c:	d8800715 	stw	r2,28(sp)
  127750:	d8c00717 	ldw	r3,28(sp)
  127754:	00bfffc4 	movi	r2,-1
  127758:	01000044 	movi	r4,1
  12775c:	d8800c15 	stw	r2,48(sp)
  127760:	e0c01015 	stw	r3,64(fp)
  127764:	d9000b15 	stw	r4,44(sp)
  127768:	d8800615 	stw	r2,24(sp)
  12776c:	d8002215 	stw	zero,136(sp)
  127770:	003c4106 	br	126878 <_gp+0xfffe31a0>
  127774:	d8c00c17 	ldw	r3,48(sp)
  127778:	d8c00615 	stw	r3,24(sp)
  12777c:	003e7006 	br	127140 <_gp+0xfffe3a68>
  127780:	04400044 	movi	r17,1
  127784:	003b2006 	br	126408 <_gp+0xfffe2d30>
  127788:	000b883a 	mov	r5,zero
  12778c:	003b3d06 	br	126484 <_gp+0xfffe2dac>
  127790:	d8800c17 	ldw	r2,48(sp)
  127794:	d8800615 	stw	r2,24(sp)
  127798:	003e6906 	br	127140 <_gp+0xfffe3a68>

0012779c <iswspace>:
  12779c:	00803fc4 	movi	r2,255
  1277a0:	11000836 	bltu	r2,r4,1277c4 <iswspace+0x28>
  1277a4:	00800534 	movhi	r2,20
  1277a8:	10adb804 	addi	r2,r2,-18720
  1277ac:	10800017 	ldw	r2,0(r2)
  1277b0:	1109883a 	add	r4,r2,r4
  1277b4:	20800043 	ldbu	r2,1(r4)
  1277b8:	1080020c 	andi	r2,r2,8
  1277bc:	10803fcc 	andi	r2,r2,255
  1277c0:	f800283a 	ret
  1277c4:	0005883a 	mov	r2,zero
  1277c8:	f800283a 	ret

001277cc <_setlocale_r>:
  1277cc:	30001b26 	beq	r6,zero,12783c <_setlocale_r+0x70>
  1277d0:	01400534 	movhi	r5,20
  1277d4:	defffe04 	addi	sp,sp,-8
  1277d8:	29658004 	addi	r5,r5,-27136
  1277dc:	3009883a 	mov	r4,r6
  1277e0:	dc000015 	stw	r16,0(sp)
  1277e4:	dfc00115 	stw	ra,4(sp)
  1277e8:	3021883a 	mov	r16,r6
  1277ec:	01298b40 	call	1298b4 <strcmp>
  1277f0:	1000061e 	bne	r2,zero,12780c <_setlocale_r+0x40>
  1277f4:	00800534 	movhi	r2,20
  1277f8:	10a57f04 	addi	r2,r2,-27140
  1277fc:	dfc00117 	ldw	ra,4(sp)
  127800:	dc000017 	ldw	r16,0(sp)
  127804:	dec00204 	addi	sp,sp,8
  127808:	f800283a 	ret
  12780c:	01400534 	movhi	r5,20
  127810:	29657f04 	addi	r5,r5,-27140
  127814:	8009883a 	mov	r4,r16
  127818:	01298b40 	call	1298b4 <strcmp>
  12781c:	103ff526 	beq	r2,zero,1277f4 <_gp+0xfffe411c>
  127820:	01400534 	movhi	r5,20
  127824:	2964bf04 	addi	r5,r5,-27908
  127828:	8009883a 	mov	r4,r16
  12782c:	01298b40 	call	1298b4 <strcmp>
  127830:	103ff026 	beq	r2,zero,1277f4 <_gp+0xfffe411c>
  127834:	0005883a 	mov	r2,zero
  127838:	003ff006 	br	1277fc <_gp+0xfffe4124>
  12783c:	00800534 	movhi	r2,20
  127840:	10a57f04 	addi	r2,r2,-27140
  127844:	f800283a 	ret

00127848 <__locale_charset>:
  127848:	00800534 	movhi	r2,20
  12784c:	10a7a004 	addi	r2,r2,-24960
  127850:	f800283a 	ret

00127854 <__locale_mb_cur_max>:
  127854:	00800534 	movhi	r2,20
  127858:	10adbb04 	addi	r2,r2,-18708
  12785c:	10800017 	ldw	r2,0(r2)
  127860:	f800283a 	ret

00127864 <__locale_msgcharset>:
  127864:	00800534 	movhi	r2,20
  127868:	10a79804 	addi	r2,r2,-24992
  12786c:	f800283a 	ret

00127870 <__locale_cjk_lang>:
  127870:	0005883a 	mov	r2,zero
  127874:	f800283a 	ret

00127878 <_localeconv_r>:
  127878:	00800534 	movhi	r2,20
  12787c:	10a7a804 	addi	r2,r2,-24928
  127880:	f800283a 	ret

00127884 <setlocale>:
  127884:	00800534 	movhi	r2,20
  127888:	10adba04 	addi	r2,r2,-18712
  12788c:	280d883a 	mov	r6,r5
  127890:	200b883a 	mov	r5,r4
  127894:	11000017 	ldw	r4,0(r2)
  127898:	01277cc1 	jmpi	1277cc <_setlocale_r>

0012789c <localeconv>:
  12789c:	00800534 	movhi	r2,20
  1278a0:	10a7a804 	addi	r2,r2,-24928
  1278a4:	f800283a 	ret

001278a8 <_lseek_r>:
  1278a8:	defffd04 	addi	sp,sp,-12
  1278ac:	2805883a 	mov	r2,r5
  1278b0:	dc000015 	stw	r16,0(sp)
  1278b4:	04000534 	movhi	r16,20
  1278b8:	dc400115 	stw	r17,4(sp)
  1278bc:	300b883a 	mov	r5,r6
  1278c0:	84350e04 	addi	r16,r16,-11208
  1278c4:	2023883a 	mov	r17,r4
  1278c8:	380d883a 	mov	r6,r7
  1278cc:	1009883a 	mov	r4,r2
  1278d0:	dfc00215 	stw	ra,8(sp)
  1278d4:	80000015 	stw	zero,0(r16)
  1278d8:	01346700 	call	134670 <lseek>
  1278dc:	00ffffc4 	movi	r3,-1
  1278e0:	10c00526 	beq	r2,r3,1278f8 <_lseek_r+0x50>
  1278e4:	dfc00217 	ldw	ra,8(sp)
  1278e8:	dc400117 	ldw	r17,4(sp)
  1278ec:	dc000017 	ldw	r16,0(sp)
  1278f0:	dec00304 	addi	sp,sp,12
  1278f4:	f800283a 	ret
  1278f8:	80c00017 	ldw	r3,0(r16)
  1278fc:	183ff926 	beq	r3,zero,1278e4 <_gp+0xfffe420c>
  127900:	88c00015 	stw	r3,0(r17)
  127904:	003ff706 	br	1278e4 <_gp+0xfffe420c>

00127908 <_malloc_r>:
  127908:	defff504 	addi	sp,sp,-44
  12790c:	dc800315 	stw	r18,12(sp)
  127910:	dfc00a15 	stw	ra,40(sp)
  127914:	df000915 	stw	fp,36(sp)
  127918:	ddc00815 	stw	r23,32(sp)
  12791c:	dd800715 	stw	r22,28(sp)
  127920:	dd400615 	stw	r21,24(sp)
  127924:	dd000515 	stw	r20,20(sp)
  127928:	dcc00415 	stw	r19,16(sp)
  12792c:	dc400215 	stw	r17,8(sp)
  127930:	dc000115 	stw	r16,4(sp)
  127934:	288002c4 	addi	r2,r5,11
  127938:	00c00584 	movi	r3,22
  12793c:	2025883a 	mov	r18,r4
  127940:	18807f2e 	bgeu	r3,r2,127b40 <_malloc_r+0x238>
  127944:	047ffe04 	movi	r17,-8
  127948:	1462703a 	and	r17,r2,r17
  12794c:	8800a316 	blt	r17,zero,127bdc <_malloc_r+0x2d4>
  127950:	8940a236 	bltu	r17,r5,127bdc <_malloc_r+0x2d4>
  127954:	01347c80 	call	1347c8 <__malloc_lock>
  127958:	00807dc4 	movi	r2,503
  12795c:	1441e92e 	bgeu	r2,r17,128104 <_malloc_r+0x7fc>
  127960:	8804d27a 	srli	r2,r17,9
  127964:	1000a126 	beq	r2,zero,127bec <_malloc_r+0x2e4>
  127968:	00c00104 	movi	r3,4
  12796c:	18811e36 	bltu	r3,r2,127de8 <_malloc_r+0x4e0>
  127970:	8804d1ba 	srli	r2,r17,6
  127974:	12000e44 	addi	r8,r2,57
  127978:	11c00e04 	addi	r7,r2,56
  12797c:	4209883a 	add	r4,r8,r8
  127980:	04c00534 	movhi	r19,20
  127984:	2109883a 	add	r4,r4,r4
  127988:	9ce7b604 	addi	r19,r19,-24872
  12798c:	2109883a 	add	r4,r4,r4
  127990:	9909883a 	add	r4,r19,r4
  127994:	24000117 	ldw	r16,4(r4)
  127998:	213ffe04 	addi	r4,r4,-8
  12799c:	24009726 	beq	r4,r16,127bfc <_malloc_r+0x2f4>
  1279a0:	80800117 	ldw	r2,4(r16)
  1279a4:	01bfff04 	movi	r6,-4
  1279a8:	014003c4 	movi	r5,15
  1279ac:	1184703a 	and	r2,r2,r6
  1279b0:	1447c83a 	sub	r3,r2,r17
  1279b4:	28c00716 	blt	r5,r3,1279d4 <_malloc_r+0xcc>
  1279b8:	1800920e 	bge	r3,zero,127c04 <_malloc_r+0x2fc>
  1279bc:	84000317 	ldw	r16,12(r16)
  1279c0:	24008e26 	beq	r4,r16,127bfc <_malloc_r+0x2f4>
  1279c4:	80800117 	ldw	r2,4(r16)
  1279c8:	1184703a 	and	r2,r2,r6
  1279cc:	1447c83a 	sub	r3,r2,r17
  1279d0:	28fff90e 	bge	r5,r3,1279b8 <_gp+0xfffe42e0>
  1279d4:	3809883a 	mov	r4,r7
  1279d8:	01800534 	movhi	r6,20
  1279dc:	9c000417 	ldw	r16,16(r19)
  1279e0:	31a7b604 	addi	r6,r6,-24872
  1279e4:	32000204 	addi	r8,r6,8
  1279e8:	82013426 	beq	r16,r8,127ebc <_malloc_r+0x5b4>
  1279ec:	80c00117 	ldw	r3,4(r16)
  1279f0:	00bfff04 	movi	r2,-4
  1279f4:	188e703a 	and	r7,r3,r2
  1279f8:	3c45c83a 	sub	r2,r7,r17
  1279fc:	00c003c4 	movi	r3,15
  127a00:	18811f16 	blt	r3,r2,127e80 <_malloc_r+0x578>
  127a04:	32000515 	stw	r8,20(r6)
  127a08:	32000415 	stw	r8,16(r6)
  127a0c:	10007f0e 	bge	r2,zero,127c0c <_malloc_r+0x304>
  127a10:	00807fc4 	movi	r2,511
  127a14:	11c0fd36 	bltu	r2,r7,127e0c <_malloc_r+0x504>
  127a18:	3806d0fa 	srli	r3,r7,3
  127a1c:	01c00044 	movi	r7,1
  127a20:	30800117 	ldw	r2,4(r6)
  127a24:	19400044 	addi	r5,r3,1
  127a28:	294b883a 	add	r5,r5,r5
  127a2c:	1807d0ba 	srai	r3,r3,2
  127a30:	294b883a 	add	r5,r5,r5
  127a34:	294b883a 	add	r5,r5,r5
  127a38:	298b883a 	add	r5,r5,r6
  127a3c:	38c6983a 	sll	r3,r7,r3
  127a40:	29c00017 	ldw	r7,0(r5)
  127a44:	2a7ffe04 	addi	r9,r5,-8
  127a48:	1886b03a 	or	r3,r3,r2
  127a4c:	82400315 	stw	r9,12(r16)
  127a50:	81c00215 	stw	r7,8(r16)
  127a54:	30c00115 	stw	r3,4(r6)
  127a58:	2c000015 	stw	r16,0(r5)
  127a5c:	3c000315 	stw	r16,12(r7)
  127a60:	2005d0ba 	srai	r2,r4,2
  127a64:	01400044 	movi	r5,1
  127a68:	288a983a 	sll	r5,r5,r2
  127a6c:	19406f36 	bltu	r3,r5,127c2c <_malloc_r+0x324>
  127a70:	28c4703a 	and	r2,r5,r3
  127a74:	10000a1e 	bne	r2,zero,127aa0 <_malloc_r+0x198>
  127a78:	00bfff04 	movi	r2,-4
  127a7c:	294b883a 	add	r5,r5,r5
  127a80:	2088703a 	and	r4,r4,r2
  127a84:	28c4703a 	and	r2,r5,r3
  127a88:	21000104 	addi	r4,r4,4
  127a8c:	1000041e 	bne	r2,zero,127aa0 <_malloc_r+0x198>
  127a90:	294b883a 	add	r5,r5,r5
  127a94:	28c4703a 	and	r2,r5,r3
  127a98:	21000104 	addi	r4,r4,4
  127a9c:	103ffc26 	beq	r2,zero,127a90 <_gp+0xfffe43b8>
  127aa0:	02bfff04 	movi	r10,-4
  127aa4:	024003c4 	movi	r9,15
  127aa8:	21800044 	addi	r6,r4,1
  127aac:	318d883a 	add	r6,r6,r6
  127ab0:	318d883a 	add	r6,r6,r6
  127ab4:	318d883a 	add	r6,r6,r6
  127ab8:	998d883a 	add	r6,r19,r6
  127abc:	333ffe04 	addi	r12,r6,-8
  127ac0:	2017883a 	mov	r11,r4
  127ac4:	31800104 	addi	r6,r6,4
  127ac8:	34000017 	ldw	r16,0(r6)
  127acc:	31fffd04 	addi	r7,r6,-12
  127ad0:	81c0041e 	bne	r16,r7,127ae4 <_malloc_r+0x1dc>
  127ad4:	0000fb06 	br	127ec4 <_malloc_r+0x5bc>
  127ad8:	1801030e 	bge	r3,zero,127ee8 <_malloc_r+0x5e0>
  127adc:	84000317 	ldw	r16,12(r16)
  127ae0:	81c0f826 	beq	r16,r7,127ec4 <_malloc_r+0x5bc>
  127ae4:	80800117 	ldw	r2,4(r16)
  127ae8:	1284703a 	and	r2,r2,r10
  127aec:	1447c83a 	sub	r3,r2,r17
  127af0:	48fff90e 	bge	r9,r3,127ad8 <_gp+0xfffe4400>
  127af4:	80800317 	ldw	r2,12(r16)
  127af8:	81000217 	ldw	r4,8(r16)
  127afc:	89400054 	ori	r5,r17,1
  127b00:	81400115 	stw	r5,4(r16)
  127b04:	20800315 	stw	r2,12(r4)
  127b08:	11000215 	stw	r4,8(r2)
  127b0c:	8463883a 	add	r17,r16,r17
  127b10:	9c400515 	stw	r17,20(r19)
  127b14:	9c400415 	stw	r17,16(r19)
  127b18:	18800054 	ori	r2,r3,1
  127b1c:	88800115 	stw	r2,4(r17)
  127b20:	8a000315 	stw	r8,12(r17)
  127b24:	8a000215 	stw	r8,8(r17)
  127b28:	88e3883a 	add	r17,r17,r3
  127b2c:	88c00015 	stw	r3,0(r17)
  127b30:	9009883a 	mov	r4,r18
  127b34:	01347ec0 	call	1347ec <__malloc_unlock>
  127b38:	80800204 	addi	r2,r16,8
  127b3c:	00001b06 	br	127bac <_malloc_r+0x2a4>
  127b40:	04400404 	movi	r17,16
  127b44:	89402536 	bltu	r17,r5,127bdc <_malloc_r+0x2d4>
  127b48:	01347c80 	call	1347c8 <__malloc_lock>
  127b4c:	00800184 	movi	r2,6
  127b50:	01000084 	movi	r4,2
  127b54:	04c00534 	movhi	r19,20
  127b58:	1085883a 	add	r2,r2,r2
  127b5c:	9ce7b604 	addi	r19,r19,-24872
  127b60:	1085883a 	add	r2,r2,r2
  127b64:	9885883a 	add	r2,r19,r2
  127b68:	14000117 	ldw	r16,4(r2)
  127b6c:	10fffe04 	addi	r3,r2,-8
  127b70:	80c0d926 	beq	r16,r3,127ed8 <_malloc_r+0x5d0>
  127b74:	80c00117 	ldw	r3,4(r16)
  127b78:	81000317 	ldw	r4,12(r16)
  127b7c:	00bfff04 	movi	r2,-4
  127b80:	1884703a 	and	r2,r3,r2
  127b84:	81400217 	ldw	r5,8(r16)
  127b88:	8085883a 	add	r2,r16,r2
  127b8c:	10c00117 	ldw	r3,4(r2)
  127b90:	29000315 	stw	r4,12(r5)
  127b94:	21400215 	stw	r5,8(r4)
  127b98:	18c00054 	ori	r3,r3,1
  127b9c:	10c00115 	stw	r3,4(r2)
  127ba0:	9009883a 	mov	r4,r18
  127ba4:	01347ec0 	call	1347ec <__malloc_unlock>
  127ba8:	80800204 	addi	r2,r16,8
  127bac:	dfc00a17 	ldw	ra,40(sp)
  127bb0:	df000917 	ldw	fp,36(sp)
  127bb4:	ddc00817 	ldw	r23,32(sp)
  127bb8:	dd800717 	ldw	r22,28(sp)
  127bbc:	dd400617 	ldw	r21,24(sp)
  127bc0:	dd000517 	ldw	r20,20(sp)
  127bc4:	dcc00417 	ldw	r19,16(sp)
  127bc8:	dc800317 	ldw	r18,12(sp)
  127bcc:	dc400217 	ldw	r17,8(sp)
  127bd0:	dc000117 	ldw	r16,4(sp)
  127bd4:	dec00b04 	addi	sp,sp,44
  127bd8:	f800283a 	ret
  127bdc:	00800304 	movi	r2,12
  127be0:	90800015 	stw	r2,0(r18)
  127be4:	0005883a 	mov	r2,zero
  127be8:	003ff006 	br	127bac <_gp+0xfffe44d4>
  127bec:	01002004 	movi	r4,128
  127bf0:	02001004 	movi	r8,64
  127bf4:	01c00fc4 	movi	r7,63
  127bf8:	003f6106 	br	127980 <_gp+0xfffe42a8>
  127bfc:	4009883a 	mov	r4,r8
  127c00:	003f7506 	br	1279d8 <_gp+0xfffe4300>
  127c04:	81000317 	ldw	r4,12(r16)
  127c08:	003fde06 	br	127b84 <_gp+0xfffe44ac>
  127c0c:	81c5883a 	add	r2,r16,r7
  127c10:	11400117 	ldw	r5,4(r2)
  127c14:	9009883a 	mov	r4,r18
  127c18:	29400054 	ori	r5,r5,1
  127c1c:	11400115 	stw	r5,4(r2)
  127c20:	01347ec0 	call	1347ec <__malloc_unlock>
  127c24:	80800204 	addi	r2,r16,8
  127c28:	003fe006 	br	127bac <_gp+0xfffe44d4>
  127c2c:	9c000217 	ldw	r16,8(r19)
  127c30:	00bfff04 	movi	r2,-4
  127c34:	85800117 	ldw	r22,4(r16)
  127c38:	b0ac703a 	and	r22,r22,r2
  127c3c:	b4400336 	bltu	r22,r17,127c4c <_malloc_r+0x344>
  127c40:	b445c83a 	sub	r2,r22,r17
  127c44:	00c003c4 	movi	r3,15
  127c48:	18805d16 	blt	r3,r2,127dc0 <_malloc_r+0x4b8>
  127c4c:	05c00534 	movhi	r23,20
  127c50:	00800534 	movhi	r2,20
  127c54:	10b51404 	addi	r2,r2,-11184
  127c58:	bdedbc04 	addi	r23,r23,-18704
  127c5c:	15400017 	ldw	r21,0(r2)
  127c60:	b8c00017 	ldw	r3,0(r23)
  127c64:	00bfffc4 	movi	r2,-1
  127c68:	858d883a 	add	r6,r16,r22
  127c6c:	8d6b883a 	add	r21,r17,r21
  127c70:	1880ea26 	beq	r3,r2,12801c <_malloc_r+0x714>
  127c74:	ad4403c4 	addi	r21,r21,4111
  127c78:	00bc0004 	movi	r2,-4096
  127c7c:	a8aa703a 	and	r21,r21,r2
  127c80:	a80b883a 	mov	r5,r21
  127c84:	9009883a 	mov	r4,r18
  127c88:	d9800015 	stw	r6,0(sp)
  127c8c:	01296240 	call	129624 <_sbrk_r>
  127c90:	1029883a 	mov	r20,r2
  127c94:	00bfffc4 	movi	r2,-1
  127c98:	d9800017 	ldw	r6,0(sp)
  127c9c:	a080e826 	beq	r20,r2,128040 <_malloc_r+0x738>
  127ca0:	a180a636 	bltu	r20,r6,127f3c <_malloc_r+0x634>
  127ca4:	07000534 	movhi	fp,20
  127ca8:	e7351c04 	addi	fp,fp,-11152
  127cac:	e0800017 	ldw	r2,0(fp)
  127cb0:	a887883a 	add	r3,r21,r2
  127cb4:	e0c00015 	stw	r3,0(fp)
  127cb8:	3500e626 	beq	r6,r20,128054 <_malloc_r+0x74c>
  127cbc:	b9000017 	ldw	r4,0(r23)
  127cc0:	00bfffc4 	movi	r2,-1
  127cc4:	2080ee26 	beq	r4,r2,128080 <_malloc_r+0x778>
  127cc8:	a185c83a 	sub	r2,r20,r6
  127ccc:	10c5883a 	add	r2,r2,r3
  127cd0:	e0800015 	stw	r2,0(fp)
  127cd4:	a0c001cc 	andi	r3,r20,7
  127cd8:	1800bc26 	beq	r3,zero,127fcc <_malloc_r+0x6c4>
  127cdc:	a0e9c83a 	sub	r20,r20,r3
  127ce0:	00840204 	movi	r2,4104
  127ce4:	a5000204 	addi	r20,r20,8
  127ce8:	10c7c83a 	sub	r3,r2,r3
  127cec:	a545883a 	add	r2,r20,r21
  127cf0:	1083ffcc 	andi	r2,r2,4095
  127cf4:	18abc83a 	sub	r21,r3,r2
  127cf8:	a80b883a 	mov	r5,r21
  127cfc:	9009883a 	mov	r4,r18
  127d00:	01296240 	call	129624 <_sbrk_r>
  127d04:	00ffffc4 	movi	r3,-1
  127d08:	10c0e126 	beq	r2,r3,128090 <_malloc_r+0x788>
  127d0c:	1505c83a 	sub	r2,r2,r20
  127d10:	1545883a 	add	r2,r2,r21
  127d14:	10800054 	ori	r2,r2,1
  127d18:	e0c00017 	ldw	r3,0(fp)
  127d1c:	9d000215 	stw	r20,8(r19)
  127d20:	a0800115 	stw	r2,4(r20)
  127d24:	a8c7883a 	add	r3,r21,r3
  127d28:	e0c00015 	stw	r3,0(fp)
  127d2c:	84c00e26 	beq	r16,r19,127d68 <_malloc_r+0x460>
  127d30:	018003c4 	movi	r6,15
  127d34:	3580a72e 	bgeu	r6,r22,127fd4 <_malloc_r+0x6cc>
  127d38:	81400117 	ldw	r5,4(r16)
  127d3c:	013ffe04 	movi	r4,-8
  127d40:	b0bffd04 	addi	r2,r22,-12
  127d44:	1104703a 	and	r2,r2,r4
  127d48:	2900004c 	andi	r4,r5,1
  127d4c:	2088b03a 	or	r4,r4,r2
  127d50:	81000115 	stw	r4,4(r16)
  127d54:	01400144 	movi	r5,5
  127d58:	8089883a 	add	r4,r16,r2
  127d5c:	21400115 	stw	r5,4(r4)
  127d60:	21400215 	stw	r5,8(r4)
  127d64:	3080cd36 	bltu	r6,r2,12809c <_malloc_r+0x794>
  127d68:	00800534 	movhi	r2,20
  127d6c:	10b51304 	addi	r2,r2,-11188
  127d70:	11000017 	ldw	r4,0(r2)
  127d74:	20c0012e 	bgeu	r4,r3,127d7c <_malloc_r+0x474>
  127d78:	10c00015 	stw	r3,0(r2)
  127d7c:	00800534 	movhi	r2,20
  127d80:	10b51204 	addi	r2,r2,-11192
  127d84:	11000017 	ldw	r4,0(r2)
  127d88:	9c000217 	ldw	r16,8(r19)
  127d8c:	20c0012e 	bgeu	r4,r3,127d94 <_malloc_r+0x48c>
  127d90:	10c00015 	stw	r3,0(r2)
  127d94:	80c00117 	ldw	r3,4(r16)
  127d98:	00bfff04 	movi	r2,-4
  127d9c:	1886703a 	and	r3,r3,r2
  127da0:	1c45c83a 	sub	r2,r3,r17
  127da4:	1c400236 	bltu	r3,r17,127db0 <_malloc_r+0x4a8>
  127da8:	00c003c4 	movi	r3,15
  127dac:	18800416 	blt	r3,r2,127dc0 <_malloc_r+0x4b8>
  127db0:	9009883a 	mov	r4,r18
  127db4:	01347ec0 	call	1347ec <__malloc_unlock>
  127db8:	0005883a 	mov	r2,zero
  127dbc:	003f7b06 	br	127bac <_gp+0xfffe44d4>
  127dc0:	88c00054 	ori	r3,r17,1
  127dc4:	80c00115 	stw	r3,4(r16)
  127dc8:	8463883a 	add	r17,r16,r17
  127dcc:	10800054 	ori	r2,r2,1
  127dd0:	9c400215 	stw	r17,8(r19)
  127dd4:	88800115 	stw	r2,4(r17)
  127dd8:	9009883a 	mov	r4,r18
  127ddc:	01347ec0 	call	1347ec <__malloc_unlock>
  127de0:	80800204 	addi	r2,r16,8
  127de4:	003f7106 	br	127bac <_gp+0xfffe44d4>
  127de8:	00c00504 	movi	r3,20
  127dec:	18804a2e 	bgeu	r3,r2,127f18 <_malloc_r+0x610>
  127df0:	00c01504 	movi	r3,84
  127df4:	18806e36 	bltu	r3,r2,127fb0 <_malloc_r+0x6a8>
  127df8:	8804d33a 	srli	r2,r17,12
  127dfc:	12001bc4 	addi	r8,r2,111
  127e00:	11c01b84 	addi	r7,r2,110
  127e04:	4209883a 	add	r4,r8,r8
  127e08:	003edd06 	br	127980 <_gp+0xfffe42a8>
  127e0c:	3804d27a 	srli	r2,r7,9
  127e10:	00c00104 	movi	r3,4
  127e14:	1880442e 	bgeu	r3,r2,127f28 <_malloc_r+0x620>
  127e18:	00c00504 	movi	r3,20
  127e1c:	18808136 	bltu	r3,r2,128024 <_malloc_r+0x71c>
  127e20:	11401704 	addi	r5,r2,92
  127e24:	10c016c4 	addi	r3,r2,91
  127e28:	294b883a 	add	r5,r5,r5
  127e2c:	294b883a 	add	r5,r5,r5
  127e30:	294b883a 	add	r5,r5,r5
  127e34:	994b883a 	add	r5,r19,r5
  127e38:	28800017 	ldw	r2,0(r5)
  127e3c:	01800534 	movhi	r6,20
  127e40:	297ffe04 	addi	r5,r5,-8
  127e44:	31a7b604 	addi	r6,r6,-24872
  127e48:	28806526 	beq	r5,r2,127fe0 <_malloc_r+0x6d8>
  127e4c:	01bfff04 	movi	r6,-4
  127e50:	10c00117 	ldw	r3,4(r2)
  127e54:	1986703a 	and	r3,r3,r6
  127e58:	38c0022e 	bgeu	r7,r3,127e64 <_malloc_r+0x55c>
  127e5c:	10800217 	ldw	r2,8(r2)
  127e60:	28bffb1e 	bne	r5,r2,127e50 <_gp+0xfffe4778>
  127e64:	11400317 	ldw	r5,12(r2)
  127e68:	98c00117 	ldw	r3,4(r19)
  127e6c:	81400315 	stw	r5,12(r16)
  127e70:	80800215 	stw	r2,8(r16)
  127e74:	2c000215 	stw	r16,8(r5)
  127e78:	14000315 	stw	r16,12(r2)
  127e7c:	003ef806 	br	127a60 <_gp+0xfffe4388>
  127e80:	88c00054 	ori	r3,r17,1
  127e84:	80c00115 	stw	r3,4(r16)
  127e88:	8463883a 	add	r17,r16,r17
  127e8c:	34400515 	stw	r17,20(r6)
  127e90:	34400415 	stw	r17,16(r6)
  127e94:	10c00054 	ori	r3,r2,1
  127e98:	8a000315 	stw	r8,12(r17)
  127e9c:	8a000215 	stw	r8,8(r17)
  127ea0:	88c00115 	stw	r3,4(r17)
  127ea4:	88a3883a 	add	r17,r17,r2
  127ea8:	88800015 	stw	r2,0(r17)
  127eac:	9009883a 	mov	r4,r18
  127eb0:	01347ec0 	call	1347ec <__malloc_unlock>
  127eb4:	80800204 	addi	r2,r16,8
  127eb8:	003f3c06 	br	127bac <_gp+0xfffe44d4>
  127ebc:	30c00117 	ldw	r3,4(r6)
  127ec0:	003ee706 	br	127a60 <_gp+0xfffe4388>
  127ec4:	5ac00044 	addi	r11,r11,1
  127ec8:	588000cc 	andi	r2,r11,3
  127ecc:	31800204 	addi	r6,r6,8
  127ed0:	103efd1e 	bne	r2,zero,127ac8 <_gp+0xfffe43f0>
  127ed4:	00002406 	br	127f68 <_malloc_r+0x660>
  127ed8:	14000317 	ldw	r16,12(r2)
  127edc:	143f251e 	bne	r2,r16,127b74 <_gp+0xfffe449c>
  127ee0:	21000084 	addi	r4,r4,2
  127ee4:	003ebc06 	br	1279d8 <_gp+0xfffe4300>
  127ee8:	8085883a 	add	r2,r16,r2
  127eec:	10c00117 	ldw	r3,4(r2)
  127ef0:	81000317 	ldw	r4,12(r16)
  127ef4:	81400217 	ldw	r5,8(r16)
  127ef8:	18c00054 	ori	r3,r3,1
  127efc:	10c00115 	stw	r3,4(r2)
  127f00:	29000315 	stw	r4,12(r5)
  127f04:	21400215 	stw	r5,8(r4)
  127f08:	9009883a 	mov	r4,r18
  127f0c:	01347ec0 	call	1347ec <__malloc_unlock>
  127f10:	80800204 	addi	r2,r16,8
  127f14:	003f2506 	br	127bac <_gp+0xfffe44d4>
  127f18:	12001704 	addi	r8,r2,92
  127f1c:	11c016c4 	addi	r7,r2,91
  127f20:	4209883a 	add	r4,r8,r8
  127f24:	003e9606 	br	127980 <_gp+0xfffe42a8>
  127f28:	3804d1ba 	srli	r2,r7,6
  127f2c:	11400e44 	addi	r5,r2,57
  127f30:	10c00e04 	addi	r3,r2,56
  127f34:	294b883a 	add	r5,r5,r5
  127f38:	003fbc06 	br	127e2c <_gp+0xfffe4754>
  127f3c:	84ff5926 	beq	r16,r19,127ca4 <_gp+0xfffe45cc>
  127f40:	00800534 	movhi	r2,20
  127f44:	10a7b604 	addi	r2,r2,-24872
  127f48:	14000217 	ldw	r16,8(r2)
  127f4c:	00bfff04 	movi	r2,-4
  127f50:	80c00117 	ldw	r3,4(r16)
  127f54:	1886703a 	and	r3,r3,r2
  127f58:	003f9106 	br	127da0 <_gp+0xfffe46c8>
  127f5c:	60800217 	ldw	r2,8(r12)
  127f60:	213fffc4 	addi	r4,r4,-1
  127f64:	1300651e 	bne	r2,r12,1280fc <_malloc_r+0x7f4>
  127f68:	208000cc 	andi	r2,r4,3
  127f6c:	633ffe04 	addi	r12,r12,-8
  127f70:	103ffa1e 	bne	r2,zero,127f5c <_gp+0xfffe4884>
  127f74:	98800117 	ldw	r2,4(r19)
  127f78:	0146303a 	nor	r3,zero,r5
  127f7c:	1884703a 	and	r2,r3,r2
  127f80:	98800115 	stw	r2,4(r19)
  127f84:	294b883a 	add	r5,r5,r5
  127f88:	117f2836 	bltu	r2,r5,127c2c <_gp+0xfffe4554>
  127f8c:	283f2726 	beq	r5,zero,127c2c <_gp+0xfffe4554>
  127f90:	2886703a 	and	r3,r5,r2
  127f94:	5809883a 	mov	r4,r11
  127f98:	183ec31e 	bne	r3,zero,127aa8 <_gp+0xfffe43d0>
  127f9c:	294b883a 	add	r5,r5,r5
  127fa0:	2886703a 	and	r3,r5,r2
  127fa4:	21000104 	addi	r4,r4,4
  127fa8:	183ffc26 	beq	r3,zero,127f9c <_gp+0xfffe48c4>
  127fac:	003ebe06 	br	127aa8 <_gp+0xfffe43d0>
  127fb0:	00c05504 	movi	r3,340
  127fb4:	18801236 	bltu	r3,r2,128000 <_malloc_r+0x6f8>
  127fb8:	8804d3fa 	srli	r2,r17,15
  127fbc:	12001e04 	addi	r8,r2,120
  127fc0:	11c01dc4 	addi	r7,r2,119
  127fc4:	4209883a 	add	r4,r8,r8
  127fc8:	003e6d06 	br	127980 <_gp+0xfffe42a8>
  127fcc:	00c40004 	movi	r3,4096
  127fd0:	003f4606 	br	127cec <_gp+0xfffe4614>
  127fd4:	00800044 	movi	r2,1
  127fd8:	a0800115 	stw	r2,4(r20)
  127fdc:	003f7406 	br	127db0 <_gp+0xfffe46d8>
  127fe0:	1805d0ba 	srai	r2,r3,2
  127fe4:	01c00044 	movi	r7,1
  127fe8:	30c00117 	ldw	r3,4(r6)
  127fec:	388e983a 	sll	r7,r7,r2
  127ff0:	2805883a 	mov	r2,r5
  127ff4:	38c6b03a 	or	r3,r7,r3
  127ff8:	30c00115 	stw	r3,4(r6)
  127ffc:	003f9b06 	br	127e6c <_gp+0xfffe4794>
  128000:	00c15504 	movi	r3,1364
  128004:	18801a36 	bltu	r3,r2,128070 <_malloc_r+0x768>
  128008:	8804d4ba 	srli	r2,r17,18
  12800c:	12001f44 	addi	r8,r2,125
  128010:	11c01f04 	addi	r7,r2,124
  128014:	4209883a 	add	r4,r8,r8
  128018:	003e5906 	br	127980 <_gp+0xfffe42a8>
  12801c:	ad400404 	addi	r21,r21,16
  128020:	003f1706 	br	127c80 <_gp+0xfffe45a8>
  128024:	00c01504 	movi	r3,84
  128028:	18802336 	bltu	r3,r2,1280b8 <_malloc_r+0x7b0>
  12802c:	3804d33a 	srli	r2,r7,12
  128030:	11401bc4 	addi	r5,r2,111
  128034:	10c01b84 	addi	r3,r2,110
  128038:	294b883a 	add	r5,r5,r5
  12803c:	003f7b06 	br	127e2c <_gp+0xfffe4754>
  128040:	9c000217 	ldw	r16,8(r19)
  128044:	00bfff04 	movi	r2,-4
  128048:	80c00117 	ldw	r3,4(r16)
  12804c:	1886703a 	and	r3,r3,r2
  128050:	003f5306 	br	127da0 <_gp+0xfffe46c8>
  128054:	3083ffcc 	andi	r2,r6,4095
  128058:	103f181e 	bne	r2,zero,127cbc <_gp+0xfffe45e4>
  12805c:	99000217 	ldw	r4,8(r19)
  128060:	b545883a 	add	r2,r22,r21
  128064:	10800054 	ori	r2,r2,1
  128068:	20800115 	stw	r2,4(r4)
  12806c:	003f3e06 	br	127d68 <_gp+0xfffe4690>
  128070:	01003f84 	movi	r4,254
  128074:	02001fc4 	movi	r8,127
  128078:	01c01f84 	movi	r7,126
  12807c:	003e4006 	br	127980 <_gp+0xfffe42a8>
  128080:	00800534 	movhi	r2,20
  128084:	10adbc04 	addi	r2,r2,-18704
  128088:	15000015 	stw	r20,0(r2)
  12808c:	003f1106 	br	127cd4 <_gp+0xfffe45fc>
  128090:	00800044 	movi	r2,1
  128094:	002b883a 	mov	r21,zero
  128098:	003f1f06 	br	127d18 <_gp+0xfffe4640>
  12809c:	81400204 	addi	r5,r16,8
  1280a0:	9009883a 	mov	r4,r18
  1280a4:	012f0280 	call	12f028 <_free_r>
  1280a8:	00800534 	movhi	r2,20
  1280ac:	10b51c04 	addi	r2,r2,-11152
  1280b0:	10c00017 	ldw	r3,0(r2)
  1280b4:	003f2c06 	br	127d68 <_gp+0xfffe4690>
  1280b8:	00c05504 	movi	r3,340
  1280bc:	18800536 	bltu	r3,r2,1280d4 <_malloc_r+0x7cc>
  1280c0:	3804d3fa 	srli	r2,r7,15
  1280c4:	11401e04 	addi	r5,r2,120
  1280c8:	10c01dc4 	addi	r3,r2,119
  1280cc:	294b883a 	add	r5,r5,r5
  1280d0:	003f5606 	br	127e2c <_gp+0xfffe4754>
  1280d4:	00c15504 	movi	r3,1364
  1280d8:	18800536 	bltu	r3,r2,1280f0 <_malloc_r+0x7e8>
  1280dc:	3804d4ba 	srli	r2,r7,18
  1280e0:	11401f44 	addi	r5,r2,125
  1280e4:	10c01f04 	addi	r3,r2,124
  1280e8:	294b883a 	add	r5,r5,r5
  1280ec:	003f4f06 	br	127e2c <_gp+0xfffe4754>
  1280f0:	01403f84 	movi	r5,254
  1280f4:	00c01f84 	movi	r3,126
  1280f8:	003f4c06 	br	127e2c <_gp+0xfffe4754>
  1280fc:	98800117 	ldw	r2,4(r19)
  128100:	003fa006 	br	127f84 <_gp+0xfffe48ac>
  128104:	8808d0fa 	srli	r4,r17,3
  128108:	20800044 	addi	r2,r4,1
  12810c:	1085883a 	add	r2,r2,r2
  128110:	003e9006 	br	127b54 <_gp+0xfffe447c>

00128114 <_mbrtowc_r>:
  128114:	defff704 	addi	sp,sp,-36
  128118:	00800534 	movhi	r2,20
  12811c:	dc800715 	stw	r18,28(sp)
  128120:	dc400615 	stw	r17,24(sp)
  128124:	dc000515 	stw	r16,20(sp)
  128128:	10adbe04 	addi	r2,r2,-18696
  12812c:	dfc00815 	stw	ra,32(sp)
  128130:	2021883a 	mov	r16,r4
  128134:	dc400917 	ldw	r17,36(sp)
  128138:	14800017 	ldw	r18,0(r2)
  12813c:	30001626 	beq	r6,zero,128198 <_mbrtowc_r+0x84>
  128140:	d9400215 	stw	r5,8(sp)
  128144:	d9800315 	stw	r6,12(sp)
  128148:	d9c00415 	stw	r7,16(sp)
  12814c:	01278480 	call	127848 <__locale_charset>
  128150:	d9c00417 	ldw	r7,16(sp)
  128154:	d9800317 	ldw	r6,12(sp)
  128158:	d9400217 	ldw	r5,8(sp)
  12815c:	d8800015 	stw	r2,0(sp)
  128160:	dc400115 	stw	r17,4(sp)
  128164:	8009883a 	mov	r4,r16
  128168:	903ee83a 	callr	r18
  12816c:	00ffffc4 	movi	r3,-1
  128170:	10c0031e 	bne	r2,r3,128180 <_mbrtowc_r+0x6c>
  128174:	88000015 	stw	zero,0(r17)
  128178:	00c02284 	movi	r3,138
  12817c:	80c00015 	stw	r3,0(r16)
  128180:	dfc00817 	ldw	ra,32(sp)
  128184:	dc800717 	ldw	r18,28(sp)
  128188:	dc400617 	ldw	r17,24(sp)
  12818c:	dc000517 	ldw	r16,20(sp)
  128190:	dec00904 	addi	sp,sp,36
  128194:	f800283a 	ret
  128198:	01278480 	call	127848 <__locale_charset>
  12819c:	01800534 	movhi	r6,20
  1281a0:	31a4bf04 	addi	r6,r6,-27908
  1281a4:	dc400115 	stw	r17,4(sp)
  1281a8:	d8800015 	stw	r2,0(sp)
  1281ac:	01c00044 	movi	r7,1
  1281b0:	000b883a 	mov	r5,zero
  1281b4:	8009883a 	mov	r4,r16
  1281b8:	903ee83a 	callr	r18
  1281bc:	003feb06 	br	12816c <_gp+0xfffe4a94>

001281c0 <mbrtowc>:
  1281c0:	defff704 	addi	sp,sp,-36
  1281c4:	00800534 	movhi	r2,20
  1281c8:	dc800415 	stw	r18,16(sp)
  1281cc:	dc400315 	stw	r17,12(sp)
  1281d0:	10adba04 	addi	r2,r2,-18712
  1281d4:	dfc00815 	stw	ra,32(sp)
  1281d8:	dd400715 	stw	r21,28(sp)
  1281dc:	dd000615 	stw	r20,24(sp)
  1281e0:	dcc00515 	stw	r19,20(sp)
  1281e4:	dc000215 	stw	r16,8(sp)
  1281e8:	3825883a 	mov	r18,r7
  1281ec:	14400017 	ldw	r17,0(r2)
  1281f0:	28001c26 	beq	r5,zero,128264 <mbrtowc+0xa4>
  1281f4:	00800534 	movhi	r2,20
  1281f8:	10adbe04 	addi	r2,r2,-18696
  1281fc:	15400017 	ldw	r21,0(r2)
  128200:	2821883a 	mov	r16,r5
  128204:	2027883a 	mov	r19,r4
  128208:	3029883a 	mov	r20,r6
  12820c:	01278480 	call	127848 <__locale_charset>
  128210:	d8800015 	stw	r2,0(sp)
  128214:	dc800115 	stw	r18,4(sp)
  128218:	a00f883a 	mov	r7,r20
  12821c:	800d883a 	mov	r6,r16
  128220:	980b883a 	mov	r5,r19
  128224:	8809883a 	mov	r4,r17
  128228:	a83ee83a 	callr	r21
  12822c:	00ffffc4 	movi	r3,-1
  128230:	10c0031e 	bne	r2,r3,128240 <mbrtowc+0x80>
  128234:	90000015 	stw	zero,0(r18)
  128238:	00c02284 	movi	r3,138
  12823c:	88c00015 	stw	r3,0(r17)
  128240:	dfc00817 	ldw	ra,32(sp)
  128244:	dd400717 	ldw	r21,28(sp)
  128248:	dd000617 	ldw	r20,24(sp)
  12824c:	dcc00517 	ldw	r19,20(sp)
  128250:	dc800417 	ldw	r18,16(sp)
  128254:	dc400317 	ldw	r17,12(sp)
  128258:	dc000217 	ldw	r16,8(sp)
  12825c:	dec00904 	addi	sp,sp,36
  128260:	f800283a 	ret
  128264:	00800534 	movhi	r2,20
  128268:	10adbe04 	addi	r2,r2,-18696
  12826c:	14000017 	ldw	r16,0(r2)
  128270:	01278480 	call	127848 <__locale_charset>
  128274:	01800534 	movhi	r6,20
  128278:	31a4bf04 	addi	r6,r6,-27908
  12827c:	dc800115 	stw	r18,4(sp)
  128280:	d8800015 	stw	r2,0(sp)
  128284:	01c00044 	movi	r7,1
  128288:	000b883a 	mov	r5,zero
  12828c:	8809883a 	mov	r4,r17
  128290:	803ee83a 	callr	r16
  128294:	003fe506 	br	12822c <_gp+0xfffe4b54>

00128298 <__ascii_mbtowc>:
  128298:	deffff04 	addi	sp,sp,-4
  12829c:	28000826 	beq	r5,zero,1282c0 <__ascii_mbtowc+0x28>
  1282a0:	30000926 	beq	r6,zero,1282c8 <__ascii_mbtowc+0x30>
  1282a4:	38000b26 	beq	r7,zero,1282d4 <__ascii_mbtowc+0x3c>
  1282a8:	30800003 	ldbu	r2,0(r6)
  1282ac:	28800015 	stw	r2,0(r5)
  1282b0:	30800003 	ldbu	r2,0(r6)
  1282b4:	1004c03a 	cmpne	r2,r2,zero
  1282b8:	dec00104 	addi	sp,sp,4
  1282bc:	f800283a 	ret
  1282c0:	d80b883a 	mov	r5,sp
  1282c4:	303ff71e 	bne	r6,zero,1282a4 <_gp+0xfffe4bcc>
  1282c8:	0005883a 	mov	r2,zero
  1282cc:	dec00104 	addi	sp,sp,4
  1282d0:	f800283a 	ret
  1282d4:	00bfff84 	movi	r2,-2
  1282d8:	003ff706 	br	1282b8 <_gp+0xfffe4be0>

001282dc <_mbtowc_r>:
  1282dc:	00800534 	movhi	r2,20
  1282e0:	defff804 	addi	sp,sp,-32
  1282e4:	10adbe04 	addi	r2,r2,-18696
  1282e8:	dfc00715 	stw	ra,28(sp)
  1282ec:	dc000615 	stw	r16,24(sp)
  1282f0:	14000017 	ldw	r16,0(r2)
  1282f4:	d9000215 	stw	r4,8(sp)
  1282f8:	d9400315 	stw	r5,12(sp)
  1282fc:	d9800415 	stw	r6,16(sp)
  128300:	d9c00515 	stw	r7,20(sp)
  128304:	01278480 	call	127848 <__locale_charset>
  128308:	d8800015 	stw	r2,0(sp)
  12830c:	d8800817 	ldw	r2,32(sp)
  128310:	d9c00517 	ldw	r7,20(sp)
  128314:	d9800417 	ldw	r6,16(sp)
  128318:	d9400317 	ldw	r5,12(sp)
  12831c:	d9000217 	ldw	r4,8(sp)
  128320:	d8800115 	stw	r2,4(sp)
  128324:	803ee83a 	callr	r16
  128328:	dfc00717 	ldw	ra,28(sp)
  12832c:	dc000617 	ldw	r16,24(sp)
  128330:	dec00804 	addi	sp,sp,32
  128334:	f800283a 	ret

00128338 <memchr>:
  128338:	208000cc 	andi	r2,r4,3
  12833c:	280f883a 	mov	r7,r5
  128340:	10003426 	beq	r2,zero,128414 <memchr+0xdc>
  128344:	30bfffc4 	addi	r2,r6,-1
  128348:	30001a26 	beq	r6,zero,1283b4 <memchr+0x7c>
  12834c:	20c00003 	ldbu	r3,0(r4)
  128350:	29803fcc 	andi	r6,r5,255
  128354:	30c0051e 	bne	r6,r3,12836c <memchr+0x34>
  128358:	00001806 	br	1283bc <memchr+0x84>
  12835c:	10001526 	beq	r2,zero,1283b4 <memchr+0x7c>
  128360:	20c00003 	ldbu	r3,0(r4)
  128364:	10bfffc4 	addi	r2,r2,-1
  128368:	30c01426 	beq	r6,r3,1283bc <memchr+0x84>
  12836c:	21000044 	addi	r4,r4,1
  128370:	20c000cc 	andi	r3,r4,3
  128374:	183ff91e 	bne	r3,zero,12835c <_gp+0xfffe4c84>
  128378:	020000c4 	movi	r8,3
  12837c:	40801136 	bltu	r8,r2,1283c4 <memchr+0x8c>
  128380:	10000c26 	beq	r2,zero,1283b4 <memchr+0x7c>
  128384:	20c00003 	ldbu	r3,0(r4)
  128388:	29403fcc 	andi	r5,r5,255
  12838c:	28c00b26 	beq	r5,r3,1283bc <memchr+0x84>
  128390:	20c00044 	addi	r3,r4,1
  128394:	39803fcc 	andi	r6,r7,255
  128398:	2089883a 	add	r4,r4,r2
  12839c:	00000306 	br	1283ac <memchr+0x74>
  1283a0:	18c00044 	addi	r3,r3,1
  1283a4:	197fffc3 	ldbu	r5,-1(r3)
  1283a8:	31400526 	beq	r6,r5,1283c0 <memchr+0x88>
  1283ac:	1805883a 	mov	r2,r3
  1283b0:	20fffb1e 	bne	r4,r3,1283a0 <_gp+0xfffe4cc8>
  1283b4:	0005883a 	mov	r2,zero
  1283b8:	f800283a 	ret
  1283bc:	2005883a 	mov	r2,r4
  1283c0:	f800283a 	ret
  1283c4:	28c03fcc 	andi	r3,r5,255
  1283c8:	1812923a 	slli	r9,r3,8
  1283cc:	02ffbff4 	movhi	r11,65279
  1283d0:	02a02074 	movhi	r10,32897
  1283d4:	48d2b03a 	or	r9,r9,r3
  1283d8:	4806943a 	slli	r3,r9,16
  1283dc:	5affbfc4 	addi	r11,r11,-257
  1283e0:	52a02004 	addi	r10,r10,-32640
  1283e4:	48d2b03a 	or	r9,r9,r3
  1283e8:	20c00017 	ldw	r3,0(r4)
  1283ec:	48c6f03a 	xor	r3,r9,r3
  1283f0:	1acd883a 	add	r6,r3,r11
  1283f4:	00c6303a 	nor	r3,zero,r3
  1283f8:	30c6703a 	and	r3,r6,r3
  1283fc:	1a86703a 	and	r3,r3,r10
  128400:	183fe01e 	bne	r3,zero,128384 <_gp+0xfffe4cac>
  128404:	10bfff04 	addi	r2,r2,-4
  128408:	21000104 	addi	r4,r4,4
  12840c:	40bff636 	bltu	r8,r2,1283e8 <_gp+0xfffe4d10>
  128410:	003fdb06 	br	128380 <_gp+0xfffe4ca8>
  128414:	3005883a 	mov	r2,r6
  128418:	003fd706 	br	128378 <_gp+0xfffe4ca0>

0012841c <memcmp>:
  12841c:	01c000c4 	movi	r7,3
  128420:	3980192e 	bgeu	r7,r6,128488 <memcmp+0x6c>
  128424:	2144b03a 	or	r2,r4,r5
  128428:	11c4703a 	and	r2,r2,r7
  12842c:	10000f26 	beq	r2,zero,12846c <memcmp+0x50>
  128430:	20800003 	ldbu	r2,0(r4)
  128434:	28c00003 	ldbu	r3,0(r5)
  128438:	10c0151e 	bne	r2,r3,128490 <memcmp+0x74>
  12843c:	31bfff84 	addi	r6,r6,-2
  128440:	01ffffc4 	movi	r7,-1
  128444:	00000406 	br	128458 <memcmp+0x3c>
  128448:	20800003 	ldbu	r2,0(r4)
  12844c:	28c00003 	ldbu	r3,0(r5)
  128450:	31bfffc4 	addi	r6,r6,-1
  128454:	10c00e1e 	bne	r2,r3,128490 <memcmp+0x74>
  128458:	21000044 	addi	r4,r4,1
  12845c:	29400044 	addi	r5,r5,1
  128460:	31fff91e 	bne	r6,r7,128448 <_gp+0xfffe4d70>
  128464:	0005883a 	mov	r2,zero
  128468:	f800283a 	ret
  12846c:	20c00017 	ldw	r3,0(r4)
  128470:	28800017 	ldw	r2,0(r5)
  128474:	18bfee1e 	bne	r3,r2,128430 <_gp+0xfffe4d58>
  128478:	31bfff04 	addi	r6,r6,-4
  12847c:	21000104 	addi	r4,r4,4
  128480:	29400104 	addi	r5,r5,4
  128484:	39bff936 	bltu	r7,r6,12846c <_gp+0xfffe4d94>
  128488:	303fe91e 	bne	r6,zero,128430 <_gp+0xfffe4d58>
  12848c:	003ff506 	br	128464 <_gp+0xfffe4d8c>
  128490:	10c5c83a 	sub	r2,r2,r3
  128494:	f800283a 	ret

00128498 <_Balloc>:
  128498:	20801317 	ldw	r2,76(r4)
  12849c:	defffc04 	addi	sp,sp,-16
  1284a0:	dc400115 	stw	r17,4(sp)
  1284a4:	dc000015 	stw	r16,0(sp)
  1284a8:	dfc00315 	stw	ra,12(sp)
  1284ac:	dc800215 	stw	r18,8(sp)
  1284b0:	2023883a 	mov	r17,r4
  1284b4:	2821883a 	mov	r16,r5
  1284b8:	10000f26 	beq	r2,zero,1284f8 <_Balloc+0x60>
  1284bc:	8407883a 	add	r3,r16,r16
  1284c0:	18c7883a 	add	r3,r3,r3
  1284c4:	10c7883a 	add	r3,r2,r3
  1284c8:	18800017 	ldw	r2,0(r3)
  1284cc:	10001126 	beq	r2,zero,128514 <_Balloc+0x7c>
  1284d0:	11000017 	ldw	r4,0(r2)
  1284d4:	19000015 	stw	r4,0(r3)
  1284d8:	10000415 	stw	zero,16(r2)
  1284dc:	10000315 	stw	zero,12(r2)
  1284e0:	dfc00317 	ldw	ra,12(sp)
  1284e4:	dc800217 	ldw	r18,8(sp)
  1284e8:	dc400117 	ldw	r17,4(sp)
  1284ec:	dc000017 	ldw	r16,0(sp)
  1284f0:	dec00404 	addi	sp,sp,16
  1284f4:	f800283a 	ret
  1284f8:	01800844 	movi	r6,33
  1284fc:	01400104 	movi	r5,4
  128500:	012e7d00 	call	12e7d0 <_calloc_r>
  128504:	88801315 	stw	r2,76(r17)
  128508:	103fec1e 	bne	r2,zero,1284bc <_gp+0xfffe4de4>
  12850c:	0005883a 	mov	r2,zero
  128510:	003ff306 	br	1284e0 <_gp+0xfffe4e08>
  128514:	01400044 	movi	r5,1
  128518:	2c24983a 	sll	r18,r5,r16
  12851c:	8809883a 	mov	r4,r17
  128520:	91800144 	addi	r6,r18,5
  128524:	318d883a 	add	r6,r6,r6
  128528:	318d883a 	add	r6,r6,r6
  12852c:	012e7d00 	call	12e7d0 <_calloc_r>
  128530:	103ff626 	beq	r2,zero,12850c <_gp+0xfffe4e34>
  128534:	14000115 	stw	r16,4(r2)
  128538:	14800215 	stw	r18,8(r2)
  12853c:	003fe606 	br	1284d8 <_gp+0xfffe4e00>

00128540 <_Bfree>:
  128540:	28000826 	beq	r5,zero,128564 <_Bfree+0x24>
  128544:	28c00117 	ldw	r3,4(r5)
  128548:	20801317 	ldw	r2,76(r4)
  12854c:	18c7883a 	add	r3,r3,r3
  128550:	18c7883a 	add	r3,r3,r3
  128554:	10c5883a 	add	r2,r2,r3
  128558:	10c00017 	ldw	r3,0(r2)
  12855c:	28c00015 	stw	r3,0(r5)
  128560:	11400015 	stw	r5,0(r2)
  128564:	f800283a 	ret

00128568 <__multadd>:
  128568:	defff704 	addi	sp,sp,-36
  12856c:	dc800215 	stw	r18,8(sp)
  128570:	2c800417 	ldw	r18,16(r5)
  128574:	dd800615 	stw	r22,24(sp)
  128578:	dd400515 	stw	r21,20(sp)
  12857c:	dd000415 	stw	r20,16(sp)
  128580:	dcc00315 	stw	r19,12(sp)
  128584:	dc400115 	stw	r17,4(sp)
  128588:	dc000015 	stw	r16,0(sp)
  12858c:	dfc00815 	stw	ra,32(sp)
  128590:	ddc00715 	stw	r23,28(sp)
  128594:	2827883a 	mov	r19,r5
  128598:	2029883a 	mov	r20,r4
  12859c:	3023883a 	mov	r17,r6
  1285a0:	3821883a 	mov	r16,r7
  1285a4:	2d400504 	addi	r21,r5,20
  1285a8:	002d883a 	mov	r22,zero
  1285ac:	adc00017 	ldw	r23,0(r21)
  1285b0:	880b883a 	mov	r5,r17
  1285b4:	ad400104 	addi	r21,r21,4
  1285b8:	b93fffcc 	andi	r4,r23,65535
  1285bc:	01213680 	call	121368 <__mulsi3>
  1285c0:	b808d43a 	srli	r4,r23,16
  1285c4:	880b883a 	mov	r5,r17
  1285c8:	1421883a 	add	r16,r2,r16
  1285cc:	01213680 	call	121368 <__mulsi3>
  1285d0:	800ed43a 	srli	r7,r16,16
  1285d4:	80ffffcc 	andi	r3,r16,65535
  1285d8:	b5800044 	addi	r22,r22,1
  1285dc:	11c5883a 	add	r2,r2,r7
  1285e0:	100e943a 	slli	r7,r2,16
  1285e4:	1020d43a 	srli	r16,r2,16
  1285e8:	38c7883a 	add	r3,r7,r3
  1285ec:	a8ffff15 	stw	r3,-4(r21)
  1285f0:	b4bfee16 	blt	r22,r18,1285ac <_gp+0xfffe4ed4>
  1285f4:	80000926 	beq	r16,zero,12861c <__multadd+0xb4>
  1285f8:	98800217 	ldw	r2,8(r19)
  1285fc:	9080130e 	bge	r18,r2,12864c <__multadd+0xe4>
  128600:	90800144 	addi	r2,r18,5
  128604:	1085883a 	add	r2,r2,r2
  128608:	1085883a 	add	r2,r2,r2
  12860c:	9885883a 	add	r2,r19,r2
  128610:	14000015 	stw	r16,0(r2)
  128614:	94800044 	addi	r18,r18,1
  128618:	9c800415 	stw	r18,16(r19)
  12861c:	9805883a 	mov	r2,r19
  128620:	dfc00817 	ldw	ra,32(sp)
  128624:	ddc00717 	ldw	r23,28(sp)
  128628:	dd800617 	ldw	r22,24(sp)
  12862c:	dd400517 	ldw	r21,20(sp)
  128630:	dd000417 	ldw	r20,16(sp)
  128634:	dcc00317 	ldw	r19,12(sp)
  128638:	dc800217 	ldw	r18,8(sp)
  12863c:	dc400117 	ldw	r17,4(sp)
  128640:	dc000017 	ldw	r16,0(sp)
  128644:	dec00904 	addi	sp,sp,36
  128648:	f800283a 	ret
  12864c:	99400117 	ldw	r5,4(r19)
  128650:	a009883a 	mov	r4,r20
  128654:	29400044 	addi	r5,r5,1
  128658:	01284980 	call	128498 <_Balloc>
  12865c:	99800417 	ldw	r6,16(r19)
  128660:	99400304 	addi	r5,r19,12
  128664:	11000304 	addi	r4,r2,12
  128668:	31800084 	addi	r6,r6,2
  12866c:	318d883a 	add	r6,r6,r6
  128670:	318d883a 	add	r6,r6,r6
  128674:	1023883a 	mov	r17,r2
  128678:	01213900 	call	121390 <memcpy>
  12867c:	98000a26 	beq	r19,zero,1286a8 <__multadd+0x140>
  128680:	98c00117 	ldw	r3,4(r19)
  128684:	a0801317 	ldw	r2,76(r20)
  128688:	18c7883a 	add	r3,r3,r3
  12868c:	18c7883a 	add	r3,r3,r3
  128690:	10c5883a 	add	r2,r2,r3
  128694:	10c00017 	ldw	r3,0(r2)
  128698:	98c00015 	stw	r3,0(r19)
  12869c:	14c00015 	stw	r19,0(r2)
  1286a0:	8827883a 	mov	r19,r17
  1286a4:	003fd606 	br	128600 <_gp+0xfffe4f28>
  1286a8:	8827883a 	mov	r19,r17
  1286ac:	003fd406 	br	128600 <_gp+0xfffe4f28>

001286b0 <__s2b>:
  1286b0:	defff904 	addi	sp,sp,-28
  1286b4:	dc400115 	stw	r17,4(sp)
  1286b8:	dc000015 	stw	r16,0(sp)
  1286bc:	2023883a 	mov	r17,r4
  1286c0:	2821883a 	mov	r16,r5
  1286c4:	39000204 	addi	r4,r7,8
  1286c8:	01400244 	movi	r5,9
  1286cc:	dcc00315 	stw	r19,12(sp)
  1286d0:	dc800215 	stw	r18,8(sp)
  1286d4:	dfc00615 	stw	ra,24(sp)
  1286d8:	dd400515 	stw	r21,20(sp)
  1286dc:	dd000415 	stw	r20,16(sp)
  1286e0:	3825883a 	mov	r18,r7
  1286e4:	3027883a 	mov	r19,r6
  1286e8:	01211b40 	call	1211b4 <__divsi3>
  1286ec:	00c00044 	movi	r3,1
  1286f0:	000b883a 	mov	r5,zero
  1286f4:	1880030e 	bge	r3,r2,128704 <__s2b+0x54>
  1286f8:	18c7883a 	add	r3,r3,r3
  1286fc:	29400044 	addi	r5,r5,1
  128700:	18bffd16 	blt	r3,r2,1286f8 <_gp+0xfffe5020>
  128704:	8809883a 	mov	r4,r17
  128708:	01284980 	call	128498 <_Balloc>
  12870c:	d8c00717 	ldw	r3,28(sp)
  128710:	10c00515 	stw	r3,20(r2)
  128714:	00c00044 	movi	r3,1
  128718:	10c00415 	stw	r3,16(r2)
  12871c:	00c00244 	movi	r3,9
  128720:	1cc0210e 	bge	r3,r19,1287a8 <__s2b+0xf8>
  128724:	80eb883a 	add	r21,r16,r3
  128728:	a829883a 	mov	r20,r21
  12872c:	84e1883a 	add	r16,r16,r19
  128730:	a1c00007 	ldb	r7,0(r20)
  128734:	01800284 	movi	r6,10
  128738:	a5000044 	addi	r20,r20,1
  12873c:	100b883a 	mov	r5,r2
  128740:	39fff404 	addi	r7,r7,-48
  128744:	8809883a 	mov	r4,r17
  128748:	01285680 	call	128568 <__multadd>
  12874c:	a43ff81e 	bne	r20,r16,128730 <_gp+0xfffe5058>
  128750:	ace1883a 	add	r16,r21,r19
  128754:	843ffe04 	addi	r16,r16,-8
  128758:	9c800a0e 	bge	r19,r18,128784 <__s2b+0xd4>
  12875c:	94e5c83a 	sub	r18,r18,r19
  128760:	84a5883a 	add	r18,r16,r18
  128764:	81c00007 	ldb	r7,0(r16)
  128768:	01800284 	movi	r6,10
  12876c:	84000044 	addi	r16,r16,1
  128770:	100b883a 	mov	r5,r2
  128774:	39fff404 	addi	r7,r7,-48
  128778:	8809883a 	mov	r4,r17
  12877c:	01285680 	call	128568 <__multadd>
  128780:	84bff81e 	bne	r16,r18,128764 <_gp+0xfffe508c>
  128784:	dfc00617 	ldw	ra,24(sp)
  128788:	dd400517 	ldw	r21,20(sp)
  12878c:	dd000417 	ldw	r20,16(sp)
  128790:	dcc00317 	ldw	r19,12(sp)
  128794:	dc800217 	ldw	r18,8(sp)
  128798:	dc400117 	ldw	r17,4(sp)
  12879c:	dc000017 	ldw	r16,0(sp)
  1287a0:	dec00704 	addi	sp,sp,28
  1287a4:	f800283a 	ret
  1287a8:	84000284 	addi	r16,r16,10
  1287ac:	1827883a 	mov	r19,r3
  1287b0:	003fe906 	br	128758 <_gp+0xfffe5080>

001287b4 <__hi0bits>:
  1287b4:	20bfffec 	andhi	r2,r4,65535
  1287b8:	1000141e 	bne	r2,zero,12880c <__hi0bits+0x58>
  1287bc:	2008943a 	slli	r4,r4,16
  1287c0:	00800404 	movi	r2,16
  1287c4:	20ffc02c 	andhi	r3,r4,65280
  1287c8:	1800021e 	bne	r3,zero,1287d4 <__hi0bits+0x20>
  1287cc:	2008923a 	slli	r4,r4,8
  1287d0:	10800204 	addi	r2,r2,8
  1287d4:	20fc002c 	andhi	r3,r4,61440
  1287d8:	1800021e 	bne	r3,zero,1287e4 <__hi0bits+0x30>
  1287dc:	2008913a 	slli	r4,r4,4
  1287e0:	10800104 	addi	r2,r2,4
  1287e4:	20f0002c 	andhi	r3,r4,49152
  1287e8:	1800031e 	bne	r3,zero,1287f8 <__hi0bits+0x44>
  1287ec:	2109883a 	add	r4,r4,r4
  1287f0:	10800084 	addi	r2,r2,2
  1287f4:	2109883a 	add	r4,r4,r4
  1287f8:	20000316 	blt	r4,zero,128808 <__hi0bits+0x54>
  1287fc:	2110002c 	andhi	r4,r4,16384
  128800:	2000041e 	bne	r4,zero,128814 <__hi0bits+0x60>
  128804:	00800804 	movi	r2,32
  128808:	f800283a 	ret
  12880c:	0005883a 	mov	r2,zero
  128810:	003fec06 	br	1287c4 <_gp+0xfffe50ec>
  128814:	10800044 	addi	r2,r2,1
  128818:	f800283a 	ret

0012881c <__lo0bits>:
  12881c:	20c00017 	ldw	r3,0(r4)
  128820:	188001cc 	andi	r2,r3,7
  128824:	10000826 	beq	r2,zero,128848 <__lo0bits+0x2c>
  128828:	1880004c 	andi	r2,r3,1
  12882c:	1000211e 	bne	r2,zero,1288b4 <__lo0bits+0x98>
  128830:	1880008c 	andi	r2,r3,2
  128834:	1000211e 	bne	r2,zero,1288bc <__lo0bits+0xa0>
  128838:	1806d0ba 	srli	r3,r3,2
  12883c:	00800084 	movi	r2,2
  128840:	20c00015 	stw	r3,0(r4)
  128844:	f800283a 	ret
  128848:	18bfffcc 	andi	r2,r3,65535
  12884c:	10001326 	beq	r2,zero,12889c <__lo0bits+0x80>
  128850:	0005883a 	mov	r2,zero
  128854:	19403fcc 	andi	r5,r3,255
  128858:	2800021e 	bne	r5,zero,128864 <__lo0bits+0x48>
  12885c:	1806d23a 	srli	r3,r3,8
  128860:	10800204 	addi	r2,r2,8
  128864:	194003cc 	andi	r5,r3,15
  128868:	2800021e 	bne	r5,zero,128874 <__lo0bits+0x58>
  12886c:	1806d13a 	srli	r3,r3,4
  128870:	10800104 	addi	r2,r2,4
  128874:	194000cc 	andi	r5,r3,3
  128878:	2800021e 	bne	r5,zero,128884 <__lo0bits+0x68>
  12887c:	1806d0ba 	srli	r3,r3,2
  128880:	10800084 	addi	r2,r2,2
  128884:	1940004c 	andi	r5,r3,1
  128888:	2800081e 	bne	r5,zero,1288ac <__lo0bits+0x90>
  12888c:	1806d07a 	srli	r3,r3,1
  128890:	1800051e 	bne	r3,zero,1288a8 <__lo0bits+0x8c>
  128894:	00800804 	movi	r2,32
  128898:	f800283a 	ret
  12889c:	1806d43a 	srli	r3,r3,16
  1288a0:	00800404 	movi	r2,16
  1288a4:	003feb06 	br	128854 <_gp+0xfffe517c>
  1288a8:	10800044 	addi	r2,r2,1
  1288ac:	20c00015 	stw	r3,0(r4)
  1288b0:	f800283a 	ret
  1288b4:	0005883a 	mov	r2,zero
  1288b8:	f800283a 	ret
  1288bc:	1806d07a 	srli	r3,r3,1
  1288c0:	00800044 	movi	r2,1
  1288c4:	20c00015 	stw	r3,0(r4)
  1288c8:	f800283a 	ret

001288cc <__i2b>:
  1288cc:	defffd04 	addi	sp,sp,-12
  1288d0:	dc000015 	stw	r16,0(sp)
  1288d4:	04000044 	movi	r16,1
  1288d8:	dc400115 	stw	r17,4(sp)
  1288dc:	2823883a 	mov	r17,r5
  1288e0:	800b883a 	mov	r5,r16
  1288e4:	dfc00215 	stw	ra,8(sp)
  1288e8:	01284980 	call	128498 <_Balloc>
  1288ec:	14400515 	stw	r17,20(r2)
  1288f0:	14000415 	stw	r16,16(r2)
  1288f4:	dfc00217 	ldw	ra,8(sp)
  1288f8:	dc400117 	ldw	r17,4(sp)
  1288fc:	dc000017 	ldw	r16,0(sp)
  128900:	dec00304 	addi	sp,sp,12
  128904:	f800283a 	ret

00128908 <__multiply>:
  128908:	deffef04 	addi	sp,sp,-68
  12890c:	dc400815 	stw	r17,32(sp)
  128910:	dc000715 	stw	r16,28(sp)
  128914:	34400417 	ldw	r17,16(r6)
  128918:	2c000417 	ldw	r16,16(r5)
  12891c:	dd800d15 	stw	r22,52(sp)
  128920:	dc800915 	stw	r18,36(sp)
  128924:	dfc01015 	stw	ra,64(sp)
  128928:	df000f15 	stw	fp,60(sp)
  12892c:	ddc00e15 	stw	r23,56(sp)
  128930:	dd400c15 	stw	r21,48(sp)
  128934:	dd000b15 	stw	r20,44(sp)
  128938:	dcc00a15 	stw	r19,40(sp)
  12893c:	2825883a 	mov	r18,r5
  128940:	302d883a 	mov	r22,r6
  128944:	8440050e 	bge	r16,r17,12895c <__multiply+0x54>
  128948:	8007883a 	mov	r3,r16
  12894c:	3025883a 	mov	r18,r6
  128950:	8821883a 	mov	r16,r17
  128954:	282d883a 	mov	r22,r5
  128958:	1823883a 	mov	r17,r3
  12895c:	90800217 	ldw	r2,8(r18)
  128960:	8447883a 	add	r3,r16,r17
  128964:	d8c00215 	stw	r3,8(sp)
  128968:	91400117 	ldw	r5,4(r18)
  12896c:	10c0010e 	bge	r2,r3,128974 <__multiply+0x6c>
  128970:	29400044 	addi	r5,r5,1
  128974:	01284980 	call	128498 <_Balloc>
  128978:	d8c00217 	ldw	r3,8(sp)
  12897c:	d8800615 	stw	r2,24(sp)
  128980:	18eb883a 	add	r21,r3,r3
  128984:	ad6b883a 	add	r21,r21,r21
  128988:	10c00504 	addi	r3,r2,20
  12898c:	1d6b883a 	add	r21,r3,r21
  128990:	d8c00115 	stw	r3,4(sp)
  128994:	dd400315 	stw	r21,12(sp)
  128998:	1805883a 	mov	r2,r3
  12899c:	1d40042e 	bgeu	r3,r21,1289b0 <__multiply+0xa8>
  1289a0:	d8c00317 	ldw	r3,12(sp)
  1289a4:	10000015 	stw	zero,0(r2)
  1289a8:	10800104 	addi	r2,r2,4
  1289ac:	10fffc36 	bltu	r2,r3,1289a0 <_gp+0xfffe52c8>
  1289b0:	8c63883a 	add	r17,r17,r17
  1289b4:	b5800504 	addi	r22,r22,20
  1289b8:	8c63883a 	add	r17,r17,r17
  1289bc:	94800504 	addi	r18,r18,20
  1289c0:	8421883a 	add	r16,r16,r16
  1289c4:	b463883a 	add	r17,r22,r17
  1289c8:	8421883a 	add	r16,r16,r16
  1289cc:	dd800015 	stw	r22,0(sp)
  1289d0:	dc800415 	stw	r18,16(sp)
  1289d4:	dc400515 	stw	r17,20(sp)
  1289d8:	9429883a 	add	r20,r18,r16
  1289dc:	b4404f2e 	bgeu	r22,r17,128b1c <__multiply+0x214>
  1289e0:	d8c00017 	ldw	r3,0(sp)
  1289e4:	1c800017 	ldw	r18,0(r3)
  1289e8:	947fffcc 	andi	r17,r18,65535
  1289ec:	88001e26 	beq	r17,zero,128a68 <__multiply+0x160>
  1289f0:	dd800117 	ldw	r22,4(sp)
  1289f4:	dd400417 	ldw	r21,16(sp)
  1289f8:	0027883a 	mov	r19,zero
  1289fc:	ac800017 	ldw	r18,0(r21)
  128a00:	b4000017 	ldw	r16,0(r22)
  128a04:	880b883a 	mov	r5,r17
  128a08:	913fffcc 	andi	r4,r18,65535
  128a0c:	01213680 	call	121368 <__mulsi3>
  128a10:	9008d43a 	srli	r4,r18,16
  128a14:	84bfffcc 	andi	r18,r16,65535
  128a18:	1485883a 	add	r2,r2,r18
  128a1c:	14e5883a 	add	r18,r2,r19
  128a20:	8020d43a 	srli	r16,r16,16
  128a24:	9026d43a 	srli	r19,r18,16
  128a28:	880b883a 	mov	r5,r17
  128a2c:	01213680 	call	121368 <__mulsi3>
  128a30:	1405883a 	add	r2,r2,r16
  128a34:	14e1883a 	add	r16,r2,r19
  128a38:	90ffffcc 	andi	r3,r18,65535
  128a3c:	8024943a 	slli	r18,r16,16
  128a40:	ad400104 	addi	r21,r21,4
  128a44:	b005883a 	mov	r2,r22
  128a48:	90c6b03a 	or	r3,r18,r3
  128a4c:	b0c00015 	stw	r3,0(r22)
  128a50:	8026d43a 	srli	r19,r16,16
  128a54:	b5800104 	addi	r22,r22,4
  128a58:	ad3fe836 	bltu	r21,r20,1289fc <_gp+0xfffe5324>
  128a5c:	d8c00017 	ldw	r3,0(sp)
  128a60:	14c00115 	stw	r19,4(r2)
  128a64:	1c800017 	ldw	r18,0(r3)
  128a68:	9024d43a 	srli	r18,r18,16
  128a6c:	90002226 	beq	r18,zero,128af8 <__multiply+0x1f0>
  128a70:	d8c00117 	ldw	r3,4(sp)
  128a74:	dd800417 	ldw	r22,16(sp)
  128a78:	002f883a 	mov	r23,zero
  128a7c:	1f000017 	ldw	fp,0(r3)
  128a80:	1823883a 	mov	r17,r3
  128a84:	182b883a 	mov	r21,r3
  128a88:	e021883a 	mov	r16,fp
  128a8c:	00000106 	br	128a94 <__multiply+0x18c>
  128a90:	982b883a 	mov	r21,r19
  128a94:	b100000b 	ldhu	r4,0(r22)
  128a98:	8020d43a 	srli	r16,r16,16
  128a9c:	900b883a 	mov	r5,r18
  128aa0:	01213680 	call	121368 <__mulsi3>
  128aa4:	1405883a 	add	r2,r2,r16
  128aa8:	15ef883a 	add	r23,r2,r23
  128aac:	b804943a 	slli	r2,r23,16
  128ab0:	e0ffffcc 	andi	r3,fp,65535
  128ab4:	8c400104 	addi	r17,r17,4
  128ab8:	10c6b03a 	or	r3,r2,r3
  128abc:	88ffff15 	stw	r3,-4(r17)
  128ac0:	b5800104 	addi	r22,r22,4
  128ac4:	b13fff17 	ldw	r4,-4(r22)
  128ac8:	acc00104 	addi	r19,r21,4
  128acc:	900b883a 	mov	r5,r18
  128ad0:	2008d43a 	srli	r4,r4,16
  128ad4:	9c000017 	ldw	r16,0(r19)
  128ad8:	01213680 	call	121368 <__mulsi3>
  128adc:	b806d43a 	srli	r3,r23,16
  128ae0:	813fffcc 	andi	r4,r16,65535
  128ae4:	1105883a 	add	r2,r2,r4
  128ae8:	10f9883a 	add	fp,r2,r3
  128aec:	e02ed43a 	srli	r23,fp,16
  128af0:	b53fe736 	bltu	r22,r20,128a90 <_gp+0xfffe53b8>
  128af4:	af000115 	stw	fp,4(r21)
  128af8:	d8c00017 	ldw	r3,0(sp)
  128afc:	d9000517 	ldw	r4,20(sp)
  128b00:	18c00104 	addi	r3,r3,4
  128b04:	d8c00015 	stw	r3,0(sp)
  128b08:	d8c00117 	ldw	r3,4(sp)
  128b0c:	18c00104 	addi	r3,r3,4
  128b10:	d8c00115 	stw	r3,4(sp)
  128b14:	d8c00017 	ldw	r3,0(sp)
  128b18:	193fb136 	bltu	r3,r4,1289e0 <_gp+0xfffe5308>
  128b1c:	d8c00217 	ldw	r3,8(sp)
  128b20:	00c00c0e 	bge	zero,r3,128b54 <__multiply+0x24c>
  128b24:	d8c00317 	ldw	r3,12(sp)
  128b28:	18bfff17 	ldw	r2,-4(r3)
  128b2c:	1d7fff04 	addi	r21,r3,-4
  128b30:	10000326 	beq	r2,zero,128b40 <__multiply+0x238>
  128b34:	00000706 	br	128b54 <__multiply+0x24c>
  128b38:	a8800017 	ldw	r2,0(r21)
  128b3c:	1000051e 	bne	r2,zero,128b54 <__multiply+0x24c>
  128b40:	d8c00217 	ldw	r3,8(sp)
  128b44:	ad7fff04 	addi	r21,r21,-4
  128b48:	18ffffc4 	addi	r3,r3,-1
  128b4c:	d8c00215 	stw	r3,8(sp)
  128b50:	183ff91e 	bne	r3,zero,128b38 <_gp+0xfffe5460>
  128b54:	d8c00617 	ldw	r3,24(sp)
  128b58:	d9000217 	ldw	r4,8(sp)
  128b5c:	1805883a 	mov	r2,r3
  128b60:	19000415 	stw	r4,16(r3)
  128b64:	dfc01017 	ldw	ra,64(sp)
  128b68:	df000f17 	ldw	fp,60(sp)
  128b6c:	ddc00e17 	ldw	r23,56(sp)
  128b70:	dd800d17 	ldw	r22,52(sp)
  128b74:	dd400c17 	ldw	r21,48(sp)
  128b78:	dd000b17 	ldw	r20,44(sp)
  128b7c:	dcc00a17 	ldw	r19,40(sp)
  128b80:	dc800917 	ldw	r18,36(sp)
  128b84:	dc400817 	ldw	r17,32(sp)
  128b88:	dc000717 	ldw	r16,28(sp)
  128b8c:	dec01104 	addi	sp,sp,68
  128b90:	f800283a 	ret

00128b94 <__pow5mult>:
  128b94:	defffa04 	addi	sp,sp,-24
  128b98:	dcc00315 	stw	r19,12(sp)
  128b9c:	dc000015 	stw	r16,0(sp)
  128ba0:	dfc00515 	stw	ra,20(sp)
  128ba4:	dd000415 	stw	r20,16(sp)
  128ba8:	dc800215 	stw	r18,8(sp)
  128bac:	dc400115 	stw	r17,4(sp)
  128bb0:	308000cc 	andi	r2,r6,3
  128bb4:	3021883a 	mov	r16,r6
  128bb8:	2027883a 	mov	r19,r4
  128bbc:	10002f1e 	bne	r2,zero,128c7c <__pow5mult+0xe8>
  128bc0:	2825883a 	mov	r18,r5
  128bc4:	8021d0ba 	srai	r16,r16,2
  128bc8:	80001a26 	beq	r16,zero,128c34 <__pow5mult+0xa0>
  128bcc:	9c401217 	ldw	r17,72(r19)
  128bd0:	8800061e 	bne	r17,zero,128bec <__pow5mult+0x58>
  128bd4:	00003406 	br	128ca8 <__pow5mult+0x114>
  128bd8:	8021d07a 	srai	r16,r16,1
  128bdc:	80001526 	beq	r16,zero,128c34 <__pow5mult+0xa0>
  128be0:	88800017 	ldw	r2,0(r17)
  128be4:	10001c26 	beq	r2,zero,128c58 <__pow5mult+0xc4>
  128be8:	1023883a 	mov	r17,r2
  128bec:	8080004c 	andi	r2,r16,1
  128bf0:	103ff926 	beq	r2,zero,128bd8 <_gp+0xfffe5500>
  128bf4:	880d883a 	mov	r6,r17
  128bf8:	900b883a 	mov	r5,r18
  128bfc:	9809883a 	mov	r4,r19
  128c00:	01289080 	call	128908 <__multiply>
  128c04:	90001b26 	beq	r18,zero,128c74 <__pow5mult+0xe0>
  128c08:	91000117 	ldw	r4,4(r18)
  128c0c:	98c01317 	ldw	r3,76(r19)
  128c10:	8021d07a 	srai	r16,r16,1
  128c14:	2109883a 	add	r4,r4,r4
  128c18:	2109883a 	add	r4,r4,r4
  128c1c:	1907883a 	add	r3,r3,r4
  128c20:	19000017 	ldw	r4,0(r3)
  128c24:	91000015 	stw	r4,0(r18)
  128c28:	1c800015 	stw	r18,0(r3)
  128c2c:	1025883a 	mov	r18,r2
  128c30:	803feb1e 	bne	r16,zero,128be0 <_gp+0xfffe5508>
  128c34:	9005883a 	mov	r2,r18
  128c38:	dfc00517 	ldw	ra,20(sp)
  128c3c:	dd000417 	ldw	r20,16(sp)
  128c40:	dcc00317 	ldw	r19,12(sp)
  128c44:	dc800217 	ldw	r18,8(sp)
  128c48:	dc400117 	ldw	r17,4(sp)
  128c4c:	dc000017 	ldw	r16,0(sp)
  128c50:	dec00604 	addi	sp,sp,24
  128c54:	f800283a 	ret
  128c58:	880d883a 	mov	r6,r17
  128c5c:	880b883a 	mov	r5,r17
  128c60:	9809883a 	mov	r4,r19
  128c64:	01289080 	call	128908 <__multiply>
  128c68:	88800015 	stw	r2,0(r17)
  128c6c:	10000015 	stw	zero,0(r2)
  128c70:	003fdd06 	br	128be8 <_gp+0xfffe5510>
  128c74:	1025883a 	mov	r18,r2
  128c78:	003fd706 	br	128bd8 <_gp+0xfffe5500>
  128c7c:	10bfffc4 	addi	r2,r2,-1
  128c80:	1085883a 	add	r2,r2,r2
  128c84:	00c00534 	movhi	r3,20
  128c88:	18e58304 	addi	r3,r3,-27124
  128c8c:	1085883a 	add	r2,r2,r2
  128c90:	1885883a 	add	r2,r3,r2
  128c94:	11800017 	ldw	r6,0(r2)
  128c98:	000f883a 	mov	r7,zero
  128c9c:	01285680 	call	128568 <__multadd>
  128ca0:	1025883a 	mov	r18,r2
  128ca4:	003fc706 	br	128bc4 <_gp+0xfffe54ec>
  128ca8:	05000044 	movi	r20,1
  128cac:	a00b883a 	mov	r5,r20
  128cb0:	9809883a 	mov	r4,r19
  128cb4:	01284980 	call	128498 <_Balloc>
  128cb8:	1023883a 	mov	r17,r2
  128cbc:	00809c44 	movi	r2,625
  128cc0:	88800515 	stw	r2,20(r17)
  128cc4:	8d000415 	stw	r20,16(r17)
  128cc8:	9c401215 	stw	r17,72(r19)
  128ccc:	88000015 	stw	zero,0(r17)
  128cd0:	003fc606 	br	128bec <_gp+0xfffe5514>

00128cd4 <__lshift>:
  128cd4:	defff904 	addi	sp,sp,-28
  128cd8:	dd400515 	stw	r21,20(sp)
  128cdc:	dcc00315 	stw	r19,12(sp)
  128ce0:	302bd17a 	srai	r21,r6,5
  128ce4:	2cc00417 	ldw	r19,16(r5)
  128ce8:	28800217 	ldw	r2,8(r5)
  128cec:	dd000415 	stw	r20,16(sp)
  128cf0:	ace7883a 	add	r19,r21,r19
  128cf4:	dc800215 	stw	r18,8(sp)
  128cf8:	dc400115 	stw	r17,4(sp)
  128cfc:	dc000015 	stw	r16,0(sp)
  128d00:	dfc00615 	stw	ra,24(sp)
  128d04:	9c000044 	addi	r16,r19,1
  128d08:	2823883a 	mov	r17,r5
  128d0c:	3029883a 	mov	r20,r6
  128d10:	2025883a 	mov	r18,r4
  128d14:	29400117 	ldw	r5,4(r5)
  128d18:	1400030e 	bge	r2,r16,128d28 <__lshift+0x54>
  128d1c:	1085883a 	add	r2,r2,r2
  128d20:	29400044 	addi	r5,r5,1
  128d24:	143ffd16 	blt	r2,r16,128d1c <_gp+0xfffe5644>
  128d28:	9009883a 	mov	r4,r18
  128d2c:	01284980 	call	128498 <_Balloc>
  128d30:	10c00504 	addi	r3,r2,20
  128d34:	0540070e 	bge	zero,r21,128d54 <__lshift+0x80>
  128d38:	ad6b883a 	add	r21,r21,r21
  128d3c:	ad6b883a 	add	r21,r21,r21
  128d40:	1809883a 	mov	r4,r3
  128d44:	1d47883a 	add	r3,r3,r21
  128d48:	20000015 	stw	zero,0(r4)
  128d4c:	21000104 	addi	r4,r4,4
  128d50:	193ffd1e 	bne	r3,r4,128d48 <_gp+0xfffe5670>
  128d54:	8a000417 	ldw	r8,16(r17)
  128d58:	89000504 	addi	r4,r17,20
  128d5c:	a18007cc 	andi	r6,r20,31
  128d60:	4211883a 	add	r8,r8,r8
  128d64:	4211883a 	add	r8,r8,r8
  128d68:	2211883a 	add	r8,r4,r8
  128d6c:	30002326 	beq	r6,zero,128dfc <__lshift+0x128>
  128d70:	02400804 	movi	r9,32
  128d74:	4993c83a 	sub	r9,r9,r6
  128d78:	000b883a 	mov	r5,zero
  128d7c:	21c00017 	ldw	r7,0(r4)
  128d80:	1815883a 	mov	r10,r3
  128d84:	18c00104 	addi	r3,r3,4
  128d88:	398e983a 	sll	r7,r7,r6
  128d8c:	21000104 	addi	r4,r4,4
  128d90:	394ab03a 	or	r5,r7,r5
  128d94:	197fff15 	stw	r5,-4(r3)
  128d98:	217fff17 	ldw	r5,-4(r4)
  128d9c:	2a4ad83a 	srl	r5,r5,r9
  128da0:	223ff636 	bltu	r4,r8,128d7c <_gp+0xfffe56a4>
  128da4:	51400115 	stw	r5,4(r10)
  128da8:	28001a1e 	bne	r5,zero,128e14 <__lshift+0x140>
  128dac:	843fffc4 	addi	r16,r16,-1
  128db0:	14000415 	stw	r16,16(r2)
  128db4:	88000826 	beq	r17,zero,128dd8 <__lshift+0x104>
  128db8:	89000117 	ldw	r4,4(r17)
  128dbc:	90c01317 	ldw	r3,76(r18)
  128dc0:	2109883a 	add	r4,r4,r4
  128dc4:	2109883a 	add	r4,r4,r4
  128dc8:	1907883a 	add	r3,r3,r4
  128dcc:	19000017 	ldw	r4,0(r3)
  128dd0:	89000015 	stw	r4,0(r17)
  128dd4:	1c400015 	stw	r17,0(r3)
  128dd8:	dfc00617 	ldw	ra,24(sp)
  128ddc:	dd400517 	ldw	r21,20(sp)
  128de0:	dd000417 	ldw	r20,16(sp)
  128de4:	dcc00317 	ldw	r19,12(sp)
  128de8:	dc800217 	ldw	r18,8(sp)
  128dec:	dc400117 	ldw	r17,4(sp)
  128df0:	dc000017 	ldw	r16,0(sp)
  128df4:	dec00704 	addi	sp,sp,28
  128df8:	f800283a 	ret
  128dfc:	21400017 	ldw	r5,0(r4)
  128e00:	18c00104 	addi	r3,r3,4
  128e04:	21000104 	addi	r4,r4,4
  128e08:	197fff15 	stw	r5,-4(r3)
  128e0c:	223ffb36 	bltu	r4,r8,128dfc <_gp+0xfffe5724>
  128e10:	003fe606 	br	128dac <_gp+0xfffe56d4>
  128e14:	9c000084 	addi	r16,r19,2
  128e18:	003fe406 	br	128dac <_gp+0xfffe56d4>

00128e1c <__mcmp>:
  128e1c:	20800417 	ldw	r2,16(r4)
  128e20:	28c00417 	ldw	r3,16(r5)
  128e24:	10c5c83a 	sub	r2,r2,r3
  128e28:	1000111e 	bne	r2,zero,128e70 <__mcmp+0x54>
  128e2c:	18c7883a 	add	r3,r3,r3
  128e30:	18c7883a 	add	r3,r3,r3
  128e34:	21000504 	addi	r4,r4,20
  128e38:	29400504 	addi	r5,r5,20
  128e3c:	20c5883a 	add	r2,r4,r3
  128e40:	28cb883a 	add	r5,r5,r3
  128e44:	00000106 	br	128e4c <__mcmp+0x30>
  128e48:	20800a2e 	bgeu	r4,r2,128e74 <__mcmp+0x58>
  128e4c:	10bfff04 	addi	r2,r2,-4
  128e50:	297fff04 	addi	r5,r5,-4
  128e54:	11800017 	ldw	r6,0(r2)
  128e58:	28c00017 	ldw	r3,0(r5)
  128e5c:	30fffa26 	beq	r6,r3,128e48 <_gp+0xfffe5770>
  128e60:	30c00236 	bltu	r6,r3,128e6c <__mcmp+0x50>
  128e64:	00800044 	movi	r2,1
  128e68:	f800283a 	ret
  128e6c:	00bfffc4 	movi	r2,-1
  128e70:	f800283a 	ret
  128e74:	0005883a 	mov	r2,zero
  128e78:	f800283a 	ret

00128e7c <__mdiff>:
  128e7c:	28c00417 	ldw	r3,16(r5)
  128e80:	30800417 	ldw	r2,16(r6)
  128e84:	defffa04 	addi	sp,sp,-24
  128e88:	dcc00315 	stw	r19,12(sp)
  128e8c:	dc800215 	stw	r18,8(sp)
  128e90:	dfc00515 	stw	ra,20(sp)
  128e94:	dd000415 	stw	r20,16(sp)
  128e98:	dc400115 	stw	r17,4(sp)
  128e9c:	dc000015 	stw	r16,0(sp)
  128ea0:	1887c83a 	sub	r3,r3,r2
  128ea4:	2825883a 	mov	r18,r5
  128ea8:	3027883a 	mov	r19,r6
  128eac:	1800141e 	bne	r3,zero,128f00 <__mdiff+0x84>
  128eb0:	1085883a 	add	r2,r2,r2
  128eb4:	1085883a 	add	r2,r2,r2
  128eb8:	2a000504 	addi	r8,r5,20
  128ebc:	34000504 	addi	r16,r6,20
  128ec0:	4087883a 	add	r3,r8,r2
  128ec4:	8085883a 	add	r2,r16,r2
  128ec8:	00000106 	br	128ed0 <__mdiff+0x54>
  128ecc:	40c0592e 	bgeu	r8,r3,129034 <__mdiff+0x1b8>
  128ed0:	18ffff04 	addi	r3,r3,-4
  128ed4:	10bfff04 	addi	r2,r2,-4
  128ed8:	19c00017 	ldw	r7,0(r3)
  128edc:	11400017 	ldw	r5,0(r2)
  128ee0:	397ffa26 	beq	r7,r5,128ecc <_gp+0xfffe57f4>
  128ee4:	3940592e 	bgeu	r7,r5,12904c <__mdiff+0x1d0>
  128ee8:	9005883a 	mov	r2,r18
  128eec:	4023883a 	mov	r17,r8
  128ef0:	9825883a 	mov	r18,r19
  128ef4:	05000044 	movi	r20,1
  128ef8:	1027883a 	mov	r19,r2
  128efc:	00000406 	br	128f10 <__mdiff+0x94>
  128f00:	18005616 	blt	r3,zero,12905c <__mdiff+0x1e0>
  128f04:	34400504 	addi	r17,r6,20
  128f08:	2c000504 	addi	r16,r5,20
  128f0c:	0029883a 	mov	r20,zero
  128f10:	91400117 	ldw	r5,4(r18)
  128f14:	01284980 	call	128498 <_Balloc>
  128f18:	92400417 	ldw	r9,16(r18)
  128f1c:	9b000417 	ldw	r12,16(r19)
  128f20:	12c00504 	addi	r11,r2,20
  128f24:	4a51883a 	add	r8,r9,r9
  128f28:	6319883a 	add	r12,r12,r12
  128f2c:	4211883a 	add	r8,r8,r8
  128f30:	6319883a 	add	r12,r12,r12
  128f34:	15000315 	stw	r20,12(r2)
  128f38:	8211883a 	add	r8,r16,r8
  128f3c:	8b19883a 	add	r12,r17,r12
  128f40:	0007883a 	mov	r3,zero
  128f44:	81400017 	ldw	r5,0(r16)
  128f48:	89c00017 	ldw	r7,0(r17)
  128f4c:	59800104 	addi	r6,r11,4
  128f50:	293fffcc 	andi	r4,r5,65535
  128f54:	20c7883a 	add	r3,r4,r3
  128f58:	393fffcc 	andi	r4,r7,65535
  128f5c:	1909c83a 	sub	r4,r3,r4
  128f60:	280ad43a 	srli	r5,r5,16
  128f64:	380ed43a 	srli	r7,r7,16
  128f68:	2007d43a 	srai	r3,r4,16
  128f6c:	213fffcc 	andi	r4,r4,65535
  128f70:	29cbc83a 	sub	r5,r5,r7
  128f74:	28c7883a 	add	r3,r5,r3
  128f78:	180a943a 	slli	r5,r3,16
  128f7c:	8c400104 	addi	r17,r17,4
  128f80:	84000104 	addi	r16,r16,4
  128f84:	2908b03a 	or	r4,r5,r4
  128f88:	59000015 	stw	r4,0(r11)
  128f8c:	1807d43a 	srai	r3,r3,16
  128f90:	3015883a 	mov	r10,r6
  128f94:	3017883a 	mov	r11,r6
  128f98:	8b3fea36 	bltu	r17,r12,128f44 <_gp+0xfffe586c>
  128f9c:	8200162e 	bgeu	r16,r8,128ff8 <__mdiff+0x17c>
  128fa0:	8017883a 	mov	r11,r16
  128fa4:	59400017 	ldw	r5,0(r11)
  128fa8:	31800104 	addi	r6,r6,4
  128fac:	5ac00104 	addi	r11,r11,4
  128fb0:	293fffcc 	andi	r4,r5,65535
  128fb4:	20c7883a 	add	r3,r4,r3
  128fb8:	280ed43a 	srli	r7,r5,16
  128fbc:	180bd43a 	srai	r5,r3,16
  128fc0:	193fffcc 	andi	r4,r3,65535
  128fc4:	3947883a 	add	r3,r7,r5
  128fc8:	180a943a 	slli	r5,r3,16
  128fcc:	1807d43a 	srai	r3,r3,16
  128fd0:	2908b03a 	or	r4,r5,r4
  128fd4:	313fff15 	stw	r4,-4(r6)
  128fd8:	5a3ff236 	bltu	r11,r8,128fa4 <_gp+0xfffe58cc>
  128fdc:	0406303a 	nor	r3,zero,r16
  128fe0:	1a07883a 	add	r3,r3,r8
  128fe4:	1806d0ba 	srli	r3,r3,2
  128fe8:	18c00044 	addi	r3,r3,1
  128fec:	18c7883a 	add	r3,r3,r3
  128ff0:	18c7883a 	add	r3,r3,r3
  128ff4:	50d5883a 	add	r10,r10,r3
  128ff8:	50ffff04 	addi	r3,r10,-4
  128ffc:	2000041e 	bne	r4,zero,129010 <__mdiff+0x194>
  129000:	18ffff04 	addi	r3,r3,-4
  129004:	19000017 	ldw	r4,0(r3)
  129008:	4a7fffc4 	addi	r9,r9,-1
  12900c:	203ffc26 	beq	r4,zero,129000 <_gp+0xfffe5928>
  129010:	12400415 	stw	r9,16(r2)
  129014:	dfc00517 	ldw	ra,20(sp)
  129018:	dd000417 	ldw	r20,16(sp)
  12901c:	dcc00317 	ldw	r19,12(sp)
  129020:	dc800217 	ldw	r18,8(sp)
  129024:	dc400117 	ldw	r17,4(sp)
  129028:	dc000017 	ldw	r16,0(sp)
  12902c:	dec00604 	addi	sp,sp,24
  129030:	f800283a 	ret
  129034:	000b883a 	mov	r5,zero
  129038:	01284980 	call	128498 <_Balloc>
  12903c:	00c00044 	movi	r3,1
  129040:	10c00415 	stw	r3,16(r2)
  129044:	10000515 	stw	zero,20(r2)
  129048:	003ff206 	br	129014 <_gp+0xfffe593c>
  12904c:	8023883a 	mov	r17,r16
  129050:	0029883a 	mov	r20,zero
  129054:	4021883a 	mov	r16,r8
  129058:	003fad06 	br	128f10 <_gp+0xfffe5838>
  12905c:	9005883a 	mov	r2,r18
  129060:	94400504 	addi	r17,r18,20
  129064:	9c000504 	addi	r16,r19,20
  129068:	9825883a 	mov	r18,r19
  12906c:	05000044 	movi	r20,1
  129070:	1027883a 	mov	r19,r2
  129074:	003fa606 	br	128f10 <_gp+0xfffe5838>

00129078 <__ulp>:
  129078:	295ffc2c 	andhi	r5,r5,32752
  12907c:	00bf3034 	movhi	r2,64704
  129080:	2887883a 	add	r3,r5,r2
  129084:	00c0020e 	bge	zero,r3,129090 <__ulp+0x18>
  129088:	0005883a 	mov	r2,zero
  12908c:	f800283a 	ret
  129090:	00c7c83a 	sub	r3,zero,r3
  129094:	1807d53a 	srai	r3,r3,20
  129098:	008004c4 	movi	r2,19
  12909c:	10c00b0e 	bge	r2,r3,1290cc <__ulp+0x54>
  1290a0:	18bffb04 	addi	r2,r3,-20
  1290a4:	01000784 	movi	r4,30
  1290a8:	0007883a 	mov	r3,zero
  1290ac:	20800516 	blt	r4,r2,1290c4 <__ulp+0x4c>
  1290b0:	010007c4 	movi	r4,31
  1290b4:	2089c83a 	sub	r4,r4,r2
  1290b8:	00800044 	movi	r2,1
  1290bc:	1104983a 	sll	r2,r2,r4
  1290c0:	f800283a 	ret
  1290c4:	00800044 	movi	r2,1
  1290c8:	f800283a 	ret
  1290cc:	01400234 	movhi	r5,8
  1290d0:	28c7d83a 	sra	r3,r5,r3
  1290d4:	0005883a 	mov	r2,zero
  1290d8:	f800283a 	ret

001290dc <__b2d>:
  1290dc:	defffa04 	addi	sp,sp,-24
  1290e0:	dc000015 	stw	r16,0(sp)
  1290e4:	24000417 	ldw	r16,16(r4)
  1290e8:	dc400115 	stw	r17,4(sp)
  1290ec:	24400504 	addi	r17,r4,20
  1290f0:	8421883a 	add	r16,r16,r16
  1290f4:	8421883a 	add	r16,r16,r16
  1290f8:	8c21883a 	add	r16,r17,r16
  1290fc:	dc800215 	stw	r18,8(sp)
  129100:	84bfff17 	ldw	r18,-4(r16)
  129104:	dd000415 	stw	r20,16(sp)
  129108:	dcc00315 	stw	r19,12(sp)
  12910c:	9009883a 	mov	r4,r18
  129110:	2829883a 	mov	r20,r5
  129114:	dfc00515 	stw	ra,20(sp)
  129118:	01287b40 	call	1287b4 <__hi0bits>
  12911c:	00c00804 	movi	r3,32
  129120:	1889c83a 	sub	r4,r3,r2
  129124:	a1000015 	stw	r4,0(r20)
  129128:	01000284 	movi	r4,10
  12912c:	84ffff04 	addi	r19,r16,-4
  129130:	20801216 	blt	r4,r2,12917c <__b2d+0xa0>
  129134:	018002c4 	movi	r6,11
  129138:	308dc83a 	sub	r6,r6,r2
  12913c:	9186d83a 	srl	r3,r18,r6
  129140:	18cffc34 	orhi	r3,r3,16368
  129144:	8cc0212e 	bgeu	r17,r19,1291cc <__b2d+0xf0>
  129148:	813ffe17 	ldw	r4,-8(r16)
  12914c:	218cd83a 	srl	r6,r4,r6
  129150:	10800544 	addi	r2,r2,21
  129154:	9084983a 	sll	r2,r18,r2
  129158:	1184b03a 	or	r2,r2,r6
  12915c:	dfc00517 	ldw	ra,20(sp)
  129160:	dd000417 	ldw	r20,16(sp)
  129164:	dcc00317 	ldw	r19,12(sp)
  129168:	dc800217 	ldw	r18,8(sp)
  12916c:	dc400117 	ldw	r17,4(sp)
  129170:	dc000017 	ldw	r16,0(sp)
  129174:	dec00604 	addi	sp,sp,24
  129178:	f800283a 	ret
  12917c:	8cc00f2e 	bgeu	r17,r19,1291bc <__b2d+0xe0>
  129180:	117ffd44 	addi	r5,r2,-11
  129184:	80bffe17 	ldw	r2,-8(r16)
  129188:	28000e26 	beq	r5,zero,1291c4 <__b2d+0xe8>
  12918c:	1949c83a 	sub	r4,r3,r5
  129190:	9164983a 	sll	r18,r18,r5
  129194:	1106d83a 	srl	r3,r2,r4
  129198:	81bffe04 	addi	r6,r16,-8
  12919c:	948ffc34 	orhi	r18,r18,16368
  1291a0:	90c6b03a 	or	r3,r18,r3
  1291a4:	89800e2e 	bgeu	r17,r6,1291e0 <__b2d+0x104>
  1291a8:	81bffd17 	ldw	r6,-12(r16)
  1291ac:	1144983a 	sll	r2,r2,r5
  1291b0:	310ad83a 	srl	r5,r6,r4
  1291b4:	2884b03a 	or	r2,r5,r2
  1291b8:	003fe806 	br	12915c <_gp+0xfffe5a84>
  1291bc:	10bffd44 	addi	r2,r2,-11
  1291c0:	1000041e 	bne	r2,zero,1291d4 <__b2d+0xf8>
  1291c4:	90cffc34 	orhi	r3,r18,16368
  1291c8:	003fe406 	br	12915c <_gp+0xfffe5a84>
  1291cc:	000d883a 	mov	r6,zero
  1291d0:	003fdf06 	br	129150 <_gp+0xfffe5a78>
  1291d4:	90a4983a 	sll	r18,r18,r2
  1291d8:	0005883a 	mov	r2,zero
  1291dc:	003ff906 	br	1291c4 <_gp+0xfffe5aec>
  1291e0:	1144983a 	sll	r2,r2,r5
  1291e4:	003fdd06 	br	12915c <_gp+0xfffe5a84>

001291e8 <__d2b>:
  1291e8:	defff804 	addi	sp,sp,-32
  1291ec:	dc000215 	stw	r16,8(sp)
  1291f0:	3021883a 	mov	r16,r6
  1291f4:	dc400315 	stw	r17,12(sp)
  1291f8:	8022907a 	slli	r17,r16,1
  1291fc:	dd000615 	stw	r20,24(sp)
  129200:	2829883a 	mov	r20,r5
  129204:	01400044 	movi	r5,1
  129208:	dcc00515 	stw	r19,20(sp)
  12920c:	dc800415 	stw	r18,16(sp)
  129210:	dfc00715 	stw	ra,28(sp)
  129214:	3825883a 	mov	r18,r7
  129218:	8822d57a 	srli	r17,r17,21
  12921c:	01284980 	call	128498 <_Balloc>
  129220:	1027883a 	mov	r19,r2
  129224:	00800434 	movhi	r2,16
  129228:	10bfffc4 	addi	r2,r2,-1
  12922c:	808c703a 	and	r6,r16,r2
  129230:	88000126 	beq	r17,zero,129238 <__d2b+0x50>
  129234:	31800434 	orhi	r6,r6,16
  129238:	d9800015 	stw	r6,0(sp)
  12923c:	a0002426 	beq	r20,zero,1292d0 <__d2b+0xe8>
  129240:	d9000104 	addi	r4,sp,4
  129244:	dd000115 	stw	r20,4(sp)
  129248:	012881c0 	call	12881c <__lo0bits>
  12924c:	d8c00017 	ldw	r3,0(sp)
  129250:	10002f1e 	bne	r2,zero,129310 <__d2b+0x128>
  129254:	d9000117 	ldw	r4,4(sp)
  129258:	99000515 	stw	r4,20(r19)
  12925c:	1821003a 	cmpeq	r16,r3,zero
  129260:	01000084 	movi	r4,2
  129264:	2421c83a 	sub	r16,r4,r16
  129268:	98c00615 	stw	r3,24(r19)
  12926c:	9c000415 	stw	r16,16(r19)
  129270:	88001f1e 	bne	r17,zero,1292f0 <__d2b+0x108>
  129274:	10bef384 	addi	r2,r2,-1074
  129278:	90800015 	stw	r2,0(r18)
  12927c:	00900034 	movhi	r2,16384
  129280:	10bfffc4 	addi	r2,r2,-1
  129284:	8085883a 	add	r2,r16,r2
  129288:	1085883a 	add	r2,r2,r2
  12928c:	1085883a 	add	r2,r2,r2
  129290:	9885883a 	add	r2,r19,r2
  129294:	11000517 	ldw	r4,20(r2)
  129298:	8020917a 	slli	r16,r16,5
  12929c:	01287b40 	call	1287b4 <__hi0bits>
  1292a0:	d8c00817 	ldw	r3,32(sp)
  1292a4:	8085c83a 	sub	r2,r16,r2
  1292a8:	18800015 	stw	r2,0(r3)
  1292ac:	9805883a 	mov	r2,r19
  1292b0:	dfc00717 	ldw	ra,28(sp)
  1292b4:	dd000617 	ldw	r20,24(sp)
  1292b8:	dcc00517 	ldw	r19,20(sp)
  1292bc:	dc800417 	ldw	r18,16(sp)
  1292c0:	dc400317 	ldw	r17,12(sp)
  1292c4:	dc000217 	ldw	r16,8(sp)
  1292c8:	dec00804 	addi	sp,sp,32
  1292cc:	f800283a 	ret
  1292d0:	d809883a 	mov	r4,sp
  1292d4:	012881c0 	call	12881c <__lo0bits>
  1292d8:	d8c00017 	ldw	r3,0(sp)
  1292dc:	04000044 	movi	r16,1
  1292e0:	9c000415 	stw	r16,16(r19)
  1292e4:	98c00515 	stw	r3,20(r19)
  1292e8:	10800804 	addi	r2,r2,32
  1292ec:	883fe126 	beq	r17,zero,129274 <_gp+0xfffe5b9c>
  1292f0:	00c00d44 	movi	r3,53
  1292f4:	8c7ef344 	addi	r17,r17,-1075
  1292f8:	88a3883a 	add	r17,r17,r2
  1292fc:	1885c83a 	sub	r2,r3,r2
  129300:	d8c00817 	ldw	r3,32(sp)
  129304:	94400015 	stw	r17,0(r18)
  129308:	18800015 	stw	r2,0(r3)
  12930c:	003fe706 	br	1292ac <_gp+0xfffe5bd4>
  129310:	01000804 	movi	r4,32
  129314:	2089c83a 	sub	r4,r4,r2
  129318:	1908983a 	sll	r4,r3,r4
  12931c:	d9400117 	ldw	r5,4(sp)
  129320:	1886d83a 	srl	r3,r3,r2
  129324:	2148b03a 	or	r4,r4,r5
  129328:	99000515 	stw	r4,20(r19)
  12932c:	d8c00015 	stw	r3,0(sp)
  129330:	003fca06 	br	12925c <_gp+0xfffe5b84>

00129334 <__ratio>:
  129334:	defff904 	addi	sp,sp,-28
  129338:	dc400315 	stw	r17,12(sp)
  12933c:	2823883a 	mov	r17,r5
  129340:	d9400104 	addi	r5,sp,4
  129344:	dfc00615 	stw	ra,24(sp)
  129348:	dcc00515 	stw	r19,20(sp)
  12934c:	dc800415 	stw	r18,16(sp)
  129350:	2027883a 	mov	r19,r4
  129354:	dc000215 	stw	r16,8(sp)
  129358:	01290dc0 	call	1290dc <__b2d>
  12935c:	d80b883a 	mov	r5,sp
  129360:	8809883a 	mov	r4,r17
  129364:	1025883a 	mov	r18,r2
  129368:	1821883a 	mov	r16,r3
  12936c:	01290dc0 	call	1290dc <__b2d>
  129370:	8a000417 	ldw	r8,16(r17)
  129374:	99000417 	ldw	r4,16(r19)
  129378:	d9400117 	ldw	r5,4(sp)
  12937c:	2209c83a 	sub	r4,r4,r8
  129380:	2010917a 	slli	r8,r4,5
  129384:	d9000017 	ldw	r4,0(sp)
  129388:	2909c83a 	sub	r4,r5,r4
  12938c:	4109883a 	add	r4,r8,r4
  129390:	01000e0e 	bge	zero,r4,1293cc <__ratio+0x98>
  129394:	2008953a 	slli	r4,r4,20
  129398:	2421883a 	add	r16,r4,r16
  12939c:	100d883a 	mov	r6,r2
  1293a0:	180f883a 	mov	r7,r3
  1293a4:	9009883a 	mov	r4,r18
  1293a8:	800b883a 	mov	r5,r16
  1293ac:	01320e80 	call	1320e8 <__divdf3>
  1293b0:	dfc00617 	ldw	ra,24(sp)
  1293b4:	dcc00517 	ldw	r19,20(sp)
  1293b8:	dc800417 	ldw	r18,16(sp)
  1293bc:	dc400317 	ldw	r17,12(sp)
  1293c0:	dc000217 	ldw	r16,8(sp)
  1293c4:	dec00704 	addi	sp,sp,28
  1293c8:	f800283a 	ret
  1293cc:	2008953a 	slli	r4,r4,20
  1293d0:	1907c83a 	sub	r3,r3,r4
  1293d4:	003ff106 	br	12939c <_gp+0xfffe5cc4>

001293d8 <_mprec_log10>:
  1293d8:	defffe04 	addi	sp,sp,-8
  1293dc:	dc000015 	stw	r16,0(sp)
  1293e0:	dfc00115 	stw	ra,4(sp)
  1293e4:	008005c4 	movi	r2,23
  1293e8:	2021883a 	mov	r16,r4
  1293ec:	11000d0e 	bge	r2,r4,129424 <_mprec_log10+0x4c>
  1293f0:	0005883a 	mov	r2,zero
  1293f4:	00cffc34 	movhi	r3,16368
  1293f8:	843fffc4 	addi	r16,r16,-1
  1293fc:	000d883a 	mov	r6,zero
  129400:	01d00934 	movhi	r7,16420
  129404:	1009883a 	mov	r4,r2
  129408:	180b883a 	mov	r5,r3
  12940c:	0132d100 	call	132d10 <__muldf3>
  129410:	803ff91e 	bne	r16,zero,1293f8 <_gp+0xfffe5d20>
  129414:	dfc00117 	ldw	ra,4(sp)
  129418:	dc000017 	ldw	r16,0(sp)
  12941c:	dec00204 	addi	sp,sp,8
  129420:	f800283a 	ret
  129424:	202090fa 	slli	r16,r4,3
  129428:	00800534 	movhi	r2,20
  12942c:	10a59a04 	addi	r2,r2,-27032
  129430:	1421883a 	add	r16,r2,r16
  129434:	80800017 	ldw	r2,0(r16)
  129438:	80c00117 	ldw	r3,4(r16)
  12943c:	dfc00117 	ldw	ra,4(sp)
  129440:	dc000017 	ldw	r16,0(sp)
  129444:	dec00204 	addi	sp,sp,8
  129448:	f800283a 	ret

0012944c <__copybits>:
  12944c:	297fffc4 	addi	r5,r5,-1
  129450:	280fd17a 	srai	r7,r5,5
  129454:	30c00417 	ldw	r3,16(r6)
  129458:	30800504 	addi	r2,r6,20
  12945c:	39c00044 	addi	r7,r7,1
  129460:	18c7883a 	add	r3,r3,r3
  129464:	39cf883a 	add	r7,r7,r7
  129468:	18c7883a 	add	r3,r3,r3
  12946c:	39cf883a 	add	r7,r7,r7
  129470:	10c7883a 	add	r3,r2,r3
  129474:	21cf883a 	add	r7,r4,r7
  129478:	10c00d2e 	bgeu	r2,r3,1294b0 <__copybits+0x64>
  12947c:	200b883a 	mov	r5,r4
  129480:	12000017 	ldw	r8,0(r2)
  129484:	29400104 	addi	r5,r5,4
  129488:	10800104 	addi	r2,r2,4
  12948c:	2a3fff15 	stw	r8,-4(r5)
  129490:	10fffb36 	bltu	r2,r3,129480 <_gp+0xfffe5da8>
  129494:	1985c83a 	sub	r2,r3,r6
  129498:	10bffac4 	addi	r2,r2,-21
  12949c:	1004d0ba 	srli	r2,r2,2
  1294a0:	10800044 	addi	r2,r2,1
  1294a4:	1085883a 	add	r2,r2,r2
  1294a8:	1085883a 	add	r2,r2,r2
  1294ac:	2089883a 	add	r4,r4,r2
  1294b0:	21c0032e 	bgeu	r4,r7,1294c0 <__copybits+0x74>
  1294b4:	20000015 	stw	zero,0(r4)
  1294b8:	21000104 	addi	r4,r4,4
  1294bc:	21fffd36 	bltu	r4,r7,1294b4 <_gp+0xfffe5ddc>
  1294c0:	f800283a 	ret

001294c4 <__any_on>:
  1294c4:	20c00417 	ldw	r3,16(r4)
  1294c8:	2805d17a 	srai	r2,r5,5
  1294cc:	21000504 	addi	r4,r4,20
  1294d0:	18800d0e 	bge	r3,r2,129508 <__any_on+0x44>
  1294d4:	18c7883a 	add	r3,r3,r3
  1294d8:	18c7883a 	add	r3,r3,r3
  1294dc:	20c7883a 	add	r3,r4,r3
  1294e0:	20c0192e 	bgeu	r4,r3,129548 <__any_on+0x84>
  1294e4:	18bfff17 	ldw	r2,-4(r3)
  1294e8:	18ffff04 	addi	r3,r3,-4
  1294ec:	1000041e 	bne	r2,zero,129500 <__any_on+0x3c>
  1294f0:	20c0142e 	bgeu	r4,r3,129544 <__any_on+0x80>
  1294f4:	18ffff04 	addi	r3,r3,-4
  1294f8:	19400017 	ldw	r5,0(r3)
  1294fc:	283ffc26 	beq	r5,zero,1294f0 <_gp+0xfffe5e18>
  129500:	00800044 	movi	r2,1
  129504:	f800283a 	ret
  129508:	10c00a0e 	bge	r2,r3,129534 <__any_on+0x70>
  12950c:	1085883a 	add	r2,r2,r2
  129510:	1085883a 	add	r2,r2,r2
  129514:	294007cc 	andi	r5,r5,31
  129518:	2087883a 	add	r3,r4,r2
  12951c:	283ff026 	beq	r5,zero,1294e0 <_gp+0xfffe5e08>
  129520:	19800017 	ldw	r6,0(r3)
  129524:	3144d83a 	srl	r2,r6,r5
  129528:	114a983a 	sll	r5,r2,r5
  12952c:	317ff41e 	bne	r6,r5,129500 <_gp+0xfffe5e28>
  129530:	003feb06 	br	1294e0 <_gp+0xfffe5e08>
  129534:	1085883a 	add	r2,r2,r2
  129538:	1085883a 	add	r2,r2,r2
  12953c:	2087883a 	add	r3,r4,r2
  129540:	003fe706 	br	1294e0 <_gp+0xfffe5e08>
  129544:	f800283a 	ret
  129548:	0005883a 	mov	r2,zero
  12954c:	f800283a 	ret

00129550 <_read_r>:
  129550:	defffd04 	addi	sp,sp,-12
  129554:	2805883a 	mov	r2,r5
  129558:	dc000015 	stw	r16,0(sp)
  12955c:	04000534 	movhi	r16,20
  129560:	dc400115 	stw	r17,4(sp)
  129564:	300b883a 	mov	r5,r6
  129568:	84350e04 	addi	r16,r16,-11208
  12956c:	2023883a 	mov	r17,r4
  129570:	380d883a 	mov	r6,r7
  129574:	1009883a 	mov	r4,r2
  129578:	dfc00215 	stw	ra,8(sp)
  12957c:	80000015 	stw	zero,0(r16)
  129580:	0134b0c0 	call	134b0c <read>
  129584:	00ffffc4 	movi	r3,-1
  129588:	10c00526 	beq	r2,r3,1295a0 <_read_r+0x50>
  12958c:	dfc00217 	ldw	ra,8(sp)
  129590:	dc400117 	ldw	r17,4(sp)
  129594:	dc000017 	ldw	r16,0(sp)
  129598:	dec00304 	addi	sp,sp,12
  12959c:	f800283a 	ret
  1295a0:	80c00017 	ldw	r3,0(r16)
  1295a4:	183ff926 	beq	r3,zero,12958c <_gp+0xfffe5eb4>
  1295a8:	88c00015 	stw	r3,0(r17)
  1295ac:	003ff706 	br	12958c <_gp+0xfffe5eb4>

001295b0 <__fpclassifyd>:
  1295b0:	00a00034 	movhi	r2,32768
  1295b4:	10bfffc4 	addi	r2,r2,-1
  1295b8:	2884703a 	and	r2,r5,r2
  1295bc:	10000726 	beq	r2,zero,1295dc <__fpclassifyd+0x2c>
  1295c0:	00fffc34 	movhi	r3,65520
  1295c4:	019ff834 	movhi	r6,32736
  1295c8:	28c7883a 	add	r3,r5,r3
  1295cc:	31bfffc4 	addi	r6,r6,-1
  1295d0:	30c00536 	bltu	r6,r3,1295e8 <__fpclassifyd+0x38>
  1295d4:	00800104 	movi	r2,4
  1295d8:	f800283a 	ret
  1295dc:	2000021e 	bne	r4,zero,1295e8 <__fpclassifyd+0x38>
  1295e0:	00800084 	movi	r2,2
  1295e4:	f800283a 	ret
  1295e8:	00dffc34 	movhi	r3,32752
  1295ec:	019ff834 	movhi	r6,32736
  1295f0:	28cb883a 	add	r5,r5,r3
  1295f4:	31bfffc4 	addi	r6,r6,-1
  1295f8:	317ff62e 	bgeu	r6,r5,1295d4 <_gp+0xfffe5efc>
  1295fc:	01400434 	movhi	r5,16
  129600:	297fffc4 	addi	r5,r5,-1
  129604:	28800236 	bltu	r5,r2,129610 <__fpclassifyd+0x60>
  129608:	008000c4 	movi	r2,3
  12960c:	f800283a 	ret
  129610:	10c00226 	beq	r2,r3,12961c <__fpclassifyd+0x6c>
  129614:	0005883a 	mov	r2,zero
  129618:	f800283a 	ret
  12961c:	2005003a 	cmpeq	r2,r4,zero
  129620:	f800283a 	ret

00129624 <_sbrk_r>:
  129624:	defffd04 	addi	sp,sp,-12
  129628:	dc000015 	stw	r16,0(sp)
  12962c:	04000534 	movhi	r16,20
  129630:	dc400115 	stw	r17,4(sp)
  129634:	84350e04 	addi	r16,r16,-11208
  129638:	2023883a 	mov	r17,r4
  12963c:	2809883a 	mov	r4,r5
  129640:	dfc00215 	stw	ra,8(sp)
  129644:	80000015 	stw	zero,0(r16)
  129648:	0134c940 	call	134c94 <sbrk>
  12964c:	00ffffc4 	movi	r3,-1
  129650:	10c00526 	beq	r2,r3,129668 <_sbrk_r+0x44>
  129654:	dfc00217 	ldw	ra,8(sp)
  129658:	dc400117 	ldw	r17,4(sp)
  12965c:	dc000017 	ldw	r16,0(sp)
  129660:	dec00304 	addi	sp,sp,12
  129664:	f800283a 	ret
  129668:	80c00017 	ldw	r3,0(r16)
  12966c:	183ff926 	beq	r3,zero,129654 <_gp+0xfffe5f7c>
  129670:	88c00015 	stw	r3,0(r17)
  129674:	003ff706 	br	129654 <_gp+0xfffe5f7c>

00129678 <__sccl>:
  129678:	2a000003 	ldbu	r8,0(r5)
  12967c:	00801784 	movi	r2,94
  129680:	40802a26 	beq	r8,r2,12972c <__sccl+0xb4>
  129684:	29400044 	addi	r5,r5,1
  129688:	000f883a 	mov	r7,zero
  12968c:	0013883a 	mov	r9,zero
  129690:	2007883a 	mov	r3,r4
  129694:	21804004 	addi	r6,r4,256
  129698:	19c00005 	stb	r7,0(r3)
  12969c:	18c00044 	addi	r3,r3,1
  1296a0:	19bffd1e 	bne	r3,r6,129698 <_gp+0xfffe5fc0>
  1296a4:	40001126 	beq	r8,zero,1296ec <__sccl+0x74>
  1296a8:	00800044 	movi	r2,1
  1296ac:	124fc83a 	sub	r7,r2,r9
  1296b0:	02800b44 	movi	r10,45
  1296b4:	02c01744 	movi	r11,93
  1296b8:	2205883a 	add	r2,r4,r8
  1296bc:	11c00005 	stb	r7,0(r2)
  1296c0:	28800044 	addi	r2,r5,1
  1296c4:	28c00003 	ldbu	r3,0(r5)
  1296c8:	1a800a26 	beq	r3,r10,1296f4 <__sccl+0x7c>
  1296cc:	1ac00426 	beq	r3,r11,1296e0 <__sccl+0x68>
  1296d0:	18000426 	beq	r3,zero,1296e4 <__sccl+0x6c>
  1296d4:	1811883a 	mov	r8,r3
  1296d8:	100b883a 	mov	r5,r2
  1296dc:	003ff606 	br	1296b8 <_gp+0xfffe5fe0>
  1296e0:	f800283a 	ret
  1296e4:	2805883a 	mov	r2,r5
  1296e8:	f800283a 	ret
  1296ec:	28bfffc4 	addi	r2,r5,-1
  1296f0:	f800283a 	ret
  1296f4:	12400003 	ldbu	r9,0(r2)
  1296f8:	4ac01126 	beq	r9,r11,129740 <__sccl+0xc8>
  1296fc:	4a001016 	blt	r9,r8,129740 <__sccl+0xc8>
  129700:	41800044 	addi	r6,r8,1
  129704:	29400084 	addi	r5,r5,2
  129708:	2187883a 	add	r3,r4,r6
  12970c:	00000106 	br	129714 <__sccl+0x9c>
  129710:	31800044 	addi	r6,r6,1
  129714:	19c00005 	stb	r7,0(r3)
  129718:	3011883a 	mov	r8,r6
  12971c:	18c00044 	addi	r3,r3,1
  129720:	327ffb16 	blt	r6,r9,129710 <_gp+0xfffe6038>
  129724:	10800084 	addi	r2,r2,2
  129728:	003fe606 	br	1296c4 <_gp+0xfffe5fec>
  12972c:	2a000043 	ldbu	r8,1(r5)
  129730:	01c00044 	movi	r7,1
  129734:	29400084 	addi	r5,r5,2
  129738:	02400044 	movi	r9,1
  12973c:	003fd406 	br	129690 <_gp+0xfffe5fb8>
  129740:	5011883a 	mov	r8,r10
  129744:	003fe406 	br	1296d8 <_gp+0xfffe6000>

00129748 <nanf>:
  129748:	009ff034 	movhi	r2,32704
  12974c:	f800283a 	ret

00129750 <strchr>:
  129750:	2ac03fcc 	andi	r11,r5,255
  129754:	2813883a 	mov	r9,r5
  129758:	208000cc 	andi	r2,r4,3
  12975c:	58003726 	beq	r11,zero,12983c <strchr+0xec>
  129760:	10000b26 	beq	r2,zero,129790 <strchr+0x40>
  129764:	20800003 	ldbu	r2,0(r4)
  129768:	10003226 	beq	r2,zero,129834 <strchr+0xe4>
  12976c:	28c03fcc 	andi	r3,r5,255
  129770:	5880041e 	bne	r11,r2,129784 <strchr+0x34>
  129774:	00004d06 	br	1298ac <strchr+0x15c>
  129778:	20800003 	ldbu	r2,0(r4)
  12977c:	10002d26 	beq	r2,zero,129834 <strchr+0xe4>
  129780:	18804a26 	beq	r3,r2,1298ac <strchr+0x15c>
  129784:	21000044 	addi	r4,r4,1
  129788:	208000cc 	andi	r2,r4,3
  12978c:	103ffa1e 	bne	r2,zero,129778 <_gp+0xfffe60a0>
  129790:	29403fcc 	andi	r5,r5,255
  129794:	2814923a 	slli	r10,r5,8
  129798:	20800017 	ldw	r2,0(r4)
  12979c:	01bfbff4 	movhi	r6,65279
  1297a0:	2a8ab03a 	or	r5,r5,r10
  1297a4:	2814943a 	slli	r10,r5,16
  1297a8:	31bfbfc4 	addi	r6,r6,-257
  1297ac:	119b883a 	add	r13,r2,r6
  1297b0:	5154b03a 	or	r10,r10,r5
  1297b4:	008e303a 	nor	r7,zero,r2
  1297b8:	5084f03a 	xor	r2,r10,r2
  1297bc:	1191883a 	add	r8,r2,r6
  1297c0:	0086303a 	nor	r3,zero,r2
  1297c4:	03202074 	movhi	r12,32897
  1297c8:	69ca703a 	and	r5,r13,r7
  1297cc:	40c4703a 	and	r2,r8,r3
  1297d0:	63202004 	addi	r12,r12,-32640
  1297d4:	2884b03a 	or	r2,r5,r2
  1297d8:	1304703a 	and	r2,r2,r12
  1297dc:	10000c1e 	bne	r2,zero,129810 <strchr+0xc0>
  1297e0:	21000104 	addi	r4,r4,4
  1297e4:	20c00017 	ldw	r3,0(r4)
  1297e8:	50c4f03a 	xor	r2,r10,r3
  1297ec:	1991883a 	add	r8,r3,r6
  1297f0:	00ca303a 	nor	r5,zero,r3
  1297f4:	118f883a 	add	r7,r2,r6
  1297f8:	0086303a 	nor	r3,zero,r2
  1297fc:	414a703a 	and	r5,r8,r5
  129800:	38c4703a 	and	r2,r7,r3
  129804:	2884b03a 	or	r2,r5,r2
  129808:	1304703a 	and	r2,r2,r12
  12980c:	103ff426 	beq	r2,zero,1297e0 <_gp+0xfffe6108>
  129810:	20800003 	ldbu	r2,0(r4)
  129814:	10000726 	beq	r2,zero,129834 <strchr+0xe4>
  129818:	58802426 	beq	r11,r2,1298ac <strchr+0x15c>
  12981c:	48c03fcc 	andi	r3,r9,255
  129820:	00000106 	br	129828 <strchr+0xd8>
  129824:	18802126 	beq	r3,r2,1298ac <strchr+0x15c>
  129828:	21000044 	addi	r4,r4,1
  12982c:	20800003 	ldbu	r2,0(r4)
  129830:	103ffc1e 	bne	r2,zero,129824 <_gp+0xfffe614c>
  129834:	0005883a 	mov	r2,zero
  129838:	f800283a 	ret
  12983c:	10000526 	beq	r2,zero,129854 <strchr+0x104>
  129840:	20800003 	ldbu	r2,0(r4)
  129844:	10001926 	beq	r2,zero,1298ac <strchr+0x15c>
  129848:	21000044 	addi	r4,r4,1
  12984c:	208000cc 	andi	r2,r4,3
  129850:	103ffb1e 	bne	r2,zero,129840 <_gp+0xfffe6168>
  129854:	20800017 	ldw	r2,0(r4)
  129858:	01bfbff4 	movhi	r6,65279
  12985c:	31bfbfc4 	addi	r6,r6,-257
  129860:	0086303a 	nor	r3,zero,r2
  129864:	01602074 	movhi	r5,32897
  129868:	1185883a 	add	r2,r2,r6
  12986c:	29602004 	addi	r5,r5,-32640
  129870:	10c4703a 	and	r2,r2,r3
  129874:	1144703a 	and	r2,r2,r5
  129878:	1000071e 	bne	r2,zero,129898 <strchr+0x148>
  12987c:	21000104 	addi	r4,r4,4
  129880:	20800017 	ldw	r2,0(r4)
  129884:	1187883a 	add	r3,r2,r6
  129888:	0084303a 	nor	r2,zero,r2
  12988c:	1884703a 	and	r2,r3,r2
  129890:	1144703a 	and	r2,r2,r5
  129894:	103ff926 	beq	r2,zero,12987c <_gp+0xfffe61a4>
  129898:	20800003 	ldbu	r2,0(r4)
  12989c:	10000326 	beq	r2,zero,1298ac <strchr+0x15c>
  1298a0:	21000044 	addi	r4,r4,1
  1298a4:	20800003 	ldbu	r2,0(r4)
  1298a8:	103ffd1e 	bne	r2,zero,1298a0 <_gp+0xfffe61c8>
  1298ac:	2005883a 	mov	r2,r4
  1298b0:	f800283a 	ret

001298b4 <strcmp>:
  1298b4:	2144b03a 	or	r2,r4,r5
  1298b8:	108000cc 	andi	r2,r2,3
  1298bc:	1000171e 	bne	r2,zero,12991c <strcmp+0x68>
  1298c0:	20800017 	ldw	r2,0(r4)
  1298c4:	28c00017 	ldw	r3,0(r5)
  1298c8:	10c0141e 	bne	r2,r3,12991c <strcmp+0x68>
  1298cc:	027fbff4 	movhi	r9,65279
  1298d0:	4a7fbfc4 	addi	r9,r9,-257
  1298d4:	0086303a 	nor	r3,zero,r2
  1298d8:	02202074 	movhi	r8,32897
  1298dc:	1245883a 	add	r2,r2,r9
  1298e0:	42202004 	addi	r8,r8,-32640
  1298e4:	10c4703a 	and	r2,r2,r3
  1298e8:	1204703a 	and	r2,r2,r8
  1298ec:	10000226 	beq	r2,zero,1298f8 <strcmp+0x44>
  1298f0:	00002306 	br	129980 <strcmp+0xcc>
  1298f4:	1000221e 	bne	r2,zero,129980 <strcmp+0xcc>
  1298f8:	21000104 	addi	r4,r4,4
  1298fc:	20c00017 	ldw	r3,0(r4)
  129900:	29400104 	addi	r5,r5,4
  129904:	29800017 	ldw	r6,0(r5)
  129908:	1a4f883a 	add	r7,r3,r9
  12990c:	00c4303a 	nor	r2,zero,r3
  129910:	3884703a 	and	r2,r7,r2
  129914:	1204703a 	and	r2,r2,r8
  129918:	19bff626 	beq	r3,r6,1298f4 <_gp+0xfffe621c>
  12991c:	20800003 	ldbu	r2,0(r4)
  129920:	10c03fcc 	andi	r3,r2,255
  129924:	18c0201c 	xori	r3,r3,128
  129928:	18ffe004 	addi	r3,r3,-128
  12992c:	18000c26 	beq	r3,zero,129960 <strcmp+0xac>
  129930:	29800007 	ldb	r6,0(r5)
  129934:	19800326 	beq	r3,r6,129944 <strcmp+0x90>
  129938:	00001306 	br	129988 <strcmp+0xd4>
  12993c:	29800007 	ldb	r6,0(r5)
  129940:	11800b1e 	bne	r2,r6,129970 <strcmp+0xbc>
  129944:	21000044 	addi	r4,r4,1
  129948:	20c00003 	ldbu	r3,0(r4)
  12994c:	29400044 	addi	r5,r5,1
  129950:	18803fcc 	andi	r2,r3,255
  129954:	1080201c 	xori	r2,r2,128
  129958:	10bfe004 	addi	r2,r2,-128
  12995c:	103ff71e 	bne	r2,zero,12993c <_gp+0xfffe6264>
  129960:	0007883a 	mov	r3,zero
  129964:	28800003 	ldbu	r2,0(r5)
  129968:	1885c83a 	sub	r2,r3,r2
  12996c:	f800283a 	ret
  129970:	28800003 	ldbu	r2,0(r5)
  129974:	18c03fcc 	andi	r3,r3,255
  129978:	1885c83a 	sub	r2,r3,r2
  12997c:	f800283a 	ret
  129980:	0005883a 	mov	r2,zero
  129984:	f800283a 	ret
  129988:	10c03fcc 	andi	r3,r2,255
  12998c:	003ff506 	br	129964 <_gp+0xfffe628c>

00129990 <sulp>:
  129990:	defffd04 	addi	sp,sp,-12
  129994:	dc400115 	stw	r17,4(sp)
  129998:	3023883a 	mov	r17,r6
  12999c:	dc000015 	stw	r16,0(sp)
  1299a0:	dfc00215 	stw	ra,8(sp)
  1299a4:	2821883a 	mov	r16,r5
  1299a8:	01290780 	call	129078 <__ulp>
  1299ac:	88000c26 	beq	r17,zero,1299e0 <sulp+0x50>
  1299b0:	841ffc2c 	andhi	r16,r16,32752
  1299b4:	8020d53a 	srli	r16,r16,20
  1299b8:	01c01ac4 	movi	r7,107
  1299bc:	3c21c83a 	sub	r16,r7,r16
  1299c0:	0400070e 	bge	zero,r16,1299e0 <sulp+0x50>
  1299c4:	8020953a 	slli	r16,r16,20
  1299c8:	01cffc34 	movhi	r7,16368
  1299cc:	000d883a 	mov	r6,zero
  1299d0:	81cf883a 	add	r7,r16,r7
  1299d4:	1009883a 	mov	r4,r2
  1299d8:	180b883a 	mov	r5,r3
  1299dc:	0132d100 	call	132d10 <__muldf3>
  1299e0:	dfc00217 	ldw	ra,8(sp)
  1299e4:	dc400117 	ldw	r17,4(sp)
  1299e8:	dc000017 	ldw	r16,0(sp)
  1299ec:	dec00304 	addi	sp,sp,12
  1299f0:	f800283a 	ret

001299f4 <_strtod_r>:
  1299f4:	deffe204 	addi	sp,sp,-120
  1299f8:	ddc01b15 	stw	r23,108(sp)
  1299fc:	dd801a15 	stw	r22,104(sp)
  129a00:	dc401515 	stw	r17,84(sp)
  129a04:	dfc01d15 	stw	ra,116(sp)
  129a08:	df001c15 	stw	fp,112(sp)
  129a0c:	dd401915 	stw	r21,100(sp)
  129a10:	dd001815 	stw	r20,96(sp)
  129a14:	dcc01715 	stw	r19,92(sp)
  129a18:	dc801615 	stw	r18,88(sp)
  129a1c:	dc001415 	stw	r16,80(sp)
  129a20:	d8000515 	stw	zero,20(sp)
  129a24:	d9400615 	stw	r5,24(sp)
  129a28:	2807883a 	mov	r3,r5
  129a2c:	1f000003 	ldbu	fp,0(r3)
  129a30:	01c004f4 	movhi	r7,19
  129a34:	2023883a 	mov	r17,r4
  129a38:	d9400715 	stw	r5,28(sp)
  129a3c:	d9800915 	stw	r6,36(sp)
  129a40:	01000b44 	movi	r4,45
  129a44:	e0803fcc 	andi	r2,fp,255
  129a48:	39e69a04 	addi	r7,r7,-26008
  129a4c:	002f883a 	mov	r23,zero
  129a50:	002d883a 	mov	r22,zero
  129a54:	20809c36 	bltu	r4,r2,129cc8 <_strtod_r+0x2d4>
  129a58:	100490ba 	slli	r2,r2,2
  129a5c:	11c5883a 	add	r2,r2,r7
  129a60:	10800017 	ldw	r2,0(r2)
  129a64:	1000683a 	jmp	r2
  129a68:	00129b28 	cmpgeui	zero,zero,19052
  129a6c:	00129cc8 	cmpgei	zero,zero,19059
  129a70:	00129cc8 	cmpgei	zero,zero,19059
  129a74:	00129cc8 	cmpgei	zero,zero,19059
  129a78:	00129cc8 	cmpgei	zero,zero,19059
  129a7c:	00129cc8 	cmpgei	zero,zero,19059
  129a80:	00129cc8 	cmpgei	zero,zero,19059
  129a84:	00129cc8 	cmpgei	zero,zero,19059
  129a88:	00129cc8 	cmpgei	zero,zero,19059
  129a8c:	00129cb4 	movhi	zero,19058
  129a90:	00129cb4 	movhi	zero,19058
  129a94:	00129cb4 	movhi	zero,19058
  129a98:	00129cb4 	movhi	zero,19058
  129a9c:	00129cb4 	movhi	zero,19058
  129aa0:	00129cc8 	cmpgei	zero,zero,19059
  129aa4:	00129cc8 	cmpgei	zero,zero,19059
  129aa8:	00129cc8 	cmpgei	zero,zero,19059
  129aac:	00129cc8 	cmpgei	zero,zero,19059
  129ab0:	00129cc8 	cmpgei	zero,zero,19059
  129ab4:	00129cc8 	cmpgei	zero,zero,19059
  129ab8:	00129cc8 	cmpgei	zero,zero,19059
  129abc:	00129cc8 	cmpgei	zero,zero,19059
  129ac0:	00129cc8 	cmpgei	zero,zero,19059
  129ac4:	00129cc8 	cmpgei	zero,zero,19059
  129ac8:	00129cc8 	cmpgei	zero,zero,19059
  129acc:	00129cc8 	cmpgei	zero,zero,19059
  129ad0:	00129cc8 	cmpgei	zero,zero,19059
  129ad4:	00129cc8 	cmpgei	zero,zero,19059
  129ad8:	00129cc8 	cmpgei	zero,zero,19059
  129adc:	00129cc8 	cmpgei	zero,zero,19059
  129ae0:	00129cc8 	cmpgei	zero,zero,19059
  129ae4:	00129cc8 	cmpgei	zero,zero,19059
  129ae8:	00129cb4 	movhi	zero,19058
  129aec:	00129cc8 	cmpgei	zero,zero,19059
  129af0:	00129cc8 	cmpgei	zero,zero,19059
  129af4:	00129cc8 	cmpgei	zero,zero,19059
  129af8:	00129cc8 	cmpgei	zero,zero,19059
  129afc:	00129cc8 	cmpgei	zero,zero,19059
  129b00:	00129cc8 	cmpgei	zero,zero,19059
  129b04:	00129cc8 	cmpgei	zero,zero,19059
  129b08:	00129cc8 	cmpgei	zero,zero,19059
  129b0c:	00129cc8 	cmpgei	zero,zero,19059
  129b10:	00129cc8 	cmpgei	zero,zero,19059
  129b14:	00129b8c 	andi	zero,zero,19054
  129b18:	00129cc8 	cmpgei	zero,zero,19059
  129b1c:	00129ca8 	cmpgeui	zero,zero,19058
  129b20:	00801244 	movi	r2,73
  129b24:	b8844726 	beq	r23,r2,12ac44 <_strtod_r+0x1250>
  129b28:	d9000917 	ldw	r4,36(sp)
  129b2c:	d8000815 	stw	zero,32(sp)
  129b30:	0039883a 	mov	fp,zero
  129b34:	20000726 	beq	r4,zero,129b54 <_strtod_r+0x160>
  129b38:	dc800717 	ldw	r18,28(sp)
  129b3c:	d8000a15 	stw	zero,40(sp)
  129b40:	d9400917 	ldw	r5,36(sp)
  129b44:	2c800015 	stw	r18,0(r5)
  129b48:	d8800a17 	ldw	r2,40(sp)
  129b4c:	10000126 	beq	r2,zero,129b54 <_strtod_r+0x160>
  129b50:	e720003c 	xorhi	fp,fp,32768
  129b54:	d8800817 	ldw	r2,32(sp)
  129b58:	e007883a 	mov	r3,fp
  129b5c:	dfc01d17 	ldw	ra,116(sp)
  129b60:	df001c17 	ldw	fp,112(sp)
  129b64:	ddc01b17 	ldw	r23,108(sp)
  129b68:	dd801a17 	ldw	r22,104(sp)
  129b6c:	dd401917 	ldw	r21,100(sp)
  129b70:	dd001817 	ldw	r20,96(sp)
  129b74:	dcc01717 	ldw	r19,92(sp)
  129b78:	dc801617 	ldw	r18,88(sp)
  129b7c:	dc401517 	ldw	r17,84(sp)
  129b80:	dc001417 	ldw	r16,80(sp)
  129b84:	dec01e04 	addi	sp,sp,120
  129b88:	f800283a 	ret
  129b8c:	d8000a15 	stw	zero,40(sp)
  129b90:	1c000044 	addi	r16,r3,1
  129b94:	dc000615 	stw	r16,24(sp)
  129b98:	1f000043 	ldbu	fp,1(r3)
  129b9c:	e0803fcc 	andi	r2,fp,255
  129ba0:	1080201c 	xori	r2,r2,128
  129ba4:	10bfe004 	addi	r2,r2,-128
  129ba8:	103fdf26 	beq	r2,zero,129b28 <_gp+0xfffe6450>
  129bac:	e1003fcc 	andi	r4,fp,255
  129bb0:	2100201c 	xori	r4,r4,128
  129bb4:	213fe004 	addi	r4,r4,-128
  129bb8:	00800c04 	movi	r2,48
  129bbc:	2080d426 	beq	r4,r2,129f10 <_strtod_r+0x51c>
  129bc0:	dc000815 	stw	r16,32(sp)
  129bc4:	d8000c15 	stw	zero,48(sp)
  129bc8:	e0bff404 	addi	r2,fp,-48
  129bcc:	10803fcc 	andi	r2,r2,255
  129bd0:	05400244 	movi	r21,9
  129bd4:	a8837836 	bltu	r21,r2,12a9b8 <_strtod_r+0xfc4>
  129bd8:	dc800817 	ldw	r18,32(sp)
  129bdc:	0029883a 	mov	r20,zero
  129be0:	0027883a 	mov	r19,zero
  129be4:	0021883a 	mov	r16,zero
  129be8:	05800204 	movi	r22,8
  129bec:	b4003916 	blt	r22,r16,129cd4 <_strtod_r+0x2e0>
  129bf0:	e7003fcc 	andi	fp,fp,255
  129bf4:	9809883a 	mov	r4,r19
  129bf8:	01400284 	movi	r5,10
  129bfc:	e700201c 	xori	fp,fp,128
  129c00:	01213680 	call	121368 <__mulsi3>
  129c04:	e73fe004 	addi	fp,fp,-128
  129c08:	1705883a 	add	r2,r2,fp
  129c0c:	14fff404 	addi	r19,r2,-48
  129c10:	94800044 	addi	r18,r18,1
  129c14:	dc800615 	stw	r18,24(sp)
  129c18:	97000003 	ldbu	fp,0(r18)
  129c1c:	84000044 	addi	r16,r16,1
  129c20:	e0bff404 	addi	r2,fp,-48
  129c24:	10803fcc 	andi	r2,r2,255
  129c28:	a8bff02e 	bgeu	r21,r2,129bec <_gp+0xfffe6514>
  129c2c:	e5c03fcc 	andi	r23,fp,255
  129c30:	bdc0201c 	xori	r23,r23,128
  129c34:	bdffe004 	addi	r23,r23,-128
  129c38:	8809883a 	mov	r4,r17
  129c3c:	01278780 	call	127878 <_localeconv_r>
  129c40:	8809883a 	mov	r4,r17
  129c44:	15400017 	ldw	r21,0(r2)
  129c48:	01278780 	call	127878 <_localeconv_r>
  129c4c:	11000017 	ldw	r4,0(r2)
  129c50:	01218f40 	call	1218f4 <strlen>
  129c54:	100d883a 	mov	r6,r2
  129c58:	a80b883a 	mov	r5,r21
  129c5c:	9009883a 	mov	r4,r18
  129c60:	013072c0 	call	13072c <strncmp>
  129c64:	1000bd26 	beq	r2,zero,129f5c <_strtod_r+0x568>
  129c68:	8039883a 	mov	fp,r16
  129c6c:	002d883a 	mov	r22,zero
  129c70:	d8000b15 	stw	zero,44(sp)
  129c74:	0025883a 	mov	r18,zero
  129c78:	00801944 	movi	r2,101
  129c7c:	b8806026 	beq	r23,r2,129e00 <_strtod_r+0x40c>
  129c80:	00801144 	movi	r2,69
  129c84:	b8805e26 	beq	r23,r2,129e00 <_strtod_r+0x40c>
  129c88:	0009883a 	mov	r4,zero
  129c8c:	e0001a1e 	bne	fp,zero,129cf8 <_strtod_r+0x304>
  129c90:	b000cd26 	beq	r22,zero,129fc8 <_strtod_r+0x5d4>
  129c94:	d8000815 	stw	zero,32(sp)
  129c98:	d9000917 	ldw	r4,36(sp)
  129c9c:	203faa26 	beq	r4,zero,129b48 <_gp+0xfffe6470>
  129ca0:	dc800617 	ldw	r18,24(sp)
  129ca4:	003fa606 	br	129b40 <_gp+0xfffe6468>
  129ca8:	00800044 	movi	r2,1
  129cac:	d8800a15 	stw	r2,40(sp)
  129cb0:	003fb706 	br	129b90 <_gp+0xfffe64b8>
  129cb4:	18c00044 	addi	r3,r3,1
  129cb8:	d8c00615 	stw	r3,24(sp)
  129cbc:	1f000003 	ldbu	fp,0(r3)
  129cc0:	e0803fcc 	andi	r2,fp,255
  129cc4:	20bf642e 	bgeu	r4,r2,129a58 <_gp+0xfffe6380>
  129cc8:	1821883a 	mov	r16,r3
  129ccc:	d8000a15 	stw	zero,40(sp)
  129cd0:	003fb606 	br	129bac <_gp+0xfffe64d4>
  129cd4:	e7003fcc 	andi	fp,fp,255
  129cd8:	a009883a 	mov	r4,r20
  129cdc:	01400284 	movi	r5,10
  129ce0:	e700201c 	xori	fp,fp,128
  129ce4:	01213680 	call	121368 <__mulsi3>
  129ce8:	e73fe004 	addi	fp,fp,-128
  129cec:	1705883a 	add	r2,r2,fp
  129cf0:	153ff404 	addi	r20,r2,-48
  129cf4:	003fc606 	br	129c10 <_gp+0xfffe6538>
  129cf8:	d8c00b17 	ldw	r3,44(sp)
  129cfc:	20ebc83a 	sub	r21,r4,r3
  129d00:	8000011e 	bne	r16,zero,129d08 <_strtod_r+0x314>
  129d04:	e021883a 	mov	r16,fp
  129d08:	00800404 	movi	r2,16
  129d0c:	e025883a 	mov	r18,fp
  129d10:	1700010e 	bge	r2,fp,129d18 <_strtod_r+0x324>
  129d14:	1025883a 	mov	r18,r2
  129d18:	9809883a 	mov	r4,r19
  129d1c:	0133fd40 	call	133fd4 <__floatunsidf>
  129d20:	102f883a 	mov	r23,r2
  129d24:	00800244 	movi	r2,9
  129d28:	182d883a 	mov	r22,r3
  129d2c:	1480150e 	bge	r2,r18,129d84 <_strtod_r+0x390>
  129d30:	90bffdc4 	addi	r2,r18,-9
  129d34:	100490fa 	slli	r2,r2,3
  129d38:	180b883a 	mov	r5,r3
  129d3c:	00c00534 	movhi	r3,20
  129d40:	18e59a04 	addi	r3,r3,-27032
  129d44:	1885883a 	add	r2,r3,r2
  129d48:	11800017 	ldw	r6,0(r2)
  129d4c:	11c00117 	ldw	r7,4(r2)
  129d50:	b809883a 	mov	r4,r23
  129d54:	0132d100 	call	132d10 <__muldf3>
  129d58:	a009883a 	mov	r4,r20
  129d5c:	102f883a 	mov	r23,r2
  129d60:	182d883a 	mov	r22,r3
  129d64:	0133fd40 	call	133fd4 <__floatunsidf>
  129d68:	b809883a 	mov	r4,r23
  129d6c:	b00b883a 	mov	r5,r22
  129d70:	100d883a 	mov	r6,r2
  129d74:	180f883a 	mov	r7,r3
  129d78:	013183c0 	call	13183c <__adddf3>
  129d7c:	102f883a 	mov	r23,r2
  129d80:	182d883a 	mov	r22,r3
  129d84:	008003c4 	movi	r2,15
  129d88:	17009416 	blt	r2,fp,129fdc <_strtod_r+0x5e8>
  129d8c:	a8001926 	beq	r21,zero,129df4 <_strtod_r+0x400>
  129d90:	05439c0e 	bge	zero,r21,12ac04 <_strtod_r+0x1210>
  129d94:	00c00584 	movi	r3,22
  129d98:	1d430f16 	blt	r3,r21,12a9d8 <_strtod_r+0xfe4>
  129d9c:	a82a90fa 	slli	r21,r21,3
  129da0:	00800534 	movhi	r2,20
  129da4:	10a59a04 	addi	r2,r2,-27032
  129da8:	1545883a 	add	r2,r2,r21
  129dac:	11000017 	ldw	r4,0(r2)
  129db0:	11400117 	ldw	r5,4(r2)
  129db4:	b80d883a 	mov	r6,r23
  129db8:	b00f883a 	mov	r7,r22
  129dbc:	0132d100 	call	132d10 <__muldf3>
  129dc0:	d8800815 	stw	r2,32(sp)
  129dc4:	1839883a 	mov	fp,r3
  129dc8:	003fb306 	br	129c98 <_gp+0xfffe65c0>
  129dcc:	01400534 	movhi	r5,20
  129dd0:	2965d004 	addi	r5,r5,-26816
  129dd4:	d9800204 	addi	r6,sp,8
  129dd8:	d9000604 	addi	r4,sp,24
  129ddc:	012fe100 	call	12fe10 <__hexnan>
  129de0:	00c00144 	movi	r3,5
  129de4:	10c2161e 	bne	r2,r3,12a640 <_strtod_r+0xc4c>
  129de8:	dd800317 	ldw	r22,12(sp)
  129dec:	ddc00217 	ldw	r23,8(sp)
  129df0:	b59ffc34 	orhi	r22,r22,32752
  129df4:	ddc00815 	stw	r23,32(sp)
  129df8:	b039883a 	mov	fp,r22
  129dfc:	003fa606 	br	129c98 <_gp+0xfffe65c0>
  129e00:	e001a926 	beq	fp,zero,12a4a8 <_strtod_r+0xab4>
  129e04:	d8c00617 	ldw	r3,24(sp)
  129e08:	18800044 	addi	r2,r3,1
  129e0c:	d8800615 	stw	r2,24(sp)
  129e10:	d8c00715 	stw	r3,28(sp)
  129e14:	18c00047 	ldb	r3,1(r3)
  129e18:	00800ac4 	movi	r2,43
  129e1c:	1881e526 	beq	r3,r2,12a5b4 <_strtod_r+0xbc0>
  129e20:	00800b44 	movi	r2,45
  129e24:	1881dc26 	beq	r3,r2,12a598 <_strtod_r+0xba4>
  129e28:	182f883a 	mov	r23,r3
  129e2c:	d8000e15 	stw	zero,56(sp)
  129e30:	b8bff404 	addi	r2,r23,-48
  129e34:	01000244 	movi	r4,9
  129e38:	2081ab36 	bltu	r4,r2,12a4e8 <_strtod_r+0xaf4>
  129e3c:	00800c04 	movi	r2,48
  129e40:	b880071e 	bne	r23,r2,129e60 <_strtod_r+0x46c>
  129e44:	d8800617 	ldw	r2,24(sp)
  129e48:	b809883a 	mov	r4,r23
  129e4c:	10800044 	addi	r2,r2,1
  129e50:	d8800615 	stw	r2,24(sp)
  129e54:	15c00007 	ldb	r23,0(r2)
  129e58:	10800044 	addi	r2,r2,1
  129e5c:	b93ffc26 	beq	r23,r4,129e50 <_gp+0xfffe6778>
  129e60:	b8bff3c4 	addi	r2,r23,-49
  129e64:	01000204 	movi	r4,8
  129e68:	20bf8736 	bltu	r4,r2,129c88 <_gp+0xfffe65b0>
  129e6c:	d8c00617 	ldw	r3,24(sp)
  129e70:	b93ff404 	addi	r4,r23,-48
  129e74:	01400244 	movi	r5,9
  129e78:	1ac00044 	addi	r11,r3,1
  129e7c:	dac00615 	stw	r11,24(sp)
  129e80:	d8c00d15 	stw	r3,52(sp)
  129e84:	18c00043 	ldbu	r3,1(r3)
  129e88:	18bff404 	addi	r2,r3,-48
  129e8c:	1dc03fcc 	andi	r23,r3,255
  129e90:	bdc0201c 	xori	r23,r23,128
  129e94:	10803fcc 	andi	r2,r2,255
  129e98:	bdffe004 	addi	r23,r23,-128
  129e9c:	28801136 	bltu	r5,r2,129ee4 <_strtod_r+0x4f0>
  129ea0:	d8c00d17 	ldw	r3,52(sp)
  129ea4:	1d400084 	addi	r21,r3,2
  129ea8:	01400284 	movi	r5,10
  129eac:	01213680 	call	121368 <__mulsi3>
  129eb0:	dd400615 	stw	r21,24(sp)
  129eb4:	a9400003 	ldbu	r5,0(r21)
  129eb8:	15c5883a 	add	r2,r2,r23
  129ebc:	a817883a 	mov	r11,r21
  129ec0:	28fff404 	addi	r3,r5,-48
  129ec4:	2dc03fcc 	andi	r23,r5,255
  129ec8:	bdc0201c 	xori	r23,r23,128
  129ecc:	18c03fcc 	andi	r3,r3,255
  129ed0:	01400244 	movi	r5,9
  129ed4:	113ff404 	addi	r4,r2,-48
  129ed8:	bdffe004 	addi	r23,r23,-128
  129edc:	ad400044 	addi	r21,r21,1
  129ee0:	28fff12e 	bgeu	r5,r3,129ea8 <_gp+0xfffe67d0>
  129ee4:	d8c00d17 	ldw	r3,52(sp)
  129ee8:	00800204 	movi	r2,8
  129eec:	58d7c83a 	sub	r11,r11,r3
  129ef0:	12c2ab16 	blt	r2,r11,12a9a0 <_strtod_r+0xfac>
  129ef4:	009387c4 	movi	r2,19999
  129ef8:	1100010e 	bge	r2,r4,129f00 <_strtod_r+0x50c>
  129efc:	1009883a 	mov	r4,r2
  129f00:	d8c00e17 	ldw	r3,56(sp)
  129f04:	183f6126 	beq	r3,zero,129c8c <_gp+0xfffe65b4>
  129f08:	0109c83a 	sub	r4,zero,r4
  129f0c:	003f5f06 	br	129c8c <_gp+0xfffe65b4>
  129f10:	80800047 	ldb	r2,1(r16)
  129f14:	00c01604 	movi	r3,88
  129f18:	10c20026 	beq	r2,r3,12a71c <_strtod_r+0xd28>
  129f1c:	00c01e04 	movi	r3,120
  129f20:	10c1fe26 	beq	r2,r3,12a71c <_strtod_r+0xd28>
  129f24:	80800044 	addi	r2,r16,1
  129f28:	1021883a 	mov	r16,r2
  129f2c:	d8800615 	stw	r2,24(sp)
  129f30:	10800044 	addi	r2,r2,1
  129f34:	173fffc3 	ldbu	fp,-1(r2)
  129f38:	e0c03fcc 	andi	r3,fp,255
  129f3c:	18c0201c 	xori	r3,r3,128
  129f40:	18ffe004 	addi	r3,r3,-128
  129f44:	193ff826 	beq	r3,r4,129f28 <_gp+0xfffe6850>
  129f48:	18002126 	beq	r3,zero,129fd0 <_strtod_r+0x5dc>
  129f4c:	00c00044 	movi	r3,1
  129f50:	dc000815 	stw	r16,32(sp)
  129f54:	d8c00c15 	stw	r3,48(sp)
  129f58:	003f1b06 	br	129bc8 <_gp+0xfffe64f0>
  129f5c:	8809883a 	mov	r4,r17
  129f60:	01278780 	call	127878 <_localeconv_r>
  129f64:	11000017 	ldw	r4,0(r2)
  129f68:	01218f40 	call	1218f4 <strlen>
  129f6c:	d8c00617 	ldw	r3,24(sp)
  129f70:	1885883a 	add	r2,r3,r2
  129f74:	d8800615 	stw	r2,24(sp)
  129f78:	15c00007 	ldb	r23,0(r2)
  129f7c:	8001771e 	bne	r16,zero,12a55c <_strtod_r+0xb68>
  129f80:	01000c04 	movi	r4,48
  129f84:	b903581e 	bne	r23,r4,12ace8 <_strtod_r+0x12f4>
  129f88:	11000044 	addi	r4,r2,1
  129f8c:	b80b883a 	mov	r5,r23
  129f90:	d9000615 	stw	r4,24(sp)
  129f94:	25c00007 	ldb	r23,0(r4)
  129f98:	20adc83a 	sub	r22,r4,r2
  129f9c:	21000044 	addi	r4,r4,1
  129fa0:	b97ffb26 	beq	r23,r5,129f90 <_gp+0xfffe68b8>
  129fa4:	b8bff3c4 	addi	r2,r23,-49
  129fa8:	01000204 	movi	r4,8
  129fac:	2083002e 	bgeu	r4,r2,12abb0 <_strtod_r+0x11bc>
  129fb0:	00801944 	movi	r2,101
  129fb4:	b8813a26 	beq	r23,r2,12a4a0 <_strtod_r+0xaac>
  129fb8:	0039883a 	mov	fp,zero
  129fbc:	d8000b15 	stw	zero,44(sp)
  129fc0:	04800044 	movi	r18,1
  129fc4:	003f2e06 	br	129c80 <_gp+0xfffe65a8>
  129fc8:	d8c00c17 	ldw	r3,48(sp)
  129fcc:	18017d26 	beq	r3,zero,12a5c4 <_strtod_r+0xbd0>
  129fd0:	d8000815 	stw	zero,32(sp)
  129fd4:	0039883a 	mov	fp,zero
  129fd8:	003f2f06 	br	129c98 <_gp+0xfffe65c0>
  129fdc:	e4a5c83a 	sub	r18,fp,r18
  129fe0:	9565883a 	add	r18,r18,r21
  129fe4:	0482370e 	bge	zero,r18,12a8c4 <_strtod_r+0xed0>
  129fe8:	908003cc 	andi	r2,r18,15
  129fec:	10000b26 	beq	r2,zero,12a01c <_strtod_r+0x628>
  129ff0:	100490fa 	slli	r2,r2,3
  129ff4:	00c00534 	movhi	r3,20
  129ff8:	18e59a04 	addi	r3,r3,-27032
  129ffc:	1885883a 	add	r2,r3,r2
  12a000:	11000017 	ldw	r4,0(r2)
  12a004:	11400117 	ldw	r5,4(r2)
  12a008:	b80d883a 	mov	r6,r23
  12a00c:	b00f883a 	mov	r7,r22
  12a010:	0132d100 	call	132d10 <__muldf3>
  12a014:	102f883a 	mov	r23,r2
  12a018:	182d883a 	mov	r22,r3
  12a01c:	053ffc04 	movi	r20,-16
  12a020:	9524703a 	and	r18,r18,r20
  12a024:	90003826 	beq	r18,zero,12a108 <_strtod_r+0x714>
  12a028:	00804d04 	movi	r2,308
  12a02c:	1481eb16 	blt	r2,r18,12a7dc <_strtod_r+0xde8>
  12a030:	9029d13a 	srai	r20,r18,4
  12a034:	02c00044 	movi	r11,1
  12a038:	5d03900e 	bge	r11,r20,12ae7c <_strtod_r+0x1488>
  12a03c:	01000534 	movhi	r4,20
  12a040:	21259004 	addi	r4,r4,-27072
  12a044:	2011883a 	mov	r8,r4
  12a048:	0025883a 	mov	r18,zero
  12a04c:	880b883a 	mov	r5,r17
  12a050:	d9000715 	stw	r4,28(sp)
  12a054:	dc000b15 	stw	r16,44(sp)
  12a058:	9023883a 	mov	r17,r18
  12a05c:	b805883a 	mov	r2,r23
  12a060:	b007883a 	mov	r3,r22
  12a064:	0009883a 	mov	r4,zero
  12a068:	4021883a 	mov	r16,r8
  12a06c:	2825883a 	mov	r18,r5
  12a070:	a180004c 	andi	r6,r20,1
  12a074:	30000826 	beq	r6,zero,12a098 <_strtod_r+0x6a4>
  12a078:	81800017 	ldw	r6,0(r16)
  12a07c:	81c00117 	ldw	r7,4(r16)
  12a080:	1009883a 	mov	r4,r2
  12a084:	180b883a 	mov	r5,r3
  12a088:	dac01315 	stw	r11,76(sp)
  12a08c:	0132d100 	call	132d10 <__muldf3>
  12a090:	dac01317 	ldw	r11,76(sp)
  12a094:	01000044 	movi	r4,1
  12a098:	a029d07a 	srai	r20,r20,1
  12a09c:	8c400044 	addi	r17,r17,1
  12a0a0:	84000204 	addi	r16,r16,8
  12a0a4:	a2fff21e 	bne	r20,r11,12a070 <_gp+0xfffe6998>
  12a0a8:	900b883a 	mov	r5,r18
  12a0ac:	21003fcc 	andi	r4,r4,255
  12a0b0:	8825883a 	mov	r18,r17
  12a0b4:	dc000b17 	ldw	r16,44(sp)
  12a0b8:	2823883a 	mov	r17,r5
  12a0bc:	2003c01e 	bne	r4,zero,12afc0 <_strtod_r+0x15cc>
  12a0c0:	901490fa 	slli	r10,r18,3
  12a0c4:	d8800717 	ldw	r2,28(sp)
  12a0c8:	01ff2c34 	movhi	r7,64688
  12a0cc:	b80d883a 	mov	r6,r23
  12a0d0:	12a5883a 	add	r18,r2,r10
  12a0d4:	91000017 	ldw	r4,0(r18)
  12a0d8:	91400117 	ldw	r5,4(r18)
  12a0dc:	b1cf883a 	add	r7,r22,r7
  12a0e0:	0132d100 	call	132d10 <__muldf3>
  12a0e4:	102f883a 	mov	r23,r2
  12a0e8:	011f2834 	movhi	r4,31904
  12a0ec:	189ffc2c 	andhi	r2,r3,32752
  12a0f0:	2081ba36 	bltu	r4,r2,12a7dc <_strtod_r+0xde8>
  12a0f4:	011f2434 	movhi	r4,31888
  12a0f8:	20834a2e 	bgeu	r4,r2,12ae24 <_strtod_r+0x1430>
  12a0fc:	059ffc34 	movhi	r22,32752
  12a100:	b5bfffc4 	addi	r22,r22,-1
  12a104:	05ffffc4 	movi	r23,-1
  12a108:	d8000715 	stw	zero,28(sp)
  12a10c:	d9400817 	ldw	r5,32(sp)
  12a110:	dcc00015 	stw	r19,0(sp)
  12a114:	e00f883a 	mov	r7,fp
  12a118:	800d883a 	mov	r6,r16
  12a11c:	8809883a 	mov	r4,r17
  12a120:	01286b00 	call	1286b0 <__s2b>
  12a124:	d8800b15 	stw	r2,44(sp)
  12a128:	1001ac26 	beq	r2,zero,12a7dc <_strtod_r+0xde8>
  12a12c:	a807d7fa 	srai	r3,r21,31
  12a130:	0545c83a 	sub	r2,zero,r21
  12a134:	dd400c15 	stw	r21,48(sp)
  12a138:	1886703a 	and	r3,r3,r2
  12a13c:	d8c00e15 	stw	r3,56(sp)
  12a140:	a8015916 	blt	r21,zero,12a6a8 <_strtod_r+0xcb4>
  12a144:	d9400b17 	ldw	r5,44(sp)
  12a148:	0011883a 	mov	r8,zero
  12a14c:	0021883a 	mov	r16,zero
  12a150:	29400304 	addi	r5,r5,12
  12a154:	d9401115 	stw	r5,68(sp)
  12a158:	4025883a 	mov	r18,r8
  12a15c:	d8800b17 	ldw	r2,44(sp)
  12a160:	8809883a 	mov	r4,r17
  12a164:	11400117 	ldw	r5,4(r2)
  12a168:	01284980 	call	128498 <_Balloc>
  12a16c:	1027883a 	mov	r19,r2
  12a170:	10015226 	beq	r2,zero,12a6bc <_strtod_r+0xcc8>
  12a174:	d8c00b17 	ldw	r3,44(sp)
  12a178:	d9401117 	ldw	r5,68(sp)
  12a17c:	11000304 	addi	r4,r2,12
  12a180:	19800417 	ldw	r6,16(r3)
  12a184:	31800084 	addi	r6,r6,2
  12a188:	318d883a 	add	r6,r6,r6
  12a18c:	318d883a 	add	r6,r6,r6
  12a190:	01213900 	call	121390 <memcpy>
  12a194:	d9000204 	addi	r4,sp,8
  12a198:	d9000015 	stw	r4,0(sp)
  12a19c:	d9c00404 	addi	r7,sp,16
  12a1a0:	b80b883a 	mov	r5,r23
  12a1a4:	b00d883a 	mov	r6,r22
  12a1a8:	8809883a 	mov	r4,r17
  12a1ac:	01291e80 	call	1291e8 <__d2b>
  12a1b0:	d8800515 	stw	r2,20(sp)
  12a1b4:	ddc00815 	stw	r23,32(sp)
  12a1b8:	dd801215 	stw	r22,72(sp)
  12a1bc:	10029f26 	beq	r2,zero,12ac3c <_strtod_r+0x1248>
  12a1c0:	01400044 	movi	r5,1
  12a1c4:	8809883a 	mov	r4,r17
  12a1c8:	01288cc0 	call	1288cc <__i2b>
  12a1cc:	1021883a 	mov	r16,r2
  12a1d0:	10013a26 	beq	r2,zero,12a6bc <_strtod_r+0xcc8>
  12a1d4:	d8800417 	ldw	r2,16(sp)
  12a1d8:	1000b816 	blt	r2,zero,12a4bc <_strtod_r+0xac8>
  12a1dc:	d9400e17 	ldw	r5,56(sp)
  12a1e0:	d9000c17 	ldw	r4,48(sp)
  12a1e4:	28a9883a 	add	r20,r5,r2
  12a1e8:	d9400717 	ldw	r5,28(sp)
  12a1ec:	dd400217 	ldw	r21,8(sp)
  12a1f0:	073f0084 	movi	fp,-1022
  12a1f4:	1147c83a 	sub	r3,r2,r5
  12a1f8:	1d47883a 	add	r3,r3,r21
  12a1fc:	00800d84 	movi	r2,54
  12a200:	18ffffc4 	addi	r3,r3,-1
  12a204:	156bc83a 	sub	r21,r2,r21
  12a208:	1f00950e 	bge	r3,fp,12a460 <_strtod_r+0xa6c>
  12a20c:	e0f9c83a 	sub	fp,fp,r3
  12a210:	008007c4 	movi	r2,31
  12a214:	af2bc83a 	sub	r21,r21,fp
  12a218:	1700ac16 	blt	r2,fp,12a4cc <_strtod_r+0xad8>
  12a21c:	00800044 	movi	r2,1
  12a220:	1704983a 	sll	r2,r2,fp
  12a224:	d8000d15 	stw	zero,52(sp)
  12a228:	d8800f15 	stw	r2,60(sp)
  12a22c:	2547883a 	add	r3,r4,r21
  12a230:	d9000717 	ldw	r4,28(sp)
  12a234:	a56b883a 	add	r21,r20,r21
  12a238:	20f9883a 	add	fp,r4,r3
  12a23c:	a009883a 	mov	r4,r20
  12a240:	ad00010e 	bge	r21,r20,12a248 <_strtod_r+0x854>
  12a244:	a809883a 	mov	r4,r21
  12a248:	e005883a 	mov	r2,fp
  12a24c:	2700010e 	bge	r4,fp,12a254 <_strtod_r+0x860>
  12a250:	2005883a 	mov	r2,r4
  12a254:	0080030e 	bge	zero,r2,12a264 <_strtod_r+0x870>
  12a258:	a8abc83a 	sub	r21,r21,r2
  12a25c:	e0b9c83a 	sub	fp,fp,r2
  12a260:	a0a9c83a 	sub	r20,r20,r2
  12a264:	d9400e17 	ldw	r5,56(sp)
  12a268:	28001126 	beq	r5,zero,12a2b0 <_strtod_r+0x8bc>
  12a26c:	280d883a 	mov	r6,r5
  12a270:	8809883a 	mov	r4,r17
  12a274:	800b883a 	mov	r5,r16
  12a278:	0128b940 	call	128b94 <__pow5mult>
  12a27c:	1021883a 	mov	r16,r2
  12a280:	10010e26 	beq	r2,zero,12a6bc <_strtod_r+0xcc8>
  12a284:	d9800517 	ldw	r6,20(sp)
  12a288:	100b883a 	mov	r5,r2
  12a28c:	8809883a 	mov	r4,r17
  12a290:	01289080 	call	128908 <__multiply>
  12a294:	10010926 	beq	r2,zero,12a6bc <_strtod_r+0xcc8>
  12a298:	d9400517 	ldw	r5,20(sp)
  12a29c:	8809883a 	mov	r4,r17
  12a2a0:	d8801315 	stw	r2,76(sp)
  12a2a4:	01285400 	call	128540 <_Bfree>
  12a2a8:	d8801317 	ldw	r2,76(sp)
  12a2ac:	d8800515 	stw	r2,20(sp)
  12a2b0:	0540060e 	bge	zero,r21,12a2cc <_strtod_r+0x8d8>
  12a2b4:	d9400517 	ldw	r5,20(sp)
  12a2b8:	a80d883a 	mov	r6,r21
  12a2bc:	8809883a 	mov	r4,r17
  12a2c0:	0128cd40 	call	128cd4 <__lshift>
  12a2c4:	d8800515 	stw	r2,20(sp)
  12a2c8:	10025c26 	beq	r2,zero,12ac3c <_strtod_r+0x1248>
  12a2cc:	d8800c17 	ldw	r2,48(sp)
  12a2d0:	10000626 	beq	r2,zero,12a2ec <_strtod_r+0x8f8>
  12a2d4:	d9800c17 	ldw	r6,48(sp)
  12a2d8:	980b883a 	mov	r5,r19
  12a2dc:	8809883a 	mov	r4,r17
  12a2e0:	0128b940 	call	128b94 <__pow5mult>
  12a2e4:	1027883a 	mov	r19,r2
  12a2e8:	1000f426 	beq	r2,zero,12a6bc <_strtod_r+0xcc8>
  12a2ec:	0700060e 	bge	zero,fp,12a308 <_strtod_r+0x914>
  12a2f0:	980b883a 	mov	r5,r19
  12a2f4:	e00d883a 	mov	r6,fp
  12a2f8:	8809883a 	mov	r4,r17
  12a2fc:	0128cd40 	call	128cd4 <__lshift>
  12a300:	1027883a 	mov	r19,r2
  12a304:	1000ed26 	beq	r2,zero,12a6bc <_strtod_r+0xcc8>
  12a308:	0500060e 	bge	zero,r20,12a324 <_strtod_r+0x930>
  12a30c:	800b883a 	mov	r5,r16
  12a310:	a00d883a 	mov	r6,r20
  12a314:	8809883a 	mov	r4,r17
  12a318:	0128cd40 	call	128cd4 <__lshift>
  12a31c:	1021883a 	mov	r16,r2
  12a320:	1000e626 	beq	r2,zero,12a6bc <_strtod_r+0xcc8>
  12a324:	d9400517 	ldw	r5,20(sp)
  12a328:	980d883a 	mov	r6,r19
  12a32c:	8809883a 	mov	r4,r17
  12a330:	0128e7c0 	call	128e7c <__mdiff>
  12a334:	1025883a 	mov	r18,r2
  12a338:	1000e026 	beq	r2,zero,12a6bc <_strtod_r+0xcc8>
  12a33c:	15400317 	ldw	r21,12(r2)
  12a340:	800b883a 	mov	r5,r16
  12a344:	10000315 	stw	zero,12(r2)
  12a348:	1009883a 	mov	r4,r2
  12a34c:	0128e1c0 	call	128e1c <__mcmp>
  12a350:	10026716 	blt	r2,zero,12acf0 <_strtod_r+0x12fc>
  12a354:	10029626 	beq	r2,zero,12adb0 <_strtod_r+0x13bc>
  12a358:	800b883a 	mov	r5,r16
  12a35c:	9009883a 	mov	r4,r18
  12a360:	01293340 	call	129334 <__ratio>
  12a364:	000d883a 	mov	r6,zero
  12a368:	01d00034 	movhi	r7,16384
  12a36c:	1009883a 	mov	r4,r2
  12a370:	180b883a 	mov	r5,r3
  12a374:	1039883a 	mov	fp,r2
  12a378:	1829883a 	mov	r20,r3
  12a37c:	0132c1c0 	call	132c1c <__ledf2>
  12a380:	00803b16 	blt	zero,r2,12a470 <_strtod_r+0xa7c>
  12a384:	a8005e26 	beq	r21,zero,12a500 <_strtod_r+0xb0c>
  12a388:	050ffc34 	movhi	r20,16368
  12a38c:	d8000f15 	stw	zero,60(sp)
  12a390:	d8001015 	stw	zero,64(sp)
  12a394:	dd000d15 	stw	r20,52(sp)
  12a398:	b71ffc2c 	andhi	fp,r22,32752
  12a39c:	009ff834 	movhi	r2,32736
  12a3a0:	e080f226 	beq	fp,r2,12a76c <_strtod_r+0xd78>
  12a3a4:	d9000717 	ldw	r4,28(sp)
  12a3a8:	20000c26 	beq	r4,zero,12a3dc <_strtod_r+0x9e8>
  12a3ac:	0081a834 	movhi	r2,1696
  12a3b0:	17000a36 	bltu	r2,fp,12a3dc <_strtod_r+0x9e8>
  12a3b4:	d9001017 	ldw	r4,64(sp)
  12a3b8:	d9400d17 	ldw	r5,52(sp)
  12a3bc:	01d07834 	movhi	r7,16864
  12a3c0:	39ffffc4 	addi	r7,r7,-1
  12a3c4:	01bff034 	movhi	r6,65472
  12a3c8:	0132c1c0 	call	132c1c <__ledf2>
  12a3cc:	0080a70e 	bge	zero,r2,12a66c <_strtod_r+0xc78>
  12a3d0:	0081ac34 	movhi	r2,1712
  12a3d4:	a091883a 	add	r8,r20,r2
  12a3d8:	4729c83a 	sub	r20,r8,fp
  12a3dc:	b809883a 	mov	r4,r23
  12a3e0:	b00b883a 	mov	r5,r22
  12a3e4:	01290780 	call	129078 <__ulp>
  12a3e8:	d9000f17 	ldw	r4,60(sp)
  12a3ec:	a00b883a 	mov	r5,r20
  12a3f0:	100d883a 	mov	r6,r2
  12a3f4:	180f883a 	mov	r7,r3
  12a3f8:	0132d100 	call	132d10 <__muldf3>
  12a3fc:	b80d883a 	mov	r6,r23
  12a400:	b00f883a 	mov	r7,r22
  12a404:	1009883a 	mov	r4,r2
  12a408:	180b883a 	mov	r5,r3
  12a40c:	013183c0 	call	13183c <__adddf3>
  12a410:	102f883a 	mov	r23,r2
  12a414:	182d883a 	mov	r22,r3
  12a418:	1829883a 	mov	r20,r3
  12a41c:	d9000717 	ldw	r4,28(sp)
  12a420:	2000021e 	bne	r4,zero,12a42c <_strtod_r+0xa38>
  12a424:	a09ffc2c 	andhi	r2,r20,32752
  12a428:	e080f126 	beq	fp,r2,12a7f0 <_strtod_r+0xdfc>
  12a42c:	d9400517 	ldw	r5,20(sp)
  12a430:	8809883a 	mov	r4,r17
  12a434:	01285400 	call	128540 <_Bfree>
  12a438:	980b883a 	mov	r5,r19
  12a43c:	8809883a 	mov	r4,r17
  12a440:	01285400 	call	128540 <_Bfree>
  12a444:	800b883a 	mov	r5,r16
  12a448:	8809883a 	mov	r4,r17
  12a44c:	01285400 	call	128540 <_Bfree>
  12a450:	900b883a 	mov	r5,r18
  12a454:	8809883a 	mov	r4,r17
  12a458:	01285400 	call	128540 <_Bfree>
  12a45c:	003f3f06 	br	12a15c <_gp+0xfffe6a84>
  12a460:	00c00044 	movi	r3,1
  12a464:	d8000d15 	stw	zero,52(sp)
  12a468:	d8c00f15 	stw	r3,60(sp)
  12a46c:	003f6f06 	br	12a22c <_gp+0xfffe6b54>
  12a470:	000d883a 	mov	r6,zero
  12a474:	01cff834 	movhi	r7,16352
  12a478:	e009883a 	mov	r4,fp
  12a47c:	a00b883a 	mov	r5,r20
  12a480:	0132d100 	call	132d10 <__muldf3>
  12a484:	d8801015 	stw	r2,64(sp)
  12a488:	d8c00d15 	stw	r3,52(sp)
  12a48c:	a8001a1e 	bne	r21,zero,12a4f8 <_strtod_r+0xb04>
  12a490:	1a20003c 	xorhi	r8,r3,32768
  12a494:	d8800f15 	stw	r2,60(sp)
  12a498:	4029883a 	mov	r20,r8
  12a49c:	003fbe06 	br	12a398 <_gp+0xfffe6cc0>
  12a4a0:	d8000b15 	stw	zero,44(sp)
  12a4a4:	04800044 	movi	r18,1
  12a4a8:	b000021e 	bne	r22,zero,12a4b4 <_strtod_r+0xac0>
  12a4ac:	d8c00c17 	ldw	r3,48(sp)
  12a4b0:	183d9d26 	beq	r3,zero,129b28 <_gp+0xfffe6450>
  12a4b4:	0039883a 	mov	fp,zero
  12a4b8:	003e5206 	br	129e04 <_gp+0xfffe672c>
  12a4bc:	d8c00c17 	ldw	r3,48(sp)
  12a4c0:	dd000e17 	ldw	r20,56(sp)
  12a4c4:	1889c83a 	sub	r4,r3,r2
  12a4c8:	003f4706 	br	12a1e8 <_gp+0xfffe6b10>
  12a4cc:	00bef884 	movi	r2,-1054
  12a4d0:	07000044 	movi	fp,1
  12a4d4:	10c5c83a 	sub	r2,r2,r3
  12a4d8:	e084983a 	sll	r2,fp,r2
  12a4dc:	df000f15 	stw	fp,60(sp)
  12a4e0:	d8800d15 	stw	r2,52(sp)
  12a4e4:	003f5106 	br	12a22c <_gp+0xfffe6b54>
  12a4e8:	d8c00717 	ldw	r3,28(sp)
  12a4ec:	0009883a 	mov	r4,zero
  12a4f0:	d8c00615 	stw	r3,24(sp)
  12a4f4:	003de506 	br	129c8c <_gp+0xfffe65b4>
  12a4f8:	da000d17 	ldw	r8,52(sp)
  12a4fc:	003fe506 	br	12a494 <_gp+0xfffe6dbc>
  12a500:	b800521e 	bne	r23,zero,12a64c <_strtod_r+0xc58>
  12a504:	01000434 	movhi	r4,16
  12a508:	213fffc4 	addi	r4,r4,-1
  12a50c:	b104703a 	and	r2,r22,r4
  12a510:	1000501e 	bne	r2,zero,12a654 <_strtod_r+0xc60>
  12a514:	000d883a 	mov	r6,zero
  12a518:	01cffc34 	movhi	r7,16368
  12a51c:	e009883a 	mov	r4,fp
  12a520:	a00b883a 	mov	r5,r20
  12a524:	0132c1c0 	call	132c1c <__ledf2>
  12a528:	10024216 	blt	r2,zero,12ae34 <_strtod_r+0x1440>
  12a52c:	a00b883a 	mov	r5,r20
  12a530:	000d883a 	mov	r6,zero
  12a534:	01cff834 	movhi	r7,16352
  12a538:	e009883a 	mov	r4,fp
  12a53c:	0132d100 	call	132d10 <__muldf3>
  12a540:	d8801015 	stw	r2,64(sp)
  12a544:	d8c00d15 	stw	r3,52(sp)
  12a548:	1029883a 	mov	r20,r2
  12a54c:	1a20003c 	xorhi	r8,r3,32768
  12a550:	dd000f15 	stw	r20,60(sp)
  12a554:	4029883a 	mov	r20,r8
  12a558:	003f8f06 	br	12a398 <_gp+0xfffe6cc0>
  12a55c:	8039883a 	mov	fp,r16
  12a560:	002d883a 	mov	r22,zero
  12a564:	d8000b15 	stw	zero,44(sp)
  12a568:	bd7ff404 	addi	r21,r23,-48
  12a56c:	00800244 	movi	r2,9
  12a570:	15401236 	bltu	r2,r21,12a5bc <_strtod_r+0xbc8>
  12a574:	dd400e15 	stw	r21,56(sp)
  12a578:	b0800044 	addi	r2,r22,1
  12a57c:	a801701e 	bne	r21,zero,12ab40 <_strtod_r+0x114c>
  12a580:	ddc00617 	ldw	r23,24(sp)
  12a584:	102d883a 	mov	r22,r2
  12a588:	b8800044 	addi	r2,r23,1
  12a58c:	d8800615 	stw	r2,24(sp)
  12a590:	bdc00047 	ldb	r23,1(r23)
  12a594:	003ff406 	br	12a568 <_gp+0xfffe6e90>
  12a598:	00c00044 	movi	r3,1
  12a59c:	d8c00e15 	stw	r3,56(sp)
  12a5a0:	d8c00717 	ldw	r3,28(sp)
  12a5a4:	18800084 	addi	r2,r3,2
  12a5a8:	d8800615 	stw	r2,24(sp)
  12a5ac:	1dc00087 	ldb	r23,2(r3)
  12a5b0:	003e1f06 	br	129e30 <_gp+0xfffe6758>
  12a5b4:	d8000e15 	stw	zero,56(sp)
  12a5b8:	003ff906 	br	12a5a0 <_gp+0xfffe6ec8>
  12a5bc:	04800044 	movi	r18,1
  12a5c0:	003dad06 	br	129c78 <_gp+0xfffe65a0>
  12a5c4:	903d581e 	bne	r18,zero,129b28 <_gp+0xfffe6450>
  12a5c8:	00801384 	movi	r2,78
  12a5cc:	b8800526 	beq	r23,r2,12a5e4 <_strtod_r+0xbf0>
  12a5d0:	15fd530e 	bge	r2,r23,129b20 <_gp+0xfffe6448>
  12a5d4:	00801a44 	movi	r2,105
  12a5d8:	b8819a26 	beq	r23,r2,12ac44 <_strtod_r+0x1250>
  12a5dc:	00801b84 	movi	r2,110
  12a5e0:	b8bd511e 	bne	r23,r2,129b28 <_gp+0xfffe6450>
  12a5e4:	01400534 	movhi	r5,20
  12a5e8:	d9000617 	ldw	r4,24(sp)
  12a5ec:	2965cf04 	addi	r5,r5,-26820
  12a5f0:	01c00644 	movi	r7,25
  12a5f4:	00000b06 	br	12a624 <_strtod_r+0xc30>
  12a5f8:	21000044 	addi	r4,r4,1
  12a5fc:	20800003 	ldbu	r2,0(r4)
  12a600:	10ffefc4 	addi	r3,r2,-65
  12a604:	10803fcc 	andi	r2,r2,255
  12a608:	1080201c 	xori	r2,r2,128
  12a60c:	18c03fcc 	andi	r3,r3,255
  12a610:	10bfe004 	addi	r2,r2,-128
  12a614:	38c00136 	bltu	r7,r3,12a61c <_strtod_r+0xc28>
  12a618:	10800804 	addi	r2,r2,32
  12a61c:	29400044 	addi	r5,r5,1
  12a620:	11bd411e 	bne	r2,r6,129b28 <_gp+0xfffe6450>
  12a624:	29800007 	ldb	r6,0(r5)
  12a628:	303ff31e 	bne	r6,zero,12a5f8 <_gp+0xfffe6f20>
  12a62c:	20800044 	addi	r2,r4,1
  12a630:	d8800615 	stw	r2,24(sp)
  12a634:	20c00047 	ldb	r3,1(r4)
  12a638:	00800a04 	movi	r2,40
  12a63c:	18bde326 	beq	r3,r2,129dcc <_gp+0xfffe66f4>
  12a640:	05bffe34 	movhi	r22,65528
  12a644:	002f883a 	mov	r23,zero
  12a648:	003dea06 	br	129df4 <_gp+0xfffe671c>
  12a64c:	00800044 	movi	r2,1
  12a650:	b880ff26 	beq	r23,r2,12aa50 <_strtod_r+0x105c>
  12a654:	014ffc34 	movhi	r5,16368
  12a658:	d8000f15 	stw	zero,60(sp)
  12a65c:	052ffc34 	movhi	r20,49136
  12a660:	d8001015 	stw	zero,64(sp)
  12a664:	d9400d15 	stw	r5,52(sp)
  12a668:	003f4b06 	br	12a398 <_gp+0xfffe6cc0>
  12a66c:	d9001017 	ldw	r4,64(sp)
  12a670:	d9400d17 	ldw	r5,52(sp)
  12a674:	0130a0c0 	call	130a0c <__fixunsdfsi>
  12a678:	1000f126 	beq	r2,zero,12aa40 <_strtod_r+0x104c>
  12a67c:	1009883a 	mov	r4,r2
  12a680:	0133fd40 	call	133fd4 <__floatunsidf>
  12a684:	d8801015 	stw	r2,64(sp)
  12a688:	d8c00d15 	stw	r3,52(sp)
  12a68c:	a800ea1e 	bne	r21,zero,12aa38 <_strtod_r+0x1044>
  12a690:	d8800d17 	ldw	r2,52(sp)
  12a694:	1220003c 	xorhi	r8,r2,32768
  12a698:	d8c01017 	ldw	r3,64(sp)
  12a69c:	4029883a 	mov	r20,r8
  12a6a0:	d8c00f15 	stw	r3,60(sp)
  12a6a4:	003f4a06 	br	12a3d0 <_gp+0xfffe6cf8>
  12a6a8:	d8000c15 	stw	zero,48(sp)
  12a6ac:	003ea506 	br	12a144 <_gp+0xfffe6a6c>
  12a6b0:	d8c00817 	ldw	r3,32(sp)
  12a6b4:	00bfffc4 	movi	r2,-1
  12a6b8:	1880441e 	bne	r3,r2,12a7cc <_strtod_r+0xdd8>
  12a6bc:	9011883a 	mov	r8,r18
  12a6c0:	d8800517 	ldw	r2,20(sp)
  12a6c4:	00c00884 	movi	r3,34
  12a6c8:	88c00015 	stw	r3,0(r17)
  12a6cc:	d8000815 	stw	zero,32(sp)
  12a6d0:	071ffc34 	movhi	fp,32752
  12a6d4:	100b883a 	mov	r5,r2
  12a6d8:	8809883a 	mov	r4,r17
  12a6dc:	da001315 	stw	r8,76(sp)
  12a6e0:	01285400 	call	128540 <_Bfree>
  12a6e4:	980b883a 	mov	r5,r19
  12a6e8:	8809883a 	mov	r4,r17
  12a6ec:	01285400 	call	128540 <_Bfree>
  12a6f0:	800b883a 	mov	r5,r16
  12a6f4:	8809883a 	mov	r4,r17
  12a6f8:	01285400 	call	128540 <_Bfree>
  12a6fc:	d9400b17 	ldw	r5,44(sp)
  12a700:	8809883a 	mov	r4,r17
  12a704:	01285400 	call	128540 <_Bfree>
  12a708:	da001317 	ldw	r8,76(sp)
  12a70c:	8809883a 	mov	r4,r17
  12a710:	400b883a 	mov	r5,r8
  12a714:	01285400 	call	128540 <_Bfree>
  12a718:	003d5f06 	br	129c98 <_gp+0xfffe65c0>
  12a71c:	d8c00a17 	ldw	r3,40(sp)
  12a720:	d8800504 	addi	r2,sp,20
  12a724:	01800534 	movhi	r6,20
  12a728:	31a5d504 	addi	r6,r6,-26796
  12a72c:	d8c00115 	stw	r3,4(sp)
  12a730:	d8800015 	stw	r2,0(sp)
  12a734:	d9c00404 	addi	r7,sp,16
  12a738:	d9400604 	addi	r5,sp,24
  12a73c:	8809883a 	mov	r4,r17
  12a740:	012f5c00 	call	12f5c0 <__gethex>
  12a744:	148001cc 	andi	r18,r2,7
  12a748:	903e2126 	beq	r18,zero,129fd0 <_gp+0xfffe68f8>
  12a74c:	00c00184 	movi	r3,6
  12a750:	90c0c71e 	bne	r18,r3,12aa70 <_strtod_r+0x107c>
  12a754:	84000044 	addi	r16,r16,1
  12a758:	dc000615 	stw	r16,24(sp)
  12a75c:	d8000815 	stw	zero,32(sp)
  12a760:	0039883a 	mov	fp,zero
  12a764:	d8000a15 	stw	zero,40(sp)
  12a768:	003d4b06 	br	129c98 <_gp+0xfffe65c0>
  12a76c:	00bf2c34 	movhi	r2,64688
  12a770:	b0ad883a 	add	r22,r22,r2
  12a774:	b809883a 	mov	r4,r23
  12a778:	b00b883a 	mov	r5,r22
  12a77c:	01290780 	call	129078 <__ulp>
  12a780:	d9000f17 	ldw	r4,60(sp)
  12a784:	100d883a 	mov	r6,r2
  12a788:	180f883a 	mov	r7,r3
  12a78c:	a00b883a 	mov	r5,r20
  12a790:	0132d100 	call	132d10 <__muldf3>
  12a794:	b80d883a 	mov	r6,r23
  12a798:	1009883a 	mov	r4,r2
  12a79c:	b00f883a 	mov	r7,r22
  12a7a0:	180b883a 	mov	r5,r3
  12a7a4:	013183c0 	call	13183c <__adddf3>
  12a7a8:	011f2834 	movhi	r4,31904
  12a7ac:	102f883a 	mov	r23,r2
  12a7b0:	213fffc4 	addi	r4,r4,-1
  12a7b4:	189ffc2c 	andhi	r2,r3,32752
  12a7b8:	20807b2e 	bgeu	r4,r2,12a9a8 <_strtod_r+0xfb4>
  12a7bc:	d9401217 	ldw	r5,72(sp)
  12a7c0:	009ffc34 	movhi	r2,32752
  12a7c4:	10bfffc4 	addi	r2,r2,-1
  12a7c8:	28bfb926 	beq	r5,r2,12a6b0 <_gp+0xfffe6fd8>
  12a7cc:	059ffc34 	movhi	r22,32752
  12a7d0:	b5bfffc4 	addi	r22,r22,-1
  12a7d4:	05ffffc4 	movi	r23,-1
  12a7d8:	003f1406 	br	12a42c <_gp+0xfffe6d54>
  12a7dc:	00800884 	movi	r2,34
  12a7e0:	88800015 	stw	r2,0(r17)
  12a7e4:	d8000815 	stw	zero,32(sp)
  12a7e8:	071ffc34 	movhi	fp,32752
  12a7ec:	003d2a06 	br	129c98 <_gp+0xfffe65c0>
  12a7f0:	d9400d17 	ldw	r5,52(sp)
  12a7f4:	d9001017 	ldw	r4,64(sp)
  12a7f8:	0133e780 	call	133e78 <__fixdfsi>
  12a7fc:	1009883a 	mov	r4,r2
  12a800:	0133ef80 	call	133ef8 <__floatsidf>
  12a804:	d9001017 	ldw	r4,64(sp)
  12a808:	d9400d17 	ldw	r5,52(sp)
  12a80c:	100d883a 	mov	r6,r2
  12a810:	180f883a 	mov	r7,r3
  12a814:	013357c0 	call	13357c <__subdf3>
  12a818:	1011883a 	mov	r8,r2
  12a81c:	1839883a 	mov	fp,r3
  12a820:	a800121e 	bne	r21,zero,12a86c <_strtod_r+0xe78>
  12a824:	b800111e 	bne	r23,zero,12a86c <_strtod_r+0xe78>
  12a828:	01400434 	movhi	r5,16
  12a82c:	297fffc4 	addi	r5,r5,-1
  12a830:	a168703a 	and	r20,r20,r5
  12a834:	a0000d1e 	bne	r20,zero,12a86c <_strtod_r+0xe78>
  12a838:	01a52834 	movhi	r6,38048
  12a83c:	01cff434 	movhi	r7,16336
  12a840:	318d6544 	addi	r6,r6,13717
  12a844:	39ffffc4 	addi	r7,r7,-1
  12a848:	1009883a 	mov	r4,r2
  12a84c:	180b883a 	mov	r5,r3
  12a850:	0132c1c0 	call	132c1c <__ledf2>
  12a854:	103ef50e 	bge	r2,zero,12a42c <_gp+0xfffe6d54>
  12a858:	9011883a 	mov	r8,r18
  12a85c:	d8800517 	ldw	r2,20(sp)
  12a860:	d8000815 	stw	zero,32(sp)
  12a864:	b039883a 	mov	fp,r22
  12a868:	003f9a06 	br	12a6d4 <_gp+0xfffe6ffc>
  12a86c:	01a52834 	movhi	r6,38048
  12a870:	01cff834 	movhi	r7,16352
  12a874:	4009883a 	mov	r4,r8
  12a878:	318d6544 	addi	r6,r6,13717
  12a87c:	39ffffc4 	addi	r7,r7,-1
  12a880:	e00b883a 	mov	r5,fp
  12a884:	da001315 	stw	r8,76(sp)
  12a888:	0132c1c0 	call	132c1c <__ledf2>
  12a88c:	da001317 	ldw	r8,76(sp)
  12a890:	10000716 	blt	r2,zero,12a8b0 <_strtod_r+0xebc>
  12a894:	018d6c34 	movhi	r6,13744
  12a898:	31b94d44 	addi	r6,r6,-6859
  12a89c:	01cff834 	movhi	r7,16352
  12a8a0:	4009883a 	mov	r4,r8
  12a8a4:	e00b883a 	mov	r5,fp
  12a8a8:	0132b400 	call	132b40 <__gedf2>
  12a8ac:	00bedf0e 	bge	zero,r2,12a42c <_gp+0xfffe6d54>
  12a8b0:	9011883a 	mov	r8,r18
  12a8b4:	d8800517 	ldw	r2,20(sp)
  12a8b8:	ddc00815 	stw	r23,32(sp)
  12a8bc:	b039883a 	mov	fp,r22
  12a8c0:	003f8406 	br	12a6d4 <_gp+0xfffe6ffc>
  12a8c4:	903e1026 	beq	r18,zero,12a108 <_gp+0xfffe6a30>
  12a8c8:	04a5c83a 	sub	r18,zero,r18
  12a8cc:	908003cc 	andi	r2,r18,15
  12a8d0:	10000b26 	beq	r2,zero,12a900 <_strtod_r+0xf0c>
  12a8d4:	100490fa 	slli	r2,r2,3
  12a8d8:	00c00534 	movhi	r3,20
  12a8dc:	18e59a04 	addi	r3,r3,-27032
  12a8e0:	1885883a 	add	r2,r3,r2
  12a8e4:	11800017 	ldw	r6,0(r2)
  12a8e8:	11c00117 	ldw	r7,4(r2)
  12a8ec:	b809883a 	mov	r4,r23
  12a8f0:	b00b883a 	mov	r5,r22
  12a8f4:	01320e80 	call	1320e8 <__divdf3>
  12a8f8:	102f883a 	mov	r23,r2
  12a8fc:	182d883a 	mov	r22,r3
  12a900:	9025d13a 	srai	r18,r18,4
  12a904:	903e0026 	beq	r18,zero,12a108 <_gp+0xfffe6a30>
  12a908:	008007c4 	movi	r2,31
  12a90c:	14801f16 	blt	r2,r18,12a98c <_strtod_r+0xf98>
  12a910:	9080040c 	andi	r2,r18,16
  12a914:	10018d26 	beq	r2,zero,12af4c <_strtod_r+0x1558>
  12a918:	00c01a84 	movi	r3,106
  12a91c:	d8c00715 	stw	r3,28(sp)
  12a920:	04817e0e 	bge	zero,r18,12af1c <_strtod_r+0x1528>
  12a924:	05000534 	movhi	r20,20
  12a928:	a525da04 	addi	r20,r20,-26776
  12a92c:	b805883a 	mov	r2,r23
  12a930:	b007883a 	mov	r3,r22
  12a934:	0009883a 	mov	r4,zero
  12a938:	9180004c 	andi	r6,r18,1
  12a93c:	30000626 	beq	r6,zero,12a958 <_strtod_r+0xf64>
  12a940:	a1800017 	ldw	r6,0(r20)
  12a944:	a1c00117 	ldw	r7,4(r20)
  12a948:	1009883a 	mov	r4,r2
  12a94c:	180b883a 	mov	r5,r3
  12a950:	0132d100 	call	132d10 <__muldf3>
  12a954:	01000044 	movi	r4,1
  12a958:	9025d07a 	srai	r18,r18,1
  12a95c:	a5000204 	addi	r20,r20,8
  12a960:	903ff51e 	bne	r18,zero,12a938 <_gp+0xfffe7260>
  12a964:	21003fcc 	andi	r4,r4,255
  12a968:	2001891e 	bne	r4,zero,12af90 <_strtod_r+0x159c>
  12a96c:	d9000717 	ldw	r4,28(sp)
  12a970:	20016a1e 	bne	r4,zero,12af1c <_strtod_r+0x1528>
  12a974:	000d883a 	mov	r6,zero
  12a978:	000f883a 	mov	r7,zero
  12a97c:	b809883a 	mov	r4,r23
  12a980:	b00b883a 	mov	r5,r22
  12a984:	0132ab80 	call	132ab8 <__eqdf2>
  12a988:	103de01e 	bne	r2,zero,12a10c <_gp+0xfffe6a34>
  12a98c:	00800884 	movi	r2,34
  12a990:	88800015 	stw	r2,0(r17)
  12a994:	d8000815 	stw	zero,32(sp)
  12a998:	0039883a 	mov	fp,zero
  12a99c:	003cbe06 	br	129c98 <_gp+0xfffe65c0>
  12a9a0:	011387c4 	movi	r4,19999
  12a9a4:	003d5606 	br	129f00 <_gp+0xfffe6828>
  12a9a8:	0580d434 	movhi	r22,848
  12a9ac:	1dad883a 	add	r22,r3,r22
  12a9b0:	b029883a 	mov	r20,r22
  12a9b4:	003e9906 	br	12a41c <_gp+0xfffe6d44>
  12a9b8:	e5c03fcc 	andi	r23,fp,255
  12a9bc:	bdc0201c 	xori	r23,r23,128
  12a9c0:	bdffe004 	addi	r23,r23,-128
  12a9c4:	dc800817 	ldw	r18,32(sp)
  12a9c8:	0029883a 	mov	r20,zero
  12a9cc:	0027883a 	mov	r19,zero
  12a9d0:	0021883a 	mov	r16,zero
  12a9d4:	003c9806 	br	129c38 <_gp+0xfffe6560>
  12a9d8:	00c00944 	movi	r3,37
  12a9dc:	1f07c83a 	sub	r3,r3,fp
  12a9e0:	1d7d7e16 	blt	r3,r21,129fdc <_gp+0xfffe6904>
  12a9e4:	1721c83a 	sub	r16,r2,fp
  12a9e8:	800490fa 	slli	r2,r16,3
  12a9ec:	04400534 	movhi	r17,20
  12a9f0:	8c659a04 	addi	r17,r17,-27032
  12a9f4:	8885883a 	add	r2,r17,r2
  12a9f8:	11000017 	ldw	r4,0(r2)
  12a9fc:	11400117 	ldw	r5,4(r2)
  12aa00:	b80d883a 	mov	r6,r23
  12aa04:	b00f883a 	mov	r7,r22
  12aa08:	0132d100 	call	132d10 <__muldf3>
  12aa0c:	ac2bc83a 	sub	r21,r21,r16
  12aa10:	a80c90fa 	slli	r6,r21,3
  12aa14:	1009883a 	mov	r4,r2
  12aa18:	180b883a 	mov	r5,r3
  12aa1c:	8985883a 	add	r2,r17,r6
  12aa20:	11800017 	ldw	r6,0(r2)
  12aa24:	11c00117 	ldw	r7,4(r2)
  12aa28:	0132d100 	call	132d10 <__muldf3>
  12aa2c:	d8800815 	stw	r2,32(sp)
  12aa30:	1839883a 	mov	fp,r3
  12aa34:	003c9806 	br	129c98 <_gp+0xfffe65c0>
  12aa38:	da000d17 	ldw	r8,52(sp)
  12aa3c:	003f1606 	br	12a698 <_gp+0xfffe6fc0>
  12aa40:	014ffc34 	movhi	r5,16368
  12aa44:	d8001015 	stw	zero,64(sp)
  12aa48:	d9400d15 	stw	r5,52(sp)
  12aa4c:	003f0f06 	br	12a68c <_gp+0xfffe6fb4>
  12aa50:	b03f001e 	bne	r22,zero,12a654 <_gp+0xfffe6f7c>
  12aa54:	9011883a 	mov	r8,r18
  12aa58:	00800884 	movi	r2,34
  12aa5c:	88800015 	stw	r2,0(r17)
  12aa60:	d8000815 	stw	zero,32(sp)
  12aa64:	d8800517 	ldw	r2,20(sp)
  12aa68:	0039883a 	mov	fp,zero
  12aa6c:	003f1906 	br	12a6d4 <_gp+0xfffe6ffc>
  12aa70:	d9800517 	ldw	r6,20(sp)
  12aa74:	30000826 	beq	r6,zero,12aa98 <_strtod_r+0x10a4>
  12aa78:	01400d44 	movi	r5,53
  12aa7c:	d9000204 	addi	r4,sp,8
  12aa80:	d8801315 	stw	r2,76(sp)
  12aa84:	012944c0 	call	12944c <__copybits>
  12aa88:	d9400517 	ldw	r5,20(sp)
  12aa8c:	8809883a 	mov	r4,r17
  12aa90:	01285400 	call	128540 <_Bfree>
  12aa94:	d8801317 	ldw	r2,76(sp)
  12aa98:	00c00184 	movi	r3,6
  12aa9c:	1c800f36 	bltu	r3,r18,12aadc <_strtod_r+0x10e8>
  12aaa0:	902490ba 	slli	r18,r18,2
  12aaa4:	00c004f4 	movhi	r3,19
  12aaa8:	18eaae04 	addi	r3,r3,-21832
  12aaac:	90e5883a 	add	r18,r18,r3
  12aab0:	90c00017 	ldw	r3,0(r18)
  12aab4:	1800683a 	jmp	r3
  12aab8:	0012ab34 	movhi	zero,19116
  12aabc:	0012ab0c 	andi	zero,zero,19116
  12aac0:	0012aaf0 	cmpltui	zero,zero,19115
  12aac4:	0012aad4 	movui	zero,19115
  12aac8:	0012aafc 	xorhi	zero,zero,19115
  12aacc:	0012ab0c 	andi	zero,zero,19116
  12aad0:	0012ab34 	movhi	zero,19116
  12aad4:	059ffc34 	movhi	r22,32752
  12aad8:	002f883a 	mov	r23,zero
  12aadc:	1080020c 	andi	r2,r2,8
  12aae0:	ddc00815 	stw	r23,32(sp)
  12aae4:	103cc426 	beq	r2,zero,129df8 <_gp+0xfffe6720>
  12aae8:	b7200034 	orhi	fp,r22,32768
  12aaec:	003c6a06 	br	129c98 <_gp+0xfffe65c0>
  12aaf0:	ddc00217 	ldw	r23,8(sp)
  12aaf4:	dd800317 	ldw	r22,12(sp)
  12aaf8:	003ff806 	br	12aadc <_gp+0xfffe7404>
  12aafc:	05a00034 	movhi	r22,32768
  12ab00:	b5bfffc4 	addi	r22,r22,-1
  12ab04:	05ffffc4 	movi	r23,-1
  12ab08:	003ff406 	br	12aadc <_gp+0xfffe7404>
  12ab0c:	d8c00417 	ldw	r3,16(sp)
  12ab10:	dd800317 	ldw	r22,12(sp)
  12ab14:	013ffc34 	movhi	r4,65520
  12ab18:	18c10cc4 	addi	r3,r3,1075
  12ab1c:	1806953a 	slli	r3,r3,20
  12ab20:	213fffc4 	addi	r4,r4,-1
  12ab24:	b12c703a 	and	r22,r22,r4
  12ab28:	ddc00217 	ldw	r23,8(sp)
  12ab2c:	b0ecb03a 	or	r22,r22,r3
  12ab30:	003fea06 	br	12aadc <_gp+0xfffe7404>
  12ab34:	002d883a 	mov	r22,zero
  12ab38:	002f883a 	mov	r23,zero
  12ab3c:	003fe706 	br	12aadc <_gp+0xfffe7404>
  12ab40:	d8c00b17 	ldw	r3,44(sp)
  12ab44:	b72d883a 	add	r22,r22,fp
  12ab48:	1887883a 	add	r3,r3,r2
  12ab4c:	d8c00b15 	stw	r3,44(sp)
  12ab50:	00c00044 	movi	r3,1
  12ab54:	10c11126 	beq	r2,r3,12af9c <_strtod_r+0x15a8>
  12ab58:	05c00204 	movi	r23,8
  12ab5c:	04800404 	movi	r18,16
  12ab60:	e7000044 	addi	fp,fp,1
  12ab64:	e0bfffc4 	addi	r2,fp,-1
  12ab68:	b8802016 	blt	r23,r2,12abec <_strtod_r+0x11f8>
  12ab6c:	9809883a 	mov	r4,r19
  12ab70:	01400284 	movi	r5,10
  12ab74:	01213680 	call	121368 <__mulsi3>
  12ab78:	1027883a 	mov	r19,r2
  12ab7c:	e5bff81e 	bne	fp,r22,12ab60 <_gp+0xfffe7488>
  12ab80:	ddc00617 	ldw	r23,24(sp)
  12ab84:	e7000044 	addi	fp,fp,1
  12ab88:	00800204 	movi	r2,8
  12ab8c:	1580100e 	bge	r2,r22,12abd0 <_strtod_r+0x11dc>
  12ab90:	00800404 	movi	r2,16
  12ab94:	002d883a 	mov	r22,zero
  12ab98:	173e7b16 	blt	r2,fp,12a588 <_gp+0xfffe6eb0>
  12ab9c:	a009883a 	mov	r4,r20
  12aba0:	01400284 	movi	r5,10
  12aba4:	01213680 	call	121368 <__mulsi3>
  12aba8:	a8a9883a 	add	r20,r21,r2
  12abac:	003e7606 	br	12a588 <_gp+0xfffe6eb0>
  12abb0:	d9000617 	ldw	r4,24(sp)
  12abb4:	bdfff404 	addi	r23,r23,-48
  12abb8:	b5800044 	addi	r22,r22,1
  12abbc:	ddc00e15 	stw	r23,56(sp)
  12abc0:	d9000815 	stw	r4,32(sp)
  12abc4:	dd800b15 	stw	r22,44(sp)
  12abc8:	202f883a 	mov	r23,r4
  12abcc:	07000044 	movi	fp,1
  12abd0:	9809883a 	mov	r4,r19
  12abd4:	01400284 	movi	r5,10
  12abd8:	01213680 	call	121368 <__mulsi3>
  12abdc:	d8c00e17 	ldw	r3,56(sp)
  12abe0:	002d883a 	mov	r22,zero
  12abe4:	18a7883a 	add	r19,r3,r2
  12abe8:	003e6706 	br	12a588 <_gp+0xfffe6eb0>
  12abec:	973fe316 	blt	r18,fp,12ab7c <_gp+0xfffe74a4>
  12abf0:	a009883a 	mov	r4,r20
  12abf4:	01400284 	movi	r5,10
  12abf8:	01213680 	call	121368 <__mulsi3>
  12abfc:	1029883a 	mov	r20,r2
  12ac00:	003fde06 	br	12ab7c <_gp+0xfffe74a4>
  12ac04:	00bffa84 	movi	r2,-22
  12ac08:	a8bcf416 	blt	r21,r2,129fdc <_gp+0xfffe6904>
  12ac0c:	a82a90fa 	slli	r21,r21,3
  12ac10:	00800534 	movhi	r2,20
  12ac14:	10a59a04 	addi	r2,r2,-27032
  12ac18:	1545c83a 	sub	r2,r2,r21
  12ac1c:	11800017 	ldw	r6,0(r2)
  12ac20:	11c00117 	ldw	r7,4(r2)
  12ac24:	b809883a 	mov	r4,r23
  12ac28:	b00b883a 	mov	r5,r22
  12ac2c:	01320e80 	call	1320e8 <__divdf3>
  12ac30:	d8800815 	stw	r2,32(sp)
  12ac34:	1839883a 	mov	fp,r3
  12ac38:	003c1706 	br	129c98 <_gp+0xfffe65c0>
  12ac3c:	9011883a 	mov	r8,r18
  12ac40:	003ea006 	br	12a6c4 <_gp+0xfffe6fec>
  12ac44:	01400534 	movhi	r5,20
  12ac48:	d9000617 	ldw	r4,24(sp)
  12ac4c:	2965cc04 	addi	r5,r5,-26832
  12ac50:	01c00644 	movi	r7,25
  12ac54:	00000b06 	br	12ac84 <_strtod_r+0x1290>
  12ac58:	21000044 	addi	r4,r4,1
  12ac5c:	20800003 	ldbu	r2,0(r4)
  12ac60:	10ffefc4 	addi	r3,r2,-65
  12ac64:	10803fcc 	andi	r2,r2,255
  12ac68:	1080201c 	xori	r2,r2,128
  12ac6c:	18c03fcc 	andi	r3,r3,255
  12ac70:	10bfe004 	addi	r2,r2,-128
  12ac74:	38c00136 	bltu	r7,r3,12ac7c <_strtod_r+0x1288>
  12ac78:	10800804 	addi	r2,r2,32
  12ac7c:	29400044 	addi	r5,r5,1
  12ac80:	11bba91e 	bne	r2,r6,129b28 <_gp+0xfffe6450>
  12ac84:	29800007 	ldb	r6,0(r5)
  12ac88:	303ff31e 	bne	r6,zero,12ac58 <_gp+0xfffe7580>
  12ac8c:	01800534 	movhi	r6,20
  12ac90:	d9000615 	stw	r4,24(sp)
  12ac94:	31a5cd04 	addi	r6,r6,-26828
  12ac98:	200b883a 	mov	r5,r4
  12ac9c:	02000644 	movi	r8,25
  12aca0:	00000a06 	br	12accc <_strtod_r+0x12d8>
  12aca4:	28800003 	ldbu	r2,0(r5)
  12aca8:	10ffefc4 	addi	r3,r2,-65
  12acac:	10803fcc 	andi	r2,r2,255
  12acb0:	1080201c 	xori	r2,r2,128
  12acb4:	18c03fcc 	andi	r3,r3,255
  12acb8:	10bfe004 	addi	r2,r2,-128
  12acbc:	40c00136 	bltu	r8,r3,12acc4 <_strtod_r+0x12d0>
  12acc0:	10800804 	addi	r2,r2,32
  12acc4:	31800044 	addi	r6,r6,1
  12acc8:	11c0691e 	bne	r2,r7,12ae70 <_strtod_r+0x147c>
  12accc:	31c00007 	ldb	r7,0(r6)
  12acd0:	29400044 	addi	r5,r5,1
  12acd4:	383ff31e 	bne	r7,zero,12aca4 <_gp+0xfffe75cc>
  12acd8:	d9400615 	stw	r5,24(sp)
  12acdc:	059ffc34 	movhi	r22,32752
  12ace0:	002f883a 	mov	r23,zero
  12ace4:	003c4306 	br	129df4 <_gp+0xfffe671c>
  12ace8:	002d883a 	mov	r22,zero
  12acec:	003cad06 	br	129fa4 <_gp+0xfffe68cc>
  12acf0:	9011883a 	mov	r8,r18
  12acf4:	df001217 	ldw	fp,72(sp)
  12acf8:	a800461e 	bne	r21,zero,12ae14 <_strtod_r+0x1420>
  12acfc:	b800451e 	bne	r23,zero,12ae14 <_strtod_r+0x1420>
  12ad00:	00800434 	movhi	r2,16
  12ad04:	10bfffc4 	addi	r2,r2,-1
  12ad08:	b084703a 	and	r2,r22,r2
  12ad0c:	1000411e 	bne	r2,zero,12ae14 <_strtod_r+0x1420>
  12ad10:	b49ffc2c 	andhi	r18,r22,32752
  12ad14:	0081ac34 	movhi	r2,1712
  12ad18:	14803e2e 	bgeu	r2,r18,12ae14 <_strtod_r+0x1420>
  12ad1c:	40800517 	ldw	r2,20(r8)
  12ad20:	1000031e 	bne	r2,zero,12ad30 <_strtod_r+0x133c>
  12ad24:	40800417 	ldw	r2,16(r8)
  12ad28:	00c00044 	movi	r3,1
  12ad2c:	1880390e 	bge	r3,r2,12ae14 <_strtod_r+0x1420>
  12ad30:	400b883a 	mov	r5,r8
  12ad34:	01800044 	movi	r6,1
  12ad38:	8809883a 	mov	r4,r17
  12ad3c:	0128cd40 	call	128cd4 <__lshift>
  12ad40:	800b883a 	mov	r5,r16
  12ad44:	1009883a 	mov	r4,r2
  12ad48:	d8801315 	stw	r2,76(sp)
  12ad4c:	0128e1c0 	call	128e1c <__mcmp>
  12ad50:	da001317 	ldw	r8,76(sp)
  12ad54:	00802f0e 	bge	zero,r2,12ae14 <_strtod_r+0x1420>
  12ad58:	d9000717 	ldw	r4,28(sp)
  12ad5c:	20008026 	beq	r4,zero,12af60 <_strtod_r+0x156c>
  12ad60:	0081ac34 	movhi	r2,1712
  12ad64:	14807e16 	blt	r2,r18,12af60 <_strtod_r+0x156c>
  12ad68:	0080dc34 	movhi	r2,880
  12ad6c:	14bf3a0e 	bge	r2,r18,12aa58 <_gp+0xfffe7380>
  12ad70:	d9000817 	ldw	r4,32(sp)
  12ad74:	e00b883a 	mov	r5,fp
  12ad78:	000d883a 	mov	r6,zero
  12ad7c:	01ce5434 	movhi	r7,14672
  12ad80:	da001315 	stw	r8,76(sp)
  12ad84:	0132d100 	call	132d10 <__muldf3>
  12ad88:	d8800815 	stw	r2,32(sp)
  12ad8c:	1839883a 	mov	fp,r3
  12ad90:	da001317 	ldw	r8,76(sp)
  12ad94:	1800211e 	bne	r3,zero,12ae1c <_strtod_r+0x1428>
  12ad98:	d8c00817 	ldw	r3,32(sp)
  12ad9c:	d8800517 	ldw	r2,20(sp)
  12ada0:	183e4c1e 	bne	r3,zero,12a6d4 <_gp+0xfffe6ffc>
  12ada4:	00c00884 	movi	r3,34
  12ada8:	88c00015 	stw	r3,0(r17)
  12adac:	003e4906 	br	12a6d4 <_gp+0xfffe6ffc>
  12adb0:	00800434 	movhi	r2,16
  12adb4:	9011883a 	mov	r8,r18
  12adb8:	df001217 	ldw	fp,72(sp)
  12adbc:	10bfffc4 	addi	r2,r2,-1
  12adc0:	a8002226 	beq	r21,zero,12ae4c <_strtod_r+0x1458>
  12adc4:	b086703a 	and	r3,r22,r2
  12adc8:	18804126 	beq	r3,r2,12aed0 <_strtod_r+0x14dc>
  12adcc:	d8c00d17 	ldw	r3,52(sp)
  12add0:	18002326 	beq	r3,zero,12ae60 <_strtod_r+0x146c>
  12add4:	1da4703a 	and	r18,r3,r22
  12add8:	90000e26 	beq	r18,zero,12ae14 <_strtod_r+0x1420>
  12addc:	da001315 	stw	r8,76(sp)
  12ade0:	d9800717 	ldw	r6,28(sp)
  12ade4:	b809883a 	mov	r4,r23
  12ade8:	b00b883a 	mov	r5,r22
  12adec:	a8002826 	beq	r21,zero,12ae90 <_strtod_r+0x149c>
  12adf0:	01299900 	call	129990 <sulp>
  12adf4:	100d883a 	mov	r6,r2
  12adf8:	180f883a 	mov	r7,r3
  12adfc:	b809883a 	mov	r4,r23
  12ae00:	b00b883a 	mov	r5,r22
  12ae04:	013183c0 	call	13183c <__adddf3>
  12ae08:	da001317 	ldw	r8,76(sp)
  12ae0c:	d8800815 	stw	r2,32(sp)
  12ae10:	1839883a 	mov	fp,r3
  12ae14:	d8800717 	ldw	r2,28(sp)
  12ae18:	103fd51e 	bne	r2,zero,12ad70 <_gp+0xfffe7698>
  12ae1c:	d8800517 	ldw	r2,20(sp)
  12ae20:	003e2c06 	br	12a6d4 <_gp+0xfffe6ffc>
  12ae24:	0580d434 	movhi	r22,848
  12ae28:	1dad883a 	add	r22,r3,r22
  12ae2c:	d8000715 	stw	zero,28(sp)
  12ae30:	003cb606 	br	12a10c <_gp+0xfffe6a34>
  12ae34:	008ff834 	movhi	r2,16352
  12ae38:	0029883a 	mov	r20,zero
  12ae3c:	022ff834 	movhi	r8,49120
  12ae40:	d8001015 	stw	zero,64(sp)
  12ae44:	d8800d15 	stw	r2,52(sp)
  12ae48:	003dc106 	br	12a550 <_gp+0xfffe6e78>
  12ae4c:	b084703a 	and	r2,r22,r2
  12ae50:	103fde1e 	bne	r2,zero,12adcc <_gp+0xfffe76f4>
  12ae54:	b83fdd1e 	bne	r23,zero,12adcc <_gp+0xfffe76f4>
  12ae58:	b49ffc2c 	andhi	r18,r22,32752
  12ae5c:	003fbe06 	br	12ad58 <_gp+0xfffe7680>
  12ae60:	d8c00f17 	ldw	r3,60(sp)
  12ae64:	1de8703a 	and	r20,r3,r23
  12ae68:	a03fea26 	beq	r20,zero,12ae14 <_gp+0xfffe773c>
  12ae6c:	003fdb06 	br	12addc <_gp+0xfffe7704>
  12ae70:	21000044 	addi	r4,r4,1
  12ae74:	d9000615 	stw	r4,24(sp)
  12ae78:	003f9806 	br	12acdc <_gp+0xfffe7604>
  12ae7c:	01400534 	movhi	r5,20
  12ae80:	29659004 	addi	r5,r5,-27072
  12ae84:	d9400715 	stw	r5,28(sp)
  12ae88:	0025883a 	mov	r18,zero
  12ae8c:	003c8c06 	br	12a0c0 <_gp+0xfffe69e8>
  12ae90:	01299900 	call	129990 <sulp>
  12ae94:	100d883a 	mov	r6,r2
  12ae98:	180f883a 	mov	r7,r3
  12ae9c:	b809883a 	mov	r4,r23
  12aea0:	b00b883a 	mov	r5,r22
  12aea4:	013357c0 	call	13357c <__subdf3>
  12aea8:	000d883a 	mov	r6,zero
  12aeac:	000f883a 	mov	r7,zero
  12aeb0:	1009883a 	mov	r4,r2
  12aeb4:	180b883a 	mov	r5,r3
  12aeb8:	d8800815 	stw	r2,32(sp)
  12aebc:	1839883a 	mov	fp,r3
  12aec0:	0132ab80 	call	132ab8 <__eqdf2>
  12aec4:	da001317 	ldw	r8,76(sp)
  12aec8:	103ee326 	beq	r2,zero,12aa58 <_gp+0xfffe7380>
  12aecc:	003fd106 	br	12ae14 <_gp+0xfffe773c>
  12aed0:	d8c00717 	ldw	r3,28(sp)
  12aed4:	18002026 	beq	r3,zero,12af58 <_strtod_r+0x1564>
  12aed8:	b09ffc2c 	andhi	r2,r22,32752
  12aedc:	00c1a834 	movhi	r3,1696
  12aee0:	18801d36 	bltu	r3,r2,12af58 <_strtod_r+0x1564>
  12aee4:	1004d53a 	srli	r2,r2,20
  12aee8:	00c01ac4 	movi	r3,107
  12aeec:	1887c83a 	sub	r3,r3,r2
  12aef0:	00bfffc4 	movi	r2,-1
  12aef4:	10c4983a 	sll	r2,r2,r3
  12aef8:	15ffb41e 	bne	r2,r23,12adcc <_gp+0xfffe76f4>
  12aefc:	00dffc34 	movhi	r3,32752
  12af00:	18ffffc4 	addi	r3,r3,-1
  12af04:	b0c03126 	beq	r22,r3,12afcc <_strtod_r+0x15d8>
  12af08:	b59ffc2c 	andhi	r22,r22,32752
  12af0c:	00800434 	movhi	r2,16
  12af10:	d8000815 	stw	zero,32(sp)
  12af14:	b0b9883a 	add	fp,r22,r2
  12af18:	003fbe06 	br	12ae14 <_gp+0xfffe773c>
  12af1c:	b49ffc2c 	andhi	r18,r22,32752
  12af20:	9024d53a 	srli	r18,r18,20
  12af24:	00801ac4 	movi	r2,107
  12af28:	14a5c83a 	sub	r18,r2,r18
  12af2c:	04be910e 	bge	zero,r18,12a974 <_gp+0xfffe729c>
  12af30:	008007c4 	movi	r2,31
  12af34:	1480120e 	bge	r2,r18,12af80 <_strtod_r+0x158c>
  12af38:	00800d04 	movi	r2,52
  12af3c:	002f883a 	mov	r23,zero
  12af40:	14801a0e 	bge	r2,r18,12afac <_strtod_r+0x15b8>
  12af44:	0580dc34 	movhi	r22,880
  12af48:	003e8a06 	br	12a974 <_gp+0xfffe729c>
  12af4c:	d8000715 	stw	zero,28(sp)
  12af50:	04be7416 	blt	zero,r18,12a924 <_gp+0xfffe724c>
  12af54:	003e8706 	br	12a974 <_gp+0xfffe729c>
  12af58:	00bfffc4 	movi	r2,-1
  12af5c:	003fe606 	br	12aef8 <_gp+0xfffe7820>
  12af60:	073ffc34 	movhi	fp,65520
  12af64:	9725883a 	add	r18,r18,fp
  12af68:	017fffc4 	movi	r5,-1
  12af6c:	07000434 	movhi	fp,16
  12af70:	e179883a 	add	fp,fp,r5
  12af74:	d9400815 	stw	r5,32(sp)
  12af78:	9738b03a 	or	fp,r18,fp
  12af7c:	003fa506 	br	12ae14 <_gp+0xfffe773c>
  12af80:	00bfffc4 	movi	r2,-1
  12af84:	14a4983a 	sll	r18,r2,r18
  12af88:	95ee703a 	and	r23,r18,r23
  12af8c:	003e7906 	br	12a974 <_gp+0xfffe729c>
  12af90:	102f883a 	mov	r23,r2
  12af94:	182d883a 	mov	r22,r3
  12af98:	003e7406 	br	12a96c <_gp+0xfffe7294>
  12af9c:	e02d883a 	mov	r22,fp
  12afa0:	ddc00617 	ldw	r23,24(sp)
  12afa4:	e0f9883a 	add	fp,fp,r3
  12afa8:	003ef706 	br	12ab88 <_gp+0xfffe74b0>
  12afac:	94bff804 	addi	r18,r18,-32
  12afb0:	00bfffc4 	movi	r2,-1
  12afb4:	14a4983a 	sll	r18,r2,r18
  12afb8:	95ac703a 	and	r22,r18,r22
  12afbc:	003e6d06 	br	12a974 <_gp+0xfffe729c>
  12afc0:	102f883a 	mov	r23,r2
  12afc4:	182d883a 	mov	r22,r3
  12afc8:	003c3d06 	br	12a0c0 <_gp+0xfffe69e8>
  12afcc:	00ffffc4 	movi	r3,-1
  12afd0:	10ffcd1e 	bne	r2,r3,12af08 <_gp+0xfffe7830>
  12afd4:	003dba06 	br	12a6c0 <_gp+0xfffe6fe8>

0012afd8 <strtod>:
  12afd8:	00800534 	movhi	r2,20
  12afdc:	10adba04 	addi	r2,r2,-18712
  12afe0:	280d883a 	mov	r6,r5
  12afe4:	200b883a 	mov	r5,r4
  12afe8:	11000017 	ldw	r4,0(r2)
  12afec:	01299f41 	jmpi	1299f4 <_strtod_r>

0012aff0 <strtof>:
  12aff0:	defffb04 	addi	sp,sp,-20
  12aff4:	dcc00315 	stw	r19,12(sp)
  12aff8:	04c00534 	movhi	r19,20
  12affc:	9cedba04 	addi	r19,r19,-18712
  12b000:	280d883a 	mov	r6,r5
  12b004:	200b883a 	mov	r5,r4
  12b008:	99000017 	ldw	r4,0(r19)
  12b00c:	dfc00415 	stw	ra,16(sp)
  12b010:	dc800215 	stw	r18,8(sp)
  12b014:	dc400115 	stw	r17,4(sp)
  12b018:	dc000015 	stw	r16,0(sp)
  12b01c:	01299f40 	call	1299f4 <_strtod_r>
  12b020:	1009883a 	mov	r4,r2
  12b024:	180b883a 	mov	r5,r3
  12b028:	1025883a 	mov	r18,r2
  12b02c:	1823883a 	mov	r17,r3
  12b030:	013407c0 	call	13407c <__truncdfsf2>
  12b034:	000b883a 	mov	r5,zero
  12b038:	1009883a 	mov	r4,r2
  12b03c:	1021883a 	mov	r16,r2
  12b040:	01316400 	call	131640 <__eqsf2>
  12b044:	1000111e 	bne	r2,zero,12b08c <strtof+0x9c>
  12b048:	000d883a 	mov	r6,zero
  12b04c:	000f883a 	mov	r7,zero
  12b050:	9009883a 	mov	r4,r18
  12b054:	880b883a 	mov	r5,r17
  12b058:	0132ab80 	call	132ab8 <__eqdf2>
  12b05c:	10000b26 	beq	r2,zero,12b08c <strtof+0x9c>
  12b060:	98800017 	ldw	r2,0(r19)
  12b064:	00c00884 	movi	r3,34
  12b068:	10c00015 	stw	r3,0(r2)
  12b06c:	8005883a 	mov	r2,r16
  12b070:	dfc00417 	ldw	ra,16(sp)
  12b074:	dcc00317 	ldw	r19,12(sp)
  12b078:	dc800217 	ldw	r18,8(sp)
  12b07c:	dc400117 	ldw	r17,4(sp)
  12b080:	dc000017 	ldw	r16,0(sp)
  12b084:	dec00504 	addi	sp,sp,20
  12b088:	f800283a 	ret
  12b08c:	015fe034 	movhi	r5,32640
  12b090:	297fffc4 	addi	r5,r5,-1
  12b094:	8009883a 	mov	r4,r16
  12b098:	01316b80 	call	1316b8 <__gesf2>
  12b09c:	0080070e 	bge	zero,r2,12b0bc <strtof+0xcc>
  12b0a0:	01dffc34 	movhi	r7,32752
  12b0a4:	39ffffc4 	addi	r7,r7,-1
  12b0a8:	01bfffc4 	movi	r6,-1
  12b0ac:	9009883a 	mov	r4,r18
  12b0b0:	880b883a 	mov	r5,r17
  12b0b4:	0132b400 	call	132b40 <__gedf2>
  12b0b8:	00bfe90e 	bge	zero,r2,12b060 <_gp+0xfffe7988>
  12b0bc:	017fe034 	movhi	r5,65408
  12b0c0:	297fffc4 	addi	r5,r5,-1
  12b0c4:	8009883a 	mov	r4,r16
  12b0c8:	01317740 	call	131774 <__lesf2>
  12b0cc:	103fe70e 	bge	r2,zero,12b06c <_gp+0xfffe7994>
  12b0d0:	01fffc34 	movhi	r7,65520
  12b0d4:	39ffffc4 	addi	r7,r7,-1
  12b0d8:	01bfffc4 	movi	r6,-1
  12b0dc:	9009883a 	mov	r4,r18
  12b0e0:	880b883a 	mov	r5,r17
  12b0e4:	0132c1c0 	call	132c1c <__ledf2>
  12b0e8:	103fdd0e 	bge	r2,zero,12b060 <_gp+0xfffe7988>
  12b0ec:	003fdf06 	br	12b06c <_gp+0xfffe7994>

0012b0f0 <_strtol_r>:
  12b0f0:	00800534 	movhi	r2,20
  12b0f4:	defff204 	addi	sp,sp,-56
  12b0f8:	10adb804 	addi	r2,r2,-18720
  12b0fc:	dd800a15 	stw	r22,40(sp)
  12b100:	15800017 	ldw	r22,0(r2)
  12b104:	df000c15 	stw	fp,48(sp)
  12b108:	d9000315 	stw	r4,12(sp)
  12b10c:	dfc00d15 	stw	ra,52(sp)
  12b110:	ddc00b15 	stw	r23,44(sp)
  12b114:	dd400915 	stw	r21,36(sp)
  12b118:	dd000815 	stw	r20,32(sp)
  12b11c:	dcc00715 	stw	r19,28(sp)
  12b120:	dc800615 	stw	r18,24(sp)
  12b124:	dc400515 	stw	r17,20(sp)
  12b128:	dc000415 	stw	r16,16(sp)
  12b12c:	d9400215 	stw	r5,8(sp)
  12b130:	d9800015 	stw	r6,0(sp)
  12b134:	3839883a 	mov	fp,r7
  12b138:	2809883a 	mov	r4,r5
  12b13c:	24000003 	ldbu	r16,0(r4)
  12b140:	24400044 	addi	r17,r4,1
  12b144:	2007883a 	mov	r3,r4
  12b148:	b405883a 	add	r2,r22,r16
  12b14c:	10800043 	ldbu	r2,1(r2)
  12b150:	8809883a 	mov	r4,r17
  12b154:	1080020c 	andi	r2,r2,8
  12b158:	103ff81e 	bne	r2,zero,12b13c <_gp+0xfffe7a64>
  12b15c:	00800b44 	movi	r2,45
  12b160:	80805526 	beq	r16,r2,12b2b8 <_strtol_r+0x1c8>
  12b164:	00800ac4 	movi	r2,43
  12b168:	80806026 	beq	r16,r2,12b2ec <_strtol_r+0x1fc>
  12b16c:	0029883a 	mov	r20,zero
  12b170:	e0004726 	beq	fp,zero,12b290 <_strtol_r+0x1a0>
  12b174:	00800404 	movi	r2,16
  12b178:	e0806626 	beq	fp,r2,12b314 <_strtol_r+0x224>
  12b17c:	e027883a 	mov	r19,fp
  12b180:	00a00034 	movhi	r2,32768
  12b184:	a025003a 	cmpeq	r18,r20,zero
  12b188:	14a5c83a 	sub	r18,r2,r18
  12b18c:	9009883a 	mov	r4,r18
  12b190:	980b883a 	mov	r5,r19
  12b194:	01213100 	call	121310 <__umodsi3>
  12b198:	9009883a 	mov	r4,r18
  12b19c:	980b883a 	mov	r5,r19
  12b1a0:	d8800115 	stw	r2,4(sp)
  12b1a4:	01212ac0 	call	1212ac <__udivsi3>
  12b1a8:	b407883a 	add	r3,r22,r16
  12b1ac:	18c00043 	ldbu	r3,1(r3)
  12b1b0:	102b883a 	mov	r21,r2
  12b1b4:	0009883a 	mov	r4,zero
  12b1b8:	1940010c 	andi	r5,r3,4
  12b1bc:	0005883a 	mov	r2,zero
  12b1c0:	04800044 	movi	r18,1
  12b1c4:	05ffffc4 	movi	r23,-1
  12b1c8:	28000f26 	beq	r5,zero,12b208 <_strtol_r+0x118>
  12b1cc:	843ff404 	addi	r16,r16,-48
  12b1d0:	8700130e 	bge	r16,fp,12b220 <_strtol_r+0x130>
  12b1d4:	15c00626 	beq	r2,r23,12b1f0 <_strtol_r+0x100>
  12b1d8:	a9002936 	bltu	r21,r4,12b280 <_strtol_r+0x190>
  12b1dc:	25402626 	beq	r4,r21,12b278 <_strtol_r+0x188>
  12b1e0:	980b883a 	mov	r5,r19
  12b1e4:	01213680 	call	121368 <__mulsi3>
  12b1e8:	8089883a 	add	r4,r16,r2
  12b1ec:	00800044 	movi	r2,1
  12b1f0:	8c000003 	ldbu	r16,0(r17)
  12b1f4:	8c400044 	addi	r17,r17,1
  12b1f8:	b407883a 	add	r3,r22,r16
  12b1fc:	18c00043 	ldbu	r3,1(r3)
  12b200:	1940010c 	andi	r5,r3,4
  12b204:	283ff11e 	bne	r5,zero,12b1cc <_gp+0xfffe7af4>
  12b208:	18c000cc 	andi	r3,r3,3
  12b20c:	18000426 	beq	r3,zero,12b220 <_strtol_r+0x130>
  12b210:	1c801d26 	beq	r3,r18,12b288 <_strtol_r+0x198>
  12b214:	00c015c4 	movi	r3,87
  12b218:	80e1c83a 	sub	r16,r16,r3
  12b21c:	873fed16 	blt	r16,fp,12b1d4 <_gp+0xfffe7afc>
  12b220:	00ffffc4 	movi	r3,-1
  12b224:	10c02826 	beq	r2,r3,12b2c8 <_strtol_r+0x1d8>
  12b228:	a0001e1e 	bne	r20,zero,12b2a4 <_strtol_r+0x1b4>
  12b22c:	d8c00017 	ldw	r3,0(sp)
  12b230:	18004326 	beq	r3,zero,12b340 <_strtol_r+0x250>
  12b234:	10001d1e 	bne	r2,zero,12b2ac <_strtol_r+0x1bc>
  12b238:	dd800217 	ldw	r22,8(sp)
  12b23c:	2005883a 	mov	r2,r4
  12b240:	d8c00017 	ldw	r3,0(sp)
  12b244:	1d800015 	stw	r22,0(r3)
  12b248:	dfc00d17 	ldw	ra,52(sp)
  12b24c:	df000c17 	ldw	fp,48(sp)
  12b250:	ddc00b17 	ldw	r23,44(sp)
  12b254:	dd800a17 	ldw	r22,40(sp)
  12b258:	dd400917 	ldw	r21,36(sp)
  12b25c:	dd000817 	ldw	r20,32(sp)
  12b260:	dcc00717 	ldw	r19,28(sp)
  12b264:	dc800617 	ldw	r18,24(sp)
  12b268:	dc400517 	ldw	r17,20(sp)
  12b26c:	dc000417 	ldw	r16,16(sp)
  12b270:	dec00e04 	addi	sp,sp,56
  12b274:	f800283a 	ret
  12b278:	d8c00117 	ldw	r3,4(sp)
  12b27c:	1c3fd80e 	bge	r3,r16,12b1e0 <_gp+0xfffe7b08>
  12b280:	00bfffc4 	movi	r2,-1
  12b284:	003fda06 	br	12b1f0 <_gp+0xfffe7b18>
  12b288:	00c00dc4 	movi	r3,55
  12b28c:	003fe206 	br	12b218 <_gp+0xfffe7b40>
  12b290:	00800c04 	movi	r2,48
  12b294:	80801926 	beq	r16,r2,12b2fc <_strtol_r+0x20c>
  12b298:	07000284 	movi	fp,10
  12b29c:	e027883a 	mov	r19,fp
  12b2a0:	003fb706 	br	12b180 <_gp+0xfffe7aa8>
  12b2a4:	0109c83a 	sub	r4,zero,r4
  12b2a8:	003fe006 	br	12b22c <_gp+0xfffe7b54>
  12b2ac:	2005883a 	mov	r2,r4
  12b2b0:	8dbfffc4 	addi	r22,r17,-1
  12b2b4:	003fe206 	br	12b240 <_gp+0xfffe7b68>
  12b2b8:	1c400084 	addi	r17,r3,2
  12b2bc:	1c000043 	ldbu	r16,1(r3)
  12b2c0:	05000044 	movi	r20,1
  12b2c4:	003faa06 	br	12b170 <_gp+0xfffe7a98>
  12b2c8:	d9000317 	ldw	r4,12(sp)
  12b2cc:	00c00884 	movi	r3,34
  12b2d0:	a005003a 	cmpeq	r2,r20,zero
  12b2d4:	20c00015 	stw	r3,0(r4)
  12b2d8:	00e00034 	movhi	r3,32768
  12b2dc:	1885c83a 	sub	r2,r3,r2
  12b2e0:	d8c00017 	ldw	r3,0(sp)
  12b2e4:	183ff21e 	bne	r3,zero,12b2b0 <_gp+0xfffe7bd8>
  12b2e8:	003fd706 	br	12b248 <_gp+0xfffe7b70>
  12b2ec:	1c400084 	addi	r17,r3,2
  12b2f0:	1c000043 	ldbu	r16,1(r3)
  12b2f4:	0029883a 	mov	r20,zero
  12b2f8:	003f9d06 	br	12b170 <_gp+0xfffe7a98>
  12b2fc:	88800003 	ldbu	r2,0(r17)
  12b300:	00c01604 	movi	r3,88
  12b304:	108037cc 	andi	r2,r2,223
  12b308:	10c00826 	beq	r2,r3,12b32c <_strtol_r+0x23c>
  12b30c:	07000204 	movi	fp,8
  12b310:	003f9a06 	br	12b17c <_gp+0xfffe7aa4>
  12b314:	00800c04 	movi	r2,48
  12b318:	80bf981e 	bne	r16,r2,12b17c <_gp+0xfffe7aa4>
  12b31c:	88800003 	ldbu	r2,0(r17)
  12b320:	00c01604 	movi	r3,88
  12b324:	108037cc 	andi	r2,r2,223
  12b328:	10ff941e 	bne	r2,r3,12b17c <_gp+0xfffe7aa4>
  12b32c:	04c00404 	movi	r19,16
  12b330:	8c000043 	ldbu	r16,1(r17)
  12b334:	9839883a 	mov	fp,r19
  12b338:	8c400084 	addi	r17,r17,2
  12b33c:	003f9006 	br	12b180 <_gp+0xfffe7aa8>
  12b340:	2005883a 	mov	r2,r4
  12b344:	003fc006 	br	12b248 <_gp+0xfffe7b70>

0012b348 <strtol>:
  12b348:	00800534 	movhi	r2,20
  12b34c:	10adba04 	addi	r2,r2,-18712
  12b350:	300f883a 	mov	r7,r6
  12b354:	280d883a 	mov	r6,r5
  12b358:	200b883a 	mov	r5,r4
  12b35c:	11000017 	ldw	r4,0(r2)
  12b360:	012b0f01 	jmpi	12b0f0 <_strtol_r>

0012b364 <_strtoll_r>:
  12b364:	00800534 	movhi	r2,20
  12b368:	deffef04 	addi	sp,sp,-68
  12b36c:	10adb804 	addi	r2,r2,-18720
  12b370:	dd800d15 	stw	r22,52(sp)
  12b374:	15800017 	ldw	r22,0(r2)
  12b378:	df000f15 	stw	fp,60(sp)
  12b37c:	d9000515 	stw	r4,20(sp)
  12b380:	dfc01015 	stw	ra,64(sp)
  12b384:	ddc00e15 	stw	r23,56(sp)
  12b388:	dd400c15 	stw	r21,48(sp)
  12b38c:	dd000b15 	stw	r20,44(sp)
  12b390:	dcc00a15 	stw	r19,40(sp)
  12b394:	dc800915 	stw	r18,36(sp)
  12b398:	dc400815 	stw	r17,32(sp)
  12b39c:	dc000715 	stw	r16,28(sp)
  12b3a0:	d9400415 	stw	r5,16(sp)
  12b3a4:	d9800215 	stw	r6,8(sp)
  12b3a8:	3839883a 	mov	fp,r7
  12b3ac:	2809883a 	mov	r4,r5
  12b3b0:	22000003 	ldbu	r8,0(r4)
  12b3b4:	24400044 	addi	r17,r4,1
  12b3b8:	2007883a 	mov	r3,r4
  12b3bc:	b205883a 	add	r2,r22,r8
  12b3c0:	10800043 	ldbu	r2,1(r2)
  12b3c4:	8809883a 	mov	r4,r17
  12b3c8:	1080020c 	andi	r2,r2,8
  12b3cc:	103ff81e 	bne	r2,zero,12b3b0 <_gp+0xfffe7cd8>
  12b3d0:	00800b44 	movi	r2,45
  12b3d4:	40807e26 	beq	r8,r2,12b5d0 <_strtoll_r+0x26c>
  12b3d8:	00800ac4 	movi	r2,43
  12b3dc:	40808126 	beq	r8,r2,12b5e4 <_strtoll_r+0x280>
  12b3e0:	d8000115 	stw	zero,4(sp)
  12b3e4:	e0000b26 	beq	fp,zero,12b414 <_strtoll_r+0xb0>
  12b3e8:	00800404 	movi	r2,16
  12b3ec:	e0808926 	beq	fp,r2,12b614 <_strtoll_r+0x2b0>
  12b3f0:	e00bd7fa 	srai	r5,fp,31
  12b3f4:	d9000117 	ldw	r4,4(sp)
  12b3f8:	e025883a 	mov	r18,fp
  12b3fc:	d9400015 	stw	r5,0(sp)
  12b400:	20000b1e 	bne	r4,zero,12b430 <_strtoll_r+0xcc>
  12b404:	04200034 	movhi	r16,32768
  12b408:	843fffc4 	addi	r16,r16,-1
  12b40c:	053fffc4 	movi	r20,-1
  12b410:	00000906 	br	12b438 <_strtoll_r+0xd4>
  12b414:	00800c04 	movi	r2,48
  12b418:	40807626 	beq	r8,r2,12b5f4 <_strtoll_r+0x290>
  12b41c:	04800284 	movi	r18,10
  12b420:	d8000015 	stw	zero,0(sp)
  12b424:	9039883a 	mov	fp,r18
  12b428:	d9000117 	ldw	r4,4(sp)
  12b42c:	203ff526 	beq	r4,zero,12b404 <_gp+0xfffe7d2c>
  12b430:	0029883a 	mov	r20,zero
  12b434:	04200034 	movhi	r16,32768
  12b438:	d9c00017 	ldw	r7,0(sp)
  12b43c:	a009883a 	mov	r4,r20
  12b440:	800b883a 	mov	r5,r16
  12b444:	900d883a 	mov	r6,r18
  12b448:	da000615 	stw	r8,24(sp)
  12b44c:	013107c0 	call	13107c <__umoddi3>
  12b450:	d9c00017 	ldw	r7,0(sp)
  12b454:	a009883a 	mov	r4,r20
  12b458:	800b883a 	mov	r5,r16
  12b45c:	900d883a 	mov	r6,r18
  12b460:	d8800315 	stw	r2,12(sp)
  12b464:	0130a800 	call	130a80 <__udivdi3>
  12b468:	da000617 	ldw	r8,24(sp)
  12b46c:	1829883a 	mov	r20,r3
  12b470:	882f883a 	mov	r23,r17
  12b474:	b207883a 	add	r3,r22,r8
  12b478:	19800043 	ldbu	r6,1(r3)
  12b47c:	1021883a 	mov	r16,r2
  12b480:	000f883a 	mov	r7,zero
  12b484:	30c0010c 	andi	r3,r6,4
  12b488:	0009883a 	mov	r4,zero
  12b48c:	000b883a 	mov	r5,zero
  12b490:	04400044 	movi	r17,1
  12b494:	057fffc4 	movi	r21,-1
  12b498:	18000d26 	beq	r3,zero,12b4d0 <_strtoll_r+0x16c>
  12b49c:	44fff404 	addi	r19,r8,-48
  12b4a0:	9f00110e 	bge	r19,fp,12b4e8 <_strtoll_r+0x184>
  12b4a4:	3d400426 	beq	r7,r21,12b4b8 <_strtoll_r+0x154>
  12b4a8:	a1400236 	bltu	r20,r5,12b4b4 <_strtoll_r+0x150>
  12b4ac:	2d002a1e 	bne	r5,r20,12b558 <_strtoll_r+0x1f4>
  12b4b0:	8100292e 	bgeu	r16,r4,12b558 <_strtoll_r+0x1f4>
  12b4b4:	01ffffc4 	movi	r7,-1
  12b4b8:	ba000003 	ldbu	r8,0(r23)
  12b4bc:	bdc00044 	addi	r23,r23,1
  12b4c0:	b207883a 	add	r3,r22,r8
  12b4c4:	19800043 	ldbu	r6,1(r3)
  12b4c8:	30c0010c 	andi	r3,r6,4
  12b4cc:	183ff31e 	bne	r3,zero,12b49c <_gp+0xfffe7dc4>
  12b4d0:	318000cc 	andi	r6,r6,3
  12b4d4:	30000426 	beq	r6,zero,12b4e8 <_strtoll_r+0x184>
  12b4d8:	34402b26 	beq	r6,r17,12b588 <_strtoll_r+0x224>
  12b4dc:	00c015c4 	movi	r3,87
  12b4e0:	40e7c83a 	sub	r19,r8,r3
  12b4e4:	9f3fef16 	blt	r19,fp,12b4a4 <_gp+0xfffe7dcc>
  12b4e8:	00bfffc4 	movi	r2,-1
  12b4ec:	38802c26 	beq	r7,r2,12b5a0 <_strtoll_r+0x23c>
  12b4f0:	d8800117 	ldw	r2,4(sp)
  12b4f4:	10000426 	beq	r2,zero,12b508 <_strtoll_r+0x1a4>
  12b4f8:	0109c83a 	sub	r4,zero,r4
  12b4fc:	2004c03a 	cmpne	r2,r4,zero
  12b500:	0151c83a 	sub	r8,zero,r5
  12b504:	408bc83a 	sub	r5,r8,r2
  12b508:	d8800217 	ldw	r2,8(sp)
  12b50c:	10005026 	beq	r2,zero,12b650 <_strtoll_r+0x2ec>
  12b510:	2005883a 	mov	r2,r4
  12b514:	2807883a 	mov	r3,r5
  12b518:	38002b1e 	bne	r7,zero,12b5c8 <_strtoll_r+0x264>
  12b51c:	dd800417 	ldw	r22,16(sp)
  12b520:	d9000217 	ldw	r4,8(sp)
  12b524:	25800015 	stw	r22,0(r4)
  12b528:	dfc01017 	ldw	ra,64(sp)
  12b52c:	df000f17 	ldw	fp,60(sp)
  12b530:	ddc00e17 	ldw	r23,56(sp)
  12b534:	dd800d17 	ldw	r22,52(sp)
  12b538:	dd400c17 	ldw	r21,48(sp)
  12b53c:	dd000b17 	ldw	r20,44(sp)
  12b540:	dcc00a17 	ldw	r19,40(sp)
  12b544:	dc800917 	ldw	r18,36(sp)
  12b548:	dc400817 	ldw	r17,32(sp)
  12b54c:	dc000717 	ldw	r16,28(sp)
  12b550:	dec01104 	addi	sp,sp,68
  12b554:	f800283a 	ret
  12b558:	24000d26 	beq	r4,r16,12b590 <_strtoll_r+0x22c>
  12b55c:	d9c00017 	ldw	r7,0(sp)
  12b560:	900d883a 	mov	r6,r18
  12b564:	01309000 	call	130900 <__muldi3>
  12b568:	980bd7fa 	srai	r5,r19,31
  12b56c:	9885883a 	add	r2,r19,r2
  12b570:	14d1803a 	cmpltu	r8,r2,r19
  12b574:	28c7883a 	add	r3,r5,r3
  12b578:	1009883a 	mov	r4,r2
  12b57c:	40cb883a 	add	r5,r8,r3
  12b580:	01c00044 	movi	r7,1
  12b584:	003fcc06 	br	12b4b8 <_gp+0xfffe7de0>
  12b588:	00c00dc4 	movi	r3,55
  12b58c:	003fd406 	br	12b4e0 <_gp+0xfffe7e08>
  12b590:	2d3ff21e 	bne	r5,r20,12b55c <_gp+0xfffe7e84>
  12b594:	d8800317 	ldw	r2,12(sp)
  12b598:	14ffc616 	blt	r2,r19,12b4b4 <_gp+0xfffe7ddc>
  12b59c:	003fef06 	br	12b55c <_gp+0xfffe7e84>
  12b5a0:	d9000117 	ldw	r4,4(sp)
  12b5a4:	2000271e 	bne	r4,zero,12b644 <_strtoll_r+0x2e0>
  12b5a8:	00e00034 	movhi	r3,32768
  12b5ac:	18ffffc4 	addi	r3,r3,-1
  12b5b0:	3805883a 	mov	r2,r7
  12b5b4:	d9400517 	ldw	r5,20(sp)
  12b5b8:	01000884 	movi	r4,34
  12b5bc:	29000015 	stw	r4,0(r5)
  12b5c0:	d9000217 	ldw	r4,8(sp)
  12b5c4:	203fd826 	beq	r4,zero,12b528 <_gp+0xfffe7e50>
  12b5c8:	bdbfffc4 	addi	r22,r23,-1
  12b5cc:	003fd406 	br	12b520 <_gp+0xfffe7e48>
  12b5d0:	00800044 	movi	r2,1
  12b5d4:	1c400084 	addi	r17,r3,2
  12b5d8:	1a000043 	ldbu	r8,1(r3)
  12b5dc:	d8800115 	stw	r2,4(sp)
  12b5e0:	003f8006 	br	12b3e4 <_gp+0xfffe7d0c>
  12b5e4:	1c400084 	addi	r17,r3,2
  12b5e8:	1a000043 	ldbu	r8,1(r3)
  12b5ec:	d8000115 	stw	zero,4(sp)
  12b5f0:	003f7c06 	br	12b3e4 <_gp+0xfffe7d0c>
  12b5f4:	88800003 	ldbu	r2,0(r17)
  12b5f8:	00c01604 	movi	r3,88
  12b5fc:	108037cc 	andi	r2,r2,223
  12b600:	10c00a26 	beq	r2,r3,12b62c <_strtoll_r+0x2c8>
  12b604:	04800204 	movi	r18,8
  12b608:	d8000015 	stw	zero,0(sp)
  12b60c:	9039883a 	mov	fp,r18
  12b610:	003f8506 	br	12b428 <_gp+0xfffe7d50>
  12b614:	00800c04 	movi	r2,48
  12b618:	4080101e 	bne	r8,r2,12b65c <_strtoll_r+0x2f8>
  12b61c:	88800003 	ldbu	r2,0(r17)
  12b620:	00c01604 	movi	r3,88
  12b624:	108037cc 	andi	r2,r2,223
  12b628:	10c00c1e 	bne	r2,r3,12b65c <_strtoll_r+0x2f8>
  12b62c:	04800404 	movi	r18,16
  12b630:	8a000043 	ldbu	r8,1(r17)
  12b634:	d8000015 	stw	zero,0(sp)
  12b638:	8c400084 	addi	r17,r17,2
  12b63c:	9039883a 	mov	fp,r18
  12b640:	003f7906 	br	12b428 <_gp+0xfffe7d50>
  12b644:	0005883a 	mov	r2,zero
  12b648:	00e00034 	movhi	r3,32768
  12b64c:	003fd906 	br	12b5b4 <_gp+0xfffe7edc>
  12b650:	2005883a 	mov	r2,r4
  12b654:	2807883a 	mov	r3,r5
  12b658:	003fb306 	br	12b528 <_gp+0xfffe7e50>
  12b65c:	e025883a 	mov	r18,fp
  12b660:	d8000015 	stw	zero,0(sp)
  12b664:	003f7006 	br	12b428 <_gp+0xfffe7d50>

0012b668 <_strtoul_r>:
  12b668:	00800534 	movhi	r2,20
  12b66c:	defff204 	addi	sp,sp,-56
  12b670:	10adb804 	addi	r2,r2,-18720
  12b674:	dd800a15 	stw	r22,40(sp)
  12b678:	15800017 	ldw	r22,0(r2)
  12b67c:	df000c15 	stw	fp,48(sp)
  12b680:	dd400915 	stw	r21,36(sp)
  12b684:	d9000315 	stw	r4,12(sp)
  12b688:	dfc00d15 	stw	ra,52(sp)
  12b68c:	ddc00b15 	stw	r23,44(sp)
  12b690:	dd000815 	stw	r20,32(sp)
  12b694:	dcc00715 	stw	r19,28(sp)
  12b698:	dc800615 	stw	r18,24(sp)
  12b69c:	dc400515 	stw	r17,20(sp)
  12b6a0:	dc000415 	stw	r16,16(sp)
  12b6a4:	d9400015 	stw	r5,0(sp)
  12b6a8:	302b883a 	mov	r21,r6
  12b6ac:	3839883a 	mov	fp,r7
  12b6b0:	2809883a 	mov	r4,r5
  12b6b4:	24000003 	ldbu	r16,0(r4)
  12b6b8:	24400044 	addi	r17,r4,1
  12b6bc:	2007883a 	mov	r3,r4
  12b6c0:	b405883a 	add	r2,r22,r16
  12b6c4:	10800043 	ldbu	r2,1(r2)
  12b6c8:	8809883a 	mov	r4,r17
  12b6cc:	1080020c 	andi	r2,r2,8
  12b6d0:	103ff81e 	bne	r2,zero,12b6b4 <_gp+0xfffe7fdc>
  12b6d4:	00800b44 	movi	r2,45
  12b6d8:	80805826 	beq	r16,r2,12b83c <_strtoul_r+0x1d4>
  12b6dc:	00800ac4 	movi	r2,43
  12b6e0:	80805b26 	beq	r16,r2,12b850 <_strtoul_r+0x1e8>
  12b6e4:	d8000215 	stw	zero,8(sp)
  12b6e8:	e0000d26 	beq	fp,zero,12b720 <_strtoul_r+0xb8>
  12b6ec:	00800404 	movi	r2,16
  12b6f0:	e0806626 	beq	fp,r2,12b88c <_strtoul_r+0x224>
  12b6f4:	013fffc4 	movi	r4,-1
  12b6f8:	e00b883a 	mov	r5,fp
  12b6fc:	01212ac0 	call	1212ac <__udivsi3>
  12b700:	e00b883a 	mov	r5,fp
  12b704:	013fffc4 	movi	r4,-1
  12b708:	1025883a 	mov	r18,r2
  12b70c:	01213100 	call	121310 <__umodsi3>
  12b710:	d8800115 	stw	r2,4(sp)
  12b714:	e027883a 	mov	r19,fp
  12b718:	902f883a 	mov	r23,r18
  12b71c:	00000806 	br	12b740 <_strtoul_r+0xd8>
  12b720:	00800c04 	movi	r2,48
  12b724:	80804e26 	beq	r16,r2,12b860 <_strtoul_r+0x1f8>
  12b728:	07000284 	movi	fp,10
  12b72c:	00c00144 	movi	r3,5
  12b730:	05c666b4 	movhi	r23,6554
  12b734:	d8c00115 	stw	r3,4(sp)
  12b738:	bde66644 	addi	r23,r23,-26215
  12b73c:	e027883a 	mov	r19,fp
  12b740:	b407883a 	add	r3,r22,r16
  12b744:	18c00043 	ldbu	r3,1(r3)
  12b748:	0005883a 	mov	r2,zero
  12b74c:	0009883a 	mov	r4,zero
  12b750:	1940010c 	andi	r5,r3,4
  12b754:	04800044 	movi	r18,1
  12b758:	053fffc4 	movi	r20,-1
  12b75c:	28000f26 	beq	r5,zero,12b79c <_strtoul_r+0x134>
  12b760:	843ff404 	addi	r16,r16,-48
  12b764:	8700130e 	bge	r16,fp,12b7b4 <_strtoul_r+0x14c>
  12b768:	15000626 	beq	r2,r20,12b784 <_strtoul_r+0x11c>
  12b76c:	b9002836 	bltu	r23,r4,12b810 <_strtoul_r+0x1a8>
  12b770:	25c02526 	beq	r4,r23,12b808 <_strtoul_r+0x1a0>
  12b774:	980b883a 	mov	r5,r19
  12b778:	01213680 	call	121368 <__mulsi3>
  12b77c:	8089883a 	add	r4,r16,r2
  12b780:	00800044 	movi	r2,1
  12b784:	8c000003 	ldbu	r16,0(r17)
  12b788:	8c400044 	addi	r17,r17,1
  12b78c:	b407883a 	add	r3,r22,r16
  12b790:	18c00043 	ldbu	r3,1(r3)
  12b794:	1940010c 	andi	r5,r3,4
  12b798:	283ff11e 	bne	r5,zero,12b760 <_gp+0xfffe8088>
  12b79c:	18c000cc 	andi	r3,r3,3
  12b7a0:	18000426 	beq	r3,zero,12b7b4 <_strtoul_r+0x14c>
  12b7a4:	1c801c26 	beq	r3,r18,12b818 <_strtoul_r+0x1b0>
  12b7a8:	00c015c4 	movi	r3,87
  12b7ac:	80e1c83a 	sub	r16,r16,r3
  12b7b0:	873fed16 	blt	r16,fp,12b768 <_gp+0xfffe8090>
  12b7b4:	10001a16 	blt	r2,zero,12b820 <_strtoul_r+0x1b8>
  12b7b8:	d8c00217 	ldw	r3,8(sp)
  12b7bc:	18000126 	beq	r3,zero,12b7c4 <_strtoul_r+0x15c>
  12b7c0:	0109c83a 	sub	r4,zero,r4
  12b7c4:	a8000326 	beq	r21,zero,12b7d4 <_strtoul_r+0x16c>
  12b7c8:	dd000017 	ldw	r20,0(sp)
  12b7cc:	1000191e 	bne	r2,zero,12b834 <_strtoul_r+0x1cc>
  12b7d0:	ad000015 	stw	r20,0(r21)
  12b7d4:	2005883a 	mov	r2,r4
  12b7d8:	dfc00d17 	ldw	ra,52(sp)
  12b7dc:	df000c17 	ldw	fp,48(sp)
  12b7e0:	ddc00b17 	ldw	r23,44(sp)
  12b7e4:	dd800a17 	ldw	r22,40(sp)
  12b7e8:	dd400917 	ldw	r21,36(sp)
  12b7ec:	dd000817 	ldw	r20,32(sp)
  12b7f0:	dcc00717 	ldw	r19,28(sp)
  12b7f4:	dc800617 	ldw	r18,24(sp)
  12b7f8:	dc400517 	ldw	r17,20(sp)
  12b7fc:	dc000417 	ldw	r16,16(sp)
  12b800:	dec00e04 	addi	sp,sp,56
  12b804:	f800283a 	ret
  12b808:	d8c00117 	ldw	r3,4(sp)
  12b80c:	1c3fd90e 	bge	r3,r16,12b774 <_gp+0xfffe809c>
  12b810:	00bfffc4 	movi	r2,-1
  12b814:	003fdb06 	br	12b784 <_gp+0xfffe80ac>
  12b818:	00c00dc4 	movi	r3,55
  12b81c:	003fe306 	br	12b7ac <_gp+0xfffe80d4>
  12b820:	d8c00317 	ldw	r3,12(sp)
  12b824:	00800884 	movi	r2,34
  12b828:	013fffc4 	movi	r4,-1
  12b82c:	18800015 	stw	r2,0(r3)
  12b830:	a83fe826 	beq	r21,zero,12b7d4 <_gp+0xfffe80fc>
  12b834:	8d3fffc4 	addi	r20,r17,-1
  12b838:	003fe506 	br	12b7d0 <_gp+0xfffe80f8>
  12b83c:	1c400084 	addi	r17,r3,2
  12b840:	1c000043 	ldbu	r16,1(r3)
  12b844:	00c00044 	movi	r3,1
  12b848:	d8c00215 	stw	r3,8(sp)
  12b84c:	003fa606 	br	12b6e8 <_gp+0xfffe8010>
  12b850:	1c400084 	addi	r17,r3,2
  12b854:	1c000043 	ldbu	r16,1(r3)
  12b858:	d8000215 	stw	zero,8(sp)
  12b85c:	003fa206 	br	12b6e8 <_gp+0xfffe8010>
  12b860:	88800003 	ldbu	r2,0(r17)
  12b864:	00c01604 	movi	r3,88
  12b868:	108037cc 	andi	r2,r2,223
  12b86c:	10c00d26 	beq	r2,r3,12b8a4 <_strtoul_r+0x23c>
  12b870:	07000204 	movi	fp,8
  12b874:	00c001c4 	movi	r3,7
  12b878:	05c80034 	movhi	r23,8192
  12b87c:	d8c00115 	stw	r3,4(sp)
  12b880:	bdffffc4 	addi	r23,r23,-1
  12b884:	e027883a 	mov	r19,fp
  12b888:	003fad06 	br	12b740 <_gp+0xfffe8068>
  12b88c:	00800c04 	movi	r2,48
  12b890:	80800d1e 	bne	r16,r2,12b8c8 <_strtoul_r+0x260>
  12b894:	88800003 	ldbu	r2,0(r17)
  12b898:	00c01604 	movi	r3,88
  12b89c:	108037cc 	andi	r2,r2,223
  12b8a0:	10c0091e 	bne	r2,r3,12b8c8 <_strtoul_r+0x260>
  12b8a4:	04c00404 	movi	r19,16
  12b8a8:	00c003c4 	movi	r3,15
  12b8ac:	04840034 	movhi	r18,4096
  12b8b0:	8c000043 	ldbu	r16,1(r17)
  12b8b4:	d8c00115 	stw	r3,4(sp)
  12b8b8:	8c400084 	addi	r17,r17,2
  12b8bc:	94bfffc4 	addi	r18,r18,-1
  12b8c0:	9839883a 	mov	fp,r19
  12b8c4:	003f9406 	br	12b718 <_gp+0xfffe8040>
  12b8c8:	00c003c4 	movi	r3,15
  12b8cc:	05c40034 	movhi	r23,4096
  12b8d0:	d8c00115 	stw	r3,4(sp)
  12b8d4:	bdffffc4 	addi	r23,r23,-1
  12b8d8:	e027883a 	mov	r19,fp
  12b8dc:	003f9806 	br	12b740 <_gp+0xfffe8068>

0012b8e0 <strtoul>:
  12b8e0:	00800534 	movhi	r2,20
  12b8e4:	10adba04 	addi	r2,r2,-18712
  12b8e8:	300f883a 	mov	r7,r6
  12b8ec:	280d883a 	mov	r6,r5
  12b8f0:	200b883a 	mov	r5,r4
  12b8f4:	11000017 	ldw	r4,0(r2)
  12b8f8:	012b6681 	jmpi	12b668 <_strtoul_r>

0012b8fc <_strtoull_r>:
  12b8fc:	00800534 	movhi	r2,20
  12b900:	deffef04 	addi	sp,sp,-68
  12b904:	10adb804 	addi	r2,r2,-18720
  12b908:	dd800d15 	stw	r22,52(sp)
  12b90c:	15800017 	ldw	r22,0(r2)
  12b910:	df000f15 	stw	fp,60(sp)
  12b914:	d9000515 	stw	r4,20(sp)
  12b918:	dfc01015 	stw	ra,64(sp)
  12b91c:	ddc00e15 	stw	r23,56(sp)
  12b920:	dd400c15 	stw	r21,48(sp)
  12b924:	dd000b15 	stw	r20,44(sp)
  12b928:	dcc00a15 	stw	r19,40(sp)
  12b92c:	dc800915 	stw	r18,36(sp)
  12b930:	dc400815 	stw	r17,32(sp)
  12b934:	dc000715 	stw	r16,28(sp)
  12b938:	d9400215 	stw	r5,8(sp)
  12b93c:	d9800115 	stw	r6,4(sp)
  12b940:	3839883a 	mov	fp,r7
  12b944:	2809883a 	mov	r4,r5
  12b948:	22000003 	ldbu	r8,0(r4)
  12b94c:	24400044 	addi	r17,r4,1
  12b950:	2007883a 	mov	r3,r4
  12b954:	b205883a 	add	r2,r22,r8
  12b958:	10800043 	ldbu	r2,1(r2)
  12b95c:	8809883a 	mov	r4,r17
  12b960:	1080020c 	andi	r2,r2,8
  12b964:	103ff81e 	bne	r2,zero,12b948 <_gp+0xfffe8270>
  12b968:	00800b44 	movi	r2,45
  12b96c:	40807726 	beq	r8,r2,12bb4c <_strtoull_r+0x250>
  12b970:	00800ac4 	movi	r2,43
  12b974:	40807a26 	beq	r8,r2,12bb60 <_strtoull_r+0x264>
  12b978:	d8000415 	stw	zero,16(sp)
  12b97c:	e0001426 	beq	fp,zero,12b9d0 <_strtoull_r+0xd4>
  12b980:	00800404 	movi	r2,16
  12b984:	e0808826 	beq	fp,r2,12bba8 <_strtoull_r+0x2ac>
  12b988:	e025d7fa 	srai	r18,fp,31
  12b98c:	013fffc4 	movi	r4,-1
  12b990:	200b883a 	mov	r5,r4
  12b994:	e00d883a 	mov	r6,fp
  12b998:	900f883a 	mov	r7,r18
  12b99c:	da000615 	stw	r8,24(sp)
  12b9a0:	0130a800 	call	130a80 <__udivdi3>
  12b9a4:	013fffc4 	movi	r4,-1
  12b9a8:	e00d883a 	mov	r6,fp
  12b9ac:	900f883a 	mov	r7,r18
  12b9b0:	200b883a 	mov	r5,r4
  12b9b4:	1021883a 	mov	r16,r2
  12b9b8:	182f883a 	mov	r23,r3
  12b9bc:	013107c0 	call	13107c <__umoddi3>
  12b9c0:	d8800315 	stw	r2,12(sp)
  12b9c4:	df000015 	stw	fp,0(sp)
  12b9c8:	da000617 	ldw	r8,24(sp)
  12b9cc:	00000c06 	br	12ba00 <_strtoull_r+0x104>
  12b9d0:	00800c04 	movi	r2,48
  12b9d4:	40806626 	beq	r8,r2,12bb70 <_strtoull_r+0x274>
  12b9d8:	00800284 	movi	r2,10
  12b9dc:	00c00144 	movi	r3,5
  12b9e0:	042666b4 	movhi	r16,39322
  12b9e4:	05c666b4 	movhi	r23,6554
  12b9e8:	d8800015 	stw	r2,0(sp)
  12b9ec:	d8c00315 	stw	r3,12(sp)
  12b9f0:	84266644 	addi	r16,r16,-26215
  12b9f4:	bde66644 	addi	r23,r23,-26215
  12b9f8:	0025883a 	mov	r18,zero
  12b9fc:	1039883a 	mov	fp,r2
  12ba00:	b205883a 	add	r2,r22,r8
  12ba04:	11800043 	ldbu	r6,1(r2)
  12ba08:	882b883a 	mov	r21,r17
  12ba0c:	000f883a 	mov	r7,zero
  12ba10:	3080010c 	andi	r2,r6,4
  12ba14:	0009883a 	mov	r4,zero
  12ba18:	000b883a 	mov	r5,zero
  12ba1c:	04400044 	movi	r17,1
  12ba20:	053fffc4 	movi	r20,-1
  12ba24:	10000d26 	beq	r2,zero,12ba5c <_strtoull_r+0x160>
  12ba28:	44fff404 	addi	r19,r8,-48
  12ba2c:	9f00110e 	bge	r19,fp,12ba74 <_strtoull_r+0x178>
  12ba30:	3d000426 	beq	r7,r20,12ba44 <_strtoull_r+0x148>
  12ba34:	b9400236 	bltu	r23,r5,12ba40 <_strtoull_r+0x144>
  12ba38:	2dc0291e 	bne	r5,r23,12bae0 <_strtoull_r+0x1e4>
  12ba3c:	8100282e 	bgeu	r16,r4,12bae0 <_strtoull_r+0x1e4>
  12ba40:	01ffffc4 	movi	r7,-1
  12ba44:	aa000003 	ldbu	r8,0(r21)
  12ba48:	ad400044 	addi	r21,r21,1
  12ba4c:	b205883a 	add	r2,r22,r8
  12ba50:	11800043 	ldbu	r6,1(r2)
  12ba54:	3080010c 	andi	r2,r6,4
  12ba58:	103ff31e 	bne	r2,zero,12ba28 <_gp+0xfffe8350>
  12ba5c:	318000cc 	andi	r6,r6,3
  12ba60:	30000426 	beq	r6,zero,12ba74 <_strtoull_r+0x178>
  12ba64:	34402a26 	beq	r6,r17,12bb10 <_strtoull_r+0x214>
  12ba68:	00c015c4 	movi	r3,87
  12ba6c:	40e7c83a 	sub	r19,r8,r3
  12ba70:	9f3fef16 	blt	r19,fp,12ba30 <_gp+0xfffe8358>
  12ba74:	38002c16 	blt	r7,zero,12bb28 <_strtoull_r+0x22c>
  12ba78:	d8c00417 	ldw	r3,16(sp)
  12ba7c:	18000426 	beq	r3,zero,12ba90 <_strtoull_r+0x194>
  12ba80:	0109c83a 	sub	r4,zero,r4
  12ba84:	2004c03a 	cmpne	r2,r4,zero
  12ba88:	0151c83a 	sub	r8,zero,r5
  12ba8c:	408bc83a 	sub	r5,r8,r2
  12ba90:	d8800117 	ldw	r2,4(sp)
  12ba94:	10000426 	beq	r2,zero,12baa8 <_strtoull_r+0x1ac>
  12ba98:	dd000217 	ldw	r20,8(sp)
  12ba9c:	3800291e 	bne	r7,zero,12bb44 <_strtoull_r+0x248>
  12baa0:	d8c00117 	ldw	r3,4(sp)
  12baa4:	1d000015 	stw	r20,0(r3)
  12baa8:	2005883a 	mov	r2,r4
  12baac:	2807883a 	mov	r3,r5
  12bab0:	dfc01017 	ldw	ra,64(sp)
  12bab4:	df000f17 	ldw	fp,60(sp)
  12bab8:	ddc00e17 	ldw	r23,56(sp)
  12babc:	dd800d17 	ldw	r22,52(sp)
  12bac0:	dd400c17 	ldw	r21,48(sp)
  12bac4:	dd000b17 	ldw	r20,44(sp)
  12bac8:	dcc00a17 	ldw	r19,40(sp)
  12bacc:	dc800917 	ldw	r18,36(sp)
  12bad0:	dc400817 	ldw	r17,32(sp)
  12bad4:	dc000717 	ldw	r16,28(sp)
  12bad8:	dec01104 	addi	sp,sp,68
  12badc:	f800283a 	ret
  12bae0:	24000d26 	beq	r4,r16,12bb18 <_strtoull_r+0x21c>
  12bae4:	d9800017 	ldw	r6,0(sp)
  12bae8:	900f883a 	mov	r7,r18
  12baec:	01309000 	call	130900 <__muldi3>
  12baf0:	980bd7fa 	srai	r5,r19,31
  12baf4:	9885883a 	add	r2,r19,r2
  12baf8:	14d1803a 	cmpltu	r8,r2,r19
  12bafc:	28c7883a 	add	r3,r5,r3
  12bb00:	1009883a 	mov	r4,r2
  12bb04:	40cb883a 	add	r5,r8,r3
  12bb08:	01c00044 	movi	r7,1
  12bb0c:	003fcd06 	br	12ba44 <_gp+0xfffe836c>
  12bb10:	00c00dc4 	movi	r3,55
  12bb14:	003fd506 	br	12ba6c <_gp+0xfffe8394>
  12bb18:	2dfff21e 	bne	r5,r23,12bae4 <_gp+0xfffe840c>
  12bb1c:	d8c00317 	ldw	r3,12(sp)
  12bb20:	1cffc716 	blt	r3,r19,12ba40 <_gp+0xfffe8368>
  12bb24:	003fef06 	br	12bae4 <_gp+0xfffe840c>
  12bb28:	d8c00517 	ldw	r3,20(sp)
  12bb2c:	00800884 	movi	r2,34
  12bb30:	013fffc4 	movi	r4,-1
  12bb34:	18800015 	stw	r2,0(r3)
  12bb38:	d8800117 	ldw	r2,4(sp)
  12bb3c:	200b883a 	mov	r5,r4
  12bb40:	103fd926 	beq	r2,zero,12baa8 <_gp+0xfffe83d0>
  12bb44:	ad3fffc4 	addi	r20,r21,-1
  12bb48:	003fd506 	br	12baa0 <_gp+0xfffe83c8>
  12bb4c:	00800044 	movi	r2,1
  12bb50:	1c400084 	addi	r17,r3,2
  12bb54:	1a000043 	ldbu	r8,1(r3)
  12bb58:	d8800415 	stw	r2,16(sp)
  12bb5c:	003f8706 	br	12b97c <_gp+0xfffe82a4>
  12bb60:	1c400084 	addi	r17,r3,2
  12bb64:	1a000043 	ldbu	r8,1(r3)
  12bb68:	d8000415 	stw	zero,16(sp)
  12bb6c:	003f8306 	br	12b97c <_gp+0xfffe82a4>
  12bb70:	88800003 	ldbu	r2,0(r17)
  12bb74:	00c01604 	movi	r3,88
  12bb78:	108037cc 	andi	r2,r2,223
  12bb7c:	10c01026 	beq	r2,r3,12bbc0 <_strtoull_r+0x2c4>
  12bb80:	00c00204 	movi	r3,8
  12bb84:	008001c4 	movi	r2,7
  12bb88:	043fffc4 	movi	r16,-1
  12bb8c:	05c80034 	movhi	r23,8192
  12bb90:	d8c00015 	stw	r3,0(sp)
  12bb94:	d8800315 	stw	r2,12(sp)
  12bb98:	bc2f883a 	add	r23,r23,r16
  12bb9c:	0025883a 	mov	r18,zero
  12bba0:	1839883a 	mov	fp,r3
  12bba4:	003f9606 	br	12ba00 <_gp+0xfffe8328>
  12bba8:	00800c04 	movi	r2,48
  12bbac:	4080101e 	bne	r8,r2,12bbf0 <_strtoull_r+0x2f4>
  12bbb0:	88800003 	ldbu	r2,0(r17)
  12bbb4:	00c01604 	movi	r3,88
  12bbb8:	108037cc 	andi	r2,r2,223
  12bbbc:	10c0141e 	bne	r2,r3,12bc10 <_strtoull_r+0x314>
  12bbc0:	00c00404 	movi	r3,16
  12bbc4:	008003c4 	movi	r2,15
  12bbc8:	043fffc4 	movi	r16,-1
  12bbcc:	05c40034 	movhi	r23,4096
  12bbd0:	8a000043 	ldbu	r8,1(r17)
  12bbd4:	d8c00015 	stw	r3,0(sp)
  12bbd8:	d8800315 	stw	r2,12(sp)
  12bbdc:	8c400084 	addi	r17,r17,2
  12bbe0:	bc2f883a 	add	r23,r23,r16
  12bbe4:	0025883a 	mov	r18,zero
  12bbe8:	1839883a 	mov	fp,r3
  12bbec:	003f8406 	br	12ba00 <_gp+0xfffe8328>
  12bbf0:	008003c4 	movi	r2,15
  12bbf4:	d8800315 	stw	r2,12(sp)
  12bbf8:	043fffc4 	movi	r16,-1
  12bbfc:	05c40034 	movhi	r23,4096
  12bc00:	bc2f883a 	add	r23,r23,r16
  12bc04:	df000015 	stw	fp,0(sp)
  12bc08:	0025883a 	mov	r18,zero
  12bc0c:	003f7c06 	br	12ba00 <_gp+0xfffe8328>
  12bc10:	00c003c4 	movi	r3,15
  12bc14:	d8c00315 	stw	r3,12(sp)
  12bc18:	003ff706 	br	12bbf8 <_gp+0xfffe8520>

0012bc1c <__ssprint_r>:
  12bc1c:	30800217 	ldw	r2,8(r6)
  12bc20:	defff604 	addi	sp,sp,-40
  12bc24:	dc800215 	stw	r18,8(sp)
  12bc28:	dfc00915 	stw	ra,36(sp)
  12bc2c:	df000815 	stw	fp,32(sp)
  12bc30:	ddc00715 	stw	r23,28(sp)
  12bc34:	dd800615 	stw	r22,24(sp)
  12bc38:	dd400515 	stw	r21,20(sp)
  12bc3c:	dd000415 	stw	r20,16(sp)
  12bc40:	dcc00315 	stw	r19,12(sp)
  12bc44:	dc400115 	stw	r17,4(sp)
  12bc48:	dc000015 	stw	r16,0(sp)
  12bc4c:	3025883a 	mov	r18,r6
  12bc50:	10005826 	beq	r2,zero,12bdb4 <__ssprint_r+0x198>
  12bc54:	2027883a 	mov	r19,r4
  12bc58:	35c00017 	ldw	r23,0(r6)
  12bc5c:	29000017 	ldw	r4,0(r5)
  12bc60:	28800217 	ldw	r2,8(r5)
  12bc64:	2823883a 	mov	r17,r5
  12bc68:	0039883a 	mov	fp,zero
  12bc6c:	0021883a 	mov	r16,zero
  12bc70:	80003926 	beq	r16,zero,12bd58 <__ssprint_r+0x13c>
  12bc74:	102b883a 	mov	r21,r2
  12bc78:	102d883a 	mov	r22,r2
  12bc7c:	80803a36 	bltu	r16,r2,12bd68 <__ssprint_r+0x14c>
  12bc80:	88c0030b 	ldhu	r3,12(r17)
  12bc84:	1881200c 	andi	r2,r3,1152
  12bc88:	10002626 	beq	r2,zero,12bd24 <__ssprint_r+0x108>
  12bc8c:	88800517 	ldw	r2,20(r17)
  12bc90:	89400417 	ldw	r5,16(r17)
  12bc94:	81800044 	addi	r6,r16,1
  12bc98:	108f883a 	add	r7,r2,r2
  12bc9c:	3885883a 	add	r2,r7,r2
  12bca0:	100ed7fa 	srli	r7,r2,31
  12bca4:	216dc83a 	sub	r22,r4,r5
  12bca8:	3589883a 	add	r4,r6,r22
  12bcac:	3885883a 	add	r2,r7,r2
  12bcb0:	102bd07a 	srai	r21,r2,1
  12bcb4:	a80d883a 	mov	r6,r21
  12bcb8:	a900022e 	bgeu	r21,r4,12bcc4 <__ssprint_r+0xa8>
  12bcbc:	202b883a 	mov	r21,r4
  12bcc0:	200d883a 	mov	r6,r4
  12bcc4:	18c1000c 	andi	r3,r3,1024
  12bcc8:	18002a26 	beq	r3,zero,12bd74 <__ssprint_r+0x158>
  12bccc:	300b883a 	mov	r5,r6
  12bcd0:	9809883a 	mov	r4,r19
  12bcd4:	01279080 	call	127908 <_malloc_r>
  12bcd8:	1029883a 	mov	r20,r2
  12bcdc:	10002c26 	beq	r2,zero,12bd90 <__ssprint_r+0x174>
  12bce0:	89400417 	ldw	r5,16(r17)
  12bce4:	b00d883a 	mov	r6,r22
  12bce8:	1009883a 	mov	r4,r2
  12bcec:	01213900 	call	121390 <memcpy>
  12bcf0:	8880030b 	ldhu	r2,12(r17)
  12bcf4:	00fedfc4 	movi	r3,-1153
  12bcf8:	10c4703a 	and	r2,r2,r3
  12bcfc:	10802014 	ori	r2,r2,128
  12bd00:	8880030d 	sth	r2,12(r17)
  12bd04:	a589883a 	add	r4,r20,r22
  12bd08:	adadc83a 	sub	r22,r21,r22
  12bd0c:	8d400515 	stw	r21,20(r17)
  12bd10:	8d800215 	stw	r22,8(r17)
  12bd14:	8d000415 	stw	r20,16(r17)
  12bd18:	89000015 	stw	r4,0(r17)
  12bd1c:	802b883a 	mov	r21,r16
  12bd20:	802d883a 	mov	r22,r16
  12bd24:	b00d883a 	mov	r6,r22
  12bd28:	e00b883a 	mov	r5,fp
  12bd2c:	013006c0 	call	13006c <memmove>
  12bd30:	88800217 	ldw	r2,8(r17)
  12bd34:	89000017 	ldw	r4,0(r17)
  12bd38:	90c00217 	ldw	r3,8(r18)
  12bd3c:	1545c83a 	sub	r2,r2,r21
  12bd40:	2589883a 	add	r4,r4,r22
  12bd44:	88800215 	stw	r2,8(r17)
  12bd48:	89000015 	stw	r4,0(r17)
  12bd4c:	1c21c83a 	sub	r16,r3,r16
  12bd50:	94000215 	stw	r16,8(r18)
  12bd54:	80001726 	beq	r16,zero,12bdb4 <__ssprint_r+0x198>
  12bd58:	bf000017 	ldw	fp,0(r23)
  12bd5c:	bc000117 	ldw	r16,4(r23)
  12bd60:	bdc00204 	addi	r23,r23,8
  12bd64:	003fc206 	br	12bc70 <_gp+0xfffe8598>
  12bd68:	802b883a 	mov	r21,r16
  12bd6c:	802d883a 	mov	r22,r16
  12bd70:	003fec06 	br	12bd24 <_gp+0xfffe864c>
  12bd74:	9809883a 	mov	r4,r19
  12bd78:	01301c80 	call	1301c8 <_realloc_r>
  12bd7c:	1029883a 	mov	r20,r2
  12bd80:	103fe01e 	bne	r2,zero,12bd04 <_gp+0xfffe862c>
  12bd84:	89400417 	ldw	r5,16(r17)
  12bd88:	9809883a 	mov	r4,r19
  12bd8c:	012f0280 	call	12f028 <_free_r>
  12bd90:	88c0030b 	ldhu	r3,12(r17)
  12bd94:	00800304 	movi	r2,12
  12bd98:	98800015 	stw	r2,0(r19)
  12bd9c:	18c01014 	ori	r3,r3,64
  12bda0:	88c0030d 	sth	r3,12(r17)
  12bda4:	00bfffc4 	movi	r2,-1
  12bda8:	90000215 	stw	zero,8(r18)
  12bdac:	90000115 	stw	zero,4(r18)
  12bdb0:	00000206 	br	12bdbc <__ssprint_r+0x1a0>
  12bdb4:	90000115 	stw	zero,4(r18)
  12bdb8:	0005883a 	mov	r2,zero
  12bdbc:	dfc00917 	ldw	ra,36(sp)
  12bdc0:	df000817 	ldw	fp,32(sp)
  12bdc4:	ddc00717 	ldw	r23,28(sp)
  12bdc8:	dd800617 	ldw	r22,24(sp)
  12bdcc:	dd400517 	ldw	r21,20(sp)
  12bdd0:	dd000417 	ldw	r20,16(sp)
  12bdd4:	dcc00317 	ldw	r19,12(sp)
  12bdd8:	dc800217 	ldw	r18,8(sp)
  12bddc:	dc400117 	ldw	r17,4(sp)
  12bde0:	dc000017 	ldw	r16,0(sp)
  12bde4:	dec00a04 	addi	sp,sp,40
  12bde8:	f800283a 	ret

0012bdec <___svfiprintf_internal_r>:
  12bdec:	2880030b 	ldhu	r2,12(r5)
  12bdf0:	deffc804 	addi	sp,sp,-224
  12bdf4:	dcc03115 	stw	r19,196(sp)
  12bdf8:	dfc03715 	stw	ra,220(sp)
  12bdfc:	df003615 	stw	fp,216(sp)
  12be00:	ddc03515 	stw	r23,212(sp)
  12be04:	dd803415 	stw	r22,208(sp)
  12be08:	dd403315 	stw	r21,204(sp)
  12be0c:	dd003215 	stw	r20,200(sp)
  12be10:	dc803015 	stw	r18,192(sp)
  12be14:	dc402f15 	stw	r17,188(sp)
  12be18:	dc002e15 	stw	r16,184(sp)
  12be1c:	d9402315 	stw	r5,140(sp)
  12be20:	d9002715 	stw	r4,156(sp)
  12be24:	1080200c 	andi	r2,r2,128
  12be28:	d9c02415 	stw	r7,144(sp)
  12be2c:	3027883a 	mov	r19,r6
  12be30:	10000226 	beq	r2,zero,12be3c <___svfiprintf_internal_r+0x50>
  12be34:	28800417 	ldw	r2,16(r5)
  12be38:	10046d26 	beq	r2,zero,12cff0 <___svfiprintf_internal_r+0x1204>
  12be3c:	d8801a04 	addi	r2,sp,104
  12be40:	d8c019c4 	addi	r3,sp,103
  12be44:	05800534 	movhi	r22,20
  12be48:	10c9c83a 	sub	r4,r2,r3
  12be4c:	b5a5e404 	addi	r22,r22,-26736
  12be50:	d8801e15 	stw	r2,120(sp)
  12be54:	d8c01f15 	stw	r3,124(sp)
  12be58:	dec01a15 	stw	sp,104(sp)
  12be5c:	d8001c15 	stw	zero,112(sp)
  12be60:	d8001b15 	stw	zero,108(sp)
  12be64:	d811883a 	mov	r8,sp
  12be68:	d8002915 	stw	zero,164(sp)
  12be6c:	d8002615 	stw	zero,152(sp)
  12be70:	d9002c15 	stw	r4,176(sp)
  12be74:	98800007 	ldb	r2,0(r19)
  12be78:	10031426 	beq	r2,zero,12cacc <___svfiprintf_internal_r+0xce0>
  12be7c:	00c00944 	movi	r3,37
  12be80:	9825883a 	mov	r18,r19
  12be84:	10c0021e 	bne	r2,r3,12be90 <___svfiprintf_internal_r+0xa4>
  12be88:	00001406 	br	12bedc <___svfiprintf_internal_r+0xf0>
  12be8c:	10c00326 	beq	r2,r3,12be9c <___svfiprintf_internal_r+0xb0>
  12be90:	94800044 	addi	r18,r18,1
  12be94:	90800007 	ldb	r2,0(r18)
  12be98:	103ffc1e 	bne	r2,zero,12be8c <_gp+0xfffe87b4>
  12be9c:	94e1c83a 	sub	r16,r18,r19
  12bea0:	80000e26 	beq	r16,zero,12bedc <___svfiprintf_internal_r+0xf0>
  12bea4:	d8c01c17 	ldw	r3,112(sp)
  12bea8:	d8801b17 	ldw	r2,108(sp)
  12beac:	44c00015 	stw	r19,0(r8)
  12beb0:	1c07883a 	add	r3,r3,r16
  12beb4:	10800044 	addi	r2,r2,1
  12beb8:	d8c01c15 	stw	r3,112(sp)
  12bebc:	44000115 	stw	r16,4(r8)
  12bec0:	d8801b15 	stw	r2,108(sp)
  12bec4:	00c001c4 	movi	r3,7
  12bec8:	18835c16 	blt	r3,r2,12cc3c <___svfiprintf_internal_r+0xe50>
  12becc:	42000204 	addi	r8,r8,8
  12bed0:	d9402617 	ldw	r5,152(sp)
  12bed4:	2c0b883a 	add	r5,r5,r16
  12bed8:	d9402615 	stw	r5,152(sp)
  12bedc:	90800007 	ldb	r2,0(r18)
  12bee0:	1002fc26 	beq	r2,zero,12cad4 <___svfiprintf_internal_r+0xce8>
  12bee4:	0023883a 	mov	r17,zero
  12bee8:	00bfffc4 	movi	r2,-1
  12beec:	0021883a 	mov	r16,zero
  12bef0:	94c00044 	addi	r19,r18,1
  12bef4:	90c00047 	ldb	r3,1(r18)
  12bef8:	dc402105 	stb	r17,132(sp)
  12befc:	d8001d85 	stb	zero,118(sp)
  12bf00:	002b883a 	mov	r21,zero
  12bf04:	d8802015 	stw	r2,128(sp)
  12bf08:	d8002515 	stw	zero,148(sp)
  12bf0c:	04801604 	movi	r18,88
  12bf10:	05000244 	movi	r20,9
  12bf14:	402f883a 	mov	r23,r8
  12bf18:	8023883a 	mov	r17,r16
  12bf1c:	9cc00044 	addi	r19,r19,1
  12bf20:	18bff804 	addi	r2,r3,-32
  12bf24:	9081fb36 	bltu	r18,r2,12c714 <___svfiprintf_internal_r+0x928>
  12bf28:	100490ba 	slli	r2,r2,2
  12bf2c:	010004f4 	movhi	r4,19
  12bf30:	212fd004 	addi	r4,r4,-16576
  12bf34:	1105883a 	add	r2,r2,r4
  12bf38:	10800017 	ldw	r2,0(r2)
  12bf3c:	1000683a 	jmp	r2
  12bf40:	0012c140 	call	12c14 <__alt_mem_onchip_flash_data-0x6d3ec>
  12bf44:	0012c714 	movui	zero,19228
  12bf48:	0012c714 	movui	zero,19228
  12bf4c:	0012c134 	movhi	zero,19204
  12bf50:	0012c714 	movui	zero,19228
  12bf54:	0012c714 	movui	zero,19228
  12bf58:	0012c714 	movui	zero,19228
  12bf5c:	0012c714 	movui	zero,19228
  12bf60:	0012c714 	movui	zero,19228
  12bf64:	0012c714 	movui	zero,19228
  12bf68:	0012c0a4 	muli	zero,zero,19202
  12bf6c:	0012c2a0 	cmpeqi	zero,zero,19210
  12bf70:	0012c714 	movui	zero,19228
  12bf74:	0012c0cc 	andi	zero,zero,19203
  12bf78:	0012c750 	cmplti	zero,zero,19229
  12bf7c:	0012c714 	movui	zero,19228
  12bf80:	0012c744 	movi	zero,19229
  12bf84:	0012c6d8 	cmpnei	zero,zero,19227
  12bf88:	0012c6d8 	cmpnei	zero,zero,19227
  12bf8c:	0012c6d8 	cmpnei	zero,zero,19227
  12bf90:	0012c6d8 	cmpnei	zero,zero,19227
  12bf94:	0012c6d8 	cmpnei	zero,zero,19227
  12bf98:	0012c6d8 	cmpnei	zero,zero,19227
  12bf9c:	0012c6d8 	cmpnei	zero,zero,19227
  12bfa0:	0012c6d8 	cmpnei	zero,zero,19227
  12bfa4:	0012c6d8 	cmpnei	zero,zero,19227
  12bfa8:	0012c714 	movui	zero,19228
  12bfac:	0012c714 	movui	zero,19228
  12bfb0:	0012c714 	movui	zero,19228
  12bfb4:	0012c714 	movui	zero,19228
  12bfb8:	0012c714 	movui	zero,19228
  12bfbc:	0012c714 	movui	zero,19228
  12bfc0:	0012c714 	movui	zero,19228
  12bfc4:	0012c714 	movui	zero,19228
  12bfc8:	0012c714 	movui	zero,19228
  12bfcc:	0012c714 	movui	zero,19228
  12bfd0:	0012c65c 	xori	zero,zero,19225
  12bfd4:	0012c714 	movui	zero,19228
  12bfd8:	0012c714 	movui	zero,19228
  12bfdc:	0012c714 	movui	zero,19228
  12bfe0:	0012c714 	movui	zero,19228
  12bfe4:	0012c714 	movui	zero,19228
  12bfe8:	0012c714 	movui	zero,19228
  12bfec:	0012c714 	movui	zero,19228
  12bff0:	0012c714 	movui	zero,19228
  12bff4:	0012c714 	movui	zero,19228
  12bff8:	0012c714 	movui	zero,19228
  12bffc:	0012c80c 	andi	zero,zero,19232
  12c000:	0012c714 	movui	zero,19228
  12c004:	0012c714 	movui	zero,19228
  12c008:	0012c714 	movui	zero,19228
  12c00c:	0012c714 	movui	zero,19228
  12c010:	0012c714 	movui	zero,19228
  12c014:	0012c798 	cmpnei	zero,zero,19230
  12c018:	0012c714 	movui	zero,19228
  12c01c:	0012c714 	movui	zero,19228
  12c020:	0012c498 	cmpnei	zero,zero,19218
  12c024:	0012c714 	movui	zero,19228
  12c028:	0012c714 	movui	zero,19228
  12c02c:	0012c714 	movui	zero,19228
  12c030:	0012c714 	movui	zero,19228
  12c034:	0012c714 	movui	zero,19228
  12c038:	0012c714 	movui	zero,19228
  12c03c:	0012c714 	movui	zero,19228
  12c040:	0012c714 	movui	zero,19228
  12c044:	0012c714 	movui	zero,19228
  12c048:	0012c714 	movui	zero,19228
  12c04c:	0012c364 	muli	zero,zero,19213
  12c050:	0012c548 	cmpgei	zero,zero,19221
  12c054:	0012c714 	movui	zero,19228
  12c058:	0012c714 	movui	zero,19228
  12c05c:	0012c714 	movui	zero,19228
  12c060:	0012c53c 	xorhi	zero,zero,19220
  12c064:	0012c548 	cmpgei	zero,zero,19221
  12c068:	0012c714 	movui	zero,19228
  12c06c:	0012c714 	movui	zero,19228
  12c070:	0012c528 	cmpgeui	zero,zero,19220
  12c074:	0012c714 	movui	zero,19228
  12c078:	0012c4e8 	cmpgeui	zero,zero,19219
  12c07c:	0012c2b4 	movhi	zero,19210
  12c080:	0012c0d8 	cmpnei	zero,zero,19203
  12c084:	0012c650 	cmplti	zero,zero,19225
  12c088:	0012c714 	movui	zero,19228
  12c08c:	0012c5fc 	xorhi	zero,zero,19223
  12c090:	0012c714 	movui	zero,19228
  12c094:	0012c218 	cmpnei	zero,zero,19208
  12c098:	0012c714 	movui	zero,19228
  12c09c:	0012c714 	movui	zero,19228
  12c0a0:	0012c164 	muli	zero,zero,19205
  12c0a4:	d9002417 	ldw	r4,144(sp)
  12c0a8:	d9402417 	ldw	r5,144(sp)
  12c0ac:	21000017 	ldw	r4,0(r4)
  12c0b0:	28800104 	addi	r2,r5,4
  12c0b4:	d9002515 	stw	r4,148(sp)
  12c0b8:	20032b0e 	bge	r4,zero,12cd68 <___svfiprintf_internal_r+0xf7c>
  12c0bc:	d8c02517 	ldw	r3,148(sp)
  12c0c0:	d8802415 	stw	r2,144(sp)
  12c0c4:	00c7c83a 	sub	r3,zero,r3
  12c0c8:	d8c02515 	stw	r3,148(sp)
  12c0cc:	8c400114 	ori	r17,r17,4
  12c0d0:	98c00007 	ldb	r3,0(r19)
  12c0d4:	003f9106 	br	12bf1c <_gp+0xfffe8844>
  12c0d8:	00800c04 	movi	r2,48
  12c0dc:	d9402417 	ldw	r5,144(sp)
  12c0e0:	d9002017 	ldw	r4,128(sp)
  12c0e4:	d8801d05 	stb	r2,116(sp)
  12c0e8:	00801e04 	movi	r2,120
  12c0ec:	d8801d45 	stb	r2,117(sp)
  12c0f0:	d8001d85 	stb	zero,118(sp)
  12c0f4:	b811883a 	mov	r8,r23
  12c0f8:	28c00104 	addi	r3,r5,4
  12c0fc:	2c800017 	ldw	r18,0(r5)
  12c100:	0029883a 	mov	r20,zero
  12c104:	88800094 	ori	r2,r17,2
  12c108:	20036316 	blt	r4,zero,12ce98 <___svfiprintf_internal_r+0x10ac>
  12c10c:	00bfdfc4 	movi	r2,-129
  12c110:	88a0703a 	and	r16,r17,r2
  12c114:	d8c02415 	stw	r3,144(sp)
  12c118:	84000094 	ori	r16,r16,2
  12c11c:	90031c26 	beq	r18,zero,12cd90 <___svfiprintf_internal_r+0xfa4>
  12c120:	01400534 	movhi	r5,20
  12c124:	2964c004 	addi	r5,r5,-27904
  12c128:	002b883a 	mov	r21,zero
  12c12c:	d9402915 	stw	r5,164(sp)
  12c130:	00002906 	br	12c1d8 <___svfiprintf_internal_r+0x3ec>
  12c134:	8c400054 	ori	r17,r17,1
  12c138:	98c00007 	ldb	r3,0(r19)
  12c13c:	003f7706 	br	12bf1c <_gp+0xfffe8844>
  12c140:	a8803fcc 	andi	r2,r21,255
  12c144:	1080201c 	xori	r2,r2,128
  12c148:	10bfe004 	addi	r2,r2,-128
  12c14c:	10032a1e 	bne	r2,zero,12cdf8 <___svfiprintf_internal_r+0x100c>
  12c150:	00c00044 	movi	r3,1
  12c154:	d8c02105 	stb	r3,132(sp)
  12c158:	05400804 	movi	r21,32
  12c15c:	98c00007 	ldb	r3,0(r19)
  12c160:	003f6e06 	br	12bf1c <_gp+0xfffe8844>
  12c164:	8821883a 	mov	r16,r17
  12c168:	dc402103 	ldbu	r17,132(sp)
  12c16c:	b811883a 	mov	r8,r23
  12c170:	8c403fcc 	andi	r17,r17,255
  12c174:	8803f01e 	bne	r17,zero,12d138 <___svfiprintf_internal_r+0x134c>
  12c178:	00800534 	movhi	r2,20
  12c17c:	10a4c004 	addi	r2,r2,-27904
  12c180:	d8802915 	stw	r2,164(sp)
  12c184:	8080080c 	andi	r2,r16,32
  12c188:	1000cd26 	beq	r2,zero,12c4c0 <___svfiprintf_internal_r+0x6d4>
  12c18c:	d9002417 	ldw	r4,144(sp)
  12c190:	24800017 	ldw	r18,0(r4)
  12c194:	25000117 	ldw	r20,4(r4)
  12c198:	21000204 	addi	r4,r4,8
  12c19c:	d9002415 	stw	r4,144(sp)
  12c1a0:	8080004c 	andi	r2,r16,1
  12c1a4:	1002c726 	beq	r2,zero,12ccc4 <___svfiprintf_internal_r+0xed8>
  12c1a8:	9504b03a 	or	r2,r18,r20
  12c1ac:	1003061e 	bne	r2,zero,12cdc8 <___svfiprintf_internal_r+0xfdc>
  12c1b0:	d9002017 	ldw	r4,128(sp)
  12c1b4:	d8001d85 	stb	zero,118(sp)
  12c1b8:	20033e16 	blt	r4,zero,12ceb4 <___svfiprintf_internal_r+0x10c8>
  12c1bc:	00bfdfc4 	movi	r2,-129
  12c1c0:	80a0703a 	and	r16,r16,r2
  12c1c4:	d9402017 	ldw	r5,128(sp)
  12c1c8:	002b883a 	mov	r21,zero
  12c1cc:	28002826 	beq	r5,zero,12c270 <___svfiprintf_internal_r+0x484>
  12c1d0:	0025883a 	mov	r18,zero
  12c1d4:	0029883a 	mov	r20,zero
  12c1d8:	d9002917 	ldw	r4,164(sp)
  12c1dc:	dc401a04 	addi	r17,sp,104
  12c1e0:	908003cc 	andi	r2,r18,15
  12c1e4:	a006973a 	slli	r3,r20,28
  12c1e8:	2085883a 	add	r2,r4,r2
  12c1ec:	9024d13a 	srli	r18,r18,4
  12c1f0:	10800003 	ldbu	r2,0(r2)
  12c1f4:	a028d13a 	srli	r20,r20,4
  12c1f8:	8c7fffc4 	addi	r17,r17,-1
  12c1fc:	1ca4b03a 	or	r18,r3,r18
  12c200:	88800005 	stb	r2,0(r17)
  12c204:	9504b03a 	or	r2,r18,r20
  12c208:	103ff51e 	bne	r2,zero,12c1e0 <_gp+0xfffe8b08>
  12c20c:	d8801e17 	ldw	r2,120(sp)
  12c210:	1469c83a 	sub	r20,r2,r17
  12c214:	00001906 	br	12c27c <___svfiprintf_internal_r+0x490>
  12c218:	8821883a 	mov	r16,r17
  12c21c:	dc402103 	ldbu	r17,132(sp)
  12c220:	b811883a 	mov	r8,r23
  12c224:	8c403fcc 	andi	r17,r17,255
  12c228:	8803d01e 	bne	r17,zero,12d16c <___svfiprintf_internal_r+0x1380>
  12c22c:	8080080c 	andi	r2,r16,32
  12c230:	10016126 	beq	r2,zero,12c7b8 <___svfiprintf_internal_r+0x9cc>
  12c234:	d9002417 	ldw	r4,144(sp)
  12c238:	d9402017 	ldw	r5,128(sp)
  12c23c:	d8001d85 	stb	zero,118(sp)
  12c240:	20c00204 	addi	r3,r4,8
  12c244:	24800017 	ldw	r18,0(r4)
  12c248:	25000117 	ldw	r20,4(r4)
  12c24c:	28030f16 	blt	r5,zero,12ce8c <___svfiprintf_internal_r+0x10a0>
  12c250:	013fdfc4 	movi	r4,-129
  12c254:	9504b03a 	or	r2,r18,r20
  12c258:	d8c02415 	stw	r3,144(sp)
  12c25c:	8120703a 	and	r16,r16,r4
  12c260:	002b883a 	mov	r21,zero
  12c264:	1000cd1e 	bne	r2,zero,12c59c <___svfiprintf_internal_r+0x7b0>
  12c268:	d8c02017 	ldw	r3,128(sp)
  12c26c:	1803141e 	bne	r3,zero,12cec0 <___svfiprintf_internal_r+0x10d4>
  12c270:	d8002015 	stw	zero,128(sp)
  12c274:	0029883a 	mov	r20,zero
  12c278:	dc401a04 	addi	r17,sp,104
  12c27c:	dc802017 	ldw	r18,128(sp)
  12c280:	9500010e 	bge	r18,r20,12c288 <___svfiprintf_internal_r+0x49c>
  12c284:	a025883a 	mov	r18,r20
  12c288:	ad403fcc 	andi	r21,r21,255
  12c28c:	ad40201c 	xori	r21,r21,128
  12c290:	ad7fe004 	addi	r21,r21,-128
  12c294:	a8003f26 	beq	r21,zero,12c394 <___svfiprintf_internal_r+0x5a8>
  12c298:	94800044 	addi	r18,r18,1
  12c29c:	00003d06 	br	12c394 <___svfiprintf_internal_r+0x5a8>
  12c2a0:	00c00044 	movi	r3,1
  12c2a4:	d8c02105 	stb	r3,132(sp)
  12c2a8:	05400ac4 	movi	r21,43
  12c2ac:	98c00007 	ldb	r3,0(r19)
  12c2b0:	003f1a06 	br	12bf1c <_gp+0xfffe8844>
  12c2b4:	8821883a 	mov	r16,r17
  12c2b8:	dc402103 	ldbu	r17,132(sp)
  12c2bc:	b811883a 	mov	r8,r23
  12c2c0:	8c403fcc 	andi	r17,r17,255
  12c2c4:	8803a71e 	bne	r17,zero,12d164 <___svfiprintf_internal_r+0x1378>
  12c2c8:	8080080c 	andi	r2,r16,32
  12c2cc:	10015726 	beq	r2,zero,12c82c <___svfiprintf_internal_r+0xa40>
  12c2d0:	d8c02417 	ldw	r3,144(sp)
  12c2d4:	d9002017 	ldw	r4,128(sp)
  12c2d8:	d8001d85 	stb	zero,118(sp)
  12c2dc:	18800204 	addi	r2,r3,8
  12c2e0:	1c800017 	ldw	r18,0(r3)
  12c2e4:	1d000117 	ldw	r20,4(r3)
  12c2e8:	2002db16 	blt	r4,zero,12ce58 <___svfiprintf_internal_r+0x106c>
  12c2ec:	013fdfc4 	movi	r4,-129
  12c2f0:	9506b03a 	or	r3,r18,r20
  12c2f4:	d8802415 	stw	r2,144(sp)
  12c2f8:	8120703a 	and	r16,r16,r4
  12c2fc:	18015826 	beq	r3,zero,12c860 <___svfiprintf_internal_r+0xa74>
  12c300:	002b883a 	mov	r21,zero
  12c304:	dc401a04 	addi	r17,sp,104
  12c308:	9006d0fa 	srli	r3,r18,3
  12c30c:	a008977a 	slli	r4,r20,29
  12c310:	a028d0fa 	srli	r20,r20,3
  12c314:	948001cc 	andi	r18,r18,7
  12c318:	90800c04 	addi	r2,r18,48
  12c31c:	8c7fffc4 	addi	r17,r17,-1
  12c320:	20e4b03a 	or	r18,r4,r3
  12c324:	88800005 	stb	r2,0(r17)
  12c328:	9506b03a 	or	r3,r18,r20
  12c32c:	183ff61e 	bne	r3,zero,12c308 <_gp+0xfffe8c30>
  12c330:	80c0004c 	andi	r3,r16,1
  12c334:	18028926 	beq	r3,zero,12cd5c <___svfiprintf_internal_r+0xf70>
  12c338:	10803fcc 	andi	r2,r2,255
  12c33c:	1080201c 	xori	r2,r2,128
  12c340:	10bfe004 	addi	r2,r2,-128
  12c344:	00c00c04 	movi	r3,48
  12c348:	10ffb026 	beq	r2,r3,12c20c <_gp+0xfffe8b34>
  12c34c:	88ffffc5 	stb	r3,-1(r17)
  12c350:	d8c01e17 	ldw	r3,120(sp)
  12c354:	88bfffc4 	addi	r2,r17,-1
  12c358:	1023883a 	mov	r17,r2
  12c35c:	18a9c83a 	sub	r20,r3,r2
  12c360:	003fc606 	br	12c27c <_gp+0xfffe8ba4>
  12c364:	d8c02417 	ldw	r3,144(sp)
  12c368:	04800044 	movi	r18,1
  12c36c:	8821883a 	mov	r16,r17
  12c370:	18800017 	ldw	r2,0(r3)
  12c374:	18c00104 	addi	r3,r3,4
  12c378:	b811883a 	mov	r8,r23
  12c37c:	d8001d85 	stb	zero,118(sp)
  12c380:	d8801005 	stb	r2,64(sp)
  12c384:	d8c02415 	stw	r3,144(sp)
  12c388:	9029883a 	mov	r20,r18
  12c38c:	dc401004 	addi	r17,sp,64
  12c390:	d8002015 	stw	zero,128(sp)
  12c394:	80c0008c 	andi	r3,r16,2
  12c398:	d8c02115 	stw	r3,132(sp)
  12c39c:	18000126 	beq	r3,zero,12c3a4 <___svfiprintf_internal_r+0x5b8>
  12c3a0:	94800084 	addi	r18,r18,2
  12c3a4:	80c0210c 	andi	r3,r16,132
  12c3a8:	d8c02215 	stw	r3,136(sp)
  12c3ac:	1801321e 	bne	r3,zero,12c878 <___svfiprintf_internal_r+0xa8c>
  12c3b0:	d9002517 	ldw	r4,148(sp)
  12c3b4:	24b9c83a 	sub	fp,r4,r18
  12c3b8:	07012f0e 	bge	zero,fp,12c878 <___svfiprintf_internal_r+0xa8c>
  12c3bc:	02400404 	movi	r9,16
  12c3c0:	d8c01c17 	ldw	r3,112(sp)
  12c3c4:	d8801b17 	ldw	r2,108(sp)
  12c3c8:	4f03250e 	bge	r9,fp,12d060 <___svfiprintf_internal_r+0x1274>
  12c3cc:	01000534 	movhi	r4,20
  12c3d0:	2125e804 	addi	r4,r4,-26720
  12c3d4:	dc002a15 	stw	r16,168(sp)
  12c3d8:	dc402b15 	stw	r17,172(sp)
  12c3dc:	d9002815 	stw	r4,160(sp)
  12c3e0:	e023883a 	mov	r17,fp
  12c3e4:	482f883a 	mov	r23,r9
  12c3e8:	9839883a 	mov	fp,r19
  12c3ec:	054001c4 	movi	r21,7
  12c3f0:	9027883a 	mov	r19,r18
  12c3f4:	dc002717 	ldw	r16,156(sp)
  12c3f8:	dc802317 	ldw	r18,140(sp)
  12c3fc:	00000306 	br	12c40c <___svfiprintf_internal_r+0x620>
  12c400:	8c7ffc04 	addi	r17,r17,-16
  12c404:	42000204 	addi	r8,r8,8
  12c408:	bc40130e 	bge	r23,r17,12c458 <___svfiprintf_internal_r+0x66c>
  12c40c:	01400534 	movhi	r5,20
  12c410:	18c00404 	addi	r3,r3,16
  12c414:	10800044 	addi	r2,r2,1
  12c418:	2965e804 	addi	r5,r5,-26720
  12c41c:	41400015 	stw	r5,0(r8)
  12c420:	45c00115 	stw	r23,4(r8)
  12c424:	d8c01c15 	stw	r3,112(sp)
  12c428:	d8801b15 	stw	r2,108(sp)
  12c42c:	a8bff40e 	bge	r21,r2,12c400 <_gp+0xfffe8d28>
  12c430:	d9801a04 	addi	r6,sp,104
  12c434:	900b883a 	mov	r5,r18
  12c438:	8009883a 	mov	r4,r16
  12c43c:	012bc1c0 	call	12bc1c <__ssprint_r>
  12c440:	1001aa1e 	bne	r2,zero,12caec <___svfiprintf_internal_r+0xd00>
  12c444:	8c7ffc04 	addi	r17,r17,-16
  12c448:	d8c01c17 	ldw	r3,112(sp)
  12c44c:	d8801b17 	ldw	r2,108(sp)
  12c450:	d811883a 	mov	r8,sp
  12c454:	bc7fed16 	blt	r23,r17,12c40c <_gp+0xfffe8d34>
  12c458:	9825883a 	mov	r18,r19
  12c45c:	dc002a17 	ldw	r16,168(sp)
  12c460:	e027883a 	mov	r19,fp
  12c464:	8839883a 	mov	fp,r17
  12c468:	dc402b17 	ldw	r17,172(sp)
  12c46c:	d9002817 	ldw	r4,160(sp)
  12c470:	e0c7883a 	add	r3,fp,r3
  12c474:	10800044 	addi	r2,r2,1
  12c478:	41000015 	stw	r4,0(r8)
  12c47c:	47000115 	stw	fp,4(r8)
  12c480:	d8c01c15 	stw	r3,112(sp)
  12c484:	d8801b15 	stw	r2,108(sp)
  12c488:	010001c4 	movi	r4,7
  12c48c:	20821616 	blt	r4,r2,12cce8 <___svfiprintf_internal_r+0xefc>
  12c490:	42000204 	addi	r8,r8,8
  12c494:	0000fa06 	br	12c880 <___svfiprintf_internal_r+0xa94>
  12c498:	8821883a 	mov	r16,r17
  12c49c:	dc402103 	ldbu	r17,132(sp)
  12c4a0:	b811883a 	mov	r8,r23
  12c4a4:	8c403fcc 	andi	r17,r17,255
  12c4a8:	8803361e 	bne	r17,zero,12d184 <___svfiprintf_internal_r+0x1398>
  12c4ac:	01400534 	movhi	r5,20
  12c4b0:	2964bb04 	addi	r5,r5,-27924
  12c4b4:	d9402915 	stw	r5,164(sp)
  12c4b8:	8080080c 	andi	r2,r16,32
  12c4bc:	103f331e 	bne	r2,zero,12c18c <_gp+0xfffe8ab4>
  12c4c0:	8080040c 	andi	r2,r16,16
  12c4c4:	1002551e 	bne	r2,zero,12ce1c <___svfiprintf_internal_r+0x1030>
  12c4c8:	8080100c 	andi	r2,r16,64
  12c4cc:	1002a626 	beq	r2,zero,12cf68 <___svfiprintf_internal_r+0x117c>
  12c4d0:	d8802417 	ldw	r2,144(sp)
  12c4d4:	0029883a 	mov	r20,zero
  12c4d8:	1480000b 	ldhu	r18,0(r2)
  12c4dc:	10800104 	addi	r2,r2,4
  12c4e0:	d8802415 	stw	r2,144(sp)
  12c4e4:	003f2e06 	br	12c1a0 <_gp+0xfffe8ac8>
  12c4e8:	8821883a 	mov	r16,r17
  12c4ec:	dc402103 	ldbu	r17,132(sp)
  12c4f0:	b811883a 	mov	r8,r23
  12c4f4:	8c403fcc 	andi	r17,r17,255
  12c4f8:	88030b1e 	bne	r17,zero,12d128 <___svfiprintf_internal_r+0x133c>
  12c4fc:	8080080c 	andi	r2,r16,32
  12c500:	1002271e 	bne	r2,zero,12cda0 <___svfiprintf_internal_r+0xfb4>
  12c504:	8080040c 	andi	r2,r16,16
  12c508:	10028e26 	beq	r2,zero,12cf44 <___svfiprintf_internal_r+0x1158>
  12c50c:	d8c02417 	ldw	r3,144(sp)
  12c510:	d9002617 	ldw	r4,152(sp)
  12c514:	18800017 	ldw	r2,0(r3)
  12c518:	18c00104 	addi	r3,r3,4
  12c51c:	d8c02415 	stw	r3,144(sp)
  12c520:	11000015 	stw	r4,0(r2)
  12c524:	003e5306 	br	12be74 <_gp+0xfffe879c>
  12c528:	98c00007 	ldb	r3,0(r19)
  12c52c:	01401b04 	movi	r5,108
  12c530:	19424f26 	beq	r3,r5,12ce70 <___svfiprintf_internal_r+0x1084>
  12c534:	8c400414 	ori	r17,r17,16
  12c538:	003e7806 	br	12bf1c <_gp+0xfffe8844>
  12c53c:	8c401014 	ori	r17,r17,64
  12c540:	98c00007 	ldb	r3,0(r19)
  12c544:	003e7506 	br	12bf1c <_gp+0xfffe8844>
  12c548:	8821883a 	mov	r16,r17
  12c54c:	dc402103 	ldbu	r17,132(sp)
  12c550:	b811883a 	mov	r8,r23
  12c554:	8c403fcc 	andi	r17,r17,255
  12c558:	8802fe1e 	bne	r17,zero,12d154 <___svfiprintf_internal_r+0x1368>
  12c55c:	8080080c 	andi	r2,r16,32
  12c560:	10004626 	beq	r2,zero,12c67c <___svfiprintf_internal_r+0x890>
  12c564:	d9002417 	ldw	r4,144(sp)
  12c568:	20800117 	ldw	r2,4(r4)
  12c56c:	24800017 	ldw	r18,0(r4)
  12c570:	21000204 	addi	r4,r4,8
  12c574:	d9002415 	stw	r4,144(sp)
  12c578:	1029883a 	mov	r20,r2
  12c57c:	10004a16 	blt	r2,zero,12c6a8 <___svfiprintf_internal_r+0x8bc>
  12c580:	d9002017 	ldw	r4,128(sp)
  12c584:	dd401d83 	ldbu	r21,118(sp)
  12c588:	2001eb16 	blt	r4,zero,12cd38 <___svfiprintf_internal_r+0xf4c>
  12c58c:	00ffdfc4 	movi	r3,-129
  12c590:	9504b03a 	or	r2,r18,r20
  12c594:	80e0703a 	and	r16,r16,r3
  12c598:	103f3326 	beq	r2,zero,12c268 <_gp+0xfffe8b90>
  12c59c:	a0009426 	beq	r20,zero,12c7f0 <___svfiprintf_internal_r+0xa04>
  12c5a0:	dc401a04 	addi	r17,sp,104
  12c5a4:	402f883a 	mov	r23,r8
  12c5a8:	9009883a 	mov	r4,r18
  12c5ac:	a00b883a 	mov	r5,r20
  12c5b0:	01800284 	movi	r6,10
  12c5b4:	000f883a 	mov	r7,zero
  12c5b8:	013107c0 	call	13107c <__umoddi3>
  12c5bc:	10800c04 	addi	r2,r2,48
  12c5c0:	8c7fffc4 	addi	r17,r17,-1
  12c5c4:	9009883a 	mov	r4,r18
  12c5c8:	a00b883a 	mov	r5,r20
  12c5cc:	88800005 	stb	r2,0(r17)
  12c5d0:	01800284 	movi	r6,10
  12c5d4:	000f883a 	mov	r7,zero
  12c5d8:	0130a800 	call	130a80 <__udivdi3>
  12c5dc:	1025883a 	mov	r18,r2
  12c5e0:	10c4b03a 	or	r2,r2,r3
  12c5e4:	1829883a 	mov	r20,r3
  12c5e8:	103fef1e 	bne	r2,zero,12c5a8 <_gp+0xfffe8ed0>
  12c5ec:	d9001e17 	ldw	r4,120(sp)
  12c5f0:	b811883a 	mov	r8,r23
  12c5f4:	2469c83a 	sub	r20,r4,r17
  12c5f8:	003f2006 	br	12c27c <_gp+0xfffe8ba4>
  12c5fc:	d8802417 	ldw	r2,144(sp)
  12c600:	8821883a 	mov	r16,r17
  12c604:	d8001d85 	stb	zero,118(sp)
  12c608:	14400017 	ldw	r17,0(r2)
  12c60c:	b811883a 	mov	r8,r23
  12c610:	15c00104 	addi	r23,r2,4
  12c614:	88026c26 	beq	r17,zero,12cfc8 <___svfiprintf_internal_r+0x11dc>
  12c618:	d8c02017 	ldw	r3,128(sp)
  12c61c:	18025f16 	blt	r3,zero,12cf9c <___svfiprintf_internal_r+0x11b0>
  12c620:	180d883a 	mov	r6,r3
  12c624:	000b883a 	mov	r5,zero
  12c628:	8809883a 	mov	r4,r17
  12c62c:	da002d15 	stw	r8,180(sp)
  12c630:	01283380 	call	128338 <memchr>
  12c634:	da002d17 	ldw	r8,180(sp)
  12c638:	1002a526 	beq	r2,zero,12d0d0 <___svfiprintf_internal_r+0x12e4>
  12c63c:	1469c83a 	sub	r20,r2,r17
  12c640:	dd401d83 	ldbu	r21,118(sp)
  12c644:	ddc02415 	stw	r23,144(sp)
  12c648:	d8002015 	stw	zero,128(sp)
  12c64c:	003f0b06 	br	12c27c <_gp+0xfffe8ba4>
  12c650:	8c400814 	ori	r17,r17,32
  12c654:	98c00007 	ldb	r3,0(r19)
  12c658:	003e3006 	br	12bf1c <_gp+0xfffe8844>
  12c65c:	8821883a 	mov	r16,r17
  12c660:	dc402103 	ldbu	r17,132(sp)
  12c664:	b811883a 	mov	r8,r23
  12c668:	8c403fcc 	andi	r17,r17,255
  12c66c:	8802b01e 	bne	r17,zero,12d130 <___svfiprintf_internal_r+0x1344>
  12c670:	84000414 	ori	r16,r16,16
  12c674:	8080080c 	andi	r2,r16,32
  12c678:	103fba1e 	bne	r2,zero,12c564 <_gp+0xfffe8e8c>
  12c67c:	8080040c 	andi	r2,r16,16
  12c680:	1001df1e 	bne	r2,zero,12ce00 <___svfiprintf_internal_r+0x1014>
  12c684:	8080100c 	andi	r2,r16,64
  12c688:	10023d26 	beq	r2,zero,12cf80 <___svfiprintf_internal_r+0x1194>
  12c68c:	d8802417 	ldw	r2,144(sp)
  12c690:	1480000f 	ldh	r18,0(r2)
  12c694:	10800104 	addi	r2,r2,4
  12c698:	d8802415 	stw	r2,144(sp)
  12c69c:	9029d7fa 	srai	r20,r18,31
  12c6a0:	a005883a 	mov	r2,r20
  12c6a4:	103fb60e 	bge	r2,zero,12c580 <_gp+0xfffe8ea8>
  12c6a8:	d9402017 	ldw	r5,128(sp)
  12c6ac:	04a5c83a 	sub	r18,zero,r18
  12c6b0:	05400b44 	movi	r21,45
  12c6b4:	9004c03a 	cmpne	r2,r18,zero
  12c6b8:	0529c83a 	sub	r20,zero,r20
  12c6bc:	dd401d85 	stb	r21,118(sp)
  12c6c0:	a0a9c83a 	sub	r20,r20,r2
  12c6c4:	28026c16 	blt	r5,zero,12d078 <___svfiprintf_internal_r+0x128c>
  12c6c8:	00bfdfc4 	movi	r2,-129
  12c6cc:	80a0703a 	and	r16,r16,r2
  12c6d0:	a03fb31e 	bne	r20,zero,12c5a0 <_gp+0xfffe8ec8>
  12c6d4:	00004606 	br	12c7f0 <___svfiprintf_internal_r+0xa04>
  12c6d8:	9839883a 	mov	fp,r19
  12c6dc:	d8002515 	stw	zero,148(sp)
  12c6e0:	1c3ff404 	addi	r16,r3,-48
  12c6e4:	0009883a 	mov	r4,zero
  12c6e8:	01400284 	movi	r5,10
  12c6ec:	01213680 	call	121368 <__mulsi3>
  12c6f0:	e0c00007 	ldb	r3,0(fp)
  12c6f4:	8089883a 	add	r4,r16,r2
  12c6f8:	9cc00044 	addi	r19,r19,1
  12c6fc:	1c3ff404 	addi	r16,r3,-48
  12c700:	9839883a 	mov	fp,r19
  12c704:	a43ff82e 	bgeu	r20,r16,12c6e8 <_gp+0xfffe9010>
  12c708:	d9002515 	stw	r4,148(sp)
  12c70c:	18bff804 	addi	r2,r3,-32
  12c710:	90be052e 	bgeu	r18,r2,12bf28 <_gp+0xfffe8850>
  12c714:	8821883a 	mov	r16,r17
  12c718:	dc402103 	ldbu	r17,132(sp)
  12c71c:	b811883a 	mov	r8,r23
  12c720:	8c403fcc 	andi	r17,r17,255
  12c724:	88028d1e 	bne	r17,zero,12d15c <___svfiprintf_internal_r+0x1370>
  12c728:	1800ea26 	beq	r3,zero,12cad4 <___svfiprintf_internal_r+0xce8>
  12c72c:	04800044 	movi	r18,1
  12c730:	d8c01005 	stb	r3,64(sp)
  12c734:	d8001d85 	stb	zero,118(sp)
  12c738:	9029883a 	mov	r20,r18
  12c73c:	dc401004 	addi	r17,sp,64
  12c740:	003f1306 	br	12c390 <_gp+0xfffe8cb8>
  12c744:	8c402014 	ori	r17,r17,128
  12c748:	98c00007 	ldb	r3,0(r19)
  12c74c:	003df306 	br	12bf1c <_gp+0xfffe8844>
  12c750:	98c00007 	ldb	r3,0(r19)
  12c754:	01000a84 	movi	r4,42
  12c758:	9f000044 	addi	fp,r19,1
  12c75c:	19026326 	beq	r3,r4,12d0ec <___svfiprintf_internal_r+0x1300>
  12c760:	1c3ff404 	addi	r16,r3,-48
  12c764:	0009883a 	mov	r4,zero
  12c768:	a4025636 	bltu	r20,r16,12d0c4 <___svfiprintf_internal_r+0x12d8>
  12c76c:	01400284 	movi	r5,10
  12c770:	01213680 	call	121368 <__mulsi3>
  12c774:	e0c00007 	ldb	r3,0(fp)
  12c778:	1409883a 	add	r4,r2,r16
  12c77c:	e4c00044 	addi	r19,fp,1
  12c780:	1c3ff404 	addi	r16,r3,-48
  12c784:	9839883a 	mov	fp,r19
  12c788:	a43ff82e 	bgeu	r20,r16,12c76c <_gp+0xfffe9094>
  12c78c:	20020c16 	blt	r4,zero,12cfc0 <___svfiprintf_internal_r+0x11d4>
  12c790:	d9002015 	stw	r4,128(sp)
  12c794:	003de206 	br	12bf20 <_gp+0xfffe8848>
  12c798:	8821883a 	mov	r16,r17
  12c79c:	dc402103 	ldbu	r17,132(sp)
  12c7a0:	b811883a 	mov	r8,r23
  12c7a4:	8c403fcc 	andi	r17,r17,255
  12c7a8:	8802721e 	bne	r17,zero,12d174 <___svfiprintf_internal_r+0x1388>
  12c7ac:	84000414 	ori	r16,r16,16
  12c7b0:	8080080c 	andi	r2,r16,32
  12c7b4:	103e9f1e 	bne	r2,zero,12c234 <_gp+0xfffe8b5c>
  12c7b8:	8080040c 	andi	r2,r16,16
  12c7bc:	10015326 	beq	r2,zero,12cd0c <___svfiprintf_internal_r+0xf20>
  12c7c0:	d8c02417 	ldw	r3,144(sp)
  12c7c4:	d9002017 	ldw	r4,128(sp)
  12c7c8:	d8001d85 	stb	zero,118(sp)
  12c7cc:	18800104 	addi	r2,r3,4
  12c7d0:	1c800017 	ldw	r18,0(r3)
  12c7d4:	0029883a 	mov	r20,zero
  12c7d8:	20015516 	blt	r4,zero,12cd30 <___svfiprintf_internal_r+0xf44>
  12c7dc:	00ffdfc4 	movi	r3,-129
  12c7e0:	d8802415 	stw	r2,144(sp)
  12c7e4:	80e0703a 	and	r16,r16,r3
  12c7e8:	002b883a 	mov	r21,zero
  12c7ec:	903e9e26 	beq	r18,zero,12c268 <_gp+0xfffe8b90>
  12c7f0:	00800244 	movi	r2,9
  12c7f4:	14bf6a36 	bltu	r2,r18,12c5a0 <_gp+0xfffe8ec8>
  12c7f8:	94800c04 	addi	r18,r18,48
  12c7fc:	dc8019c5 	stb	r18,103(sp)
  12c800:	dd002c17 	ldw	r20,176(sp)
  12c804:	dc4019c4 	addi	r17,sp,103
  12c808:	003e9c06 	br	12c27c <_gp+0xfffe8ba4>
  12c80c:	8821883a 	mov	r16,r17
  12c810:	dc402103 	ldbu	r17,132(sp)
  12c814:	b811883a 	mov	r8,r23
  12c818:	8c403fcc 	andi	r17,r17,255
  12c81c:	8802571e 	bne	r17,zero,12d17c <___svfiprintf_internal_r+0x1390>
  12c820:	84000414 	ori	r16,r16,16
  12c824:	8080080c 	andi	r2,r16,32
  12c828:	103ea91e 	bne	r2,zero,12c2d0 <_gp+0xfffe8bf8>
  12c82c:	8080040c 	andi	r2,r16,16
  12c830:	10018026 	beq	r2,zero,12ce34 <___svfiprintf_internal_r+0x1048>
  12c834:	d9402417 	ldw	r5,144(sp)
  12c838:	d8c02017 	ldw	r3,128(sp)
  12c83c:	d8001d85 	stb	zero,118(sp)
  12c840:	28800104 	addi	r2,r5,4
  12c844:	2c800017 	ldw	r18,0(r5)
  12c848:	0029883a 	mov	r20,zero
  12c84c:	18018216 	blt	r3,zero,12ce58 <___svfiprintf_internal_r+0x106c>
  12c850:	00ffdfc4 	movi	r3,-129
  12c854:	d8802415 	stw	r2,144(sp)
  12c858:	80e0703a 	and	r16,r16,r3
  12c85c:	903ea81e 	bne	r18,zero,12c300 <_gp+0xfffe8c28>
  12c860:	d8802017 	ldw	r2,128(sp)
  12c864:	002b883a 	mov	r21,zero
  12c868:	1001f226 	beq	r2,zero,12d034 <___svfiprintf_internal_r+0x1248>
  12c86c:	0025883a 	mov	r18,zero
  12c870:	0029883a 	mov	r20,zero
  12c874:	003ea306 	br	12c304 <_gp+0xfffe8c2c>
  12c878:	d8c01c17 	ldw	r3,112(sp)
  12c87c:	d8801b17 	ldw	r2,108(sp)
  12c880:	d9001d87 	ldb	r4,118(sp)
  12c884:	20000b26 	beq	r4,zero,12c8b4 <___svfiprintf_internal_r+0xac8>
  12c888:	d9001d84 	addi	r4,sp,118
  12c88c:	18c00044 	addi	r3,r3,1
  12c890:	10800044 	addi	r2,r2,1
  12c894:	41000015 	stw	r4,0(r8)
  12c898:	01000044 	movi	r4,1
  12c89c:	41000115 	stw	r4,4(r8)
  12c8a0:	d8c01c15 	stw	r3,112(sp)
  12c8a4:	d8801b15 	stw	r2,108(sp)
  12c8a8:	010001c4 	movi	r4,7
  12c8ac:	2080f316 	blt	r4,r2,12cc7c <___svfiprintf_internal_r+0xe90>
  12c8b0:	42000204 	addi	r8,r8,8
  12c8b4:	d9402117 	ldw	r5,132(sp)
  12c8b8:	28000b26 	beq	r5,zero,12c8e8 <___svfiprintf_internal_r+0xafc>
  12c8bc:	d9001d04 	addi	r4,sp,116
  12c8c0:	18c00084 	addi	r3,r3,2
  12c8c4:	10800044 	addi	r2,r2,1
  12c8c8:	41000015 	stw	r4,0(r8)
  12c8cc:	01000084 	movi	r4,2
  12c8d0:	41000115 	stw	r4,4(r8)
  12c8d4:	d8c01c15 	stw	r3,112(sp)
  12c8d8:	d8801b15 	stw	r2,108(sp)
  12c8dc:	010001c4 	movi	r4,7
  12c8e0:	2080ef16 	blt	r4,r2,12cca0 <___svfiprintf_internal_r+0xeb4>
  12c8e4:	42000204 	addi	r8,r8,8
  12c8e8:	d9402217 	ldw	r5,136(sp)
  12c8ec:	01002004 	movi	r4,128
  12c8f0:	29008f26 	beq	r5,r4,12cb30 <___svfiprintf_internal_r+0xd44>
  12c8f4:	d9002017 	ldw	r4,128(sp)
  12c8f8:	252fc83a 	sub	r23,r4,r20
  12c8fc:	05c0310e 	bge	zero,r23,12c9c4 <___svfiprintf_internal_r+0xbd8>
  12c900:	07000404 	movi	fp,16
  12c904:	e5c17d0e 	bge	fp,r23,12cefc <___svfiprintf_internal_r+0x1110>
  12c908:	01000534 	movhi	r4,20
  12c90c:	2125e404 	addi	r4,r4,-26736
  12c910:	dc002015 	stw	r16,128(sp)
  12c914:	dc402215 	stw	r17,136(sp)
  12c918:	d9002115 	stw	r4,132(sp)
  12c91c:	b823883a 	mov	r17,r23
  12c920:	054001c4 	movi	r21,7
  12c924:	982f883a 	mov	r23,r19
  12c928:	dc002717 	ldw	r16,156(sp)
  12c92c:	9027883a 	mov	r19,r18
  12c930:	dc802317 	ldw	r18,140(sp)
  12c934:	00000306 	br	12c944 <___svfiprintf_internal_r+0xb58>
  12c938:	8c7ffc04 	addi	r17,r17,-16
  12c93c:	42000204 	addi	r8,r8,8
  12c940:	e440110e 	bge	fp,r17,12c988 <___svfiprintf_internal_r+0xb9c>
  12c944:	18c00404 	addi	r3,r3,16
  12c948:	10800044 	addi	r2,r2,1
  12c94c:	45800015 	stw	r22,0(r8)
  12c950:	47000115 	stw	fp,4(r8)
  12c954:	d8c01c15 	stw	r3,112(sp)
  12c958:	d8801b15 	stw	r2,108(sp)
  12c95c:	a8bff60e 	bge	r21,r2,12c938 <_gp+0xfffe9260>
  12c960:	d9801a04 	addi	r6,sp,104
  12c964:	900b883a 	mov	r5,r18
  12c968:	8009883a 	mov	r4,r16
  12c96c:	012bc1c0 	call	12bc1c <__ssprint_r>
  12c970:	10005e1e 	bne	r2,zero,12caec <___svfiprintf_internal_r+0xd00>
  12c974:	8c7ffc04 	addi	r17,r17,-16
  12c978:	d8c01c17 	ldw	r3,112(sp)
  12c97c:	d8801b17 	ldw	r2,108(sp)
  12c980:	d811883a 	mov	r8,sp
  12c984:	e47fef16 	blt	fp,r17,12c944 <_gp+0xfffe926c>
  12c988:	9825883a 	mov	r18,r19
  12c98c:	dc002017 	ldw	r16,128(sp)
  12c990:	b827883a 	mov	r19,r23
  12c994:	882f883a 	mov	r23,r17
  12c998:	dc402217 	ldw	r17,136(sp)
  12c99c:	d9402117 	ldw	r5,132(sp)
  12c9a0:	1dc7883a 	add	r3,r3,r23
  12c9a4:	10800044 	addi	r2,r2,1
  12c9a8:	41400015 	stw	r5,0(r8)
  12c9ac:	45c00115 	stw	r23,4(r8)
  12c9b0:	d8c01c15 	stw	r3,112(sp)
  12c9b4:	d8801b15 	stw	r2,108(sp)
  12c9b8:	010001c4 	movi	r4,7
  12c9bc:	2080a616 	blt	r4,r2,12cc58 <___svfiprintf_internal_r+0xe6c>
  12c9c0:	42000204 	addi	r8,r8,8
  12c9c4:	a0c7883a 	add	r3,r20,r3
  12c9c8:	10800044 	addi	r2,r2,1
  12c9cc:	44400015 	stw	r17,0(r8)
  12c9d0:	45000115 	stw	r20,4(r8)
  12c9d4:	d8c01c15 	stw	r3,112(sp)
  12c9d8:	d8801b15 	stw	r2,108(sp)
  12c9dc:	010001c4 	movi	r4,7
  12c9e0:	20808816 	blt	r4,r2,12cc04 <___svfiprintf_internal_r+0xe18>
  12c9e4:	42000204 	addi	r8,r8,8
  12c9e8:	8400010c 	andi	r16,r16,4
  12c9ec:	80002c26 	beq	r16,zero,12caa0 <___svfiprintf_internal_r+0xcb4>
  12c9f0:	d8802517 	ldw	r2,148(sp)
  12c9f4:	14a1c83a 	sub	r16,r2,r18
  12c9f8:	0400290e 	bge	zero,r16,12caa0 <___svfiprintf_internal_r+0xcb4>
  12c9fc:	04400404 	movi	r17,16
  12ca00:	d8801b17 	ldw	r2,108(sp)
  12ca04:	8c01a70e 	bge	r17,r16,12d0a4 <___svfiprintf_internal_r+0x12b8>
  12ca08:	01400534 	movhi	r5,20
  12ca0c:	2965e804 	addi	r5,r5,-26720
  12ca10:	d9402815 	stw	r5,160(sp)
  12ca14:	050001c4 	movi	r20,7
  12ca18:	dd402717 	ldw	r21,156(sp)
  12ca1c:	ddc02317 	ldw	r23,140(sp)
  12ca20:	00000306 	br	12ca30 <___svfiprintf_internal_r+0xc44>
  12ca24:	843ffc04 	addi	r16,r16,-16
  12ca28:	42000204 	addi	r8,r8,8
  12ca2c:	8c00130e 	bge	r17,r16,12ca7c <___svfiprintf_internal_r+0xc90>
  12ca30:	01000534 	movhi	r4,20
  12ca34:	18c00404 	addi	r3,r3,16
  12ca38:	10800044 	addi	r2,r2,1
  12ca3c:	2125e804 	addi	r4,r4,-26720
  12ca40:	41000015 	stw	r4,0(r8)
  12ca44:	44400115 	stw	r17,4(r8)
  12ca48:	d8c01c15 	stw	r3,112(sp)
  12ca4c:	d8801b15 	stw	r2,108(sp)
  12ca50:	a0bff40e 	bge	r20,r2,12ca24 <_gp+0xfffe934c>
  12ca54:	d9801a04 	addi	r6,sp,104
  12ca58:	b80b883a 	mov	r5,r23
  12ca5c:	a809883a 	mov	r4,r21
  12ca60:	012bc1c0 	call	12bc1c <__ssprint_r>
  12ca64:	1000211e 	bne	r2,zero,12caec <___svfiprintf_internal_r+0xd00>
  12ca68:	843ffc04 	addi	r16,r16,-16
  12ca6c:	d8c01c17 	ldw	r3,112(sp)
  12ca70:	d8801b17 	ldw	r2,108(sp)
  12ca74:	d811883a 	mov	r8,sp
  12ca78:	8c3fed16 	blt	r17,r16,12ca30 <_gp+0xfffe9358>
  12ca7c:	d9402817 	ldw	r5,160(sp)
  12ca80:	1c07883a 	add	r3,r3,r16
  12ca84:	10800044 	addi	r2,r2,1
  12ca88:	41400015 	stw	r5,0(r8)
  12ca8c:	44000115 	stw	r16,4(r8)
  12ca90:	d8c01c15 	stw	r3,112(sp)
  12ca94:	d8801b15 	stw	r2,108(sp)
  12ca98:	010001c4 	movi	r4,7
  12ca9c:	2080b516 	blt	r4,r2,12cd74 <___svfiprintf_internal_r+0xf88>
  12caa0:	d8802517 	ldw	r2,148(sp)
  12caa4:	1480010e 	bge	r2,r18,12caac <___svfiprintf_internal_r+0xcc0>
  12caa8:	9005883a 	mov	r2,r18
  12caac:	d9002617 	ldw	r4,152(sp)
  12cab0:	2089883a 	add	r4,r4,r2
  12cab4:	d9002615 	stw	r4,152(sp)
  12cab8:	18005a1e 	bne	r3,zero,12cc24 <___svfiprintf_internal_r+0xe38>
  12cabc:	98800007 	ldb	r2,0(r19)
  12cac0:	d8001b15 	stw	zero,108(sp)
  12cac4:	d811883a 	mov	r8,sp
  12cac8:	103cec1e 	bne	r2,zero,12be7c <_gp+0xfffe87a4>
  12cacc:	9825883a 	mov	r18,r19
  12cad0:	003d0206 	br	12bedc <_gp+0xfffe8804>
  12cad4:	d8801c17 	ldw	r2,112(sp)
  12cad8:	10000426 	beq	r2,zero,12caec <___svfiprintf_internal_r+0xd00>
  12cadc:	d9402317 	ldw	r5,140(sp)
  12cae0:	d9002717 	ldw	r4,156(sp)
  12cae4:	d9801a04 	addi	r6,sp,104
  12cae8:	012bc1c0 	call	12bc1c <__ssprint_r>
  12caec:	d9402317 	ldw	r5,140(sp)
  12caf0:	d8802617 	ldw	r2,152(sp)
  12caf4:	28c0030b 	ldhu	r3,12(r5)
  12caf8:	18c0100c 	andi	r3,r3,64
  12cafc:	18015c1e 	bne	r3,zero,12d070 <___svfiprintf_internal_r+0x1284>
  12cb00:	dfc03717 	ldw	ra,220(sp)
  12cb04:	df003617 	ldw	fp,216(sp)
  12cb08:	ddc03517 	ldw	r23,212(sp)
  12cb0c:	dd803417 	ldw	r22,208(sp)
  12cb10:	dd403317 	ldw	r21,204(sp)
  12cb14:	dd003217 	ldw	r20,200(sp)
  12cb18:	dcc03117 	ldw	r19,196(sp)
  12cb1c:	dc803017 	ldw	r18,192(sp)
  12cb20:	dc402f17 	ldw	r17,188(sp)
  12cb24:	dc002e17 	ldw	r16,184(sp)
  12cb28:	dec03804 	addi	sp,sp,224
  12cb2c:	f800283a 	ret
  12cb30:	d9002517 	ldw	r4,148(sp)
  12cb34:	24afc83a 	sub	r23,r4,r18
  12cb38:	05ff6e0e 	bge	zero,r23,12c8f4 <_gp+0xfffe921c>
  12cb3c:	07000404 	movi	fp,16
  12cb40:	e5c15c0e 	bge	fp,r23,12d0b4 <___svfiprintf_internal_r+0x12c8>
  12cb44:	01000534 	movhi	r4,20
  12cb48:	2125e404 	addi	r4,r4,-26736
  12cb4c:	dc002215 	stw	r16,136(sp)
  12cb50:	dc402815 	stw	r17,160(sp)
  12cb54:	d9002115 	stw	r4,132(sp)
  12cb58:	b823883a 	mov	r17,r23
  12cb5c:	054001c4 	movi	r21,7
  12cb60:	982f883a 	mov	r23,r19
  12cb64:	dc002717 	ldw	r16,156(sp)
  12cb68:	9027883a 	mov	r19,r18
  12cb6c:	dc802317 	ldw	r18,140(sp)
  12cb70:	00000306 	br	12cb80 <___svfiprintf_internal_r+0xd94>
  12cb74:	8c7ffc04 	addi	r17,r17,-16
  12cb78:	42000204 	addi	r8,r8,8
  12cb7c:	e440110e 	bge	fp,r17,12cbc4 <___svfiprintf_internal_r+0xdd8>
  12cb80:	18c00404 	addi	r3,r3,16
  12cb84:	10800044 	addi	r2,r2,1
  12cb88:	45800015 	stw	r22,0(r8)
  12cb8c:	47000115 	stw	fp,4(r8)
  12cb90:	d8c01c15 	stw	r3,112(sp)
  12cb94:	d8801b15 	stw	r2,108(sp)
  12cb98:	a8bff60e 	bge	r21,r2,12cb74 <_gp+0xfffe949c>
  12cb9c:	d9801a04 	addi	r6,sp,104
  12cba0:	900b883a 	mov	r5,r18
  12cba4:	8009883a 	mov	r4,r16
  12cba8:	012bc1c0 	call	12bc1c <__ssprint_r>
  12cbac:	103fcf1e 	bne	r2,zero,12caec <_gp+0xfffe9414>
  12cbb0:	8c7ffc04 	addi	r17,r17,-16
  12cbb4:	d8c01c17 	ldw	r3,112(sp)
  12cbb8:	d8801b17 	ldw	r2,108(sp)
  12cbbc:	d811883a 	mov	r8,sp
  12cbc0:	e47fef16 	blt	fp,r17,12cb80 <_gp+0xfffe94a8>
  12cbc4:	9825883a 	mov	r18,r19
  12cbc8:	dc002217 	ldw	r16,136(sp)
  12cbcc:	b827883a 	mov	r19,r23
  12cbd0:	882f883a 	mov	r23,r17
  12cbd4:	dc402817 	ldw	r17,160(sp)
  12cbd8:	d9402117 	ldw	r5,132(sp)
  12cbdc:	1dc7883a 	add	r3,r3,r23
  12cbe0:	10800044 	addi	r2,r2,1
  12cbe4:	41400015 	stw	r5,0(r8)
  12cbe8:	45c00115 	stw	r23,4(r8)
  12cbec:	d8c01c15 	stw	r3,112(sp)
  12cbf0:	d8801b15 	stw	r2,108(sp)
  12cbf4:	010001c4 	movi	r4,7
  12cbf8:	2080b716 	blt	r4,r2,12ced8 <___svfiprintf_internal_r+0x10ec>
  12cbfc:	42000204 	addi	r8,r8,8
  12cc00:	003f3c06 	br	12c8f4 <_gp+0xfffe921c>
  12cc04:	d9402317 	ldw	r5,140(sp)
  12cc08:	d9002717 	ldw	r4,156(sp)
  12cc0c:	d9801a04 	addi	r6,sp,104
  12cc10:	012bc1c0 	call	12bc1c <__ssprint_r>
  12cc14:	103fb51e 	bne	r2,zero,12caec <_gp+0xfffe9414>
  12cc18:	d8c01c17 	ldw	r3,112(sp)
  12cc1c:	d811883a 	mov	r8,sp
  12cc20:	003f7106 	br	12c9e8 <_gp+0xfffe9310>
  12cc24:	d9402317 	ldw	r5,140(sp)
  12cc28:	d9002717 	ldw	r4,156(sp)
  12cc2c:	d9801a04 	addi	r6,sp,104
  12cc30:	012bc1c0 	call	12bc1c <__ssprint_r>
  12cc34:	103fa126 	beq	r2,zero,12cabc <_gp+0xfffe93e4>
  12cc38:	003fac06 	br	12caec <_gp+0xfffe9414>
  12cc3c:	d9402317 	ldw	r5,140(sp)
  12cc40:	d9002717 	ldw	r4,156(sp)
  12cc44:	d9801a04 	addi	r6,sp,104
  12cc48:	012bc1c0 	call	12bc1c <__ssprint_r>
  12cc4c:	103fa71e 	bne	r2,zero,12caec <_gp+0xfffe9414>
  12cc50:	d811883a 	mov	r8,sp
  12cc54:	003c9e06 	br	12bed0 <_gp+0xfffe87f8>
  12cc58:	d9402317 	ldw	r5,140(sp)
  12cc5c:	d9002717 	ldw	r4,156(sp)
  12cc60:	d9801a04 	addi	r6,sp,104
  12cc64:	012bc1c0 	call	12bc1c <__ssprint_r>
  12cc68:	103fa01e 	bne	r2,zero,12caec <_gp+0xfffe9414>
  12cc6c:	d8c01c17 	ldw	r3,112(sp)
  12cc70:	d8801b17 	ldw	r2,108(sp)
  12cc74:	d811883a 	mov	r8,sp
  12cc78:	003f5206 	br	12c9c4 <_gp+0xfffe92ec>
  12cc7c:	d9402317 	ldw	r5,140(sp)
  12cc80:	d9002717 	ldw	r4,156(sp)
  12cc84:	d9801a04 	addi	r6,sp,104
  12cc88:	012bc1c0 	call	12bc1c <__ssprint_r>
  12cc8c:	103f971e 	bne	r2,zero,12caec <_gp+0xfffe9414>
  12cc90:	d8c01c17 	ldw	r3,112(sp)
  12cc94:	d8801b17 	ldw	r2,108(sp)
  12cc98:	d811883a 	mov	r8,sp
  12cc9c:	003f0506 	br	12c8b4 <_gp+0xfffe91dc>
  12cca0:	d9402317 	ldw	r5,140(sp)
  12cca4:	d9002717 	ldw	r4,156(sp)
  12cca8:	d9801a04 	addi	r6,sp,104
  12ccac:	012bc1c0 	call	12bc1c <__ssprint_r>
  12ccb0:	103f8e1e 	bne	r2,zero,12caec <_gp+0xfffe9414>
  12ccb4:	d8c01c17 	ldw	r3,112(sp)
  12ccb8:	d8801b17 	ldw	r2,108(sp)
  12ccbc:	d811883a 	mov	r8,sp
  12ccc0:	003f0906 	br	12c8e8 <_gp+0xfffe9210>
  12ccc4:	d9402017 	ldw	r5,128(sp)
  12ccc8:	d8001d85 	stb	zero,118(sp)
  12cccc:	28007716 	blt	r5,zero,12ceac <___svfiprintf_internal_r+0x10c0>
  12ccd0:	00ffdfc4 	movi	r3,-129
  12ccd4:	9504b03a 	or	r2,r18,r20
  12ccd8:	80e0703a 	and	r16,r16,r3
  12ccdc:	103d3926 	beq	r2,zero,12c1c4 <_gp+0xfffe8aec>
  12cce0:	002b883a 	mov	r21,zero
  12cce4:	003d3c06 	br	12c1d8 <_gp+0xfffe8b00>
  12cce8:	d9402317 	ldw	r5,140(sp)
  12ccec:	d9002717 	ldw	r4,156(sp)
  12ccf0:	d9801a04 	addi	r6,sp,104
  12ccf4:	012bc1c0 	call	12bc1c <__ssprint_r>
  12ccf8:	103f7c1e 	bne	r2,zero,12caec <_gp+0xfffe9414>
  12ccfc:	d8c01c17 	ldw	r3,112(sp)
  12cd00:	d8801b17 	ldw	r2,108(sp)
  12cd04:	d811883a 	mov	r8,sp
  12cd08:	003edd06 	br	12c880 <_gp+0xfffe91a8>
  12cd0c:	8080100c 	andi	r2,r16,64
  12cd10:	d8001d85 	stb	zero,118(sp)
  12cd14:	10008426 	beq	r2,zero,12cf28 <___svfiprintf_internal_r+0x113c>
  12cd18:	d9402417 	ldw	r5,144(sp)
  12cd1c:	d8c02017 	ldw	r3,128(sp)
  12cd20:	0029883a 	mov	r20,zero
  12cd24:	28800104 	addi	r2,r5,4
  12cd28:	2c80000b 	ldhu	r18,0(r5)
  12cd2c:	183eab0e 	bge	r3,zero,12c7dc <_gp+0xfffe9104>
  12cd30:	d8802415 	stw	r2,144(sp)
  12cd34:	002b883a 	mov	r21,zero
  12cd38:	9504b03a 	or	r2,r18,r20
  12cd3c:	103e171e 	bne	r2,zero,12c59c <_gp+0xfffe8ec4>
  12cd40:	00800044 	movi	r2,1
  12cd44:	10803fcc 	andi	r2,r2,255
  12cd48:	00c00044 	movi	r3,1
  12cd4c:	10c05c26 	beq	r2,r3,12cec0 <___svfiprintf_internal_r+0x10d4>
  12cd50:	00c00084 	movi	r3,2
  12cd54:	10fd1e26 	beq	r2,r3,12c1d0 <_gp+0xfffe8af8>
  12cd58:	003ec406 	br	12c86c <_gp+0xfffe9194>
  12cd5c:	d9401e17 	ldw	r5,120(sp)
  12cd60:	2c69c83a 	sub	r20,r5,r17
  12cd64:	003d4506 	br	12c27c <_gp+0xfffe8ba4>
  12cd68:	d8802415 	stw	r2,144(sp)
  12cd6c:	98c00007 	ldb	r3,0(r19)
  12cd70:	003c6a06 	br	12bf1c <_gp+0xfffe8844>
  12cd74:	d9402317 	ldw	r5,140(sp)
  12cd78:	d9002717 	ldw	r4,156(sp)
  12cd7c:	d9801a04 	addi	r6,sp,104
  12cd80:	012bc1c0 	call	12bc1c <__ssprint_r>
  12cd84:	103f591e 	bne	r2,zero,12caec <_gp+0xfffe9414>
  12cd88:	d8c01c17 	ldw	r3,112(sp)
  12cd8c:	003f4406 	br	12caa0 <_gp+0xfffe93c8>
  12cd90:	01400534 	movhi	r5,20
  12cd94:	2964c004 	addi	r5,r5,-27904
  12cd98:	d9402915 	stw	r5,164(sp)
  12cd9c:	003d0906 	br	12c1c4 <_gp+0xfffe8aec>
  12cda0:	d8c02417 	ldw	r3,144(sp)
  12cda4:	d9002617 	ldw	r4,152(sp)
  12cda8:	d9402417 	ldw	r5,144(sp)
  12cdac:	18800017 	ldw	r2,0(r3)
  12cdb0:	2007d7fa 	srai	r3,r4,31
  12cdb4:	29400104 	addi	r5,r5,4
  12cdb8:	d9402415 	stw	r5,144(sp)
  12cdbc:	11000015 	stw	r4,0(r2)
  12cdc0:	10c00115 	stw	r3,4(r2)
  12cdc4:	003c2b06 	br	12be74 <_gp+0xfffe879c>
  12cdc8:	d8c01d45 	stb	r3,117(sp)
  12cdcc:	d8c02017 	ldw	r3,128(sp)
  12cdd0:	00800c04 	movi	r2,48
  12cdd4:	d8801d05 	stb	r2,116(sp)
  12cdd8:	d8001d85 	stb	zero,118(sp)
  12cddc:	80800094 	ori	r2,r16,2
  12cde0:	1800ac16 	blt	r3,zero,12d094 <___svfiprintf_internal_r+0x12a8>
  12cde4:	00bfdfc4 	movi	r2,-129
  12cde8:	80a0703a 	and	r16,r16,r2
  12cdec:	84000094 	ori	r16,r16,2
  12cdf0:	002b883a 	mov	r21,zero
  12cdf4:	003cf806 	br	12c1d8 <_gp+0xfffe8b00>
  12cdf8:	98c00007 	ldb	r3,0(r19)
  12cdfc:	003c4706 	br	12bf1c <_gp+0xfffe8844>
  12ce00:	d9402417 	ldw	r5,144(sp)
  12ce04:	2c800017 	ldw	r18,0(r5)
  12ce08:	29400104 	addi	r5,r5,4
  12ce0c:	d9402415 	stw	r5,144(sp)
  12ce10:	9029d7fa 	srai	r20,r18,31
  12ce14:	a005883a 	mov	r2,r20
  12ce18:	003dd806 	br	12c57c <_gp+0xfffe8ea4>
  12ce1c:	d9402417 	ldw	r5,144(sp)
  12ce20:	0029883a 	mov	r20,zero
  12ce24:	2c800017 	ldw	r18,0(r5)
  12ce28:	29400104 	addi	r5,r5,4
  12ce2c:	d9402415 	stw	r5,144(sp)
  12ce30:	003cdb06 	br	12c1a0 <_gp+0xfffe8ac8>
  12ce34:	8080100c 	andi	r2,r16,64
  12ce38:	d8001d85 	stb	zero,118(sp)
  12ce3c:	10003326 	beq	r2,zero,12cf0c <___svfiprintf_internal_r+0x1120>
  12ce40:	d9002417 	ldw	r4,144(sp)
  12ce44:	d9402017 	ldw	r5,128(sp)
  12ce48:	0029883a 	mov	r20,zero
  12ce4c:	20800104 	addi	r2,r4,4
  12ce50:	2480000b 	ldhu	r18,0(r4)
  12ce54:	283e7e0e 	bge	r5,zero,12c850 <_gp+0xfffe9178>
  12ce58:	9506b03a 	or	r3,r18,r20
  12ce5c:	d8802415 	stw	r2,144(sp)
  12ce60:	183d271e 	bne	r3,zero,12c300 <_gp+0xfffe8c28>
  12ce64:	002b883a 	mov	r21,zero
  12ce68:	0005883a 	mov	r2,zero
  12ce6c:	003fb506 	br	12cd44 <_gp+0xfffe966c>
  12ce70:	98c00043 	ldbu	r3,1(r19)
  12ce74:	8c400814 	ori	r17,r17,32
  12ce78:	9cc00044 	addi	r19,r19,1
  12ce7c:	18c03fcc 	andi	r3,r3,255
  12ce80:	18c0201c 	xori	r3,r3,128
  12ce84:	18ffe004 	addi	r3,r3,-128
  12ce88:	003c2406 	br	12bf1c <_gp+0xfffe8844>
  12ce8c:	d8c02415 	stw	r3,144(sp)
  12ce90:	002b883a 	mov	r21,zero
  12ce94:	003fa806 	br	12cd38 <_gp+0xfffe9660>
  12ce98:	01000534 	movhi	r4,20
  12ce9c:	2124c004 	addi	r4,r4,-27904
  12cea0:	d9002915 	stw	r4,164(sp)
  12cea4:	d8c02415 	stw	r3,144(sp)
  12cea8:	1021883a 	mov	r16,r2
  12ceac:	9504b03a 	or	r2,r18,r20
  12ceb0:	103f8b1e 	bne	r2,zero,12cce0 <_gp+0xfffe9608>
  12ceb4:	002b883a 	mov	r21,zero
  12ceb8:	00800084 	movi	r2,2
  12cebc:	003fa106 	br	12cd44 <_gp+0xfffe966c>
  12cec0:	0025883a 	mov	r18,zero
  12cec4:	94800c04 	addi	r18,r18,48
  12cec8:	dc8019c5 	stb	r18,103(sp)
  12cecc:	dd002c17 	ldw	r20,176(sp)
  12ced0:	dc4019c4 	addi	r17,sp,103
  12ced4:	003ce906 	br	12c27c <_gp+0xfffe8ba4>
  12ced8:	d9402317 	ldw	r5,140(sp)
  12cedc:	d9002717 	ldw	r4,156(sp)
  12cee0:	d9801a04 	addi	r6,sp,104
  12cee4:	012bc1c0 	call	12bc1c <__ssprint_r>
  12cee8:	103f001e 	bne	r2,zero,12caec <_gp+0xfffe9414>
  12ceec:	d8c01c17 	ldw	r3,112(sp)
  12cef0:	d8801b17 	ldw	r2,108(sp)
  12cef4:	d811883a 	mov	r8,sp
  12cef8:	003e7e06 	br	12c8f4 <_gp+0xfffe921c>
  12cefc:	01400534 	movhi	r5,20
  12cf00:	2965e404 	addi	r5,r5,-26736
  12cf04:	d9402115 	stw	r5,132(sp)
  12cf08:	003ea406 	br	12c99c <_gp+0xfffe92c4>
  12cf0c:	d8c02417 	ldw	r3,144(sp)
  12cf10:	d9002017 	ldw	r4,128(sp)
  12cf14:	0029883a 	mov	r20,zero
  12cf18:	18800104 	addi	r2,r3,4
  12cf1c:	1c800017 	ldw	r18,0(r3)
  12cf20:	203e4b0e 	bge	r4,zero,12c850 <_gp+0xfffe9178>
  12cf24:	003fcc06 	br	12ce58 <_gp+0xfffe9780>
  12cf28:	d9002417 	ldw	r4,144(sp)
  12cf2c:	d9402017 	ldw	r5,128(sp)
  12cf30:	0029883a 	mov	r20,zero
  12cf34:	20800104 	addi	r2,r4,4
  12cf38:	24800017 	ldw	r18,0(r4)
  12cf3c:	283e270e 	bge	r5,zero,12c7dc <_gp+0xfffe9104>
  12cf40:	003f7b06 	br	12cd30 <_gp+0xfffe9658>
  12cf44:	8400100c 	andi	r16,r16,64
  12cf48:	80003326 	beq	r16,zero,12d018 <___svfiprintf_internal_r+0x122c>
  12cf4c:	d9402417 	ldw	r5,144(sp)
  12cf50:	d8c02617 	ldw	r3,152(sp)
  12cf54:	28800017 	ldw	r2,0(r5)
  12cf58:	29400104 	addi	r5,r5,4
  12cf5c:	d9402415 	stw	r5,144(sp)
  12cf60:	10c0000d 	sth	r3,0(r2)
  12cf64:	003bc306 	br	12be74 <_gp+0xfffe879c>
  12cf68:	d9002417 	ldw	r4,144(sp)
  12cf6c:	0029883a 	mov	r20,zero
  12cf70:	24800017 	ldw	r18,0(r4)
  12cf74:	21000104 	addi	r4,r4,4
  12cf78:	d9002415 	stw	r4,144(sp)
  12cf7c:	003c8806 	br	12c1a0 <_gp+0xfffe8ac8>
  12cf80:	d8c02417 	ldw	r3,144(sp)
  12cf84:	1c800017 	ldw	r18,0(r3)
  12cf88:	18c00104 	addi	r3,r3,4
  12cf8c:	d8c02415 	stw	r3,144(sp)
  12cf90:	9029d7fa 	srai	r20,r18,31
  12cf94:	a005883a 	mov	r2,r20
  12cf98:	003d7806 	br	12c57c <_gp+0xfffe8ea4>
  12cf9c:	8809883a 	mov	r4,r17
  12cfa0:	da002d15 	stw	r8,180(sp)
  12cfa4:	01218f40 	call	1218f4 <strlen>
  12cfa8:	1029883a 	mov	r20,r2
  12cfac:	dd401d83 	ldbu	r21,118(sp)
  12cfb0:	ddc02415 	stw	r23,144(sp)
  12cfb4:	d8002015 	stw	zero,128(sp)
  12cfb8:	da002d17 	ldw	r8,180(sp)
  12cfbc:	003caf06 	br	12c27c <_gp+0xfffe8ba4>
  12cfc0:	013fffc4 	movi	r4,-1
  12cfc4:	003df206 	br	12c790 <_gp+0xfffe90b8>
  12cfc8:	dd002017 	ldw	r20,128(sp)
  12cfcc:	00800184 	movi	r2,6
  12cfd0:	1500012e 	bgeu	r2,r20,12cfd8 <___svfiprintf_internal_r+0x11ec>
  12cfd4:	1029883a 	mov	r20,r2
  12cfd8:	a025883a 	mov	r18,r20
  12cfdc:	a0004116 	blt	r20,zero,12d0e4 <___svfiprintf_internal_r+0x12f8>
  12cfe0:	04400534 	movhi	r17,20
  12cfe4:	ddc02415 	stw	r23,144(sp)
  12cfe8:	8c64c504 	addi	r17,r17,-27884
  12cfec:	003ce806 	br	12c390 <_gp+0xfffe8cb8>
  12cff0:	04001004 	movi	r16,64
  12cff4:	800b883a 	mov	r5,r16
  12cff8:	01279080 	call	127908 <_malloc_r>
  12cffc:	d8c02317 	ldw	r3,140(sp)
  12d000:	18800015 	stw	r2,0(r3)
  12d004:	18800415 	stw	r2,16(r3)
  12d008:	10004d26 	beq	r2,zero,12d140 <___svfiprintf_internal_r+0x1354>
  12d00c:	d9402317 	ldw	r5,140(sp)
  12d010:	2c000515 	stw	r16,20(r5)
  12d014:	003b8906 	br	12be3c <_gp+0xfffe8764>
  12d018:	d9002417 	ldw	r4,144(sp)
  12d01c:	d9402617 	ldw	r5,152(sp)
  12d020:	20800017 	ldw	r2,0(r4)
  12d024:	21000104 	addi	r4,r4,4
  12d028:	d9002415 	stw	r4,144(sp)
  12d02c:	11400015 	stw	r5,0(r2)
  12d030:	003b9006 	br	12be74 <_gp+0xfffe879c>
  12d034:	8080004c 	andi	r2,r16,1
  12d038:	002b883a 	mov	r21,zero
  12d03c:	10000526 	beq	r2,zero,12d054 <___svfiprintf_internal_r+0x1268>
  12d040:	00800c04 	movi	r2,48
  12d044:	d88019c5 	stb	r2,103(sp)
  12d048:	dd002c17 	ldw	r20,176(sp)
  12d04c:	dc4019c4 	addi	r17,sp,103
  12d050:	003c8a06 	br	12c27c <_gp+0xfffe8ba4>
  12d054:	0029883a 	mov	r20,zero
  12d058:	dc401a04 	addi	r17,sp,104
  12d05c:	003c8706 	br	12c27c <_gp+0xfffe8ba4>
  12d060:	01400534 	movhi	r5,20
  12d064:	2965e804 	addi	r5,r5,-26720
  12d068:	d9402815 	stw	r5,160(sp)
  12d06c:	003cff06 	br	12c46c <_gp+0xfffe8d94>
  12d070:	00bfffc4 	movi	r2,-1
  12d074:	003ea206 	br	12cb00 <_gp+0xfffe9428>
  12d078:	00800044 	movi	r2,1
  12d07c:	10803fcc 	andi	r2,r2,255
  12d080:	00c00044 	movi	r3,1
  12d084:	10fd4526 	beq	r2,r3,12c59c <_gp+0xfffe8ec4>
  12d088:	00c00084 	movi	r3,2
  12d08c:	10fc5226 	beq	r2,r3,12c1d8 <_gp+0xfffe8b00>
  12d090:	003c9c06 	br	12c304 <_gp+0xfffe8c2c>
  12d094:	1021883a 	mov	r16,r2
  12d098:	002b883a 	mov	r21,zero
  12d09c:	00800084 	movi	r2,2
  12d0a0:	003ff606 	br	12d07c <_gp+0xfffe99a4>
  12d0a4:	01000534 	movhi	r4,20
  12d0a8:	2125e804 	addi	r4,r4,-26720
  12d0ac:	d9002815 	stw	r4,160(sp)
  12d0b0:	003e7206 	br	12ca7c <_gp+0xfffe93a4>
  12d0b4:	01400534 	movhi	r5,20
  12d0b8:	2965e404 	addi	r5,r5,-26736
  12d0bc:	d9402115 	stw	r5,132(sp)
  12d0c0:	003ec506 	br	12cbd8 <_gp+0xfffe9500>
  12d0c4:	e027883a 	mov	r19,fp
  12d0c8:	d8002015 	stw	zero,128(sp)
  12d0cc:	003b9406 	br	12bf20 <_gp+0xfffe8848>
  12d0d0:	dd002017 	ldw	r20,128(sp)
  12d0d4:	dd401d83 	ldbu	r21,118(sp)
  12d0d8:	ddc02415 	stw	r23,144(sp)
  12d0dc:	d8002015 	stw	zero,128(sp)
  12d0e0:	003c6606 	br	12c27c <_gp+0xfffe8ba4>
  12d0e4:	0025883a 	mov	r18,zero
  12d0e8:	003fbd06 	br	12cfe0 <_gp+0xfffe9908>
  12d0ec:	d9402417 	ldw	r5,144(sp)
  12d0f0:	d8c02417 	ldw	r3,144(sp)
  12d0f4:	29400017 	ldw	r5,0(r5)
  12d0f8:	19000104 	addi	r4,r3,4
  12d0fc:	d9002415 	stw	r4,144(sp)
  12d100:	d9402015 	stw	r5,128(sp)
  12d104:	98c00043 	ldbu	r3,1(r19)
  12d108:	e027883a 	mov	r19,fp
  12d10c:	283f5b0e 	bge	r5,zero,12ce7c <_gp+0xfffe97a4>
  12d110:	18c03fcc 	andi	r3,r3,255
  12d114:	013fffc4 	movi	r4,-1
  12d118:	18c0201c 	xori	r3,r3,128
  12d11c:	d9002015 	stw	r4,128(sp)
  12d120:	18ffe004 	addi	r3,r3,-128
  12d124:	003b7d06 	br	12bf1c <_gp+0xfffe8844>
  12d128:	dd401d85 	stb	r21,118(sp)
  12d12c:	003cf306 	br	12c4fc <_gp+0xfffe8e24>
  12d130:	dd401d85 	stb	r21,118(sp)
  12d134:	003d4e06 	br	12c670 <_gp+0xfffe8f98>
  12d138:	dd401d85 	stb	r21,118(sp)
  12d13c:	003c0e06 	br	12c178 <_gp+0xfffe8aa0>
  12d140:	d9002717 	ldw	r4,156(sp)
  12d144:	00800304 	movi	r2,12
  12d148:	20800015 	stw	r2,0(r4)
  12d14c:	00bfffc4 	movi	r2,-1
  12d150:	003e6b06 	br	12cb00 <_gp+0xfffe9428>
  12d154:	dd401d85 	stb	r21,118(sp)
  12d158:	003d0006 	br	12c55c <_gp+0xfffe8e84>
  12d15c:	dd401d85 	stb	r21,118(sp)
  12d160:	003d7106 	br	12c728 <_gp+0xfffe9050>
  12d164:	dd401d85 	stb	r21,118(sp)
  12d168:	003c5706 	br	12c2c8 <_gp+0xfffe8bf0>
  12d16c:	dd401d85 	stb	r21,118(sp)
  12d170:	003c2e06 	br	12c22c <_gp+0xfffe8b54>
  12d174:	dd401d85 	stb	r21,118(sp)
  12d178:	003d8c06 	br	12c7ac <_gp+0xfffe90d4>
  12d17c:	dd401d85 	stb	r21,118(sp)
  12d180:	003da706 	br	12c820 <_gp+0xfffe9148>
  12d184:	dd401d85 	stb	r21,118(sp)
  12d188:	003cc806 	br	12c4ac <_gp+0xfffe8dd4>

0012d18c <_sungetc_r>:
  12d18c:	00bfffc4 	movi	r2,-1
  12d190:	28803726 	beq	r5,r2,12d270 <_sungetc_r+0xe4>
  12d194:	3080030b 	ldhu	r2,12(r6)
  12d198:	30c00c17 	ldw	r3,48(r6)
  12d19c:	defffc04 	addi	sp,sp,-16
  12d1a0:	10bff7cc 	andi	r2,r2,65503
  12d1a4:	dc800215 	stw	r18,8(sp)
  12d1a8:	dfc00315 	stw	ra,12(sp)
  12d1ac:	dc400115 	stw	r17,4(sp)
  12d1b0:	dc000015 	stw	r16,0(sp)
  12d1b4:	3080030d 	sth	r2,12(r6)
  12d1b8:	2c803fcc 	andi	r18,r5,255
  12d1bc:	18001826 	beq	r3,zero,12d220 <_sungetc_r+0x94>
  12d1c0:	30c00117 	ldw	r3,4(r6)
  12d1c4:	30800d17 	ldw	r2,52(r6)
  12d1c8:	3021883a 	mov	r16,r6
  12d1cc:	2823883a 	mov	r17,r5
  12d1d0:	18800e0e 	bge	r3,r2,12d20c <_sungetc_r+0x80>
  12d1d4:	80c00017 	ldw	r3,0(r16)
  12d1d8:	9005883a 	mov	r2,r18
  12d1dc:	193fffc4 	addi	r4,r3,-1
  12d1e0:	81000015 	stw	r4,0(r16)
  12d1e4:	1c7fffc5 	stb	r17,-1(r3)
  12d1e8:	80c00117 	ldw	r3,4(r16)
  12d1ec:	18c00044 	addi	r3,r3,1
  12d1f0:	80c00115 	stw	r3,4(r16)
  12d1f4:	dfc00317 	ldw	ra,12(sp)
  12d1f8:	dc800217 	ldw	r18,8(sp)
  12d1fc:	dc400117 	ldw	r17,4(sp)
  12d200:	dc000017 	ldw	r16,0(sp)
  12d204:	dec00404 	addi	sp,sp,16
  12d208:	f800283a 	ret
  12d20c:	300b883a 	mov	r5,r6
  12d210:	012e5500 	call	12e550 <__submore>
  12d214:	103fef26 	beq	r2,zero,12d1d4 <_gp+0xfffe9afc>
  12d218:	00bfffc4 	movi	r2,-1
  12d21c:	003ff506 	br	12d1f4 <_gp+0xfffe9b1c>
  12d220:	30c00417 	ldw	r3,16(r6)
  12d224:	30800017 	ldw	r2,0(r6)
  12d228:	18000326 	beq	r3,zero,12d238 <_sungetc_r+0xac>
  12d22c:	1880022e 	bgeu	r3,r2,12d238 <_sungetc_r+0xac>
  12d230:	10ffffc3 	ldbu	r3,-1(r2)
  12d234:	90c01026 	beq	r18,r3,12d278 <_sungetc_r+0xec>
  12d238:	31c00117 	ldw	r7,4(r6)
  12d23c:	30800e15 	stw	r2,56(r6)
  12d240:	008000c4 	movi	r2,3
  12d244:	31001004 	addi	r4,r6,64
  12d248:	30c01084 	addi	r3,r6,66
  12d24c:	30800d15 	stw	r2,52(r6)
  12d250:	00800044 	movi	r2,1
  12d254:	30800115 	stw	r2,4(r6)
  12d258:	31c00f15 	stw	r7,60(r6)
  12d25c:	31000c15 	stw	r4,48(r6)
  12d260:	31401085 	stb	r5,66(r6)
  12d264:	30c00015 	stw	r3,0(r6)
  12d268:	9005883a 	mov	r2,r18
  12d26c:	003fe106 	br	12d1f4 <_gp+0xfffe9b1c>
  12d270:	00bfffc4 	movi	r2,-1
  12d274:	f800283a 	ret
  12d278:	30c00117 	ldw	r3,4(r6)
  12d27c:	10bfffc4 	addi	r2,r2,-1
  12d280:	30800015 	stw	r2,0(r6)
  12d284:	18800044 	addi	r2,r3,1
  12d288:	30800115 	stw	r2,4(r6)
  12d28c:	9005883a 	mov	r2,r18
  12d290:	003fd806 	br	12d1f4 <_gp+0xfffe9b1c>

0012d294 <__ssrefill_r>:
  12d294:	defffe04 	addi	sp,sp,-8
  12d298:	dc000015 	stw	r16,0(sp)
  12d29c:	2821883a 	mov	r16,r5
  12d2a0:	29400c17 	ldw	r5,48(r5)
  12d2a4:	dfc00115 	stw	ra,4(sp)
  12d2a8:	28000e26 	beq	r5,zero,12d2e4 <__ssrefill_r+0x50>
  12d2ac:	80801004 	addi	r2,r16,64
  12d2b0:	28800126 	beq	r5,r2,12d2b8 <__ssrefill_r+0x24>
  12d2b4:	012f0280 	call	12f028 <_free_r>
  12d2b8:	80800f17 	ldw	r2,60(r16)
  12d2bc:	80000c15 	stw	zero,48(r16)
  12d2c0:	80800115 	stw	r2,4(r16)
  12d2c4:	10000726 	beq	r2,zero,12d2e4 <__ssrefill_r+0x50>
  12d2c8:	80c00e17 	ldw	r3,56(r16)
  12d2cc:	0005883a 	mov	r2,zero
  12d2d0:	80c00015 	stw	r3,0(r16)
  12d2d4:	dfc00117 	ldw	ra,4(sp)
  12d2d8:	dc000017 	ldw	r16,0(sp)
  12d2dc:	dec00204 	addi	sp,sp,8
  12d2e0:	f800283a 	ret
  12d2e4:	8080030b 	ldhu	r2,12(r16)
  12d2e8:	80c00417 	ldw	r3,16(r16)
  12d2ec:	80000115 	stw	zero,4(r16)
  12d2f0:	10800814 	ori	r2,r2,32
  12d2f4:	8080030d 	sth	r2,12(r16)
  12d2f8:	80c00015 	stw	r3,0(r16)
  12d2fc:	00bfffc4 	movi	r2,-1
  12d300:	003ff406 	br	12d2d4 <_gp+0xfffe9bfc>

0012d304 <_sfread_r>:
  12d304:	defff704 	addi	sp,sp,-36
  12d308:	dd000415 	stw	r20,16(sp)
  12d30c:	dcc00315 	stw	r19,12(sp)
  12d310:	2029883a 	mov	r20,r4
  12d314:	2827883a 	mov	r19,r5
  12d318:	3809883a 	mov	r4,r7
  12d31c:	300b883a 	mov	r5,r6
  12d320:	ddc00715 	stw	r23,28(sp)
  12d324:	dd400515 	stw	r21,20(sp)
  12d328:	dc400115 	stw	r17,4(sp)
  12d32c:	dfc00815 	stw	ra,32(sp)
  12d330:	dd800615 	stw	r22,24(sp)
  12d334:	dc800215 	stw	r18,8(sp)
  12d338:	dc000015 	stw	r16,0(sp)
  12d33c:	302f883a 	mov	r23,r6
  12d340:	382b883a 	mov	r21,r7
  12d344:	01213680 	call	121368 <__mulsi3>
  12d348:	dc400917 	ldw	r17,36(sp)
  12d34c:	10002726 	beq	r2,zero,12d3ec <_sfread_r+0xe8>
  12d350:	102d883a 	mov	r22,r2
  12d354:	1025883a 	mov	r18,r2
  12d358:	00000b06 	br	12d388 <_sfread_r+0x84>
  12d35c:	01213900 	call	121390 <memcpy>
  12d360:	88800017 	ldw	r2,0(r17)
  12d364:	9c27883a 	add	r19,r19,r16
  12d368:	9425c83a 	sub	r18,r18,r16
  12d36c:	1421883a 	add	r16,r2,r16
  12d370:	88000115 	stw	zero,4(r17)
  12d374:	880b883a 	mov	r5,r17
  12d378:	8c000015 	stw	r16,0(r17)
  12d37c:	a009883a 	mov	r4,r20
  12d380:	012d2940 	call	12d294 <__ssrefill_r>
  12d384:	10001b1e 	bne	r2,zero,12d3f4 <_sfread_r+0xf0>
  12d388:	8c000117 	ldw	r16,4(r17)
  12d38c:	9809883a 	mov	r4,r19
  12d390:	89400017 	ldw	r5,0(r17)
  12d394:	800d883a 	mov	r6,r16
  12d398:	84bff036 	bltu	r16,r18,12d35c <_gp+0xfffe9c84>
  12d39c:	900d883a 	mov	r6,r18
  12d3a0:	01213900 	call	121390 <memcpy>
  12d3a4:	88c00117 	ldw	r3,4(r17)
  12d3a8:	89000017 	ldw	r4,0(r17)
  12d3ac:	a805883a 	mov	r2,r21
  12d3b0:	1c87c83a 	sub	r3,r3,r18
  12d3b4:	24a5883a 	add	r18,r4,r18
  12d3b8:	88c00115 	stw	r3,4(r17)
  12d3bc:	8c800015 	stw	r18,0(r17)
  12d3c0:	dfc00817 	ldw	ra,32(sp)
  12d3c4:	ddc00717 	ldw	r23,28(sp)
  12d3c8:	dd800617 	ldw	r22,24(sp)
  12d3cc:	dd400517 	ldw	r21,20(sp)
  12d3d0:	dd000417 	ldw	r20,16(sp)
  12d3d4:	dcc00317 	ldw	r19,12(sp)
  12d3d8:	dc800217 	ldw	r18,8(sp)
  12d3dc:	dc400117 	ldw	r17,4(sp)
  12d3e0:	dc000017 	ldw	r16,0(sp)
  12d3e4:	dec00904 	addi	sp,sp,36
  12d3e8:	f800283a 	ret
  12d3ec:	0005883a 	mov	r2,zero
  12d3f0:	003ff306 	br	12d3c0 <_gp+0xfffe9ce8>
  12d3f4:	b80b883a 	mov	r5,r23
  12d3f8:	b489c83a 	sub	r4,r22,r18
  12d3fc:	01212ac0 	call	1212ac <__udivsi3>
  12d400:	003fef06 	br	12d3c0 <_gp+0xfffe9ce8>

0012d404 <__ssvfiscanf_r>:
  12d404:	2880030b 	ldhu	r2,12(r5)
  12d408:	deff9b04 	addi	sp,sp,-404
  12d40c:	dd005f15 	stw	r20,380(sp)
  12d410:	dc405c15 	stw	r17,368(sp)
  12d414:	dfc06415 	stw	ra,400(sp)
  12d418:	df006315 	stw	fp,396(sp)
  12d41c:	ddc06215 	stw	r23,392(sp)
  12d420:	dd806115 	stw	r22,388(sp)
  12d424:	dd406015 	stw	r21,384(sp)
  12d428:	dcc05e15 	stw	r19,376(sp)
  12d42c:	dc805d15 	stw	r18,372(sp)
  12d430:	dc005b15 	stw	r16,364(sp)
  12d434:	10c8000c 	andi	r3,r2,8192
  12d438:	d9c04f15 	stw	r7,316(sp)
  12d43c:	2829883a 	mov	r20,r5
  12d440:	2023883a 	mov	r17,r4
  12d444:	1800061e 	bne	r3,zero,12d460 <__ssvfiscanf_r+0x5c>
  12d448:	29001917 	ldw	r4,100(r5)
  12d44c:	00f7ffc4 	movi	r3,-8193
  12d450:	10880014 	ori	r2,r2,8192
  12d454:	20c6703a 	and	r3,r4,r3
  12d458:	2880030d 	sth	r2,12(r5)
  12d45c:	28c01915 	stw	r3,100(r5)
  12d460:	30800003 	ldbu	r2,0(r6)
  12d464:	dac04104 	addi	r11,sp,260
  12d468:	0039883a 	mov	fp,zero
  12d46c:	04800534 	movhi	r18,20
  12d470:	d8005215 	stw	zero,328(sp)
  12d474:	d8005015 	stw	zero,320(sp)
  12d478:	d8005115 	stw	zero,324(sp)
  12d47c:	dac04e15 	stw	r11,312(sp)
  12d480:	d8804d15 	stw	r2,308(sp)
  12d484:	e027883a 	mov	r19,fp
  12d488:	94adb804 	addi	r18,r18,-18720
  12d48c:	a039883a 	mov	fp,r20
  12d490:	35000044 	addi	r20,r6,1
  12d494:	10001e26 	beq	r2,zero,12d510 <__ssvfiscanf_r+0x10c>
  12d498:	95800017 	ldw	r22,0(r18)
  12d49c:	b087883a 	add	r3,r22,r2
  12d4a0:	18c00043 	ldbu	r3,1(r3)
  12d4a4:	18c0020c 	andi	r3,r3,8
  12d4a8:	18001b26 	beq	r3,zero,12d518 <__ssvfiscanf_r+0x114>
  12d4ac:	e0800117 	ldw	r2,4(fp)
  12d4b0:	00800e0e 	bge	zero,r2,12d4ec <__ssvfiscanf_r+0xe8>
  12d4b4:	e0c00017 	ldw	r3,0(fp)
  12d4b8:	91000017 	ldw	r4,0(r18)
  12d4bc:	18800003 	ldbu	r2,0(r3)
  12d4c0:	2085883a 	add	r2,r4,r2
  12d4c4:	10800043 	ldbu	r2,1(r2)
  12d4c8:	1080020c 	andi	r2,r2,8
  12d4cc:	10000b26 	beq	r2,zero,12d4fc <__ssvfiscanf_r+0xf8>
  12d4d0:	e0800117 	ldw	r2,4(fp)
  12d4d4:	18c00044 	addi	r3,r3,1
  12d4d8:	e0c00015 	stw	r3,0(fp)
  12d4dc:	10bfffc4 	addi	r2,r2,-1
  12d4e0:	e0800115 	stw	r2,4(fp)
  12d4e4:	9cc00044 	addi	r19,r19,1
  12d4e8:	00bff216 	blt	zero,r2,12d4b4 <_gp+0xfffe9ddc>
  12d4ec:	e00b883a 	mov	r5,fp
  12d4f0:	8809883a 	mov	r4,r17
  12d4f4:	012d2940 	call	12d294 <__ssrefill_r>
  12d4f8:	103fee26 	beq	r2,zero,12d4b4 <_gp+0xfffe9ddc>
  12d4fc:	a00d883a 	mov	r6,r20
  12d500:	30800003 	ldbu	r2,0(r6)
  12d504:	35000044 	addi	r20,r6,1
  12d508:	d8804d15 	stw	r2,308(sp)
  12d50c:	103fe21e 	bne	r2,zero,12d498 <_gp+0xfffe9dc0>
  12d510:	d8805117 	ldw	r2,324(sp)
  12d514:	00009a06 	br	12d780 <__ssvfiscanf_r+0x37c>
  12d518:	00c00944 	movi	r3,37
  12d51c:	10c0891e 	bne	r2,r3,12d744 <__ssvfiscanf_r+0x340>
  12d520:	31800043 	ldbu	r6,1(r6)
  12d524:	002f883a 	mov	r23,zero
  12d528:	b809883a 	mov	r4,r23
  12d52c:	0021883a 	mov	r16,zero
  12d530:	01c01e04 	movi	r7,120
  12d534:	00c01b04 	movi	r3,108
  12d538:	302f883a 	mov	r23,r6
  12d53c:	a5400044 	addi	r21,r20,1
  12d540:	3dc0e436 	bltu	r7,r23,12d8d4 <__ssvfiscanf_r+0x4d0>
  12d544:	b80490ba 	slli	r2,r23,2
  12d548:	014004f4 	movhi	r5,19
  12d54c:	29755704 	addi	r5,r5,-10916
  12d550:	1145883a 	add	r2,r2,r5
  12d554:	10800017 	ldw	r2,0(r2)
  12d558:	1000683a 	jmp	r2
  12d55c:	0012d77c 	xorhi	zero,zero,19293
  12d560:	0012d8d4 	movui	zero,19299
  12d564:	0012d8d4 	movui	zero,19299
  12d568:	0012d8d4 	movui	zero,19299
  12d56c:	0012d8d4 	movui	zero,19299
  12d570:	0012d8d4 	movui	zero,19299
  12d574:	0012d8d4 	movui	zero,19299
  12d578:	0012d8d4 	movui	zero,19299
  12d57c:	0012d8d4 	movui	zero,19299
  12d580:	0012d8d4 	movui	zero,19299
  12d584:	0012d8d4 	movui	zero,19299
  12d588:	0012d8d4 	movui	zero,19299
  12d58c:	0012d8d4 	movui	zero,19299
  12d590:	0012d8d4 	movui	zero,19299
  12d594:	0012d8d4 	movui	zero,19299
  12d598:	0012d8d4 	movui	zero,19299
  12d59c:	0012d8d4 	movui	zero,19299
  12d5a0:	0012d8d4 	movui	zero,19299
  12d5a4:	0012d8d4 	movui	zero,19299
  12d5a8:	0012d8d4 	movui	zero,19299
  12d5ac:	0012d8d4 	movui	zero,19299
  12d5b0:	0012d8d4 	movui	zero,19299
  12d5b4:	0012d8d4 	movui	zero,19299
  12d5b8:	0012d8d4 	movui	zero,19299
  12d5bc:	0012d8d4 	movui	zero,19299
  12d5c0:	0012d8d4 	movui	zero,19299
  12d5c4:	0012d8d4 	movui	zero,19299
  12d5c8:	0012d8d4 	movui	zero,19299
  12d5cc:	0012d8d4 	movui	zero,19299
  12d5d0:	0012d8d4 	movui	zero,19299
  12d5d4:	0012d8d4 	movui	zero,19299
  12d5d8:	0012d8d4 	movui	zero,19299
  12d5dc:	0012d8d4 	movui	zero,19299
  12d5e0:	0012d8d4 	movui	zero,19299
  12d5e4:	0012d8d4 	movui	zero,19299
  12d5e8:	0012d8d4 	movui	zero,19299
  12d5ec:	0012d8d4 	movui	zero,19299
  12d5f0:	0012d740 	call	12d74 <__alt_mem_onchip_flash_data-0x6d28c>
  12d5f4:	0012d8d4 	movui	zero,19299
  12d5f8:	0012d8d4 	movui	zero,19299
  12d5fc:	0012d8d4 	movui	zero,19299
  12d600:	0012d8d4 	movui	zero,19299
  12d604:	0012db18 	cmpnei	zero,zero,19308
  12d608:	0012d8d4 	movui	zero,19299
  12d60c:	0012d8d4 	movui	zero,19299
  12d610:	0012d8d4 	movui	zero,19299
  12d614:	0012d8d4 	movui	zero,19299
  12d618:	0012d8d4 	movui	zero,19299
  12d61c:	0012da84 	movi	zero,19306
  12d620:	0012da84 	movi	zero,19306
  12d624:	0012da84 	movi	zero,19306
  12d628:	0012da84 	movi	zero,19306
  12d62c:	0012da84 	movi	zero,19306
  12d630:	0012da84 	movi	zero,19306
  12d634:	0012da84 	movi	zero,19306
  12d638:	0012da84 	movi	zero,19306
  12d63c:	0012da84 	movi	zero,19306
  12d640:	0012da84 	movi	zero,19306
  12d644:	0012d8d4 	movui	zero,19299
  12d648:	0012d8d4 	movui	zero,19299
  12d64c:	0012d8d4 	movui	zero,19299
  12d650:	0012d8d4 	movui	zero,19299
  12d654:	0012d8d4 	movui	zero,19299
  12d658:	0012d8d4 	movui	zero,19299
  12d65c:	0012d8d4 	movui	zero,19299
  12d660:	0012d8d4 	movui	zero,19299
  12d664:	0012d8d4 	movui	zero,19299
  12d668:	0012d8d4 	movui	zero,19299
  12d66c:	0012da58 	cmpnei	zero,zero,19305
  12d670:	0012d8d4 	movui	zero,19299
  12d674:	0012d8d4 	movui	zero,19299
  12d678:	0012d8d4 	movui	zero,19299
  12d67c:	0012d8d4 	movui	zero,19299
  12d680:	0012d8d4 	movui	zero,19299
  12d684:	0012d8d4 	movui	zero,19299
  12d688:	0012d8d4 	movui	zero,19299
  12d68c:	0012dadc 	xori	zero,zero,19307
  12d690:	0012d8d4 	movui	zero,19299
  12d694:	0012d8d4 	movui	zero,19299
  12d698:	0012dab4 	movhi	zero,19306
  12d69c:	0012d8d4 	movui	zero,19299
  12d6a0:	0012d8d4 	movui	zero,19299
  12d6a4:	0012d8d4 	movui	zero,19299
  12d6a8:	0012d8d4 	movui	zero,19299
  12d6ac:	0012d8d4 	movui	zero,19299
  12d6b0:	0012d8d4 	movui	zero,19299
  12d6b4:	0012d8d4 	movui	zero,19299
  12d6b8:	0012d8d4 	movui	zero,19299
  12d6bc:	0012daf0 	cmpltui	zero,zero,19307
  12d6c0:	0012d8d4 	movui	zero,19299
  12d6c4:	0012d8d4 	movui	zero,19299
  12d6c8:	0012d9cc 	andi	zero,zero,19303
  12d6cc:	0012d8d4 	movui	zero,19299
  12d6d0:	0012d8d4 	movui	zero,19299
  12d6d4:	0012d8d4 	movui	zero,19299
  12d6d8:	0012d8d4 	movui	zero,19299
  12d6dc:	0012d8d4 	movui	zero,19299
  12d6e0:	0012d8d4 	movui	zero,19299
  12d6e4:	0012d8d4 	movui	zero,19299
  12d6e8:	0012d950 	cmplti	zero,zero,19301
  12d6ec:	0012d928 	cmpgeui	zero,zero,19300
  12d6f0:	0012d8d4 	movui	zero,19299
  12d6f4:	0012d8d4 	movui	zero,19299
  12d6f8:	0012d8d4 	movui	zero,19299
  12d6fc:	0012d914 	movui	zero,19300
  12d700:	0012db2c 	andhi	zero,zero,19308
  12d704:	0012d8d4 	movui	zero,19299
  12d708:	0012d8d4 	movui	zero,19299
  12d70c:	0012d8bc 	xorhi	zero,zero,19298
  12d710:	0012d8d4 	movui	zero,19299
  12d714:	0012d890 	cmplti	zero,zero,19298
  12d718:	0012d868 	cmpgeui	zero,zero,19297
  12d71c:	0012d83c 	xorhi	zero,zero,19296
  12d720:	0012d8d4 	movui	zero,19299
  12d724:	0012d8d4 	movui	zero,19299
  12d728:	0012d828 	cmpgeui	zero,zero,19296
  12d72c:	0012d8d4 	movui	zero,19299
  12d730:	0012d7b0 	cmpltui	zero,zero,19294
  12d734:	0012d8d4 	movui	zero,19299
  12d738:	0012d8d4 	movui	zero,19299
  12d73c:	0012daf0 	cmpltui	zero,zero,19307
  12d740:	a829883a 	mov	r20,r21
  12d744:	e0800117 	ldw	r2,4(fp)
  12d748:	0081e40e 	bge	zero,r2,12dedc <__ssvfiscanf_r+0xad8>
  12d74c:	e0800017 	ldw	r2,0(fp)
  12d750:	a0ffffc3 	ldbu	r3,-1(r20)
  12d754:	11000003 	ldbu	r4,0(r2)
  12d758:	20ff6d1e 	bne	r4,r3,12d510 <_gp+0xfffe9e38>
  12d75c:	e0c00117 	ldw	r3,4(fp)
  12d760:	10800044 	addi	r2,r2,1
  12d764:	e0800015 	stw	r2,0(fp)
  12d768:	18bfffc4 	addi	r2,r3,-1
  12d76c:	e0800115 	stw	r2,4(fp)
  12d770:	9cc00044 	addi	r19,r19,1
  12d774:	a00d883a 	mov	r6,r20
  12d778:	003f6106 	br	12d500 <_gp+0xfffe9e28>
  12d77c:	00bfffc4 	movi	r2,-1
  12d780:	dfc06417 	ldw	ra,400(sp)
  12d784:	df006317 	ldw	fp,396(sp)
  12d788:	ddc06217 	ldw	r23,392(sp)
  12d78c:	dd806117 	ldw	r22,388(sp)
  12d790:	dd406017 	ldw	r21,384(sp)
  12d794:	dd005f17 	ldw	r20,380(sp)
  12d798:	dcc05e17 	ldw	r19,376(sp)
  12d79c:	dc805d17 	ldw	r18,372(sp)
  12d7a0:	dc405c17 	ldw	r17,368(sp)
  12d7a4:	dc005b17 	ldw	r16,364(sp)
  12d7a8:	dec06504 	addi	sp,sp,404
  12d7ac:	f800283a 	ret
  12d7b0:	e0800117 	ldw	r2,4(fp)
  12d7b4:	202f883a 	mov	r23,r4
  12d7b8:	0081f20e 	bge	zero,r2,12df84 <__ssvfiscanf_r+0xb80>
  12d7bc:	008004f4 	movhi	r2,19
  12d7c0:	10ad9a04 	addi	r2,r2,-18840
  12d7c4:	02c00284 	movi	r11,10
  12d7c8:	d8805215 	stw	r2,328(sp)
  12d7cc:	dac05015 	stw	r11,320(sp)
  12d7d0:	050000c4 	movi	r20,3
  12d7d4:	e0800017 	ldw	r2,0(fp)
  12d7d8:	00000206 	br	12d7e4 <__ssvfiscanf_r+0x3e0>
  12d7dc:	10800044 	addi	r2,r2,1
  12d7e0:	e0800015 	stw	r2,0(fp)
  12d7e4:	11000003 	ldbu	r4,0(r2)
  12d7e8:	20c03fcc 	andi	r3,r4,255
  12d7ec:	b0c7883a 	add	r3,r22,r3
  12d7f0:	18c00043 	ldbu	r3,1(r3)
  12d7f4:	1940020c 	andi	r5,r3,8
  12d7f8:	2801ee26 	beq	r5,zero,12dfb4 <__ssvfiscanf_r+0xbb0>
  12d7fc:	e0c00117 	ldw	r3,4(fp)
  12d800:	9cc00044 	addi	r19,r19,1
  12d804:	18ffffc4 	addi	r3,r3,-1
  12d808:	e0c00115 	stw	r3,4(fp)
  12d80c:	00fff316 	blt	zero,r3,12d7dc <_gp+0xfffea104>
  12d810:	e00b883a 	mov	r5,fp
  12d814:	8809883a 	mov	r4,r17
  12d818:	012d2940 	call	12d294 <__ssrefill_r>
  12d81c:	10016a1e 	bne	r2,zero,12ddc8 <__ssvfiscanf_r+0x9c4>
  12d820:	95800017 	ldw	r22,0(r18)
  12d824:	003feb06 	br	12d7d4 <_gp+0xfffea0fc>
  12d828:	e0800117 	ldw	r2,4(fp)
  12d82c:	202f883a 	mov	r23,r4
  12d830:	0081c80e 	bge	zero,r2,12df54 <__ssvfiscanf_r+0xb50>
  12d834:	05000084 	movi	r20,2
  12d838:	003fe606 	br	12d7d4 <_gp+0xfffea0fc>
  12d83c:	e0800117 	ldw	r2,4(fp)
  12d840:	202f883a 	mov	r23,r4
  12d844:	84008814 	ori	r16,r16,544
  12d848:	0080ad0e 	bge	zero,r2,12db00 <__ssvfiscanf_r+0x6fc>
  12d84c:	008004f4 	movhi	r2,19
  12d850:	10ad9a04 	addi	r2,r2,-18840
  12d854:	02c00404 	movi	r11,16
  12d858:	d8805215 	stw	r2,328(sp)
  12d85c:	dac05015 	stw	r11,320(sp)
  12d860:	050000c4 	movi	r20,3
  12d864:	003fdb06 	br	12d7d4 <_gp+0xfffea0fc>
  12d868:	e0800117 	ldw	r2,4(fp)
  12d86c:	202f883a 	mov	r23,r4
  12d870:	0080940e 	bge	zero,r2,12dac4 <__ssvfiscanf_r+0x6c0>
  12d874:	008004f4 	movhi	r2,19
  12d878:	10ad9a04 	addi	r2,r2,-18840
  12d87c:	02c00204 	movi	r11,8
  12d880:	d8805215 	stw	r2,328(sp)
  12d884:	dac05015 	stw	r11,320(sp)
  12d888:	050000c4 	movi	r20,3
  12d88c:	003fd106 	br	12d7d4 <_gp+0xfffea0fc>
  12d890:	8080040c 	andi	r2,r16,16
  12d894:	1000e41e 	bne	r2,zero,12dc28 <__ssvfiscanf_r+0x824>
  12d898:	8080010c 	andi	r2,r16,4
  12d89c:	10019926 	beq	r2,zero,12df04 <__ssvfiscanf_r+0xb00>
  12d8a0:	dac04f17 	ldw	r11,316(sp)
  12d8a4:	a829883a 	mov	r20,r21
  12d8a8:	58800017 	ldw	r2,0(r11)
  12d8ac:	5ac00104 	addi	r11,r11,4
  12d8b0:	dac04f15 	stw	r11,316(sp)
  12d8b4:	14c0000d 	sth	r19,0(r2)
  12d8b8:	003f1006 	br	12d4fc <_gp+0xfffe9e24>
  12d8bc:	a5c00043 	ldbu	r23,1(r20)
  12d8c0:	b8c18b26 	beq	r23,r3,12def0 <__ssvfiscanf_r+0xaec>
  12d8c4:	a829883a 	mov	r20,r21
  12d8c8:	84000054 	ori	r16,r16,1
  12d8cc:	a5400044 	addi	r21,r20,1
  12d8d0:	3dff1c2e 	bgeu	r7,r23,12d544 <_gp+0xfffe9e6c>
  12d8d4:	b80d883a 	mov	r6,r23
  12d8d8:	b185883a 	add	r2,r22,r6
  12d8dc:	10800043 	ldbu	r2,1(r2)
  12d8e0:	00c00044 	movi	r3,1
  12d8e4:	202f883a 	mov	r23,r4
  12d8e8:	108000cc 	andi	r2,r2,3
  12d8ec:	10c17226 	beq	r2,r3,12deb8 <__ssvfiscanf_r+0xab4>
  12d8f0:	e0800117 	ldw	r2,4(fp)
  12d8f4:	0081730e 	bge	zero,r2,12dec4 <__ssvfiscanf_r+0xac0>
  12d8f8:	008004f4 	movhi	r2,19
  12d8fc:	10ac3c04 	addi	r2,r2,-20240
  12d900:	02c00284 	movi	r11,10
  12d904:	d8805215 	stw	r2,328(sp)
  12d908:	dac05015 	stw	r11,320(sp)
  12d90c:	050000c4 	movi	r20,3
  12d910:	003fb006 	br	12d7d4 <_gp+0xfffea0fc>
  12d914:	a1400043 	ldbu	r5,1(r20)
  12d918:	84000114 	ori	r16,r16,4
  12d91c:	a829883a 	mov	r20,r21
  12d920:	2dc03fcc 	andi	r23,r5,255
  12d924:	003f0506 	br	12d53c <_gp+0xfffe9e64>
  12d928:	e0800117 	ldw	r2,4(fp)
  12d92c:	202f883a 	mov	r23,r4
  12d930:	0081640e 	bge	zero,r2,12dec4 <__ssvfiscanf_r+0xac0>
  12d934:	02c004f4 	movhi	r11,19
  12d938:	5aec3c04 	addi	r11,r11,-20240
  12d93c:	dac05215 	stw	r11,328(sp)
  12d940:	02c00284 	movi	r11,10
  12d944:	dac05015 	stw	r11,320(sp)
  12d948:	050000c4 	movi	r20,3
  12d94c:	003fa106 	br	12d7d4 <_gp+0xfffea0fc>
  12d950:	e0800117 	ldw	r2,4(fp)
  12d954:	202f883a 	mov	r23,r4
  12d958:	00812c0e 	bge	zero,r2,12de0c <__ssvfiscanf_r+0xa08>
  12d95c:	b800011e 	bne	r23,zero,12d964 <__ssvfiscanf_r+0x560>
  12d960:	05c00044 	movi	r23,1
  12d964:	8080004c 	andi	r2,r16,1
  12d968:	1000791e 	bne	r2,zero,12db50 <__ssvfiscanf_r+0x74c>
  12d96c:	8400040c 	andi	r16,r16,16
  12d970:	80013f26 	beq	r16,zero,12de70 <__ssvfiscanf_r+0xa6c>
  12d974:	0021883a 	mov	r16,zero
  12d978:	00000806 	br	12d99c <__ssvfiscanf_r+0x598>
  12d97c:	1887883a 	add	r3,r3,r2
  12d980:	e00b883a 	mov	r5,fp
  12d984:	8809883a 	mov	r4,r17
  12d988:	e0c00015 	stw	r3,0(fp)
  12d98c:	80a1883a 	add	r16,r16,r2
  12d990:	b8afc83a 	sub	r23,r23,r2
  12d994:	012d2940 	call	12d294 <__ssrefill_r>
  12d998:	1001331e 	bne	r2,zero,12de68 <__ssvfiscanf_r+0xa64>
  12d99c:	e0800117 	ldw	r2,4(fp)
  12d9a0:	e0c00017 	ldw	r3,0(fp)
  12d9a4:	15fff516 	blt	r2,r23,12d97c <_gp+0xfffea2a4>
  12d9a8:	15c5c83a 	sub	r2,r2,r23
  12d9ac:	1dd5883a 	add	r10,r3,r23
  12d9b0:	85e1883a 	add	r16,r16,r23
  12d9b4:	e0800115 	stw	r2,4(fp)
  12d9b8:	e2800015 	stw	r10,0(fp)
  12d9bc:	a829883a 	mov	r20,r21
  12d9c0:	9c27883a 	add	r19,r19,r16
  12d9c4:	a00d883a 	mov	r6,r20
  12d9c8:	003ecd06 	br	12d500 <_gp+0xfffe9e28>
  12d9cc:	202f883a 	mov	r23,r4
  12d9d0:	a80b883a 	mov	r5,r21
  12d9d4:	d9000104 	addi	r4,sp,4
  12d9d8:	01296780 	call	129678 <__sccl>
  12d9dc:	1029883a 	mov	r20,r2
  12d9e0:	e0800117 	ldw	r2,4(fp)
  12d9e4:	0081620e 	bge	zero,r2,12df70 <__ssvfiscanf_r+0xb6c>
  12d9e8:	e1000017 	ldw	r4,0(fp)
  12d9ec:	20800003 	ldbu	r2,0(r4)
  12d9f0:	b8009026 	beq	r23,zero,12dc34 <__ssvfiscanf_r+0x830>
  12d9f4:	8400040c 	andi	r16,r16,16
  12d9f8:	80009126 	beq	r16,zero,12dc40 <__ssvfiscanf_r+0x83c>
  12d9fc:	b821883a 	mov	r16,r23
  12da00:	002b883a 	mov	r21,zero
  12da04:	00000106 	br	12da0c <__ssvfiscanf_r+0x608>
  12da08:	20800003 	ldbu	r2,0(r4)
  12da0c:	10803fcc 	andi	r2,r2,255
  12da10:	d8c00104 	addi	r3,sp,4
  12da14:	1885883a 	add	r2,r3,r2
  12da18:	10800007 	ldb	r2,0(r2)
  12da1c:	10011026 	beq	r2,zero,12de60 <__ssvfiscanf_r+0xa5c>
  12da20:	e0800117 	ldw	r2,4(fp)
  12da24:	21000044 	addi	r4,r4,1
  12da28:	ad400044 	addi	r21,r21,1
  12da2c:	10bfffc4 	addi	r2,r2,-1
  12da30:	e0800115 	stw	r2,4(fp)
  12da34:	e1000015 	stw	r4,0(fp)
  12da38:	adc0eb26 	beq	r21,r23,12dde8 <__ssvfiscanf_r+0x9e4>
  12da3c:	00bff216 	blt	zero,r2,12da08 <_gp+0xfffea330>
  12da40:	e00b883a 	mov	r5,fp
  12da44:	8809883a 	mov	r4,r17
  12da48:	012d2940 	call	12d294 <__ssrefill_r>
  12da4c:	1000e51e 	bne	r2,zero,12dde4 <__ssvfiscanf_r+0x9e0>
  12da50:	e1000017 	ldw	r4,0(fp)
  12da54:	003fec06 	br	12da08 <_gp+0xfffea330>
  12da58:	e0800117 	ldw	r2,4(fp)
  12da5c:	202f883a 	mov	r23,r4
  12da60:	84000054 	ori	r16,r16,1
  12da64:	0081170e 	bge	zero,r2,12dec4 <__ssvfiscanf_r+0xac0>
  12da68:	00c004f4 	movhi	r3,19
  12da6c:	18ec3c04 	addi	r3,r3,-20240
  12da70:	02c00284 	movi	r11,10
  12da74:	d8c05215 	stw	r3,328(sp)
  12da78:	dac05015 	stw	r11,320(sp)
  12da7c:	050000c4 	movi	r20,3
  12da80:	003f5406 	br	12d7d4 <_gp+0xfffea0fc>
  12da84:	01400284 	movi	r5,10
  12da88:	d8c05a15 	stw	r3,360(sp)
  12da8c:	d9c05915 	stw	r7,356(sp)
  12da90:	01213680 	call	121368 <__mulsi3>
  12da94:	a1400043 	ldbu	r5,1(r20)
  12da98:	15c5883a 	add	r2,r2,r23
  12da9c:	113ff404 	addi	r4,r2,-48
  12daa0:	a829883a 	mov	r20,r21
  12daa4:	2dc03fcc 	andi	r23,r5,255
  12daa8:	d8c05a17 	ldw	r3,360(sp)
  12daac:	d9c05917 	ldw	r7,356(sp)
  12dab0:	003ea206 	br	12d53c <_gp+0xfffe9e64>
  12dab4:	e0800117 	ldw	r2,4(fp)
  12dab8:	202f883a 	mov	r23,r4
  12dabc:	84000054 	ori	r16,r16,1
  12dac0:	00bf6c16 	blt	zero,r2,12d874 <_gp+0xfffea19c>
  12dac4:	e00b883a 	mov	r5,fp
  12dac8:	8809883a 	mov	r4,r17
  12dacc:	012d2940 	call	12d294 <__ssrefill_r>
  12dad0:	1000bd1e 	bne	r2,zero,12ddc8 <__ssvfiscanf_r+0x9c4>
  12dad4:	95800017 	ldw	r22,0(r18)
  12dad8:	003f6606 	br	12d874 <_gp+0xfffea19c>
  12dadc:	a1400043 	ldbu	r5,1(r20)
  12dae0:	84000094 	ori	r16,r16,2
  12dae4:	a829883a 	mov	r20,r21
  12dae8:	2dc03fcc 	andi	r23,r5,255
  12daec:	003e9306 	br	12d53c <_gp+0xfffe9e64>
  12daf0:	e0800117 	ldw	r2,4(fp)
  12daf4:	202f883a 	mov	r23,r4
  12daf8:	84008014 	ori	r16,r16,512
  12dafc:	00bf5316 	blt	zero,r2,12d84c <_gp+0xfffea174>
  12db00:	e00b883a 	mov	r5,fp
  12db04:	8809883a 	mov	r4,r17
  12db08:	012d2940 	call	12d294 <__ssrefill_r>
  12db0c:	1000ae1e 	bne	r2,zero,12ddc8 <__ssvfiscanf_r+0x9c4>
  12db10:	95800017 	ldw	r22,0(r18)
  12db14:	003f4d06 	br	12d84c <_gp+0xfffea174>
  12db18:	a1400043 	ldbu	r5,1(r20)
  12db1c:	84000414 	ori	r16,r16,16
  12db20:	a829883a 	mov	r20,r21
  12db24:	2dc03fcc 	andi	r23,r5,255
  12db28:	003e8406 	br	12d53c <_gp+0xfffe9e64>
  12db2c:	e0800117 	ldw	r2,4(fp)
  12db30:	202f883a 	mov	r23,r4
  12db34:	0081190e 	bge	zero,r2,12df9c <__ssvfiscanf_r+0xb98>
  12db38:	008004f4 	movhi	r2,19
  12db3c:	10ac3c04 	addi	r2,r2,-20240
  12db40:	d8805215 	stw	r2,328(sp)
  12db44:	d8005015 	stw	zero,320(sp)
  12db48:	050000c4 	movi	r20,3
  12db4c:	003f2106 	br	12d7d4 <_gp+0xfffea0fc>
  12db50:	d8c04b04 	addi	r3,sp,300
  12db54:	8400040c 	andi	r16,r16,16
  12db58:	01800204 	movi	r6,8
  12db5c:	000b883a 	mov	r5,zero
  12db60:	1809883a 	mov	r4,r3
  12db64:	dc005415 	stw	r16,336(sp)
  12db68:	d8c05315 	stw	r3,332(sp)
  12db6c:	01214d80 	call	1214d8 <memset>
  12db70:	dc005417 	ldw	r16,336(sp)
  12db74:	8000a026 	beq	r16,zero,12ddf8 <__ssvfiscanf_r+0x9f4>
  12db78:	002d883a 	mov	r22,zero
  12db7c:	0021883a 	mov	r16,zero
  12db80:	01278540 	call	127854 <__locale_mb_cur_max>
  12db84:	14009026 	beq	r2,r16,12ddc8 <__ssvfiscanf_r+0x9c4>
  12db88:	e0800017 	ldw	r2,0(fp)
  12db8c:	e0c00117 	ldw	r3,4(fp)
  12db90:	dac05317 	ldw	r11,332(sp)
  12db94:	12000003 	ldbu	r8,0(r2)
  12db98:	18ffffc4 	addi	r3,r3,-1
  12db9c:	10800044 	addi	r2,r2,1
  12dba0:	d9004104 	addi	r4,sp,260
  12dba4:	e0c00115 	stw	r3,4(fp)
  12dba8:	e0800015 	stw	r2,0(fp)
  12dbac:	85000044 	addi	r20,r16,1
  12dbb0:	dac00015 	stw	r11,0(sp)
  12dbb4:	2421883a 	add	r16,r4,r16
  12dbb8:	200d883a 	mov	r6,r4
  12dbbc:	a00f883a 	mov	r7,r20
  12dbc0:	b00b883a 	mov	r5,r22
  12dbc4:	8809883a 	mov	r4,r17
  12dbc8:	82000005 	stb	r8,0(r16)
  12dbcc:	01281140 	call	128114 <_mbrtowc_r>
  12dbd0:	00ffffc4 	movi	r3,-1
  12dbd4:	10c07c26 	beq	r2,r3,12ddc8 <__ssvfiscanf_r+0x9c4>
  12dbd8:	1000911e 	bne	r2,zero,12de20 <__ssvfiscanf_r+0xa1c>
  12dbdc:	dac05417 	ldw	r11,336(sp)
  12dbe0:	5800951e 	bne	r11,zero,12de38 <__ssvfiscanf_r+0xa34>
  12dbe4:	b0000015 	stw	zero,0(r22)
  12dbe8:	9d27883a 	add	r19,r19,r20
  12dbec:	b8ef883a 	add	r23,r23,r3
  12dbf0:	b5800104 	addi	r22,r22,4
  12dbf4:	e0800117 	ldw	r2,4(fp)
  12dbf8:	0021883a 	mov	r16,zero
  12dbfc:	00807c16 	blt	zero,r2,12ddf0 <__ssvfiscanf_r+0x9ec>
  12dc00:	e00b883a 	mov	r5,fp
  12dc04:	8809883a 	mov	r4,r17
  12dc08:	012d2940 	call	12d294 <__ssrefill_r>
  12dc0c:	10007826 	beq	r2,zero,12ddf0 <__ssvfiscanf_r+0x9ec>
  12dc10:	80006d1e 	bne	r16,zero,12ddc8 <__ssvfiscanf_r+0x9c4>
  12dc14:	d8c05417 	ldw	r3,336(sp)
  12dc18:	1800031e 	bne	r3,zero,12dc28 <__ssvfiscanf_r+0x824>
  12dc1c:	dac05117 	ldw	r11,324(sp)
  12dc20:	5ac00044 	addi	r11,r11,1
  12dc24:	dac05115 	stw	r11,324(sp)
  12dc28:	a829883a 	mov	r20,r21
  12dc2c:	a00d883a 	mov	r6,r20
  12dc30:	003e3306 	br	12d500 <_gp+0xfffe9e28>
  12dc34:	8400040c 	andi	r16,r16,16
  12dc38:	05ffffc4 	movi	r23,-1
  12dc3c:	803f6f1e 	bne	r16,zero,12d9fc <_gp+0xfffea324>
  12dc40:	dac04f17 	ldw	r11,316(sp)
  12dc44:	babfffc4 	addi	r10,r23,-1
  12dc48:	5d400017 	ldw	r21,0(r11)
  12dc4c:	5c000104 	addi	r16,r11,4
  12dc50:	a807883a 	mov	r3,r21
  12dc54:	aaaf883a 	add	r23,r21,r10
  12dc58:	00000306 	br	12dc68 <__ssvfiscanf_r+0x864>
  12dc5c:	e1000017 	ldw	r4,0(fp)
  12dc60:	b007883a 	mov	r3,r22
  12dc64:	20800003 	ldbu	r2,0(r4)
  12dc68:	10803fcc 	andi	r2,r2,255
  12dc6c:	d9400104 	addi	r5,sp,4
  12dc70:	2885883a 	add	r2,r5,r2
  12dc74:	10800007 	ldb	r2,0(r2)
  12dc78:	10007726 	beq	r2,zero,12de58 <__ssvfiscanf_r+0xa54>
  12dc7c:	e0800117 	ldw	r2,4(fp)
  12dc80:	21400044 	addi	r5,r4,1
  12dc84:	e1400015 	stw	r5,0(fp)
  12dc88:	10bfffc4 	addi	r2,r2,-1
  12dc8c:	e0800115 	stw	r2,4(fp)
  12dc90:	20800003 	ldbu	r2,0(r4)
  12dc94:	1d800044 	addi	r22,r3,1
  12dc98:	18800005 	stb	r2,0(r3)
  12dc9c:	1dc00726 	beq	r3,r23,12dcbc <__ssvfiscanf_r+0x8b8>
  12dca0:	e0800117 	ldw	r2,4(fp)
  12dca4:	00bfed16 	blt	zero,r2,12dc5c <_gp+0xfffea584>
  12dca8:	e00b883a 	mov	r5,fp
  12dcac:	8809883a 	mov	r4,r17
  12dcb0:	012d2940 	call	12d294 <__ssrefill_r>
  12dcb4:	103fe926 	beq	r2,zero,12dc5c <_gp+0xfffea584>
  12dcb8:	ad804326 	beq	r21,r22,12ddc8 <__ssvfiscanf_r+0x9c4>
  12dcbc:	b56bc83a 	sub	r21,r22,r21
  12dcc0:	a83e1326 	beq	r21,zero,12d510 <_gp+0xfffe9e38>
  12dcc4:	dac05117 	ldw	r11,324(sp)
  12dcc8:	b0000005 	stb	zero,0(r22)
  12dccc:	dc004f15 	stw	r16,316(sp)
  12dcd0:	5ac00044 	addi	r11,r11,1
  12dcd4:	dac05115 	stw	r11,324(sp)
  12dcd8:	9d67883a 	add	r19,r19,r21
  12dcdc:	a00d883a 	mov	r6,r20
  12dce0:	003e0706 	br	12d500 <_gp+0xfffe9e28>
  12dce4:	d8c04b04 	addi	r3,sp,300
  12dce8:	8400040c 	andi	r16,r16,16
  12dcec:	01800204 	movi	r6,8
  12dcf0:	000b883a 	mov	r5,zero
  12dcf4:	1809883a 	mov	r4,r3
  12dcf8:	d8c05315 	stw	r3,332(sp)
  12dcfc:	01214d80 	call	1214d8 <memset>
  12dd00:	8001eb1e 	bne	r16,zero,12e4b0 <__ssvfiscanf_r+0x10ac>
  12dd04:	dac04f17 	ldw	r11,316(sp)
  12dd08:	5d800017 	ldw	r22,0(r11)
  12dd0c:	5ac00104 	addi	r11,r11,4
  12dd10:	dac04f15 	stw	r11,316(sp)
  12dd14:	000d883a 	mov	r6,zero
  12dd18:	3029883a 	mov	r20,r6
  12dd1c:	e0800017 	ldw	r2,0(fp)
  12dd20:	90c00017 	ldw	r3,0(r18)
  12dd24:	10800003 	ldbu	r2,0(r2)
  12dd28:	1885883a 	add	r2,r3,r2
  12dd2c:	10800043 	ldbu	r2,1(r2)
  12dd30:	1080020c 	andi	r2,r2,8
  12dd34:	1001ce1e 	bne	r2,zero,12e470 <__ssvfiscanf_r+0x106c>
  12dd38:	b801cd26 	beq	r23,zero,12e470 <__ssvfiscanf_r+0x106c>
  12dd3c:	01278540 	call	127854 <__locale_mb_cur_max>
  12dd40:	a0802126 	beq	r20,r2,12ddc8 <__ssvfiscanf_r+0x9c4>
  12dd44:	e0800017 	ldw	r2,0(fp)
  12dd48:	e1000117 	ldw	r4,4(fp)
  12dd4c:	dac05317 	ldw	r11,332(sp)
  12dd50:	12000003 	ldbu	r8,0(r2)
  12dd54:	213fffc4 	addi	r4,r4,-1
  12dd58:	10800044 	addi	r2,r2,1
  12dd5c:	e1000115 	stw	r4,4(fp)
  12dd60:	d9404104 	addi	r5,sp,260
  12dd64:	e0800015 	stw	r2,0(fp)
  12dd68:	a0c00044 	addi	r3,r20,1
  12dd6c:	dac00015 	stw	r11,0(sp)
  12dd70:	2d29883a 	add	r20,r5,r20
  12dd74:	180f883a 	mov	r7,r3
  12dd78:	280d883a 	mov	r6,r5
  12dd7c:	8809883a 	mov	r4,r17
  12dd80:	a2000005 	stb	r8,0(r20)
  12dd84:	b00b883a 	mov	r5,r22
  12dd88:	d8c05a15 	stw	r3,360(sp)
  12dd8c:	01281140 	call	128114 <_mbrtowc_r>
  12dd90:	013fffc4 	movi	r4,-1
  12dd94:	d8c05a17 	ldw	r3,360(sp)
  12dd98:	11000b26 	beq	r2,r4,12ddc8 <__ssvfiscanf_r+0x9c4>
  12dd9c:	1001a226 	beq	r2,zero,12e428 <__ssvfiscanf_r+0x1024>
  12dda0:	017fff84 	movi	r5,-2
  12dda4:	1829883a 	mov	r20,r3
  12dda8:	1141e51e 	bne	r2,r5,12e540 <__ssvfiscanf_r+0x113c>
  12ddac:	e0800117 	ldw	r2,4(fp)
  12ddb0:	00bfda16 	blt	zero,r2,12dd1c <_gp+0xfffea644>
  12ddb4:	e00b883a 	mov	r5,fp
  12ddb8:	8809883a 	mov	r4,r17
  12ddbc:	012d2940 	call	12d294 <__ssrefill_r>
  12ddc0:	103fd626 	beq	r2,zero,12dd1c <_gp+0xfffea644>
  12ddc4:	a001aa26 	beq	r20,zero,12e470 <__ssvfiscanf_r+0x106c>
  12ddc8:	dac05117 	ldw	r11,324(sp)
  12ddcc:	583e6b26 	beq	r11,zero,12d77c <_gp+0xfffea0a4>
  12ddd0:	e080030b 	ldhu	r2,12(fp)
  12ddd4:	1080100c 	andi	r2,r2,64
  12ddd8:	103e681e 	bne	r2,zero,12d77c <_gp+0xfffea0a4>
  12dddc:	5805883a 	mov	r2,r11
  12dde0:	003e6706 	br	12d780 <_gp+0xfffea0a8>
  12dde4:	a821883a 	mov	r16,r21
  12dde8:	802b883a 	mov	r21,r16
  12ddec:	003fba06 	br	12dcd8 <_gp+0xfffea600>
  12ddf0:	b83f631e 	bne	r23,zero,12db80 <_gp+0xfffea4a8>
  12ddf4:	003f8706 	br	12dc14 <_gp+0xfffea53c>
  12ddf8:	dac04f17 	ldw	r11,316(sp)
  12ddfc:	5d800017 	ldw	r22,0(r11)
  12de00:	5ac00104 	addi	r11,r11,4
  12de04:	dac04f15 	stw	r11,316(sp)
  12de08:	003f5c06 	br	12db7c <_gp+0xfffea4a4>
  12de0c:	e00b883a 	mov	r5,fp
  12de10:	8809883a 	mov	r4,r17
  12de14:	012d2940 	call	12d294 <__ssrefill_r>
  12de18:	103ed026 	beq	r2,zero,12d95c <_gp+0xfffea284>
  12de1c:	003fea06 	br	12ddc8 <_gp+0xfffea6f0>
  12de20:	00ffff84 	movi	r3,-2
  12de24:	10c0071e 	bne	r2,r3,12de44 <__ssvfiscanf_r+0xa40>
  12de28:	e0800117 	ldw	r2,4(fp)
  12de2c:	a021883a 	mov	r16,r20
  12de30:	00bf5316 	blt	zero,r2,12db80 <_gp+0xfffea4a8>
  12de34:	003f7206 	br	12dc00 <_gp+0xfffea528>
  12de38:	9d27883a 	add	r19,r19,r20
  12de3c:	bdffffc4 	addi	r23,r23,-1
  12de40:	003f6c06 	br	12dbf4 <_gp+0xfffea51c>
  12de44:	dac05417 	ldw	r11,336(sp)
  12de48:	9d27883a 	add	r19,r19,r20
  12de4c:	bdffffc4 	addi	r23,r23,-1
  12de50:	583f6726 	beq	r11,zero,12dbf0 <_gp+0xfffea518>
  12de54:	003f6706 	br	12dbf4 <_gp+0xfffea51c>
  12de58:	182d883a 	mov	r22,r3
  12de5c:	003f9706 	br	12dcbc <_gp+0xfffea5e4>
  12de60:	a83f9d1e 	bne	r21,zero,12dcd8 <_gp+0xfffea600>
  12de64:	003daa06 	br	12d510 <_gp+0xfffe9e38>
  12de68:	803ed41e 	bne	r16,zero,12d9bc <_gp+0xfffea2e4>
  12de6c:	003fd606 	br	12ddc8 <_gp+0xfffea6f0>
  12de70:	dac04f17 	ldw	r11,316(sp)
  12de74:	df000015 	stw	fp,0(sp)
  12de78:	b80f883a 	mov	r7,r23
  12de7c:	59400017 	ldw	r5,0(r11)
  12de80:	01800044 	movi	r6,1
  12de84:	8809883a 	mov	r4,r17
  12de88:	012d3040 	call	12d304 <_sfread_r>
  12de8c:	dac04f17 	ldw	r11,316(sp)
  12de90:	58c00104 	addi	r3,r11,4
  12de94:	103fcc26 	beq	r2,zero,12ddc8 <_gp+0xfffea6f0>
  12de98:	dac05117 	ldw	r11,324(sp)
  12de9c:	a829883a 	mov	r20,r21
  12dea0:	98a7883a 	add	r19,r19,r2
  12dea4:	5ac00044 	addi	r11,r11,1
  12dea8:	dac05115 	stw	r11,324(sp)
  12deac:	d8c04f15 	stw	r3,316(sp)
  12deb0:	a00d883a 	mov	r6,r20
  12deb4:	003d9206 	br	12d500 <_gp+0xfffe9e28>
  12deb8:	e0800117 	ldw	r2,4(fp)
  12debc:	80e0b03a 	or	r16,r16,r3
  12dec0:	00be8d16 	blt	zero,r2,12d8f8 <_gp+0xfffea220>
  12dec4:	e00b883a 	mov	r5,fp
  12dec8:	8809883a 	mov	r4,r17
  12decc:	012d2940 	call	12d294 <__ssrefill_r>
  12ded0:	103fbd1e 	bne	r2,zero,12ddc8 <_gp+0xfffea6f0>
  12ded4:	95800017 	ldw	r22,0(r18)
  12ded8:	003e8706 	br	12d8f8 <_gp+0xfffea220>
  12dedc:	e00b883a 	mov	r5,fp
  12dee0:	8809883a 	mov	r4,r17
  12dee4:	012d2940 	call	12d294 <__ssrefill_r>
  12dee8:	103e1826 	beq	r2,zero,12d74c <_gp+0xfffea074>
  12deec:	003fb606 	br	12ddc8 <_gp+0xfffea6f0>
  12def0:	a1400083 	ldbu	r5,2(r20)
  12def4:	84000094 	ori	r16,r16,2
  12def8:	a5000084 	addi	r20,r20,2
  12defc:	2dc03fcc 	andi	r23,r5,255
  12df00:	003d8e06 	br	12d53c <_gp+0xfffe9e64>
  12df04:	8080004c 	andi	r2,r16,1
  12df08:	10000b1e 	bne	r2,zero,12df38 <__ssvfiscanf_r+0xb34>
  12df0c:	8400008c 	andi	r16,r16,2
  12df10:	80000926 	beq	r16,zero,12df38 <__ssvfiscanf_r+0xb34>
  12df14:	dac04f17 	ldw	r11,316(sp)
  12df18:	9807d7fa 	srai	r3,r19,31
  12df1c:	a829883a 	mov	r20,r21
  12df20:	58800017 	ldw	r2,0(r11)
  12df24:	5ac00104 	addi	r11,r11,4
  12df28:	dac04f15 	stw	r11,316(sp)
  12df2c:	14c00015 	stw	r19,0(r2)
  12df30:	10c00115 	stw	r3,4(r2)
  12df34:	003d7106 	br	12d4fc <_gp+0xfffe9e24>
  12df38:	dac04f17 	ldw	r11,316(sp)
  12df3c:	a829883a 	mov	r20,r21
  12df40:	58800017 	ldw	r2,0(r11)
  12df44:	5ac00104 	addi	r11,r11,4
  12df48:	dac04f15 	stw	r11,316(sp)
  12df4c:	14c00015 	stw	r19,0(r2)
  12df50:	003d6a06 	br	12d4fc <_gp+0xfffe9e24>
  12df54:	e00b883a 	mov	r5,fp
  12df58:	8809883a 	mov	r4,r17
  12df5c:	012d2940 	call	12d294 <__ssrefill_r>
  12df60:	103f991e 	bne	r2,zero,12ddc8 <_gp+0xfffea6f0>
  12df64:	95800017 	ldw	r22,0(r18)
  12df68:	05000084 	movi	r20,2
  12df6c:	003e1906 	br	12d7d4 <_gp+0xfffea0fc>
  12df70:	e00b883a 	mov	r5,fp
  12df74:	8809883a 	mov	r4,r17
  12df78:	012d2940 	call	12d294 <__ssrefill_r>
  12df7c:	103e9a26 	beq	r2,zero,12d9e8 <_gp+0xfffea310>
  12df80:	003f9106 	br	12ddc8 <_gp+0xfffea6f0>
  12df84:	e00b883a 	mov	r5,fp
  12df88:	8809883a 	mov	r4,r17
  12df8c:	012d2940 	call	12d294 <__ssrefill_r>
  12df90:	103f8d1e 	bne	r2,zero,12ddc8 <_gp+0xfffea6f0>
  12df94:	95800017 	ldw	r22,0(r18)
  12df98:	003e0806 	br	12d7bc <_gp+0xfffea0e4>
  12df9c:	e00b883a 	mov	r5,fp
  12dfa0:	8809883a 	mov	r4,r17
  12dfa4:	012d2940 	call	12d294 <__ssrefill_r>
  12dfa8:	103f871e 	bne	r2,zero,12ddc8 <_gp+0xfffea6f0>
  12dfac:	95800017 	ldw	r22,0(r18)
  12dfb0:	003ee106 	br	12db38 <_gp+0xfffea460>
  12dfb4:	014000c4 	movi	r5,3
  12dfb8:	a140ae1e 	bne	r20,r5,12e274 <__ssvfiscanf_r+0xe70>
  12dfbc:	b8ffffc4 	addi	r3,r23,-1
  12dfc0:	01400984 	movi	r5,38
  12dfc4:	28c0d82e 	bgeu	r5,r3,12e328 <__ssvfiscanf_r+0xf24>
  12dfc8:	b9bff644 	addi	r6,r23,-39
  12dfcc:	05c009c4 	movi	r23,39
  12dfd0:	85836014 	ori	r22,r16,3456
  12dfd4:	0021883a 	mov	r16,zero
  12dfd8:	a815883a 	mov	r10,r21
  12dfdc:	982b883a 	mov	r21,r19
  12dfe0:	8027883a 	mov	r19,r16
  12dfe4:	dc005017 	ldw	r16,320(sp)
  12dfe8:	dd004104 	addi	r20,sp,260
  12dfec:	02401344 	movi	r9,77
  12dff0:	01c08004 	movi	r7,512
  12dff4:	00ff7fc4 	movi	r3,-513
  12dff8:	023fdfc4 	movi	r8,-129
  12dffc:	217ff544 	addi	r5,r4,-43
  12e000:	29403fcc 	andi	r5,r5,255
  12e004:	49408836 	bltu	r9,r5,12e228 <__ssvfiscanf_r+0xe24>
  12e008:	280a90ba 	slli	r5,r5,2
  12e00c:	02c004f4 	movhi	r11,19
  12e010:	5af80804 	addi	r11,r11,-8160
  12e014:	2acb883a 	add	r5,r5,r11
  12e018:	29400017 	ldw	r5,0(r5)
  12e01c:	2800683a 	jmp	r5
  12e020:	0012e1b4 	movhi	zero,19334
  12e024:	0012e228 	cmpgeui	zero,zero,19336
  12e028:	0012e1b4 	movhi	zero,19334
  12e02c:	0012e228 	cmpgeui	zero,zero,19336
  12e030:	0012e228 	cmpgeui	zero,zero,19336
  12e034:	0012e1e4 	muli	zero,zero,19335
  12e038:	0012e1c4 	movi	zero,19335
  12e03c:	0012e1c4 	movi	zero,19335
  12e040:	0012e1c4 	movi	zero,19335
  12e044:	0012e1c4 	movi	zero,19335
  12e048:	0012e1c4 	movi	zero,19335
  12e04c:	0012e1c4 	movi	zero,19335
  12e050:	0012e1c4 	movi	zero,19335
  12e054:	0012e20c 	andi	zero,zero,19336
  12e058:	0012e20c 	andi	zero,zero,19336
  12e05c:	0012e228 	cmpgeui	zero,zero,19336
  12e060:	0012e228 	cmpgeui	zero,zero,19336
  12e064:	0012e228 	cmpgeui	zero,zero,19336
  12e068:	0012e228 	cmpgeui	zero,zero,19336
  12e06c:	0012e228 	cmpgeui	zero,zero,19336
  12e070:	0012e228 	cmpgeui	zero,zero,19336
  12e074:	0012e228 	cmpgeui	zero,zero,19336
  12e078:	0012e1a0 	cmpeqi	zero,zero,19334
  12e07c:	0012e1a0 	cmpeqi	zero,zero,19334
  12e080:	0012e1a0 	cmpeqi	zero,zero,19334
  12e084:	0012e1a0 	cmpeqi	zero,zero,19334
  12e088:	0012e1a0 	cmpeqi	zero,zero,19334
  12e08c:	0012e1a0 	cmpeqi	zero,zero,19334
  12e090:	0012e228 	cmpgeui	zero,zero,19336
  12e094:	0012e228 	cmpgeui	zero,zero,19336
  12e098:	0012e228 	cmpgeui	zero,zero,19336
  12e09c:	0012e228 	cmpgeui	zero,zero,19336
  12e0a0:	0012e228 	cmpgeui	zero,zero,19336
  12e0a4:	0012e228 	cmpgeui	zero,zero,19336
  12e0a8:	0012e228 	cmpgeui	zero,zero,19336
  12e0ac:	0012e228 	cmpgeui	zero,zero,19336
  12e0b0:	0012e228 	cmpgeui	zero,zero,19336
  12e0b4:	0012e228 	cmpgeui	zero,zero,19336
  12e0b8:	0012e228 	cmpgeui	zero,zero,19336
  12e0bc:	0012e228 	cmpgeui	zero,zero,19336
  12e0c0:	0012e228 	cmpgeui	zero,zero,19336
  12e0c4:	0012e228 	cmpgeui	zero,zero,19336
  12e0c8:	0012e228 	cmpgeui	zero,zero,19336
  12e0cc:	0012e228 	cmpgeui	zero,zero,19336
  12e0d0:	0012e228 	cmpgeui	zero,zero,19336
  12e0d4:	0012e158 	cmpnei	zero,zero,19333
  12e0d8:	0012e228 	cmpgeui	zero,zero,19336
  12e0dc:	0012e228 	cmpgeui	zero,zero,19336
  12e0e0:	0012e228 	cmpgeui	zero,zero,19336
  12e0e4:	0012e228 	cmpgeui	zero,zero,19336
  12e0e8:	0012e228 	cmpgeui	zero,zero,19336
  12e0ec:	0012e228 	cmpgeui	zero,zero,19336
  12e0f0:	0012e228 	cmpgeui	zero,zero,19336
  12e0f4:	0012e228 	cmpgeui	zero,zero,19336
  12e0f8:	0012e1a0 	cmpeqi	zero,zero,19334
  12e0fc:	0012e1a0 	cmpeqi	zero,zero,19334
  12e100:	0012e1a0 	cmpeqi	zero,zero,19334
  12e104:	0012e1a0 	cmpeqi	zero,zero,19334
  12e108:	0012e1a0 	cmpeqi	zero,zero,19334
  12e10c:	0012e1a0 	cmpeqi	zero,zero,19334
  12e110:	0012e228 	cmpgeui	zero,zero,19336
  12e114:	0012e228 	cmpgeui	zero,zero,19336
  12e118:	0012e228 	cmpgeui	zero,zero,19336
  12e11c:	0012e228 	cmpgeui	zero,zero,19336
  12e120:	0012e228 	cmpgeui	zero,zero,19336
  12e124:	0012e228 	cmpgeui	zero,zero,19336
  12e128:	0012e228 	cmpgeui	zero,zero,19336
  12e12c:	0012e228 	cmpgeui	zero,zero,19336
  12e130:	0012e228 	cmpgeui	zero,zero,19336
  12e134:	0012e228 	cmpgeui	zero,zero,19336
  12e138:	0012e228 	cmpgeui	zero,zero,19336
  12e13c:	0012e228 	cmpgeui	zero,zero,19336
  12e140:	0012e228 	cmpgeui	zero,zero,19336
  12e144:	0012e228 	cmpgeui	zero,zero,19336
  12e148:	0012e228 	cmpgeui	zero,zero,19336
  12e14c:	0012e228 	cmpgeui	zero,zero,19336
  12e150:	0012e228 	cmpgeui	zero,zero,19336
  12e154:	0012e158 	cmpnei	zero,zero,19333
  12e158:	b141800c 	andi	r5,r22,1536
  12e15c:	29c0321e 	bne	r5,r7,12e228 <__ssvfiscanf_r+0xe24>
  12e160:	b0ec703a 	and	r22,r22,r3
  12e164:	b5814014 	ori	r22,r22,1280
  12e168:	04000404 	movi	r16,16
  12e16c:	a1000005 	stb	r4,0(r20)
  12e170:	a5000044 	addi	r20,r20,1
  12e174:	e1000117 	ldw	r4,4(fp)
  12e178:	213fffc4 	addi	r4,r4,-1
  12e17c:	e1000115 	stw	r4,4(fp)
  12e180:	0100580e 	bge	zero,r4,12e2e4 <__ssvfiscanf_r+0xee0>
  12e184:	10800044 	addi	r2,r2,1
  12e188:	e0800015 	stw	r2,0(fp)
  12e18c:	bdffffc4 	addi	r23,r23,-1
  12e190:	b8002526 	beq	r23,zero,12e228 <__ssvfiscanf_r+0xe24>
  12e194:	e0800017 	ldw	r2,0(fp)
  12e198:	11000003 	ldbu	r4,0(r2)
  12e19c:	003f9706 	br	12dffc <_gp+0xfffea924>
  12e1a0:	01400284 	movi	r5,10
  12e1a4:	2c00200e 	bge	r5,r16,12e228 <__ssvfiscanf_r+0xe24>
  12e1a8:	017d1fc4 	movi	r5,-2945
  12e1ac:	b16c703a 	and	r22,r22,r5
  12e1b0:	003fee06 	br	12e16c <_gp+0xfffeaa94>
  12e1b4:	b140200c 	andi	r5,r22,128
  12e1b8:	28001b26 	beq	r5,zero,12e228 <__ssvfiscanf_r+0xe24>
  12e1bc:	b22c703a 	and	r22,r22,r8
  12e1c0:	003fea06 	br	12e16c <_gp+0xfffeaa94>
  12e1c4:	02c00534 	movhi	r11,20
  12e1c8:	8421883a 	add	r16,r16,r16
  12e1cc:	5ae5ec04 	addi	r11,r11,-26704
  12e1d0:	5c0b883a 	add	r5,r11,r16
  12e1d4:	2c00000f 	ldh	r16,0(r5)
  12e1d8:	017d1fc4 	movi	r5,-2945
  12e1dc:	b16c703a 	and	r22,r22,r5
  12e1e0:	003fe206 	br	12e16c <_gp+0xfffeaa94>
  12e1e4:	b142000c 	andi	r5,r22,2048
  12e1e8:	283fe026 	beq	r5,zero,12e16c <_gp+0xfffeaa94>
  12e1ec:	8000021e 	bne	r16,zero,12e1f8 <__ssvfiscanf_r+0xdf4>
  12e1f0:	b5808014 	ori	r22,r22,512
  12e1f4:	04000204 	movi	r16,8
  12e1f8:	b141000c 	andi	r5,r22,1024
  12e1fc:	28009f26 	beq	r5,zero,12e47c <__ssvfiscanf_r+0x1078>
  12e200:	017e9fc4 	movi	r5,-1409
  12e204:	b16c703a 	and	r22,r22,r5
  12e208:	003fd806 	br	12e16c <_gp+0xfffeaa94>
  12e20c:	02c00534 	movhi	r11,20
  12e210:	8421883a 	add	r16,r16,r16
  12e214:	5ae5ec04 	addi	r11,r11,-26704
  12e218:	5c0b883a 	add	r5,r11,r16
  12e21c:	2c00000f 	ldh	r16,0(r5)
  12e220:	01400204 	movi	r5,8
  12e224:	2c3fe016 	blt	r5,r16,12e1a8 <_gp+0xfffeaad0>
  12e228:	dc005015 	stw	r16,320(sp)
  12e22c:	b080400c 	andi	r2,r22,256
  12e230:	9821883a 	mov	r16,r19
  12e234:	a827883a 	mov	r19,r21
  12e238:	502b883a 	mov	r21,r10
  12e23c:	10000426 	beq	r2,zero,12e250 <__ssvfiscanf_r+0xe4c>
  12e240:	dac04e17 	ldw	r11,312(sp)
  12e244:	5d009c36 	bltu	r11,r20,12e4b8 <__ssvfiscanf_r+0x10b4>
  12e248:	dac04e17 	ldw	r11,312(sp)
  12e24c:	a2fcb026 	beq	r20,r11,12d510 <_gp+0xfffe9e38>
  12e250:	b080040c 	andi	r2,r22,16
  12e254:	10006026 	beq	r2,zero,12e3d8 <__ssvfiscanf_r+0xfd4>
  12e258:	dac04e17 	ldw	r11,312(sp)
  12e25c:	a2e9c83a 	sub	r20,r20,r11
  12e260:	a429883a 	add	r20,r20,r16
  12e264:	9d27883a 	add	r19,r19,r20
  12e268:	a829883a 	mov	r20,r21
  12e26c:	a00d883a 	mov	r6,r20
  12e270:	003ca306 	br	12d500 <_gp+0xfffe9e28>
  12e274:	b800011e 	bne	r23,zero,12e27c <__ssvfiscanf_r+0xe78>
  12e278:	05ffffc4 	movi	r23,-1
  12e27c:	8100004c 	andi	r4,r16,1
  12e280:	203e981e 	bne	r4,zero,12dce4 <_gp+0xfffea60c>
  12e284:	8400040c 	andi	r16,r16,16
  12e288:	80002926 	beq	r16,zero,12e330 <__ssvfiscanf_r+0xf2c>
  12e28c:	0021883a 	mov	r16,zero
  12e290:	00000306 	br	12e2a0 <__ssvfiscanf_r+0xe9c>
  12e294:	10c00003 	ldbu	r3,0(r2)
  12e298:	b0c7883a 	add	r3,r22,r3
  12e29c:	18c00043 	ldbu	r3,1(r3)
  12e2a0:	18c0020c 	andi	r3,r3,8
  12e2a4:	183dc51e 	bne	r3,zero,12d9bc <_gp+0xfffea2e4>
  12e2a8:	e0c00117 	ldw	r3,4(fp)
  12e2ac:	10800044 	addi	r2,r2,1
  12e2b0:	84000044 	addi	r16,r16,1
  12e2b4:	18ffffc4 	addi	r3,r3,-1
  12e2b8:	e0c00115 	stw	r3,4(fp)
  12e2bc:	e0800015 	stw	r2,0(fp)
  12e2c0:	85fdbe26 	beq	r16,r23,12d9bc <_gp+0xfffea2e4>
  12e2c4:	00fff316 	blt	zero,r3,12e294 <_gp+0xfffeabbc>
  12e2c8:	e00b883a 	mov	r5,fp
  12e2cc:	8809883a 	mov	r4,r17
  12e2d0:	012d2940 	call	12d294 <__ssrefill_r>
  12e2d4:	103db91e 	bne	r2,zero,12d9bc <_gp+0xfffea2e4>
  12e2d8:	95800017 	ldw	r22,0(r18)
  12e2dc:	e0800017 	ldw	r2,0(fp)
  12e2e0:	003fec06 	br	12e294 <_gp+0xfffeabbc>
  12e2e4:	e00b883a 	mov	r5,fp
  12e2e8:	8809883a 	mov	r4,r17
  12e2ec:	d8c05a15 	stw	r3,360(sp)
  12e2f0:	d9805715 	stw	r6,348(sp)
  12e2f4:	d9c05915 	stw	r7,356(sp)
  12e2f8:	da005615 	stw	r8,344(sp)
  12e2fc:	da405515 	stw	r9,340(sp)
  12e300:	da805815 	stw	r10,352(sp)
  12e304:	012d2940 	call	12d294 <__ssrefill_r>
  12e308:	d8c05a17 	ldw	r3,360(sp)
  12e30c:	d9805717 	ldw	r6,348(sp)
  12e310:	d9c05917 	ldw	r7,356(sp)
  12e314:	da005617 	ldw	r8,344(sp)
  12e318:	da405517 	ldw	r9,340(sp)
  12e31c:	da805817 	ldw	r10,352(sp)
  12e320:	103f9a26 	beq	r2,zero,12e18c <_gp+0xfffeaab4>
  12e324:	003fc006 	br	12e228 <_gp+0xfffeab50>
  12e328:	000d883a 	mov	r6,zero
  12e32c:	003f2806 	br	12dfd0 <_gp+0xfffea8f8>
  12e330:	dac04f17 	ldw	r11,316(sp)
  12e334:	babfffc4 	addi	r10,r23,-1
  12e338:	5d000017 	ldw	r20,0(r11)
  12e33c:	5c000104 	addi	r16,r11,4
  12e340:	a00b883a 	mov	r5,r20
  12e344:	a2ad883a 	add	r22,r20,r10
  12e348:	00000606 	br	12e364 <__ssvfiscanf_r+0xf60>
  12e34c:	e0800017 	ldw	r2,0(fp)
  12e350:	91000017 	ldw	r4,0(r18)
  12e354:	b80b883a 	mov	r5,r23
  12e358:	10c00003 	ldbu	r3,0(r2)
  12e35c:	20c7883a 	add	r3,r4,r3
  12e360:	18c00043 	ldbu	r3,1(r3)
  12e364:	18c0020c 	andi	r3,r3,8
  12e368:	2809883a 	mov	r4,r5
  12e36c:	1800101e 	bne	r3,zero,12e3b0 <__ssvfiscanf_r+0xfac>
  12e370:	e0c00117 	ldw	r3,4(fp)
  12e374:	11800044 	addi	r6,r2,1
  12e378:	e1800015 	stw	r6,0(fp)
  12e37c:	18ffffc4 	addi	r3,r3,-1
  12e380:	e0c00115 	stw	r3,4(fp)
  12e384:	10800003 	ldbu	r2,0(r2)
  12e388:	25c00044 	addi	r23,r4,1
  12e38c:	28800005 	stb	r2,0(r5)
  12e390:	25800626 	beq	r4,r22,12e3ac <__ssvfiscanf_r+0xfa8>
  12e394:	e0800117 	ldw	r2,4(fp)
  12e398:	00bfec16 	blt	zero,r2,12e34c <_gp+0xfffeac74>
  12e39c:	e00b883a 	mov	r5,fp
  12e3a0:	8809883a 	mov	r4,r17
  12e3a4:	012d2940 	call	12d294 <__ssrefill_r>
  12e3a8:	103fe826 	beq	r2,zero,12e34c <_gp+0xfffeac74>
  12e3ac:	b809883a 	mov	r4,r23
  12e3b0:	dac05117 	ldw	r11,324(sp)
  12e3b4:	2529c83a 	sub	r20,r4,r20
  12e3b8:	9d27883a 	add	r19,r19,r20
  12e3bc:	5ac00044 	addi	r11,r11,1
  12e3c0:	a829883a 	mov	r20,r21
  12e3c4:	20000005 	stb	zero,0(r4)
  12e3c8:	dac05115 	stw	r11,324(sp)
  12e3cc:	dc004f15 	stw	r16,316(sp)
  12e3d0:	a00d883a 	mov	r6,r20
  12e3d4:	003c4a06 	br	12d500 <_gp+0xfffe9e28>
  12e3d8:	d9c05017 	ldw	r7,320(sp)
  12e3dc:	dac05217 	ldw	r11,328(sp)
  12e3e0:	000d883a 	mov	r6,zero
  12e3e4:	d9404104 	addi	r5,sp,260
  12e3e8:	8809883a 	mov	r4,r17
  12e3ec:	a0000005 	stb	zero,0(r20)
  12e3f0:	583ee83a 	callr	r11
  12e3f4:	b0c0080c 	andi	r3,r22,32
  12e3f8:	1800271e 	bne	r3,zero,12e498 <__ssvfiscanf_r+0x1094>
  12e3fc:	b0c0010c 	andi	r3,r22,4
  12e400:	18003326 	beq	r3,zero,12e4d0 <__ssvfiscanf_r+0x10cc>
  12e404:	dac04f17 	ldw	r11,316(sp)
  12e408:	58c00017 	ldw	r3,0(r11)
  12e40c:	5ac00104 	addi	r11,r11,4
  12e410:	dac04f15 	stw	r11,316(sp)
  12e414:	1880000d 	sth	r2,0(r3)
  12e418:	dac05117 	ldw	r11,324(sp)
  12e41c:	5ac00044 	addi	r11,r11,1
  12e420:	dac05115 	stw	r11,324(sp)
  12e424:	003f8c06 	br	12e258 <_gp+0xfffeab80>
  12e428:	b0000015 	stw	zero,0(r22)
  12e42c:	0009883a 	mov	r4,zero
  12e430:	d8c05a15 	stw	r3,360(sp)
  12e434:	012779c0 	call	12779c <iswspace>
  12e438:	d8c05a17 	ldw	r3,360(sp)
  12e43c:	10003826 	beq	r2,zero,12e520 <__ssvfiscanf_r+0x111c>
  12e440:	18000b26 	beq	r3,zero,12e470 <__ssvfiscanf_r+0x106c>
  12e444:	1d3fffc4 	addi	r20,r3,-1
  12e448:	dac04104 	addi	r11,sp,260
  12e44c:	5d2f883a 	add	r23,r11,r20
  12e450:	00000106 	br	12e458 <__ssvfiscanf_r+0x1054>
  12e454:	a53fffc4 	addi	r20,r20,-1
  12e458:	b9400003 	ldbu	r5,0(r23)
  12e45c:	e00d883a 	mov	r6,fp
  12e460:	8809883a 	mov	r4,r17
  12e464:	012d18c0 	call	12d18c <_sungetc_r>
  12e468:	bdffffc4 	addi	r23,r23,-1
  12e46c:	a03ff91e 	bne	r20,zero,12e454 <_gp+0xfffead7c>
  12e470:	803ded1e 	bne	r16,zero,12dc28 <_gp+0xfffea550>
  12e474:	b0000015 	stw	zero,0(r22)
  12e478:	003de806 	br	12dc1c <_gp+0xfffea544>
  12e47c:	013f1fc4 	movi	r4,-897
  12e480:	b12c703a 	and	r22,r22,r4
  12e484:	30000226 	beq	r6,zero,12e490 <__ssvfiscanf_r+0x108c>
  12e488:	31bfffc4 	addi	r6,r6,-1
  12e48c:	bdc00044 	addi	r23,r23,1
  12e490:	9cc00044 	addi	r19,r19,1
  12e494:	003f3706 	br	12e174 <_gp+0xfffeaa9c>
  12e498:	dac04f17 	ldw	r11,316(sp)
  12e49c:	58c00017 	ldw	r3,0(r11)
  12e4a0:	5ac00104 	addi	r11,r11,4
  12e4a4:	dac04f15 	stw	r11,316(sp)
  12e4a8:	18800015 	stw	r2,0(r3)
  12e4ac:	003fda06 	br	12e418 <_gp+0xfffead40>
  12e4b0:	dd804d04 	addi	r22,sp,308
  12e4b4:	003e1706 	br	12dd14 <_gp+0xfffea63c>
  12e4b8:	a17fffc7 	ldb	r5,-1(r20)
  12e4bc:	e00d883a 	mov	r6,fp
  12e4c0:	8809883a 	mov	r4,r17
  12e4c4:	a53fffc4 	addi	r20,r20,-1
  12e4c8:	012d18c0 	call	12d18c <_sungetc_r>
  12e4cc:	003f5e06 	br	12e248 <_gp+0xfffeab70>
  12e4d0:	b0c0004c 	andi	r3,r22,1
  12e4d4:	183ff01e 	bne	r3,zero,12e498 <_gp+0xfffeadc0>
  12e4d8:	b580008c 	andi	r22,r22,2
  12e4dc:	b03fee26 	beq	r22,zero,12e498 <_gp+0xfffeadc0>
  12e4e0:	dac05217 	ldw	r11,328(sp)
  12e4e4:	008004f4 	movhi	r2,19
  12e4e8:	10ad9a04 	addi	r2,r2,-18840
  12e4ec:	d9c05017 	ldw	r7,320(sp)
  12e4f0:	000d883a 	mov	r6,zero
  12e4f4:	d9404104 	addi	r5,sp,260
  12e4f8:	8809883a 	mov	r4,r17
  12e4fc:	58801226 	beq	r11,r2,12e548 <__ssvfiscanf_r+0x1144>
  12e500:	012b3640 	call	12b364 <_strtoll_r>
  12e504:	dac04f17 	ldw	r11,316(sp)
  12e508:	59000017 	ldw	r4,0(r11)
  12e50c:	5ac00104 	addi	r11,r11,4
  12e510:	dac04f15 	stw	r11,316(sp)
  12e514:	20800015 	stw	r2,0(r4)
  12e518:	20c00115 	stw	r3,4(r4)
  12e51c:	003fbe06 	br	12e418 <_gp+0xfffead40>
  12e520:	98e7883a 	add	r19,r19,r3
  12e524:	bdffffc4 	addi	r23,r23,-1
  12e528:	8000031e 	bne	r16,zero,12e538 <__ssvfiscanf_r+0x1134>
  12e52c:	b5800104 	addi	r22,r22,4
  12e530:	0029883a 	mov	r20,zero
  12e534:	003e1d06 	br	12ddac <_gp+0xfffea6d4>
  12e538:	0029883a 	mov	r20,zero
  12e53c:	003e1b06 	br	12ddac <_gp+0xfffea6d4>
  12e540:	b1000017 	ldw	r4,0(r22)
  12e544:	003fba06 	br	12e430 <_gp+0xfffead58>
  12e548:	012b8fc0 	call	12b8fc <_strtoull_r>
  12e54c:	003fed06 	br	12e504 <_gp+0xfffeae2c>

0012e550 <__submore>:
  12e550:	defffa04 	addi	sp,sp,-24
  12e554:	dc000015 	stw	r16,0(sp)
  12e558:	2821883a 	mov	r16,r5
  12e55c:	29400c17 	ldw	r5,48(r5)
  12e560:	dfc00515 	stw	ra,20(sp)
  12e564:	dd000415 	stw	r20,16(sp)
  12e568:	dcc00315 	stw	r19,12(sp)
  12e56c:	dc800215 	stw	r18,8(sp)
  12e570:	dc400115 	stw	r17,4(sp)
  12e574:	80801004 	addi	r2,r16,64
  12e578:	28801726 	beq	r5,r2,12e5d8 <__submore+0x88>
  12e57c:	84400d17 	ldw	r17,52(r16)
  12e580:	8c67883a 	add	r19,r17,r17
  12e584:	980d883a 	mov	r6,r19
  12e588:	01301c80 	call	1301c8 <_realloc_r>
  12e58c:	1025883a 	mov	r18,r2
  12e590:	10002226 	beq	r2,zero,12e61c <__submore+0xcc>
  12e594:	1469883a 	add	r20,r2,r17
  12e598:	880d883a 	mov	r6,r17
  12e59c:	100b883a 	mov	r5,r2
  12e5a0:	a009883a 	mov	r4,r20
  12e5a4:	01213900 	call	121390 <memcpy>
  12e5a8:	0005883a 	mov	r2,zero
  12e5ac:	85000015 	stw	r20,0(r16)
  12e5b0:	84800c15 	stw	r18,48(r16)
  12e5b4:	84c00d15 	stw	r19,52(r16)
  12e5b8:	dfc00517 	ldw	ra,20(sp)
  12e5bc:	dd000417 	ldw	r20,16(sp)
  12e5c0:	dcc00317 	ldw	r19,12(sp)
  12e5c4:	dc800217 	ldw	r18,8(sp)
  12e5c8:	dc400117 	ldw	r17,4(sp)
  12e5cc:	dc000017 	ldw	r16,0(sp)
  12e5d0:	dec00604 	addi	sp,sp,24
  12e5d4:	f800283a 	ret
  12e5d8:	04410004 	movi	r17,1024
  12e5dc:	880b883a 	mov	r5,r17
  12e5e0:	01279080 	call	127908 <_malloc_r>
  12e5e4:	1007883a 	mov	r3,r2
  12e5e8:	10000c26 	beq	r2,zero,12e61c <__submore+0xcc>
  12e5ec:	80801083 	ldbu	r2,66(r16)
  12e5f0:	80c00c15 	stw	r3,48(r16)
  12e5f4:	84400d15 	stw	r17,52(r16)
  12e5f8:	1880ffc5 	stb	r2,1023(r3)
  12e5fc:	81401043 	ldbu	r5,65(r16)
  12e600:	1900ff44 	addi	r4,r3,1021
  12e604:	0005883a 	mov	r2,zero
  12e608:	1940ff85 	stb	r5,1022(r3)
  12e60c:	81401003 	ldbu	r5,64(r16)
  12e610:	1940ff45 	stb	r5,1021(r3)
  12e614:	81000015 	stw	r4,0(r16)
  12e618:	003fe706 	br	12e5b8 <_gp+0xfffeaee0>
  12e61c:	00bfffc4 	movi	r2,-1
  12e620:	003fe506 	br	12e5b8 <_gp+0xfffeaee0>

0012e624 <_ungetc_r>:
  12e624:	00bfffc4 	movi	r2,-1
  12e628:	28806126 	beq	r5,r2,12e7b0 <_ungetc_r+0x18c>
  12e62c:	defffb04 	addi	sp,sp,-20
  12e630:	dcc00315 	stw	r19,12(sp)
  12e634:	dc400115 	stw	r17,4(sp)
  12e638:	dc000015 	stw	r16,0(sp)
  12e63c:	dfc00415 	stw	ra,16(sp)
  12e640:	dc800215 	stw	r18,8(sp)
  12e644:	2023883a 	mov	r17,r4
  12e648:	3021883a 	mov	r16,r6
  12e64c:	2827883a 	mov	r19,r5
  12e650:	20000226 	beq	r4,zero,12e65c <_ungetc_r+0x38>
  12e654:	20800e17 	ldw	r2,56(r4)
  12e658:	10002e26 	beq	r2,zero,12e714 <_ungetc_r+0xf0>
  12e65c:	80c0030b 	ldhu	r3,12(r16)
  12e660:	1888000c 	andi	r2,r3,8192
  12e664:	1000051e 	bne	r2,zero,12e67c <_ungetc_r+0x58>
  12e668:	81001917 	ldw	r4,100(r16)
  12e66c:	00b7ffc4 	movi	r2,-8193
  12e670:	18c80014 	ori	r3,r3,8192
  12e674:	2084703a 	and	r2,r4,r2
  12e678:	80801915 	stw	r2,100(r16)
  12e67c:	00bff7c4 	movi	r2,-33
  12e680:	1884703a 	and	r2,r3,r2
  12e684:	8080030d 	sth	r2,12(r16)
  12e688:	1900010c 	andi	r4,r3,4
  12e68c:	2000061e 	bne	r4,zero,12e6a8 <_ungetc_r+0x84>
  12e690:	1900040c 	andi	r4,r3,16
  12e694:	20001d26 	beq	r4,zero,12e70c <_ungetc_r+0xe8>
  12e698:	18c0020c 	andi	r3,r3,8
  12e69c:	1800331e 	bne	r3,zero,12e76c <_ungetc_r+0x148>
  12e6a0:	10800114 	ori	r2,r2,4
  12e6a4:	8080030d 	sth	r2,12(r16)
  12e6a8:	80800c17 	ldw	r2,48(r16)
  12e6ac:	9c803fcc 	andi	r18,r19,255
  12e6b0:	10001a26 	beq	r2,zero,12e71c <_ungetc_r+0xf8>
  12e6b4:	80c00117 	ldw	r3,4(r16)
  12e6b8:	80800d17 	ldw	r2,52(r16)
  12e6bc:	18800f0e 	bge	r3,r2,12e6fc <_ungetc_r+0xd8>
  12e6c0:	80c00017 	ldw	r3,0(r16)
  12e6c4:	9005883a 	mov	r2,r18
  12e6c8:	193fffc4 	addi	r4,r3,-1
  12e6cc:	81000015 	stw	r4,0(r16)
  12e6d0:	1cffffc5 	stb	r19,-1(r3)
  12e6d4:	80c00117 	ldw	r3,4(r16)
  12e6d8:	18c00044 	addi	r3,r3,1
  12e6dc:	80c00115 	stw	r3,4(r16)
  12e6e0:	dfc00417 	ldw	ra,16(sp)
  12e6e4:	dcc00317 	ldw	r19,12(sp)
  12e6e8:	dc800217 	ldw	r18,8(sp)
  12e6ec:	dc400117 	ldw	r17,4(sp)
  12e6f0:	dc000017 	ldw	r16,0(sp)
  12e6f4:	dec00504 	addi	sp,sp,20
  12e6f8:	f800283a 	ret
  12e6fc:	800b883a 	mov	r5,r16
  12e700:	8809883a 	mov	r4,r17
  12e704:	012e5500 	call	12e550 <__submore>
  12e708:	103fed26 	beq	r2,zero,12e6c0 <_gp+0xfffeafe8>
  12e70c:	00bfffc4 	movi	r2,-1
  12e710:	003ff306 	br	12e6e0 <_gp+0xfffeb008>
  12e714:	012eeb40 	call	12eeb4 <__sinit>
  12e718:	003fd006 	br	12e65c <_gp+0xfffeaf84>
  12e71c:	80c00417 	ldw	r3,16(r16)
  12e720:	80800017 	ldw	r2,0(r16)
  12e724:	18000326 	beq	r3,zero,12e734 <_ungetc_r+0x110>
  12e728:	1880022e 	bgeu	r3,r2,12e734 <_ungetc_r+0x110>
  12e72c:	10ffffc3 	ldbu	r3,-1(r2)
  12e730:	90c01826 	beq	r18,r3,12e794 <_ungetc_r+0x170>
  12e734:	81400117 	ldw	r5,4(r16)
  12e738:	80800e15 	stw	r2,56(r16)
  12e73c:	008000c4 	movi	r2,3
  12e740:	81001004 	addi	r4,r16,64
  12e744:	80c01084 	addi	r3,r16,66
  12e748:	80800d15 	stw	r2,52(r16)
  12e74c:	00800044 	movi	r2,1
  12e750:	80800115 	stw	r2,4(r16)
  12e754:	81400f15 	stw	r5,60(r16)
  12e758:	81000c15 	stw	r4,48(r16)
  12e75c:	84c01085 	stb	r19,66(r16)
  12e760:	80c00015 	stw	r3,0(r16)
  12e764:	9005883a 	mov	r2,r18
  12e768:	003fdd06 	br	12e6e0 <_gp+0xfffeb008>
  12e76c:	800b883a 	mov	r5,r16
  12e770:	8809883a 	mov	r4,r17
  12e774:	012eac80 	call	12eac8 <_fflush_r>
  12e778:	103fe41e 	bne	r2,zero,12e70c <_gp+0xfffeb034>
  12e77c:	8080030b 	ldhu	r2,12(r16)
  12e780:	00fffdc4 	movi	r3,-9
  12e784:	80000215 	stw	zero,8(r16)
  12e788:	1884703a 	and	r2,r3,r2
  12e78c:	80000615 	stw	zero,24(r16)
  12e790:	003fc306 	br	12e6a0 <_gp+0xfffeafc8>
  12e794:	80c00117 	ldw	r3,4(r16)
  12e798:	10bfffc4 	addi	r2,r2,-1
  12e79c:	80800015 	stw	r2,0(r16)
  12e7a0:	18800044 	addi	r2,r3,1
  12e7a4:	80800115 	stw	r2,4(r16)
  12e7a8:	9005883a 	mov	r2,r18
  12e7ac:	003fcc06 	br	12e6e0 <_gp+0xfffeb008>
  12e7b0:	00bfffc4 	movi	r2,-1
  12e7b4:	f800283a 	ret

0012e7b8 <ungetc>:
  12e7b8:	00800534 	movhi	r2,20
  12e7bc:	10adba04 	addi	r2,r2,-18712
  12e7c0:	280d883a 	mov	r6,r5
  12e7c4:	200b883a 	mov	r5,r4
  12e7c8:	11000017 	ldw	r4,0(r2)
  12e7cc:	012e6241 	jmpi	12e624 <_ungetc_r>

0012e7d0 <_calloc_r>:
  12e7d0:	defffe04 	addi	sp,sp,-8
  12e7d4:	2805883a 	mov	r2,r5
  12e7d8:	dc000015 	stw	r16,0(sp)
  12e7dc:	300b883a 	mov	r5,r6
  12e7e0:	2021883a 	mov	r16,r4
  12e7e4:	1009883a 	mov	r4,r2
  12e7e8:	dfc00115 	stw	ra,4(sp)
  12e7ec:	01213680 	call	121368 <__mulsi3>
  12e7f0:	100b883a 	mov	r5,r2
  12e7f4:	8009883a 	mov	r4,r16
  12e7f8:	01279080 	call	127908 <_malloc_r>
  12e7fc:	10002926 	beq	r2,zero,12e8a4 <_calloc_r+0xd4>
  12e800:	11bfff17 	ldw	r6,-4(r2)
  12e804:	1021883a 	mov	r16,r2
  12e808:	00bfff04 	movi	r2,-4
  12e80c:	308c703a 	and	r6,r6,r2
  12e810:	00c00904 	movi	r3,36
  12e814:	308d883a 	add	r6,r6,r2
  12e818:	19801636 	bltu	r3,r6,12e874 <_calloc_r+0xa4>
  12e81c:	008004c4 	movi	r2,19
  12e820:	11800b2e 	bgeu	r2,r6,12e850 <_calloc_r+0x80>
  12e824:	80000015 	stw	zero,0(r16)
  12e828:	80000115 	stw	zero,4(r16)
  12e82c:	008006c4 	movi	r2,27
  12e830:	11801a2e 	bgeu	r2,r6,12e89c <_calloc_r+0xcc>
  12e834:	80000215 	stw	zero,8(r16)
  12e838:	80000315 	stw	zero,12(r16)
  12e83c:	30c0151e 	bne	r6,r3,12e894 <_calloc_r+0xc4>
  12e840:	80000415 	stw	zero,16(r16)
  12e844:	80800604 	addi	r2,r16,24
  12e848:	80000515 	stw	zero,20(r16)
  12e84c:	00000106 	br	12e854 <_calloc_r+0x84>
  12e850:	8005883a 	mov	r2,r16
  12e854:	10000015 	stw	zero,0(r2)
  12e858:	10000115 	stw	zero,4(r2)
  12e85c:	10000215 	stw	zero,8(r2)
  12e860:	8005883a 	mov	r2,r16
  12e864:	dfc00117 	ldw	ra,4(sp)
  12e868:	dc000017 	ldw	r16,0(sp)
  12e86c:	dec00204 	addi	sp,sp,8
  12e870:	f800283a 	ret
  12e874:	000b883a 	mov	r5,zero
  12e878:	8009883a 	mov	r4,r16
  12e87c:	01214d80 	call	1214d8 <memset>
  12e880:	8005883a 	mov	r2,r16
  12e884:	dfc00117 	ldw	ra,4(sp)
  12e888:	dc000017 	ldw	r16,0(sp)
  12e88c:	dec00204 	addi	sp,sp,8
  12e890:	f800283a 	ret
  12e894:	80800404 	addi	r2,r16,16
  12e898:	003fee06 	br	12e854 <_gp+0xfffeb17c>
  12e89c:	80800204 	addi	r2,r16,8
  12e8a0:	003fec06 	br	12e854 <_gp+0xfffeb17c>
  12e8a4:	0005883a 	mov	r2,zero
  12e8a8:	003fee06 	br	12e864 <_gp+0xfffeb18c>

0012e8ac <__sflush_r>:
  12e8ac:	2880030b 	ldhu	r2,12(r5)
  12e8b0:	defffb04 	addi	sp,sp,-20
  12e8b4:	dcc00315 	stw	r19,12(sp)
  12e8b8:	dc400115 	stw	r17,4(sp)
  12e8bc:	dfc00415 	stw	ra,16(sp)
  12e8c0:	dc800215 	stw	r18,8(sp)
  12e8c4:	dc000015 	stw	r16,0(sp)
  12e8c8:	10c0020c 	andi	r3,r2,8
  12e8cc:	2823883a 	mov	r17,r5
  12e8d0:	2027883a 	mov	r19,r4
  12e8d4:	1800311e 	bne	r3,zero,12e99c <__sflush_r+0xf0>
  12e8d8:	28c00117 	ldw	r3,4(r5)
  12e8dc:	10820014 	ori	r2,r2,2048
  12e8e0:	2880030d 	sth	r2,12(r5)
  12e8e4:	00c04b0e 	bge	zero,r3,12ea14 <__sflush_r+0x168>
  12e8e8:	8a000a17 	ldw	r8,40(r17)
  12e8ec:	40002326 	beq	r8,zero,12e97c <__sflush_r+0xd0>
  12e8f0:	9c000017 	ldw	r16,0(r19)
  12e8f4:	10c4000c 	andi	r3,r2,4096
  12e8f8:	98000015 	stw	zero,0(r19)
  12e8fc:	18004826 	beq	r3,zero,12ea20 <__sflush_r+0x174>
  12e900:	89801417 	ldw	r6,80(r17)
  12e904:	10c0010c 	andi	r3,r2,4
  12e908:	18000626 	beq	r3,zero,12e924 <__sflush_r+0x78>
  12e90c:	88c00117 	ldw	r3,4(r17)
  12e910:	88800c17 	ldw	r2,48(r17)
  12e914:	30cdc83a 	sub	r6,r6,r3
  12e918:	10000226 	beq	r2,zero,12e924 <__sflush_r+0x78>
  12e91c:	88800f17 	ldw	r2,60(r17)
  12e920:	308dc83a 	sub	r6,r6,r2
  12e924:	89400717 	ldw	r5,28(r17)
  12e928:	000f883a 	mov	r7,zero
  12e92c:	9809883a 	mov	r4,r19
  12e930:	403ee83a 	callr	r8
  12e934:	00ffffc4 	movi	r3,-1
  12e938:	10c04426 	beq	r2,r3,12ea4c <__sflush_r+0x1a0>
  12e93c:	88c0030b 	ldhu	r3,12(r17)
  12e940:	89000417 	ldw	r4,16(r17)
  12e944:	88000115 	stw	zero,4(r17)
  12e948:	197dffcc 	andi	r5,r3,63487
  12e94c:	8940030d 	sth	r5,12(r17)
  12e950:	89000015 	stw	r4,0(r17)
  12e954:	18c4000c 	andi	r3,r3,4096
  12e958:	18002c1e 	bne	r3,zero,12ea0c <__sflush_r+0x160>
  12e95c:	89400c17 	ldw	r5,48(r17)
  12e960:	9c000015 	stw	r16,0(r19)
  12e964:	28000526 	beq	r5,zero,12e97c <__sflush_r+0xd0>
  12e968:	88801004 	addi	r2,r17,64
  12e96c:	28800226 	beq	r5,r2,12e978 <__sflush_r+0xcc>
  12e970:	9809883a 	mov	r4,r19
  12e974:	012f0280 	call	12f028 <_free_r>
  12e978:	88000c15 	stw	zero,48(r17)
  12e97c:	0005883a 	mov	r2,zero
  12e980:	dfc00417 	ldw	ra,16(sp)
  12e984:	dcc00317 	ldw	r19,12(sp)
  12e988:	dc800217 	ldw	r18,8(sp)
  12e98c:	dc400117 	ldw	r17,4(sp)
  12e990:	dc000017 	ldw	r16,0(sp)
  12e994:	dec00504 	addi	sp,sp,20
  12e998:	f800283a 	ret
  12e99c:	2c800417 	ldw	r18,16(r5)
  12e9a0:	903ff626 	beq	r18,zero,12e97c <_gp+0xfffeb2a4>
  12e9a4:	2c000017 	ldw	r16,0(r5)
  12e9a8:	108000cc 	andi	r2,r2,3
  12e9ac:	2c800015 	stw	r18,0(r5)
  12e9b0:	84a1c83a 	sub	r16,r16,r18
  12e9b4:	1000131e 	bne	r2,zero,12ea04 <__sflush_r+0x158>
  12e9b8:	28800517 	ldw	r2,20(r5)
  12e9bc:	88800215 	stw	r2,8(r17)
  12e9c0:	04000316 	blt	zero,r16,12e9d0 <__sflush_r+0x124>
  12e9c4:	003fed06 	br	12e97c <_gp+0xfffeb2a4>
  12e9c8:	90a5883a 	add	r18,r18,r2
  12e9cc:	043feb0e 	bge	zero,r16,12e97c <_gp+0xfffeb2a4>
  12e9d0:	88800917 	ldw	r2,36(r17)
  12e9d4:	89400717 	ldw	r5,28(r17)
  12e9d8:	800f883a 	mov	r7,r16
  12e9dc:	900d883a 	mov	r6,r18
  12e9e0:	9809883a 	mov	r4,r19
  12e9e4:	103ee83a 	callr	r2
  12e9e8:	80a1c83a 	sub	r16,r16,r2
  12e9ec:	00bff616 	blt	zero,r2,12e9c8 <_gp+0xfffeb2f0>
  12e9f0:	88c0030b 	ldhu	r3,12(r17)
  12e9f4:	00bfffc4 	movi	r2,-1
  12e9f8:	18c01014 	ori	r3,r3,64
  12e9fc:	88c0030d 	sth	r3,12(r17)
  12ea00:	003fdf06 	br	12e980 <_gp+0xfffeb2a8>
  12ea04:	0005883a 	mov	r2,zero
  12ea08:	003fec06 	br	12e9bc <_gp+0xfffeb2e4>
  12ea0c:	88801415 	stw	r2,80(r17)
  12ea10:	003fd206 	br	12e95c <_gp+0xfffeb284>
  12ea14:	28c00f17 	ldw	r3,60(r5)
  12ea18:	00ffb316 	blt	zero,r3,12e8e8 <_gp+0xfffeb210>
  12ea1c:	003fd706 	br	12e97c <_gp+0xfffeb2a4>
  12ea20:	89400717 	ldw	r5,28(r17)
  12ea24:	000d883a 	mov	r6,zero
  12ea28:	01c00044 	movi	r7,1
  12ea2c:	9809883a 	mov	r4,r19
  12ea30:	403ee83a 	callr	r8
  12ea34:	100d883a 	mov	r6,r2
  12ea38:	00bfffc4 	movi	r2,-1
  12ea3c:	30801426 	beq	r6,r2,12ea90 <__sflush_r+0x1e4>
  12ea40:	8880030b 	ldhu	r2,12(r17)
  12ea44:	8a000a17 	ldw	r8,40(r17)
  12ea48:	003fae06 	br	12e904 <_gp+0xfffeb22c>
  12ea4c:	98c00017 	ldw	r3,0(r19)
  12ea50:	183fba26 	beq	r3,zero,12e93c <_gp+0xfffeb264>
  12ea54:	01000744 	movi	r4,29
  12ea58:	19000626 	beq	r3,r4,12ea74 <__sflush_r+0x1c8>
  12ea5c:	01000584 	movi	r4,22
  12ea60:	19000426 	beq	r3,r4,12ea74 <__sflush_r+0x1c8>
  12ea64:	88c0030b 	ldhu	r3,12(r17)
  12ea68:	18c01014 	ori	r3,r3,64
  12ea6c:	88c0030d 	sth	r3,12(r17)
  12ea70:	003fc306 	br	12e980 <_gp+0xfffeb2a8>
  12ea74:	8880030b 	ldhu	r2,12(r17)
  12ea78:	88c00417 	ldw	r3,16(r17)
  12ea7c:	88000115 	stw	zero,4(r17)
  12ea80:	10bdffcc 	andi	r2,r2,63487
  12ea84:	8880030d 	sth	r2,12(r17)
  12ea88:	88c00015 	stw	r3,0(r17)
  12ea8c:	003fb306 	br	12e95c <_gp+0xfffeb284>
  12ea90:	98800017 	ldw	r2,0(r19)
  12ea94:	103fea26 	beq	r2,zero,12ea40 <_gp+0xfffeb368>
  12ea98:	00c00744 	movi	r3,29
  12ea9c:	10c00226 	beq	r2,r3,12eaa8 <__sflush_r+0x1fc>
  12eaa0:	00c00584 	movi	r3,22
  12eaa4:	10c0031e 	bne	r2,r3,12eab4 <__sflush_r+0x208>
  12eaa8:	9c000015 	stw	r16,0(r19)
  12eaac:	0005883a 	mov	r2,zero
  12eab0:	003fb306 	br	12e980 <_gp+0xfffeb2a8>
  12eab4:	88c0030b 	ldhu	r3,12(r17)
  12eab8:	3005883a 	mov	r2,r6
  12eabc:	18c01014 	ori	r3,r3,64
  12eac0:	88c0030d 	sth	r3,12(r17)
  12eac4:	003fae06 	br	12e980 <_gp+0xfffeb2a8>

0012eac8 <_fflush_r>:
  12eac8:	defffd04 	addi	sp,sp,-12
  12eacc:	dc000115 	stw	r16,4(sp)
  12ead0:	dfc00215 	stw	ra,8(sp)
  12ead4:	2021883a 	mov	r16,r4
  12ead8:	20000226 	beq	r4,zero,12eae4 <_fflush_r+0x1c>
  12eadc:	20800e17 	ldw	r2,56(r4)
  12eae0:	10000c26 	beq	r2,zero,12eb14 <_fflush_r+0x4c>
  12eae4:	2880030f 	ldh	r2,12(r5)
  12eae8:	1000051e 	bne	r2,zero,12eb00 <_fflush_r+0x38>
  12eaec:	0005883a 	mov	r2,zero
  12eaf0:	dfc00217 	ldw	ra,8(sp)
  12eaf4:	dc000117 	ldw	r16,4(sp)
  12eaf8:	dec00304 	addi	sp,sp,12
  12eafc:	f800283a 	ret
  12eb00:	8009883a 	mov	r4,r16
  12eb04:	dfc00217 	ldw	ra,8(sp)
  12eb08:	dc000117 	ldw	r16,4(sp)
  12eb0c:	dec00304 	addi	sp,sp,12
  12eb10:	012e8ac1 	jmpi	12e8ac <__sflush_r>
  12eb14:	d9400015 	stw	r5,0(sp)
  12eb18:	012eeb40 	call	12eeb4 <__sinit>
  12eb1c:	d9400017 	ldw	r5,0(sp)
  12eb20:	003ff006 	br	12eae4 <_gp+0xfffeb40c>

0012eb24 <fflush>:
  12eb24:	20000526 	beq	r4,zero,12eb3c <fflush+0x18>
  12eb28:	00800534 	movhi	r2,20
  12eb2c:	10adba04 	addi	r2,r2,-18712
  12eb30:	200b883a 	mov	r5,r4
  12eb34:	11000017 	ldw	r4,0(r2)
  12eb38:	012eac81 	jmpi	12eac8 <_fflush_r>
  12eb3c:	00800534 	movhi	r2,20
  12eb40:	10adb904 	addi	r2,r2,-18716
  12eb44:	11000017 	ldw	r4,0(r2)
  12eb48:	014004f4 	movhi	r5,19
  12eb4c:	297ab204 	addi	r5,r5,-5432
  12eb50:	012f3fc1 	jmpi	12f3fc <_fwalk_reent>

0012eb54 <__fp_unlock>:
  12eb54:	0005883a 	mov	r2,zero
  12eb58:	f800283a 	ret

0012eb5c <_cleanup_r>:
  12eb5c:	014004f4 	movhi	r5,19
  12eb60:	2941ff04 	addi	r5,r5,2044
  12eb64:	012f3fc1 	jmpi	12f3fc <_fwalk_reent>

0012eb68 <__sinit.part.1>:
  12eb68:	defff704 	addi	sp,sp,-36
  12eb6c:	00c004f4 	movhi	r3,19
  12eb70:	dfc00815 	stw	ra,32(sp)
  12eb74:	ddc00715 	stw	r23,28(sp)
  12eb78:	dd800615 	stw	r22,24(sp)
  12eb7c:	dd400515 	stw	r21,20(sp)
  12eb80:	dd000415 	stw	r20,16(sp)
  12eb84:	dcc00315 	stw	r19,12(sp)
  12eb88:	dc800215 	stw	r18,8(sp)
  12eb8c:	dc400115 	stw	r17,4(sp)
  12eb90:	dc000015 	stw	r16,0(sp)
  12eb94:	18fad704 	addi	r3,r3,-5284
  12eb98:	24000117 	ldw	r16,4(r4)
  12eb9c:	20c00f15 	stw	r3,60(r4)
  12eba0:	2080bb04 	addi	r2,r4,748
  12eba4:	00c000c4 	movi	r3,3
  12eba8:	20c0b915 	stw	r3,740(r4)
  12ebac:	2080ba15 	stw	r2,744(r4)
  12ebb0:	2000b815 	stw	zero,736(r4)
  12ebb4:	05c00204 	movi	r23,8
  12ebb8:	00800104 	movi	r2,4
  12ebbc:	2025883a 	mov	r18,r4
  12ebc0:	b80d883a 	mov	r6,r23
  12ebc4:	81001704 	addi	r4,r16,92
  12ebc8:	000b883a 	mov	r5,zero
  12ebcc:	80000015 	stw	zero,0(r16)
  12ebd0:	80000115 	stw	zero,4(r16)
  12ebd4:	80000215 	stw	zero,8(r16)
  12ebd8:	8080030d 	sth	r2,12(r16)
  12ebdc:	80001915 	stw	zero,100(r16)
  12ebe0:	8000038d 	sth	zero,14(r16)
  12ebe4:	80000415 	stw	zero,16(r16)
  12ebe8:	80000515 	stw	zero,20(r16)
  12ebec:	80000615 	stw	zero,24(r16)
  12ebf0:	01214d80 	call	1214d8 <memset>
  12ebf4:	058004b4 	movhi	r22,18
  12ebf8:	94400217 	ldw	r17,8(r18)
  12ebfc:	054004b4 	movhi	r21,18
  12ec00:	050004b4 	movhi	r20,18
  12ec04:	04c004b4 	movhi	r19,18
  12ec08:	b585ee04 	addi	r22,r22,6072
  12ec0c:	ad460504 	addi	r21,r21,6164
  12ec10:	a5062404 	addi	r20,r20,6288
  12ec14:	9cc63b04 	addi	r19,r19,6380
  12ec18:	85800815 	stw	r22,32(r16)
  12ec1c:	85400915 	stw	r21,36(r16)
  12ec20:	85000a15 	stw	r20,40(r16)
  12ec24:	84c00b15 	stw	r19,44(r16)
  12ec28:	84000715 	stw	r16,28(r16)
  12ec2c:	00800284 	movi	r2,10
  12ec30:	8880030d 	sth	r2,12(r17)
  12ec34:	00800044 	movi	r2,1
  12ec38:	b80d883a 	mov	r6,r23
  12ec3c:	89001704 	addi	r4,r17,92
  12ec40:	000b883a 	mov	r5,zero
  12ec44:	88000015 	stw	zero,0(r17)
  12ec48:	88000115 	stw	zero,4(r17)
  12ec4c:	88000215 	stw	zero,8(r17)
  12ec50:	88001915 	stw	zero,100(r17)
  12ec54:	8880038d 	sth	r2,14(r17)
  12ec58:	88000415 	stw	zero,16(r17)
  12ec5c:	88000515 	stw	zero,20(r17)
  12ec60:	88000615 	stw	zero,24(r17)
  12ec64:	01214d80 	call	1214d8 <memset>
  12ec68:	94000317 	ldw	r16,12(r18)
  12ec6c:	00800484 	movi	r2,18
  12ec70:	8c400715 	stw	r17,28(r17)
  12ec74:	8d800815 	stw	r22,32(r17)
  12ec78:	8d400915 	stw	r21,36(r17)
  12ec7c:	8d000a15 	stw	r20,40(r17)
  12ec80:	8cc00b15 	stw	r19,44(r17)
  12ec84:	8080030d 	sth	r2,12(r16)
  12ec88:	00800084 	movi	r2,2
  12ec8c:	80000015 	stw	zero,0(r16)
  12ec90:	80000115 	stw	zero,4(r16)
  12ec94:	80000215 	stw	zero,8(r16)
  12ec98:	80001915 	stw	zero,100(r16)
  12ec9c:	8080038d 	sth	r2,14(r16)
  12eca0:	80000415 	stw	zero,16(r16)
  12eca4:	80000515 	stw	zero,20(r16)
  12eca8:	80000615 	stw	zero,24(r16)
  12ecac:	b80d883a 	mov	r6,r23
  12ecb0:	000b883a 	mov	r5,zero
  12ecb4:	81001704 	addi	r4,r16,92
  12ecb8:	01214d80 	call	1214d8 <memset>
  12ecbc:	00800044 	movi	r2,1
  12ecc0:	84000715 	stw	r16,28(r16)
  12ecc4:	85800815 	stw	r22,32(r16)
  12ecc8:	85400915 	stw	r21,36(r16)
  12eccc:	85000a15 	stw	r20,40(r16)
  12ecd0:	84c00b15 	stw	r19,44(r16)
  12ecd4:	90800e15 	stw	r2,56(r18)
  12ecd8:	dfc00817 	ldw	ra,32(sp)
  12ecdc:	ddc00717 	ldw	r23,28(sp)
  12ece0:	dd800617 	ldw	r22,24(sp)
  12ece4:	dd400517 	ldw	r21,20(sp)
  12ece8:	dd000417 	ldw	r20,16(sp)
  12ecec:	dcc00317 	ldw	r19,12(sp)
  12ecf0:	dc800217 	ldw	r18,8(sp)
  12ecf4:	dc400117 	ldw	r17,4(sp)
  12ecf8:	dc000017 	ldw	r16,0(sp)
  12ecfc:	dec00904 	addi	sp,sp,36
  12ed00:	f800283a 	ret

0012ed04 <__fp_lock>:
  12ed04:	0005883a 	mov	r2,zero
  12ed08:	f800283a 	ret

0012ed0c <__sfmoreglue>:
  12ed0c:	defffc04 	addi	sp,sp,-16
  12ed10:	dc800215 	stw	r18,8(sp)
  12ed14:	2825883a 	mov	r18,r5
  12ed18:	dc000015 	stw	r16,0(sp)
  12ed1c:	01401a04 	movi	r5,104
  12ed20:	2021883a 	mov	r16,r4
  12ed24:	913fffc4 	addi	r4,r18,-1
  12ed28:	dfc00315 	stw	ra,12(sp)
  12ed2c:	dc400115 	stw	r17,4(sp)
  12ed30:	01213680 	call	121368 <__mulsi3>
  12ed34:	8009883a 	mov	r4,r16
  12ed38:	11401d04 	addi	r5,r2,116
  12ed3c:	1023883a 	mov	r17,r2
  12ed40:	01279080 	call	127908 <_malloc_r>
  12ed44:	1021883a 	mov	r16,r2
  12ed48:	10000726 	beq	r2,zero,12ed68 <__sfmoreglue+0x5c>
  12ed4c:	11000304 	addi	r4,r2,12
  12ed50:	10000015 	stw	zero,0(r2)
  12ed54:	14800115 	stw	r18,4(r2)
  12ed58:	11000215 	stw	r4,8(r2)
  12ed5c:	89801a04 	addi	r6,r17,104
  12ed60:	000b883a 	mov	r5,zero
  12ed64:	01214d80 	call	1214d8 <memset>
  12ed68:	8005883a 	mov	r2,r16
  12ed6c:	dfc00317 	ldw	ra,12(sp)
  12ed70:	dc800217 	ldw	r18,8(sp)
  12ed74:	dc400117 	ldw	r17,4(sp)
  12ed78:	dc000017 	ldw	r16,0(sp)
  12ed7c:	dec00404 	addi	sp,sp,16
  12ed80:	f800283a 	ret

0012ed84 <__sfp>:
  12ed84:	defffb04 	addi	sp,sp,-20
  12ed88:	dc000015 	stw	r16,0(sp)
  12ed8c:	04000534 	movhi	r16,20
  12ed90:	842db904 	addi	r16,r16,-18716
  12ed94:	dcc00315 	stw	r19,12(sp)
  12ed98:	2027883a 	mov	r19,r4
  12ed9c:	81000017 	ldw	r4,0(r16)
  12eda0:	dfc00415 	stw	ra,16(sp)
  12eda4:	dc800215 	stw	r18,8(sp)
  12eda8:	20800e17 	ldw	r2,56(r4)
  12edac:	dc400115 	stw	r17,4(sp)
  12edb0:	1000021e 	bne	r2,zero,12edbc <__sfp+0x38>
  12edb4:	012eb680 	call	12eb68 <__sinit.part.1>
  12edb8:	81000017 	ldw	r4,0(r16)
  12edbc:	2480b804 	addi	r18,r4,736
  12edc0:	047fffc4 	movi	r17,-1
  12edc4:	91000117 	ldw	r4,4(r18)
  12edc8:	94000217 	ldw	r16,8(r18)
  12edcc:	213fffc4 	addi	r4,r4,-1
  12edd0:	20000a16 	blt	r4,zero,12edfc <__sfp+0x78>
  12edd4:	8080030f 	ldh	r2,12(r16)
  12edd8:	10000c26 	beq	r2,zero,12ee0c <__sfp+0x88>
  12eddc:	80c01d04 	addi	r3,r16,116
  12ede0:	00000206 	br	12edec <__sfp+0x68>
  12ede4:	18bfe60f 	ldh	r2,-104(r3)
  12ede8:	10000826 	beq	r2,zero,12ee0c <__sfp+0x88>
  12edec:	213fffc4 	addi	r4,r4,-1
  12edf0:	1c3ffd04 	addi	r16,r3,-12
  12edf4:	18c01a04 	addi	r3,r3,104
  12edf8:	247ffa1e 	bne	r4,r17,12ede4 <_gp+0xfffeb70c>
  12edfc:	90800017 	ldw	r2,0(r18)
  12ee00:	10001d26 	beq	r2,zero,12ee78 <__sfp+0xf4>
  12ee04:	1025883a 	mov	r18,r2
  12ee08:	003fee06 	br	12edc4 <_gp+0xfffeb6ec>
  12ee0c:	00bfffc4 	movi	r2,-1
  12ee10:	8080038d 	sth	r2,14(r16)
  12ee14:	00800044 	movi	r2,1
  12ee18:	8080030d 	sth	r2,12(r16)
  12ee1c:	80001915 	stw	zero,100(r16)
  12ee20:	80000015 	stw	zero,0(r16)
  12ee24:	80000215 	stw	zero,8(r16)
  12ee28:	80000115 	stw	zero,4(r16)
  12ee2c:	80000415 	stw	zero,16(r16)
  12ee30:	80000515 	stw	zero,20(r16)
  12ee34:	80000615 	stw	zero,24(r16)
  12ee38:	01800204 	movi	r6,8
  12ee3c:	000b883a 	mov	r5,zero
  12ee40:	81001704 	addi	r4,r16,92
  12ee44:	01214d80 	call	1214d8 <memset>
  12ee48:	8005883a 	mov	r2,r16
  12ee4c:	80000c15 	stw	zero,48(r16)
  12ee50:	80000d15 	stw	zero,52(r16)
  12ee54:	80001115 	stw	zero,68(r16)
  12ee58:	80001215 	stw	zero,72(r16)
  12ee5c:	dfc00417 	ldw	ra,16(sp)
  12ee60:	dcc00317 	ldw	r19,12(sp)
  12ee64:	dc800217 	ldw	r18,8(sp)
  12ee68:	dc400117 	ldw	r17,4(sp)
  12ee6c:	dc000017 	ldw	r16,0(sp)
  12ee70:	dec00504 	addi	sp,sp,20
  12ee74:	f800283a 	ret
  12ee78:	01400104 	movi	r5,4
  12ee7c:	9809883a 	mov	r4,r19
  12ee80:	012ed0c0 	call	12ed0c <__sfmoreglue>
  12ee84:	90800015 	stw	r2,0(r18)
  12ee88:	103fde1e 	bne	r2,zero,12ee04 <_gp+0xfffeb72c>
  12ee8c:	00800304 	movi	r2,12
  12ee90:	98800015 	stw	r2,0(r19)
  12ee94:	0005883a 	mov	r2,zero
  12ee98:	003ff006 	br	12ee5c <_gp+0xfffeb784>

0012ee9c <_cleanup>:
  12ee9c:	00800534 	movhi	r2,20
  12eea0:	10adb904 	addi	r2,r2,-18716
  12eea4:	11000017 	ldw	r4,0(r2)
  12eea8:	014004f4 	movhi	r5,19
  12eeac:	2941ff04 	addi	r5,r5,2044
  12eeb0:	012f3fc1 	jmpi	12f3fc <_fwalk_reent>

0012eeb4 <__sinit>:
  12eeb4:	20800e17 	ldw	r2,56(r4)
  12eeb8:	10000126 	beq	r2,zero,12eec0 <__sinit+0xc>
  12eebc:	f800283a 	ret
  12eec0:	012eb681 	jmpi	12eb68 <__sinit.part.1>

0012eec4 <__sfp_lock_acquire>:
  12eec4:	f800283a 	ret

0012eec8 <__sfp_lock_release>:
  12eec8:	f800283a 	ret

0012eecc <__sinit_lock_acquire>:
  12eecc:	f800283a 	ret

0012eed0 <__sinit_lock_release>:
  12eed0:	f800283a 	ret

0012eed4 <__fp_lock_all>:
  12eed4:	00800534 	movhi	r2,20
  12eed8:	10adba04 	addi	r2,r2,-18712
  12eedc:	11000017 	ldw	r4,0(r2)
  12eee0:	014004f4 	movhi	r5,19
  12eee4:	297b4104 	addi	r5,r5,-4860
  12eee8:	012f3381 	jmpi	12f338 <_fwalk>

0012eeec <__fp_unlock_all>:
  12eeec:	00800534 	movhi	r2,20
  12eef0:	10adba04 	addi	r2,r2,-18712
  12eef4:	11000017 	ldw	r4,0(r2)
  12eef8:	014004f4 	movhi	r5,19
  12eefc:	297ad504 	addi	r5,r5,-5292
  12ef00:	012f3381 	jmpi	12f338 <_fwalk>

0012ef04 <_malloc_trim_r>:
  12ef04:	defffb04 	addi	sp,sp,-20
  12ef08:	dcc00315 	stw	r19,12(sp)
  12ef0c:	04c00534 	movhi	r19,20
  12ef10:	dc800215 	stw	r18,8(sp)
  12ef14:	dc400115 	stw	r17,4(sp)
  12ef18:	dc000015 	stw	r16,0(sp)
  12ef1c:	dfc00415 	stw	ra,16(sp)
  12ef20:	2821883a 	mov	r16,r5
  12ef24:	9ce7b604 	addi	r19,r19,-24872
  12ef28:	2025883a 	mov	r18,r4
  12ef2c:	01347c80 	call	1347c8 <__malloc_lock>
  12ef30:	98800217 	ldw	r2,8(r19)
  12ef34:	14400117 	ldw	r17,4(r2)
  12ef38:	00bfff04 	movi	r2,-4
  12ef3c:	88a2703a 	and	r17,r17,r2
  12ef40:	8c21c83a 	sub	r16,r17,r16
  12ef44:	8403fbc4 	addi	r16,r16,4079
  12ef48:	8020d33a 	srli	r16,r16,12
  12ef4c:	0083ffc4 	movi	r2,4095
  12ef50:	843fffc4 	addi	r16,r16,-1
  12ef54:	8020933a 	slli	r16,r16,12
  12ef58:	1400060e 	bge	r2,r16,12ef74 <_malloc_trim_r+0x70>
  12ef5c:	000b883a 	mov	r5,zero
  12ef60:	9009883a 	mov	r4,r18
  12ef64:	01296240 	call	129624 <_sbrk_r>
  12ef68:	98c00217 	ldw	r3,8(r19)
  12ef6c:	1c47883a 	add	r3,r3,r17
  12ef70:	10c00a26 	beq	r2,r3,12ef9c <_malloc_trim_r+0x98>
  12ef74:	9009883a 	mov	r4,r18
  12ef78:	01347ec0 	call	1347ec <__malloc_unlock>
  12ef7c:	0005883a 	mov	r2,zero
  12ef80:	dfc00417 	ldw	ra,16(sp)
  12ef84:	dcc00317 	ldw	r19,12(sp)
  12ef88:	dc800217 	ldw	r18,8(sp)
  12ef8c:	dc400117 	ldw	r17,4(sp)
  12ef90:	dc000017 	ldw	r16,0(sp)
  12ef94:	dec00504 	addi	sp,sp,20
  12ef98:	f800283a 	ret
  12ef9c:	040bc83a 	sub	r5,zero,r16
  12efa0:	9009883a 	mov	r4,r18
  12efa4:	01296240 	call	129624 <_sbrk_r>
  12efa8:	00ffffc4 	movi	r3,-1
  12efac:	10c00d26 	beq	r2,r3,12efe4 <_malloc_trim_r+0xe0>
  12efb0:	00c00534 	movhi	r3,20
  12efb4:	18f51c04 	addi	r3,r3,-11152
  12efb8:	18800017 	ldw	r2,0(r3)
  12efbc:	99000217 	ldw	r4,8(r19)
  12efc0:	8c23c83a 	sub	r17,r17,r16
  12efc4:	8c400054 	ori	r17,r17,1
  12efc8:	1421c83a 	sub	r16,r2,r16
  12efcc:	24400115 	stw	r17,4(r4)
  12efd0:	9009883a 	mov	r4,r18
  12efd4:	1c000015 	stw	r16,0(r3)
  12efd8:	01347ec0 	call	1347ec <__malloc_unlock>
  12efdc:	00800044 	movi	r2,1
  12efe0:	003fe706 	br	12ef80 <_gp+0xfffeb8a8>
  12efe4:	000b883a 	mov	r5,zero
  12efe8:	9009883a 	mov	r4,r18
  12efec:	01296240 	call	129624 <_sbrk_r>
  12eff0:	99000217 	ldw	r4,8(r19)
  12eff4:	014003c4 	movi	r5,15
  12eff8:	1107c83a 	sub	r3,r2,r4
  12effc:	28ffdd0e 	bge	r5,r3,12ef74 <_gp+0xfffeb89c>
  12f000:	01400534 	movhi	r5,20
  12f004:	296dbc04 	addi	r5,r5,-18704
  12f008:	29400017 	ldw	r5,0(r5)
  12f00c:	18c00054 	ori	r3,r3,1
  12f010:	20c00115 	stw	r3,4(r4)
  12f014:	00c00534 	movhi	r3,20
  12f018:	1145c83a 	sub	r2,r2,r5
  12f01c:	18f51c04 	addi	r3,r3,-11152
  12f020:	18800015 	stw	r2,0(r3)
  12f024:	003fd306 	br	12ef74 <_gp+0xfffeb89c>

0012f028 <_free_r>:
  12f028:	28004126 	beq	r5,zero,12f130 <_free_r+0x108>
  12f02c:	defffd04 	addi	sp,sp,-12
  12f030:	dc400115 	stw	r17,4(sp)
  12f034:	dc000015 	stw	r16,0(sp)
  12f038:	2023883a 	mov	r17,r4
  12f03c:	2821883a 	mov	r16,r5
  12f040:	dfc00215 	stw	ra,8(sp)
  12f044:	01347c80 	call	1347c8 <__malloc_lock>
  12f048:	81ffff17 	ldw	r7,-4(r16)
  12f04c:	00bfff84 	movi	r2,-2
  12f050:	01000534 	movhi	r4,20
  12f054:	81bffe04 	addi	r6,r16,-8
  12f058:	3884703a 	and	r2,r7,r2
  12f05c:	2127b604 	addi	r4,r4,-24872
  12f060:	308b883a 	add	r5,r6,r2
  12f064:	2a400117 	ldw	r9,4(r5)
  12f068:	22000217 	ldw	r8,8(r4)
  12f06c:	00ffff04 	movi	r3,-4
  12f070:	48c6703a 	and	r3,r9,r3
  12f074:	2a005726 	beq	r5,r8,12f1d4 <_free_r+0x1ac>
  12f078:	28c00115 	stw	r3,4(r5)
  12f07c:	39c0004c 	andi	r7,r7,1
  12f080:	3800091e 	bne	r7,zero,12f0a8 <_free_r+0x80>
  12f084:	823ffe17 	ldw	r8,-8(r16)
  12f088:	22400204 	addi	r9,r4,8
  12f08c:	320dc83a 	sub	r6,r6,r8
  12f090:	31c00217 	ldw	r7,8(r6)
  12f094:	1205883a 	add	r2,r2,r8
  12f098:	3a406526 	beq	r7,r9,12f230 <_free_r+0x208>
  12f09c:	32000317 	ldw	r8,12(r6)
  12f0a0:	3a000315 	stw	r8,12(r7)
  12f0a4:	41c00215 	stw	r7,8(r8)
  12f0a8:	28cf883a 	add	r7,r5,r3
  12f0ac:	39c00117 	ldw	r7,4(r7)
  12f0b0:	39c0004c 	andi	r7,r7,1
  12f0b4:	38003a26 	beq	r7,zero,12f1a0 <_free_r+0x178>
  12f0b8:	10c00054 	ori	r3,r2,1
  12f0bc:	30c00115 	stw	r3,4(r6)
  12f0c0:	3087883a 	add	r3,r6,r2
  12f0c4:	18800015 	stw	r2,0(r3)
  12f0c8:	00c07fc4 	movi	r3,511
  12f0cc:	18801936 	bltu	r3,r2,12f134 <_free_r+0x10c>
  12f0d0:	1004d0fa 	srli	r2,r2,3
  12f0d4:	01c00044 	movi	r7,1
  12f0d8:	21400117 	ldw	r5,4(r4)
  12f0dc:	10c00044 	addi	r3,r2,1
  12f0e0:	18c7883a 	add	r3,r3,r3
  12f0e4:	1005d0ba 	srai	r2,r2,2
  12f0e8:	18c7883a 	add	r3,r3,r3
  12f0ec:	18c7883a 	add	r3,r3,r3
  12f0f0:	1907883a 	add	r3,r3,r4
  12f0f4:	3884983a 	sll	r2,r7,r2
  12f0f8:	19c00017 	ldw	r7,0(r3)
  12f0fc:	1a3ffe04 	addi	r8,r3,-8
  12f100:	1144b03a 	or	r2,r2,r5
  12f104:	32000315 	stw	r8,12(r6)
  12f108:	31c00215 	stw	r7,8(r6)
  12f10c:	20800115 	stw	r2,4(r4)
  12f110:	19800015 	stw	r6,0(r3)
  12f114:	39800315 	stw	r6,12(r7)
  12f118:	8809883a 	mov	r4,r17
  12f11c:	dfc00217 	ldw	ra,8(sp)
  12f120:	dc400117 	ldw	r17,4(sp)
  12f124:	dc000017 	ldw	r16,0(sp)
  12f128:	dec00304 	addi	sp,sp,12
  12f12c:	01347ec1 	jmpi	1347ec <__malloc_unlock>
  12f130:	f800283a 	ret
  12f134:	100ad27a 	srli	r5,r2,9
  12f138:	00c00104 	movi	r3,4
  12f13c:	19404a36 	bltu	r3,r5,12f268 <_free_r+0x240>
  12f140:	100ad1ba 	srli	r5,r2,6
  12f144:	28c00e44 	addi	r3,r5,57
  12f148:	18c7883a 	add	r3,r3,r3
  12f14c:	29400e04 	addi	r5,r5,56
  12f150:	18c7883a 	add	r3,r3,r3
  12f154:	18c7883a 	add	r3,r3,r3
  12f158:	1909883a 	add	r4,r3,r4
  12f15c:	20c00017 	ldw	r3,0(r4)
  12f160:	01c00534 	movhi	r7,20
  12f164:	213ffe04 	addi	r4,r4,-8
  12f168:	39e7b604 	addi	r7,r7,-24872
  12f16c:	20c04426 	beq	r4,r3,12f280 <_free_r+0x258>
  12f170:	01ffff04 	movi	r7,-4
  12f174:	19400117 	ldw	r5,4(r3)
  12f178:	29ca703a 	and	r5,r5,r7
  12f17c:	1140022e 	bgeu	r2,r5,12f188 <_free_r+0x160>
  12f180:	18c00217 	ldw	r3,8(r3)
  12f184:	20fffb1e 	bne	r4,r3,12f174 <_gp+0xfffeba9c>
  12f188:	19000317 	ldw	r4,12(r3)
  12f18c:	31000315 	stw	r4,12(r6)
  12f190:	30c00215 	stw	r3,8(r6)
  12f194:	21800215 	stw	r6,8(r4)
  12f198:	19800315 	stw	r6,12(r3)
  12f19c:	003fde06 	br	12f118 <_gp+0xfffeba40>
  12f1a0:	29c00217 	ldw	r7,8(r5)
  12f1a4:	10c5883a 	add	r2,r2,r3
  12f1a8:	00c00534 	movhi	r3,20
  12f1ac:	18e7b804 	addi	r3,r3,-24864
  12f1b0:	38c03b26 	beq	r7,r3,12f2a0 <_free_r+0x278>
  12f1b4:	2a000317 	ldw	r8,12(r5)
  12f1b8:	11400054 	ori	r5,r2,1
  12f1bc:	3087883a 	add	r3,r6,r2
  12f1c0:	3a000315 	stw	r8,12(r7)
  12f1c4:	41c00215 	stw	r7,8(r8)
  12f1c8:	31400115 	stw	r5,4(r6)
  12f1cc:	18800015 	stw	r2,0(r3)
  12f1d0:	003fbd06 	br	12f0c8 <_gp+0xfffeb9f0>
  12f1d4:	39c0004c 	andi	r7,r7,1
  12f1d8:	10c5883a 	add	r2,r2,r3
  12f1dc:	3800071e 	bne	r7,zero,12f1fc <_free_r+0x1d4>
  12f1e0:	81fffe17 	ldw	r7,-8(r16)
  12f1e4:	31cdc83a 	sub	r6,r6,r7
  12f1e8:	30c00317 	ldw	r3,12(r6)
  12f1ec:	31400217 	ldw	r5,8(r6)
  12f1f0:	11c5883a 	add	r2,r2,r7
  12f1f4:	28c00315 	stw	r3,12(r5)
  12f1f8:	19400215 	stw	r5,8(r3)
  12f1fc:	10c00054 	ori	r3,r2,1
  12f200:	30c00115 	stw	r3,4(r6)
  12f204:	00c00534 	movhi	r3,20
  12f208:	18edbd04 	addi	r3,r3,-18700
  12f20c:	18c00017 	ldw	r3,0(r3)
  12f210:	21800215 	stw	r6,8(r4)
  12f214:	10ffc036 	bltu	r2,r3,12f118 <_gp+0xfffeba40>
  12f218:	00800534 	movhi	r2,20
  12f21c:	10b51404 	addi	r2,r2,-11184
  12f220:	11400017 	ldw	r5,0(r2)
  12f224:	8809883a 	mov	r4,r17
  12f228:	012ef040 	call	12ef04 <_malloc_trim_r>
  12f22c:	003fba06 	br	12f118 <_gp+0xfffeba40>
  12f230:	28c9883a 	add	r4,r5,r3
  12f234:	21000117 	ldw	r4,4(r4)
  12f238:	2100004c 	andi	r4,r4,1
  12f23c:	2000391e 	bne	r4,zero,12f324 <_free_r+0x2fc>
  12f240:	29c00217 	ldw	r7,8(r5)
  12f244:	29000317 	ldw	r4,12(r5)
  12f248:	1885883a 	add	r2,r3,r2
  12f24c:	10c00054 	ori	r3,r2,1
  12f250:	39000315 	stw	r4,12(r7)
  12f254:	21c00215 	stw	r7,8(r4)
  12f258:	30c00115 	stw	r3,4(r6)
  12f25c:	308d883a 	add	r6,r6,r2
  12f260:	30800015 	stw	r2,0(r6)
  12f264:	003fac06 	br	12f118 <_gp+0xfffeba40>
  12f268:	00c00504 	movi	r3,20
  12f26c:	19401536 	bltu	r3,r5,12f2c4 <_free_r+0x29c>
  12f270:	28c01704 	addi	r3,r5,92
  12f274:	18c7883a 	add	r3,r3,r3
  12f278:	294016c4 	addi	r5,r5,91
  12f27c:	003fb406 	br	12f150 <_gp+0xfffeba78>
  12f280:	280bd0ba 	srai	r5,r5,2
  12f284:	00c00044 	movi	r3,1
  12f288:	38800117 	ldw	r2,4(r7)
  12f28c:	194a983a 	sll	r5,r3,r5
  12f290:	2007883a 	mov	r3,r4
  12f294:	2884b03a 	or	r2,r5,r2
  12f298:	38800115 	stw	r2,4(r7)
  12f29c:	003fbb06 	br	12f18c <_gp+0xfffebab4>
  12f2a0:	21800515 	stw	r6,20(r4)
  12f2a4:	21800415 	stw	r6,16(r4)
  12f2a8:	10c00054 	ori	r3,r2,1
  12f2ac:	31c00315 	stw	r7,12(r6)
  12f2b0:	31c00215 	stw	r7,8(r6)
  12f2b4:	30c00115 	stw	r3,4(r6)
  12f2b8:	308d883a 	add	r6,r6,r2
  12f2bc:	30800015 	stw	r2,0(r6)
  12f2c0:	003f9506 	br	12f118 <_gp+0xfffeba40>
  12f2c4:	00c01504 	movi	r3,84
  12f2c8:	19400536 	bltu	r3,r5,12f2e0 <_free_r+0x2b8>
  12f2cc:	100ad33a 	srli	r5,r2,12
  12f2d0:	28c01bc4 	addi	r3,r5,111
  12f2d4:	18c7883a 	add	r3,r3,r3
  12f2d8:	29401b84 	addi	r5,r5,110
  12f2dc:	003f9c06 	br	12f150 <_gp+0xfffeba78>
  12f2e0:	00c05504 	movi	r3,340
  12f2e4:	19400536 	bltu	r3,r5,12f2fc <_free_r+0x2d4>
  12f2e8:	100ad3fa 	srli	r5,r2,15
  12f2ec:	28c01e04 	addi	r3,r5,120
  12f2f0:	18c7883a 	add	r3,r3,r3
  12f2f4:	29401dc4 	addi	r5,r5,119
  12f2f8:	003f9506 	br	12f150 <_gp+0xfffeba78>
  12f2fc:	00c15504 	movi	r3,1364
  12f300:	19400536 	bltu	r3,r5,12f318 <_free_r+0x2f0>
  12f304:	100ad4ba 	srli	r5,r2,18
  12f308:	28c01f44 	addi	r3,r5,125
  12f30c:	18c7883a 	add	r3,r3,r3
  12f310:	29401f04 	addi	r5,r5,124
  12f314:	003f8e06 	br	12f150 <_gp+0xfffeba78>
  12f318:	00c03f84 	movi	r3,254
  12f31c:	01401f84 	movi	r5,126
  12f320:	003f8b06 	br	12f150 <_gp+0xfffeba78>
  12f324:	10c00054 	ori	r3,r2,1
  12f328:	30c00115 	stw	r3,4(r6)
  12f32c:	308d883a 	add	r6,r6,r2
  12f330:	30800015 	stw	r2,0(r6)
  12f334:	003f7806 	br	12f118 <_gp+0xfffeba40>

0012f338 <_fwalk>:
  12f338:	defff704 	addi	sp,sp,-36
  12f33c:	dd000415 	stw	r20,16(sp)
  12f340:	dfc00815 	stw	ra,32(sp)
  12f344:	ddc00715 	stw	r23,28(sp)
  12f348:	dd800615 	stw	r22,24(sp)
  12f34c:	dd400515 	stw	r21,20(sp)
  12f350:	dcc00315 	stw	r19,12(sp)
  12f354:	dc800215 	stw	r18,8(sp)
  12f358:	dc400115 	stw	r17,4(sp)
  12f35c:	dc000015 	stw	r16,0(sp)
  12f360:	2500b804 	addi	r20,r4,736
  12f364:	a0002326 	beq	r20,zero,12f3f4 <_fwalk+0xbc>
  12f368:	282b883a 	mov	r21,r5
  12f36c:	002f883a 	mov	r23,zero
  12f370:	05800044 	movi	r22,1
  12f374:	04ffffc4 	movi	r19,-1
  12f378:	a4400117 	ldw	r17,4(r20)
  12f37c:	a4800217 	ldw	r18,8(r20)
  12f380:	8c7fffc4 	addi	r17,r17,-1
  12f384:	88000d16 	blt	r17,zero,12f3bc <_fwalk+0x84>
  12f388:	94000304 	addi	r16,r18,12
  12f38c:	94800384 	addi	r18,r18,14
  12f390:	8080000b 	ldhu	r2,0(r16)
  12f394:	8c7fffc4 	addi	r17,r17,-1
  12f398:	813ffd04 	addi	r4,r16,-12
  12f39c:	b080042e 	bgeu	r22,r2,12f3b0 <_fwalk+0x78>
  12f3a0:	9080000f 	ldh	r2,0(r18)
  12f3a4:	14c00226 	beq	r2,r19,12f3b0 <_fwalk+0x78>
  12f3a8:	a83ee83a 	callr	r21
  12f3ac:	b8aeb03a 	or	r23,r23,r2
  12f3b0:	84001a04 	addi	r16,r16,104
  12f3b4:	94801a04 	addi	r18,r18,104
  12f3b8:	8cfff51e 	bne	r17,r19,12f390 <_gp+0xfffebcb8>
  12f3bc:	a5000017 	ldw	r20,0(r20)
  12f3c0:	a03fed1e 	bne	r20,zero,12f378 <_gp+0xfffebca0>
  12f3c4:	b805883a 	mov	r2,r23
  12f3c8:	dfc00817 	ldw	ra,32(sp)
  12f3cc:	ddc00717 	ldw	r23,28(sp)
  12f3d0:	dd800617 	ldw	r22,24(sp)
  12f3d4:	dd400517 	ldw	r21,20(sp)
  12f3d8:	dd000417 	ldw	r20,16(sp)
  12f3dc:	dcc00317 	ldw	r19,12(sp)
  12f3e0:	dc800217 	ldw	r18,8(sp)
  12f3e4:	dc400117 	ldw	r17,4(sp)
  12f3e8:	dc000017 	ldw	r16,0(sp)
  12f3ec:	dec00904 	addi	sp,sp,36
  12f3f0:	f800283a 	ret
  12f3f4:	002f883a 	mov	r23,zero
  12f3f8:	003ff206 	br	12f3c4 <_gp+0xfffebcec>

0012f3fc <_fwalk_reent>:
  12f3fc:	defff704 	addi	sp,sp,-36
  12f400:	dd000415 	stw	r20,16(sp)
  12f404:	dfc00815 	stw	ra,32(sp)
  12f408:	ddc00715 	stw	r23,28(sp)
  12f40c:	dd800615 	stw	r22,24(sp)
  12f410:	dd400515 	stw	r21,20(sp)
  12f414:	dcc00315 	stw	r19,12(sp)
  12f418:	dc800215 	stw	r18,8(sp)
  12f41c:	dc400115 	stw	r17,4(sp)
  12f420:	dc000015 	stw	r16,0(sp)
  12f424:	2500b804 	addi	r20,r4,736
  12f428:	a0002326 	beq	r20,zero,12f4b8 <_fwalk_reent+0xbc>
  12f42c:	282b883a 	mov	r21,r5
  12f430:	2027883a 	mov	r19,r4
  12f434:	002f883a 	mov	r23,zero
  12f438:	05800044 	movi	r22,1
  12f43c:	04bfffc4 	movi	r18,-1
  12f440:	a4400117 	ldw	r17,4(r20)
  12f444:	a4000217 	ldw	r16,8(r20)
  12f448:	8c7fffc4 	addi	r17,r17,-1
  12f44c:	88000c16 	blt	r17,zero,12f480 <_fwalk_reent+0x84>
  12f450:	84000304 	addi	r16,r16,12
  12f454:	8080000b 	ldhu	r2,0(r16)
  12f458:	8c7fffc4 	addi	r17,r17,-1
  12f45c:	817ffd04 	addi	r5,r16,-12
  12f460:	b080052e 	bgeu	r22,r2,12f478 <_fwalk_reent+0x7c>
  12f464:	8080008f 	ldh	r2,2(r16)
  12f468:	9809883a 	mov	r4,r19
  12f46c:	14800226 	beq	r2,r18,12f478 <_fwalk_reent+0x7c>
  12f470:	a83ee83a 	callr	r21
  12f474:	b8aeb03a 	or	r23,r23,r2
  12f478:	84001a04 	addi	r16,r16,104
  12f47c:	8cbff51e 	bne	r17,r18,12f454 <_gp+0xfffebd7c>
  12f480:	a5000017 	ldw	r20,0(r20)
  12f484:	a03fee1e 	bne	r20,zero,12f440 <_gp+0xfffebd68>
  12f488:	b805883a 	mov	r2,r23
  12f48c:	dfc00817 	ldw	ra,32(sp)
  12f490:	ddc00717 	ldw	r23,28(sp)
  12f494:	dd800617 	ldw	r22,24(sp)
  12f498:	dd400517 	ldw	r21,20(sp)
  12f49c:	dd000417 	ldw	r20,16(sp)
  12f4a0:	dcc00317 	ldw	r19,12(sp)
  12f4a4:	dc800217 	ldw	r18,8(sp)
  12f4a8:	dc400117 	ldw	r17,4(sp)
  12f4ac:	dc000017 	ldw	r16,0(sp)
  12f4b0:	dec00904 	addi	sp,sp,36
  12f4b4:	f800283a 	ret
  12f4b8:	002f883a 	mov	r23,zero
  12f4bc:	003ff206 	br	12f488 <_gp+0xfffebdb0>

0012f4c0 <rshift>:
  12f4c0:	2807d17a 	srai	r3,r5,5
  12f4c4:	20800417 	ldw	r2,16(r4)
  12f4c8:	22000504 	addi	r8,r4,20
  12f4cc:	1880250e 	bge	r3,r2,12f564 <rshift+0xa4>
  12f4d0:	1085883a 	add	r2,r2,r2
  12f4d4:	18c7883a 	add	r3,r3,r3
  12f4d8:	1085883a 	add	r2,r2,r2
  12f4dc:	18c7883a 	add	r3,r3,r3
  12f4e0:	294007cc 	andi	r5,r5,31
  12f4e4:	4085883a 	add	r2,r8,r2
  12f4e8:	40c7883a 	add	r3,r8,r3
  12f4ec:	28002026 	beq	r5,zero,12f570 <rshift+0xb0>
  12f4f0:	19800017 	ldw	r6,0(r3)
  12f4f4:	02c00804 	movi	r11,32
  12f4f8:	19c00104 	addi	r7,r3,4
  12f4fc:	5957c83a 	sub	r11,r11,r5
  12f500:	314cd83a 	srl	r6,r6,r5
  12f504:	38802c2e 	bgeu	r7,r2,12f5b8 <rshift+0xf8>
  12f508:	4015883a 	mov	r10,r8
  12f50c:	3a400017 	ldw	r9,0(r7)
  12f510:	52800104 	addi	r10,r10,4
  12f514:	39c00104 	addi	r7,r7,4
  12f518:	4ad2983a 	sll	r9,r9,r11
  12f51c:	498cb03a 	or	r6,r9,r6
  12f520:	51bfff15 	stw	r6,-4(r10)
  12f524:	39bfff17 	ldw	r6,-4(r7)
  12f528:	314cd83a 	srl	r6,r6,r5
  12f52c:	38bff736 	bltu	r7,r2,12f50c <_gp+0xfffebe34>
  12f530:	10c7c83a 	sub	r3,r2,r3
  12f534:	18fffec4 	addi	r3,r3,-5
  12f538:	1806d0ba 	srli	r3,r3,2
  12f53c:	18c00044 	addi	r3,r3,1
  12f540:	18c7883a 	add	r3,r3,r3
  12f544:	18c7883a 	add	r3,r3,r3
  12f548:	40c7883a 	add	r3,r8,r3
  12f54c:	19800015 	stw	r6,0(r3)
  12f550:	30000126 	beq	r6,zero,12f558 <rshift+0x98>
  12f554:	18c00104 	addi	r3,r3,4
  12f558:	1a05c83a 	sub	r2,r3,r8
  12f55c:	1005d0ba 	srai	r2,r2,2
  12f560:	00001206 	br	12f5ac <rshift+0xec>
  12f564:	20000415 	stw	zero,16(r4)
  12f568:	20000515 	stw	zero,20(r4)
  12f56c:	f800283a 	ret
  12f570:	18bffc2e 	bgeu	r3,r2,12f564 <_gp+0xfffebe8c>
  12f574:	180d883a 	mov	r6,r3
  12f578:	400b883a 	mov	r5,r8
  12f57c:	31c00017 	ldw	r7,0(r6)
  12f580:	29400104 	addi	r5,r5,4
  12f584:	31800104 	addi	r6,r6,4
  12f588:	29ffff15 	stw	r7,-4(r5)
  12f58c:	30bffb36 	bltu	r6,r2,12f57c <_gp+0xfffebea4>
  12f590:	00c6303a 	nor	r3,zero,r3
  12f594:	1885883a 	add	r2,r3,r2
  12f598:	1004d0ba 	srli	r2,r2,2
  12f59c:	10800044 	addi	r2,r2,1
  12f5a0:	1085883a 	add	r2,r2,r2
  12f5a4:	1085883a 	add	r2,r2,r2
  12f5a8:	1005d0ba 	srai	r2,r2,2
  12f5ac:	20800415 	stw	r2,16(r4)
  12f5b0:	103fed26 	beq	r2,zero,12f568 <_gp+0xfffebe90>
  12f5b4:	f800283a 	ret
  12f5b8:	4007883a 	mov	r3,r8
  12f5bc:	003fe306 	br	12f54c <_gp+0xfffebe74>

0012f5c0 <__gethex>:
  12f5c0:	deffea04 	addi	sp,sp,-88
  12f5c4:	d9c00415 	stw	r7,16(sp)
  12f5c8:	dfc01515 	stw	ra,84(sp)
  12f5cc:	dd001015 	stw	r20,64(sp)
  12f5d0:	dcc00f15 	stw	r19,60(sp)
  12f5d4:	2829883a 	mov	r20,r5
  12f5d8:	dc800e15 	stw	r18,56(sp)
  12f5dc:	d9000215 	stw	r4,8(sp)
  12f5e0:	d9800115 	stw	r6,4(sp)
  12f5e4:	df001415 	stw	fp,80(sp)
  12f5e8:	ddc01315 	stw	r23,76(sp)
  12f5ec:	dd801215 	stw	r22,72(sp)
  12f5f0:	dd401115 	stw	r21,68(sp)
  12f5f4:	dc400d15 	stw	r17,52(sp)
  12f5f8:	dc000c15 	stw	r16,48(sp)
  12f5fc:	01278780 	call	127878 <_localeconv_r>
  12f600:	14800017 	ldw	r18,0(r2)
  12f604:	9009883a 	mov	r4,r18
  12f608:	01218f40 	call	1218f4 <strlen>
  12f60c:	a1c00017 	ldw	r7,0(r20)
  12f610:	1027883a 	mov	r19,r2
  12f614:	9085883a 	add	r2,r18,r2
  12f618:	10bfffc3 	ldbu	r2,-1(r2)
  12f61c:	38c00083 	ldbu	r3,2(r7)
  12f620:	d8800305 	stb	r2,12(sp)
  12f624:	00800c04 	movi	r2,48
  12f628:	18815a1e 	bne	r3,r2,12fb94 <__gethex+0x5d4>
  12f62c:	013fff84 	movi	r4,-2
  12f630:	388000c4 	addi	r2,r7,3
  12f634:	21c9c83a 	sub	r4,r4,r7
  12f638:	180b883a 	mov	r5,r3
  12f63c:	20b9883a 	add	fp,r4,r2
  12f640:	102f883a 	mov	r23,r2
  12f644:	10800044 	addi	r2,r2,1
  12f648:	10ffffc3 	ldbu	r3,-1(r2)
  12f64c:	197ffb26 	beq	r3,r5,12f63c <_gp+0xfffebf64>
  12f650:	05800534 	movhi	r22,20
  12f654:	b5a5f484 	addi	r22,r22,-26670
  12f658:	b0c7883a 	add	r3,r22,r3
  12f65c:	18800003 	ldbu	r2,0(r3)
  12f660:	10008726 	beq	r2,zero,12f880 <__gethex+0x2c0>
  12f664:	b8800003 	ldbu	r2,0(r23)
  12f668:	d8000015 	stw	zero,0(sp)
  12f66c:	0021883a 	mov	r16,zero
  12f670:	b085883a 	add	r2,r22,r2
  12f674:	10800003 	ldbu	r2,0(r2)
  12f678:	b823883a 	mov	r17,r23
  12f67c:	10000526 	beq	r2,zero,12f694 <__gethex+0xd4>
  12f680:	8c400044 	addi	r17,r17,1
  12f684:	88800003 	ldbu	r2,0(r17)
  12f688:	b085883a 	add	r2,r22,r2
  12f68c:	10800003 	ldbu	r2,0(r2)
  12f690:	103ffb1e 	bne	r2,zero,12f680 <_gp+0xfffebfa8>
  12f694:	980d883a 	mov	r6,r19
  12f698:	900b883a 	mov	r5,r18
  12f69c:	8809883a 	mov	r4,r17
  12f6a0:	013072c0 	call	13072c <strncmp>
  12f6a4:	1000031e 	bne	r2,zero,12f6b4 <__gethex+0xf4>
  12f6a8:	80015c26 	beq	r16,zero,12fc1c <__gethex+0x65c>
  12f6ac:	88800003 	ldbu	r2,0(r17)
  12f6b0:	00000206 	br	12f6bc <__gethex+0xfc>
  12f6b4:	88800003 	ldbu	r2,0(r17)
  12f6b8:	80012926 	beq	r16,zero,12fb60 <__gethex+0x5a0>
  12f6bc:	8c21c83a 	sub	r16,r17,r16
  12f6c0:	8421883a 	add	r16,r16,r16
  12f6c4:	8421883a 	add	r16,r16,r16
  12f6c8:	0421c83a 	sub	r16,zero,r16
  12f6cc:	10803fcc 	andi	r2,r2,255
  12f6d0:	01001404 	movi	r4,80
  12f6d4:	11008826 	beq	r2,r4,12f8f8 <__gethex+0x338>
  12f6d8:	01001c04 	movi	r4,112
  12f6dc:	11008626 	beq	r2,r4,12f8f8 <__gethex+0x338>
  12f6e0:	882b883a 	mov	r21,r17
  12f6e4:	d8c00017 	ldw	r3,0(sp)
  12f6e8:	a4400015 	stw	r17,0(r20)
  12f6ec:	1800711e 	bne	r3,zero,12f8b4 <__gethex+0x2f4>
  12f6f0:	adc5c83a 	sub	r2,r21,r23
  12f6f4:	10bfffc4 	addi	r2,r2,-1
  12f6f8:	00c001c4 	movi	r3,7
  12f6fc:	000b883a 	mov	r5,zero
  12f700:	1880030e 	bge	r3,r2,12f710 <__gethex+0x150>
  12f704:	1005d07a 	srai	r2,r2,1
  12f708:	29400044 	addi	r5,r5,1
  12f70c:	18bffd16 	blt	r3,r2,12f704 <_gp+0xfffec02c>
  12f710:	d9000217 	ldw	r4,8(sp)
  12f714:	01284980 	call	128498 <_Balloc>
  12f718:	10c00504 	addi	r3,r2,20
  12f71c:	d8c00015 	stw	r3,0(sp)
  12f720:	1029883a 	mov	r20,r2
  12f724:	bd417c2e 	bgeu	r23,r21,12fd18 <__gethex+0x758>
  12f728:	dc400303 	ldbu	r17,12(sp)
  12f72c:	03000044 	movi	r12,1
  12f730:	1813883a 	mov	r9,r3
  12f734:	0039883a 	mov	fp,zero
  12f738:	0007883a 	mov	r3,zero
  12f73c:	64d9c83a 	sub	r12,r12,r19
  12f740:	02800804 	movi	r10,32
  12f744:	a8bfffc3 	ldbu	r2,-1(r21)
  12f748:	ab7fffc4 	addi	r13,r21,-1
  12f74c:	88803026 	beq	r17,r2,12f810 <__gethex+0x250>
  12f750:	e2804526 	beq	fp,r10,12f868 <__gethex+0x2a8>
  12f754:	e00b883a 	mov	r5,fp
  12f758:	e7000104 	addi	fp,fp,4
  12f75c:	a93fffc3 	ldbu	r4,-1(r21)
  12f760:	682b883a 	mov	r21,r13
  12f764:	b109883a 	add	r4,r22,r4
  12f768:	20800003 	ldbu	r2,0(r4)
  12f76c:	108003cc 	andi	r2,r2,15
  12f770:	1144983a 	sll	r2,r2,r5
  12f774:	1886b03a 	or	r3,r3,r2
  12f778:	bd7ff236 	bltu	r23,r21,12f744 <_gp+0xfffec06c>
  12f77c:	d9000017 	ldw	r4,0(sp)
  12f780:	48800104 	addi	r2,r9,4
  12f784:	48c00015 	stw	r3,0(r9)
  12f788:	1105c83a 	sub	r2,r2,r4
  12f78c:	1005d0ba 	srai	r2,r2,2
  12f790:	1809883a 	mov	r4,r3
  12f794:	a0800415 	stw	r2,16(r20)
  12f798:	1022917a 	slli	r17,r2,5
  12f79c:	01287b40 	call	1287b4 <__hi0bits>
  12f7a0:	d8c00117 	ldw	r3,4(sp)
  12f7a4:	8885c83a 	sub	r2,r17,r2
  12f7a8:	1c800017 	ldw	r18,0(r3)
  12f7ac:	9080d016 	blt	r18,r2,12faf0 <__gethex+0x530>
  12f7b0:	1480ed16 	blt	r2,r18,12fb68 <__gethex+0x5a8>
  12f7b4:	0027883a 	mov	r19,zero
  12f7b8:	d8c00117 	ldw	r3,4(sp)
  12f7bc:	18800217 	ldw	r2,8(r3)
  12f7c0:	14009416 	blt	r2,r16,12fa14 <__gethex+0x454>
  12f7c4:	d8c00117 	ldw	r3,4(sp)
  12f7c8:	18800117 	ldw	r2,4(r3)
  12f7cc:	8080b30e 	bge	r16,r2,12fa9c <__gethex+0x4dc>
  12f7d0:	1421c83a 	sub	r16,r2,r16
  12f7d4:	8480f616 	blt	r16,r18,12fbb0 <__gethex+0x5f0>
  12f7d8:	18c00317 	ldw	r3,12(r3)
  12f7dc:	01000084 	movi	r4,2
  12f7e0:	19015226 	beq	r3,r4,12fd2c <__gethex+0x76c>
  12f7e4:	010000c4 	movi	r4,3
  12f7e8:	19013726 	beq	r3,r4,12fcc8 <__gethex+0x708>
  12f7ec:	01000044 	movi	r4,1
  12f7f0:	19015126 	beq	r3,r4,12fd38 <__gethex+0x778>
  12f7f4:	d9000217 	ldw	r4,8(sp)
  12f7f8:	a00b883a 	mov	r5,r20
  12f7fc:	01285400 	call	128540 <_Bfree>
  12f800:	d8801617 	ldw	r2,88(sp)
  12f804:	10000015 	stw	zero,0(r2)
  12f808:	00801404 	movi	r2,80
  12f80c:	00002b06 	br	12f8bc <__gethex+0x2fc>
  12f810:	6b1d883a 	add	r14,r13,r12
  12f814:	75ffce36 	bltu	r14,r23,12f750 <_gp+0xfffec078>
  12f818:	7009883a 	mov	r4,r14
  12f81c:	980d883a 	mov	r6,r19
  12f820:	900b883a 	mov	r5,r18
  12f824:	d8c00715 	stw	r3,28(sp)
  12f828:	da400615 	stw	r9,24(sp)
  12f82c:	da800b15 	stw	r10,44(sp)
  12f830:	db000a15 	stw	r12,40(sp)
  12f834:	db400815 	stw	r13,32(sp)
  12f838:	db800915 	stw	r14,36(sp)
  12f83c:	013072c0 	call	13072c <strncmp>
  12f840:	d8c00717 	ldw	r3,28(sp)
  12f844:	da400617 	ldw	r9,24(sp)
  12f848:	da800b17 	ldw	r10,44(sp)
  12f84c:	db000a17 	ldw	r12,40(sp)
  12f850:	db400817 	ldw	r13,32(sp)
  12f854:	db800917 	ldw	r14,36(sp)
  12f858:	103fbd1e 	bne	r2,zero,12f750 <_gp+0xfffec078>
  12f85c:	702b883a 	mov	r21,r14
  12f860:	bd7fb836 	bltu	r23,r21,12f744 <_gp+0xfffec06c>
  12f864:	003fc506 	br	12f77c <_gp+0xfffec0a4>
  12f868:	07000104 	movi	fp,4
  12f86c:	48c00015 	stw	r3,0(r9)
  12f870:	000b883a 	mov	r5,zero
  12f874:	4f13883a 	add	r9,r9,fp
  12f878:	0007883a 	mov	r3,zero
  12f87c:	003fb706 	br	12f75c <_gp+0xfffec084>
  12f880:	980d883a 	mov	r6,r19
  12f884:	900b883a 	mov	r5,r18
  12f888:	b809883a 	mov	r4,r23
  12f88c:	013072c0 	call	13072c <strncmp>
  12f890:	10006c26 	beq	r2,zero,12fa44 <__gethex+0x484>
  12f894:	b8800003 	ldbu	r2,0(r23)
  12f898:	b823883a 	mov	r17,r23
  12f89c:	10803fcc 	andi	r2,r2,255
  12f8a0:	01001404 	movi	r4,80
  12f8a4:	11001126 	beq	r2,r4,12f8ec <__gethex+0x32c>
  12f8a8:	01001c04 	movi	r4,112
  12f8ac:	11000f26 	beq	r2,r4,12f8ec <__gethex+0x32c>
  12f8b0:	a4400015 	stw	r17,0(r20)
  12f8b4:	e0008c1e 	bne	fp,zero,12fae8 <__gethex+0x528>
  12f8b8:	00800184 	movi	r2,6
  12f8bc:	dfc01517 	ldw	ra,84(sp)
  12f8c0:	df001417 	ldw	fp,80(sp)
  12f8c4:	ddc01317 	ldw	r23,76(sp)
  12f8c8:	dd801217 	ldw	r22,72(sp)
  12f8cc:	dd401117 	ldw	r21,68(sp)
  12f8d0:	dd001017 	ldw	r20,64(sp)
  12f8d4:	dcc00f17 	ldw	r19,60(sp)
  12f8d8:	dc800e17 	ldw	r18,56(sp)
  12f8dc:	dc400d17 	ldw	r17,52(sp)
  12f8e0:	dc000c17 	ldw	r16,48(sp)
  12f8e4:	dec01604 	addi	sp,sp,88
  12f8e8:	f800283a 	ret
  12f8ec:	00c00044 	movi	r3,1
  12f8f0:	0021883a 	mov	r16,zero
  12f8f4:	d8c00015 	stw	r3,0(sp)
  12f8f8:	88800043 	ldbu	r2,1(r17)
  12f8fc:	01400ac4 	movi	r5,43
  12f900:	11003fcc 	andi	r4,r2,255
  12f904:	21407626 	beq	r4,r5,12fae0 <__gethex+0x520>
  12f908:	01400b44 	movi	r5,45
  12f90c:	21404826 	beq	r4,r5,12fa30 <__gethex+0x470>
  12f910:	8ac00044 	addi	r11,r17,1
  12f914:	d8000515 	stw	zero,20(sp)
  12f918:	10803fcc 	andi	r2,r2,255
  12f91c:	b085883a 	add	r2,r22,r2
  12f920:	11000003 	ldbu	r4,0(r2)
  12f924:	05400604 	movi	r21,24
  12f928:	20bfffc4 	addi	r2,r4,-1
  12f92c:	10803fcc 	andi	r2,r2,255
  12f930:	a8bf6b36 	bltu	r21,r2,12f6e0 <_gp+0xfffec008>
  12f934:	58800043 	ldbu	r2,1(r11)
  12f938:	01400534 	movhi	r5,20
  12f93c:	2965f484 	addi	r5,r5,-26670
  12f940:	2885883a 	add	r2,r5,r2
  12f944:	12800003 	ldbu	r10,0(r2)
  12f948:	21003fcc 	andi	r4,r4,255
  12f94c:	213ffc04 	addi	r4,r4,-16
  12f950:	50bfffc4 	addi	r2,r10,-1
  12f954:	10803fcc 	andi	r2,r2,255
  12f958:	5ac00044 	addi	r11,r11,1
  12f95c:	51803fcc 	andi	r6,r10,255
  12f960:	a8801036 	bltu	r21,r2,12f9a4 <__gethex+0x3e4>
  12f964:	5ac00044 	addi	r11,r11,1
  12f968:	01400284 	movi	r5,10
  12f96c:	d9800715 	stw	r6,28(sp)
  12f970:	dac00615 	stw	r11,24(sp)
  12f974:	01213680 	call	121368 <__mulsi3>
  12f978:	dac00617 	ldw	r11,24(sp)
  12f97c:	d9800717 	ldw	r6,28(sp)
  12f980:	5a800003 	ldbu	r10,0(r11)
  12f984:	1185883a 	add	r2,r2,r6
  12f988:	113ffc04 	addi	r4,r2,-16
  12f98c:	b295883a 	add	r10,r22,r10
  12f990:	51400003 	ldbu	r5,0(r10)
  12f994:	2abfffc4 	addi	r10,r5,-1
  12f998:	52803fcc 	andi	r10,r10,255
  12f99c:	29803fcc 	andi	r6,r5,255
  12f9a0:	aabff02e 	bgeu	r21,r10,12f964 <_gp+0xfffec28c>
  12f9a4:	d8c00517 	ldw	r3,20(sp)
  12f9a8:	18000126 	beq	r3,zero,12f9b0 <__gethex+0x3f0>
  12f9ac:	0109c83a 	sub	r4,zero,r4
  12f9b0:	882b883a 	mov	r21,r17
  12f9b4:	8121883a 	add	r16,r16,r4
  12f9b8:	5823883a 	mov	r17,r11
  12f9bc:	003f4906 	br	12f6e4 <_gp+0xfffec00c>
  12f9c0:	a0800217 	ldw	r2,8(r20)
  12f9c4:	a880f20e 	bge	r21,r2,12fd90 <__gethex+0x7d0>
  12f9c8:	a807883a 	mov	r3,r21
  12f9cc:	18800144 	addi	r2,r3,5
  12f9d0:	1085883a 	add	r2,r2,r2
  12f9d4:	18c00044 	addi	r3,r3,1
  12f9d8:	1085883a 	add	r2,r2,r2
  12f9dc:	a085883a 	add	r2,r20,r2
  12f9e0:	a0c00415 	stw	r3,16(r20)
  12f9e4:	01000044 	movi	r4,1
  12f9e8:	11000015 	stw	r4,0(r2)
  12f9ec:	00800084 	movi	r2,2
  12f9f0:	8880da26 	beq	r17,r2,12fd5c <__gethex+0x79c>
  12f9f4:	a8c0ae0e 	bge	r21,r3,12fcb0 <__gethex+0x6f0>
  12f9f8:	01400044 	movi	r5,1
  12f9fc:	a009883a 	mov	r4,r20
  12fa00:	012f4c00 	call	12f4c0 <rshift>
  12fa04:	d8c00117 	ldw	r3,4(sp)
  12fa08:	84000044 	addi	r16,r16,1
  12fa0c:	18800217 	ldw	r2,8(r3)
  12fa10:	1400a90e 	bge	r2,r16,12fcb8 <__gethex+0x6f8>
  12fa14:	d9000217 	ldw	r4,8(sp)
  12fa18:	a00b883a 	mov	r5,r20
  12fa1c:	01285400 	call	128540 <_Bfree>
  12fa20:	d9001617 	ldw	r4,88(sp)
  12fa24:	008028c4 	movi	r2,163
  12fa28:	20000015 	stw	zero,0(r4)
  12fa2c:	003fa306 	br	12f8bc <_gp+0xfffec1e4>
  12fa30:	00c00044 	movi	r3,1
  12fa34:	d8c00515 	stw	r3,20(sp)
  12fa38:	88800083 	ldbu	r2,2(r17)
  12fa3c:	8ac00084 	addi	r11,r17,2
  12fa40:	003fb506 	br	12f918 <_gp+0xfffec240>
  12fa44:	bce3883a 	add	r17,r23,r19
  12fa48:	89000003 	ldbu	r4,0(r17)
  12fa4c:	21403fcc 	andi	r5,r4,255
  12fa50:	b145883a 	add	r2,r22,r5
  12fa54:	10800003 	ldbu	r2,0(r2)
  12fa58:	11803fcc 	andi	r6,r2,255
  12fa5c:	30005026 	beq	r6,zero,12fba0 <__gethex+0x5e0>
  12fa60:	01000c04 	movi	r4,48
  12fa64:	882f883a 	mov	r23,r17
  12fa68:	2900061e 	bne	r5,r4,12fa84 <__gethex+0x4c4>
  12fa6c:	2809883a 	mov	r4,r5
  12fa70:	bdc00044 	addi	r23,r23,1
  12fa74:	b8800003 	ldbu	r2,0(r23)
  12fa78:	113ffd26 	beq	r2,r4,12fa70 <_gp+0xfffec398>
  12fa7c:	b085883a 	add	r2,r22,r2
  12fa80:	10800003 	ldbu	r2,0(r2)
  12fa84:	10803fcc 	andi	r2,r2,255
  12fa88:	1007003a 	cmpeq	r3,r2,zero
  12fa8c:	d8c00015 	stw	r3,0(sp)
  12fa90:	8821883a 	mov	r16,r17
  12fa94:	07000044 	movi	fp,1
  12fa98:	003ef706 	br	12f678 <_gp+0xfffebfa0>
  12fa9c:	04400044 	movi	r17,1
  12faa0:	98000926 	beq	r19,zero,12fac8 <__gethex+0x508>
  12faa4:	d8c00117 	ldw	r3,4(sp)
  12faa8:	18800317 	ldw	r2,12(r3)
  12faac:	00c00084 	movi	r3,2
  12fab0:	10c06826 	beq	r2,r3,12fc54 <__gethex+0x694>
  12fab4:	00c000c4 	movi	r3,3
  12fab8:	10c06a26 	beq	r2,r3,12fc64 <__gethex+0x6a4>
  12fabc:	00c00044 	movi	r3,1
  12fac0:	10c08d26 	beq	r2,r3,12fcf8 <__gethex+0x738>
  12fac4:	8c400414 	ori	r17,r17,16
  12fac8:	d9001617 	ldw	r4,88(sp)
  12facc:	d8c00417 	ldw	r3,16(sp)
  12fad0:	8805883a 	mov	r2,r17
  12fad4:	25000015 	stw	r20,0(r4)
  12fad8:	1c000015 	stw	r16,0(r3)
  12fadc:	003f7706 	br	12f8bc <_gp+0xfffec1e4>
  12fae0:	d8000515 	stw	zero,20(sp)
  12fae4:	003fd406 	br	12fa38 <_gp+0xfffec360>
  12fae8:	0005883a 	mov	r2,zero
  12faec:	003f7306 	br	12f8bc <_gp+0xfffec1e4>
  12faf0:	14a3c83a 	sub	r17,r2,r18
  12faf4:	880b883a 	mov	r5,r17
  12faf8:	a009883a 	mov	r4,r20
  12fafc:	01294c40 	call	1294c4 <__any_on>
  12fb00:	10002926 	beq	r2,zero,12fba8 <__gethex+0x5e8>
  12fb04:	897fffc4 	addi	r5,r17,-1
  12fb08:	2807d17a 	srai	r3,r5,5
  12fb0c:	d8800017 	ldw	r2,0(sp)
  12fb10:	290007cc 	andi	r4,r5,31
  12fb14:	18c7883a 	add	r3,r3,r3
  12fb18:	18c7883a 	add	r3,r3,r3
  12fb1c:	04c00044 	movi	r19,1
  12fb20:	10c7883a 	add	r3,r2,r3
  12fb24:	9908983a 	sll	r4,r19,r4
  12fb28:	18c00017 	ldw	r3,0(r3)
  12fb2c:	20c6703a 	and	r3,r4,r3
  12fb30:	18000626 	beq	r3,zero,12fb4c <__gethex+0x58c>
  12fb34:	99407b0e 	bge	r19,r5,12fd24 <__gethex+0x764>
  12fb38:	897fff84 	addi	r5,r17,-2
  12fb3c:	a009883a 	mov	r4,r20
  12fb40:	01294c40 	call	1294c4 <__any_on>
  12fb44:	10007726 	beq	r2,zero,12fd24 <__gethex+0x764>
  12fb48:	04c000c4 	movi	r19,3
  12fb4c:	880b883a 	mov	r5,r17
  12fb50:	a009883a 	mov	r4,r20
  12fb54:	012f4c00 	call	12f4c0 <rshift>
  12fb58:	8461883a 	add	r16,r16,r17
  12fb5c:	003f1606 	br	12f7b8 <_gp+0xfffec0e0>
  12fb60:	0021883a 	mov	r16,zero
  12fb64:	003ed906 	br	12f6cc <_gp+0xfffebff4>
  12fb68:	d9000217 	ldw	r4,8(sp)
  12fb6c:	90a3c83a 	sub	r17,r18,r2
  12fb70:	a00b883a 	mov	r5,r20
  12fb74:	880d883a 	mov	r6,r17
  12fb78:	0128cd40 	call	128cd4 <__lshift>
  12fb7c:	10c00504 	addi	r3,r2,20
  12fb80:	1029883a 	mov	r20,r2
  12fb84:	8461c83a 	sub	r16,r16,r17
  12fb88:	d8c00015 	stw	r3,0(sp)
  12fb8c:	0027883a 	mov	r19,zero
  12fb90:	003f0906 	br	12f7b8 <_gp+0xfffec0e0>
  12fb94:	3dc00084 	addi	r23,r7,2
  12fb98:	0039883a 	mov	fp,zero
  12fb9c:	003eac06 	br	12f650 <_gp+0xfffebf78>
  12fba0:	2005883a 	mov	r2,r4
  12fba4:	003f3d06 	br	12f89c <_gp+0xfffec1c4>
  12fba8:	0027883a 	mov	r19,zero
  12fbac:	003fe706 	br	12fb4c <_gp+0xfffec474>
  12fbb0:	847fffc4 	addi	r17,r16,-1
  12fbb4:	9800421e 	bne	r19,zero,12fcc0 <__gethex+0x700>
  12fbb8:	88000426 	beq	r17,zero,12fbcc <__gethex+0x60c>
  12fbbc:	880b883a 	mov	r5,r17
  12fbc0:	a009883a 	mov	r4,r20
  12fbc4:	01294c40 	call	1294c4 <__any_on>
  12fbc8:	1027883a 	mov	r19,r2
  12fbcc:	8805d17a 	srai	r2,r17,5
  12fbd0:	d8c00017 	ldw	r3,0(sp)
  12fbd4:	8c4007cc 	andi	r17,r17,31
  12fbd8:	1085883a 	add	r2,r2,r2
  12fbdc:	1085883a 	add	r2,r2,r2
  12fbe0:	1885883a 	add	r2,r3,r2
  12fbe4:	00c00044 	movi	r3,1
  12fbe8:	1c62983a 	sll	r17,r3,r17
  12fbec:	10800017 	ldw	r2,0(r2)
  12fbf0:	8884703a 	and	r2,r17,r2
  12fbf4:	10000126 	beq	r2,zero,12fbfc <__gethex+0x63c>
  12fbf8:	9cc00094 	ori	r19,r19,2
  12fbfc:	800b883a 	mov	r5,r16
  12fc00:	a009883a 	mov	r4,r20
  12fc04:	012f4c00 	call	12f4c0 <rshift>
  12fc08:	d8c00117 	ldw	r3,4(sp)
  12fc0c:	9425c83a 	sub	r18,r18,r16
  12fc10:	04400084 	movi	r17,2
  12fc14:	1c000117 	ldw	r16,4(r3)
  12fc18:	003fa106 	br	12faa0 <_gp+0xfffec3c8>
  12fc1c:	8ce1883a 	add	r16,r17,r19
  12fc20:	80800003 	ldbu	r2,0(r16)
  12fc24:	8023883a 	mov	r17,r16
  12fc28:	10c03fcc 	andi	r3,r2,255
  12fc2c:	b0c7883a 	add	r3,r22,r3
  12fc30:	18c00003 	ldbu	r3,0(r3)
  12fc34:	183ea026 	beq	r3,zero,12f6b8 <_gp+0xfffebfe0>
  12fc38:	8c400044 	addi	r17,r17,1
  12fc3c:	88800003 	ldbu	r2,0(r17)
  12fc40:	11003fcc 	andi	r4,r2,255
  12fc44:	b109883a 	add	r4,r22,r4
  12fc48:	21000003 	ldbu	r4,0(r4)
  12fc4c:	203ffa1e 	bne	r4,zero,12fc38 <_gp+0xfffec560>
  12fc50:	003e9906 	br	12f6b8 <_gp+0xfffebfe0>
  12fc54:	d9001717 	ldw	r4,92(sp)
  12fc58:	00800044 	movi	r2,1
  12fc5c:	1109c83a 	sub	r4,r2,r4
  12fc60:	d9001715 	stw	r4,92(sp)
  12fc64:	d8801717 	ldw	r2,92(sp)
  12fc68:	103f9626 	beq	r2,zero,12fac4 <_gp+0xfffec3ec>
  12fc6c:	a5400417 	ldw	r21,16(r20)
  12fc70:	d9800017 	ldw	r6,0(sp)
  12fc74:	013fffc4 	movi	r4,-1
  12fc78:	ad67883a 	add	r19,r21,r21
  12fc7c:	9ce7883a 	add	r19,r19,r19
  12fc80:	3005883a 	mov	r2,r6
  12fc84:	34cb883a 	add	r5,r6,r19
  12fc88:	00000306 	br	12fc98 <__gethex+0x6d8>
  12fc8c:	10000015 	stw	zero,0(r2)
  12fc90:	10800104 	addi	r2,r2,4
  12fc94:	117f4a2e 	bgeu	r2,r5,12f9c0 <_gp+0xfffec2e8>
  12fc98:	10c00017 	ldw	r3,0(r2)
  12fc9c:	193ffb26 	beq	r3,r4,12fc8c <_gp+0xfffec5b4>
  12fca0:	18c00044 	addi	r3,r3,1
  12fca4:	10c00015 	stw	r3,0(r2)
  12fca8:	00800084 	movi	r2,2
  12fcac:	88802b26 	beq	r17,r2,12fd5c <__gethex+0x79c>
  12fcb0:	948007cc 	andi	r18,r18,31
  12fcb4:	90002f1e 	bne	r18,zero,12fd74 <__gethex+0x7b4>
  12fcb8:	04400844 	movi	r17,33
  12fcbc:	003f8206 	br	12fac8 <_gp+0xfffec3f0>
  12fcc0:	04c00044 	movi	r19,1
  12fcc4:	003fc106 	br	12fbcc <_gp+0xfffec4f4>
  12fcc8:	d8c01717 	ldw	r3,92(sp)
  12fccc:	183ec926 	beq	r3,zero,12f7f4 <_gp+0xfffec11c>
  12fcd0:	d8c00417 	ldw	r3,16(sp)
  12fcd4:	d9001617 	ldw	r4,88(sp)
  12fcd8:	18800015 	stw	r2,0(r3)
  12fcdc:	d8c00017 	ldw	r3,0(sp)
  12fce0:	00800044 	movi	r2,1
  12fce4:	a0800415 	stw	r2,16(r20)
  12fce8:	18800015 	stw	r2,0(r3)
  12fcec:	25000015 	stw	r20,0(r4)
  12fcf0:	00801884 	movi	r2,98
  12fcf4:	003ef106 	br	12f8bc <_gp+0xfffec1e4>
  12fcf8:	9880008c 	andi	r2,r19,2
  12fcfc:	103f7126 	beq	r2,zero,12fac4 <_gp+0xfffec3ec>
  12fd00:	d8c00017 	ldw	r3,0(sp)
  12fd04:	18800017 	ldw	r2,0(r3)
  12fd08:	9884b03a 	or	r2,r19,r2
  12fd0c:	1080004c 	andi	r2,r2,1
  12fd10:	103fd61e 	bne	r2,zero,12fc6c <_gp+0xfffec594>
  12fd14:	003f6b06 	br	12fac4 <_gp+0xfffec3ec>
  12fd18:	da400017 	ldw	r9,0(sp)
  12fd1c:	0007883a 	mov	r3,zero
  12fd20:	003e9606 	br	12f77c <_gp+0xfffec0a4>
  12fd24:	04c00084 	movi	r19,2
  12fd28:	003f8806 	br	12fb4c <_gp+0xfffec474>
  12fd2c:	d9001717 	ldw	r4,92(sp)
  12fd30:	203fe726 	beq	r4,zero,12fcd0 <_gp+0xfffec5f8>
  12fd34:	003eaf06 	br	12f7f4 <_gp+0xfffec11c>
  12fd38:	943eae1e 	bne	r18,r16,12f7f4 <_gp+0xfffec11c>
  12fd3c:	1cbfe40e 	bge	r3,r18,12fcd0 <_gp+0xfffec5f8>
  12fd40:	917fffc4 	addi	r5,r18,-1
  12fd44:	a009883a 	mov	r4,r20
  12fd48:	01294c40 	call	1294c4 <__any_on>
  12fd4c:	103ea926 	beq	r2,zero,12f7f4 <_gp+0xfffec11c>
  12fd50:	d8c00117 	ldw	r3,4(sp)
  12fd54:	18800117 	ldw	r2,4(r3)
  12fd58:	003fdd06 	br	12fcd0 <_gp+0xfffec5f8>
  12fd5c:	d8c00117 	ldw	r3,4(sp)
  12fd60:	18800017 	ldw	r2,0(r3)
  12fd64:	10bfffc4 	addi	r2,r2,-1
  12fd68:	90801c26 	beq	r18,r2,12fddc <__gethex+0x81c>
  12fd6c:	04400884 	movi	r17,34
  12fd70:	003f5506 	br	12fac8 <_gp+0xfffec3f0>
  12fd74:	34c5883a 	add	r2,r6,r19
  12fd78:	113fff17 	ldw	r4,-4(r2)
  12fd7c:	01287b40 	call	1287b4 <__hi0bits>
  12fd80:	00c00804 	movi	r3,32
  12fd84:	1ca5c83a 	sub	r18,r3,r18
  12fd88:	14bfcb0e 	bge	r2,r18,12fcb8 <_gp+0xfffec5e0>
  12fd8c:	003f1a06 	br	12f9f8 <_gp+0xfffec320>
  12fd90:	a1400117 	ldw	r5,4(r20)
  12fd94:	d9000217 	ldw	r4,8(sp)
  12fd98:	29400044 	addi	r5,r5,1
  12fd9c:	01284980 	call	128498 <_Balloc>
  12fda0:	a1800417 	ldw	r6,16(r20)
  12fda4:	a1400304 	addi	r5,r20,12
  12fda8:	11000304 	addi	r4,r2,12
  12fdac:	31800084 	addi	r6,r6,2
  12fdb0:	318d883a 	add	r6,r6,r6
  12fdb4:	318d883a 	add	r6,r6,r6
  12fdb8:	102d883a 	mov	r22,r2
  12fdbc:	01213900 	call	121390 <memcpy>
  12fdc0:	d9000217 	ldw	r4,8(sp)
  12fdc4:	a00b883a 	mov	r5,r20
  12fdc8:	b029883a 	mov	r20,r22
  12fdcc:	01285400 	call	128540 <_Bfree>
  12fdd0:	b0c00417 	ldw	r3,16(r22)
  12fdd4:	b1800504 	addi	r6,r22,20
  12fdd8:	003efc06 	br	12f9cc <_gp+0xfffec2f4>
  12fddc:	9005d17a 	srai	r2,r18,5
  12fde0:	944007cc 	andi	r17,r18,31
  12fde4:	1085883a 	add	r2,r2,r2
  12fde8:	1085883a 	add	r2,r2,r2
  12fdec:	3087883a 	add	r3,r6,r2
  12fdf0:	00800044 	movi	r2,1
  12fdf4:	1462983a 	sll	r17,r2,r17
  12fdf8:	18800017 	ldw	r2,0(r3)
  12fdfc:	8884703a 	and	r2,r17,r2
  12fe00:	1022c03a 	cmpne	r17,r2,zero
  12fe04:	00800884 	movi	r2,34
  12fe08:	1463c83a 	sub	r17,r2,r17
  12fe0c:	003f2e06 	br	12fac8 <_gp+0xfffec3f0>

0012fe10 <__hexnan>:
  12fe10:	defff904 	addi	sp,sp,-28
  12fe14:	dc800215 	stw	r18,8(sp)
  12fe18:	2c800017 	ldw	r18,0(r5)
  12fe1c:	dfc00615 	stw	ra,24(sp)
  12fe20:	dd400515 	stw	r21,20(sp)
  12fe24:	901fd17a 	srai	r15,r18,5
  12fe28:	dd000415 	stw	r20,16(sp)
  12fe2c:	dcc00315 	stw	r19,12(sp)
  12fe30:	7bdf883a 	add	r15,r15,r15
  12fe34:	7bdf883a 	add	r15,r15,r15
  12fe38:	dc400115 	stw	r17,4(sp)
  12fe3c:	dc000015 	stw	r16,0(sp)
  12fe40:	948007cc 	andi	r18,r18,31
  12fe44:	33df883a 	add	r15,r6,r15
  12fe48:	90000126 	beq	r18,zero,12fe50 <__hexnan+0x40>
  12fe4c:	7bc00104 	addi	r15,r15,4
  12fe50:	22000017 	ldw	r8,0(r4)
  12fe54:	7affff04 	addi	r11,r15,-4
  12fe58:	03800534 	movhi	r14,20
  12fe5c:	783fff15 	stw	zero,-4(r15)
  12fe60:	581b883a 	mov	r13,r11
  12fe64:	580b883a 	mov	r5,r11
  12fe68:	000f883a 	mov	r7,zero
  12fe6c:	003f883a 	mov	ra,zero
  12fe70:	0019883a 	mov	r12,zero
  12fe74:	73a5f484 	addi	r14,r14,-26670
  12fe78:	04400204 	movi	r17,8
  12fe7c:	04000804 	movi	r16,32
  12fe80:	04c001c4 	movi	r19,7
  12fe84:	42000044 	addi	r8,r8,1
  12fe88:	40c00003 	ldbu	r3,0(r8)
  12fe8c:	18001d26 	beq	r3,zero,12ff04 <__hexnan+0xf4>
  12fe90:	70c5883a 	add	r2,r14,r3
  12fe94:	10800003 	ldbu	r2,0(r2)
  12fe98:	12403fcc 	andi	r9,r2,255
  12fe9c:	4800301e 	bne	r9,zero,12ff60 <__hexnan+0x150>
  12fea0:	80c04236 	bltu	r16,r3,12ffac <__hexnan+0x19c>
  12fea4:	fb3ff70e 	bge	ra,r12,12fe84 <_gp+0xfffec7ac>
  12fea8:	2b40112e 	bgeu	r5,r13,12fef0 <__hexnan+0xe0>
  12feac:	99c01016 	blt	r19,r7,12fef0 <__hexnan+0xe0>
  12feb0:	89e9c83a 	sub	r20,r17,r7
  12feb4:	a529883a 	add	r20,r20,r20
  12feb8:	2a800017 	ldw	r10,0(r5)
  12febc:	a529883a 	add	r20,r20,r20
  12fec0:	852bc83a 	sub	r21,r16,r20
  12fec4:	28c00104 	addi	r3,r5,4
  12fec8:	2805883a 	mov	r2,r5
  12fecc:	19c00017 	ldw	r7,0(r3)
  12fed0:	10800104 	addi	r2,r2,4
  12fed4:	18c00104 	addi	r3,r3,4
  12fed8:	3d52983a 	sll	r9,r7,r21
  12fedc:	4a92b03a 	or	r9,r9,r10
  12fee0:	3d14d83a 	srl	r10,r7,r20
  12fee4:	127fff15 	stw	r9,-4(r2)
  12fee8:	1abfff15 	stw	r10,-4(r3)
  12feec:	137ff736 	bltu	r2,r13,12fecc <_gp+0xfffec7f4>
  12fef0:	31402836 	bltu	r6,r5,12ff94 <__hexnan+0x184>
  12fef4:	42000044 	addi	r8,r8,1
  12fef8:	40c00003 	ldbu	r3,0(r8)
  12fefc:	01c00204 	movi	r7,8
  12ff00:	183fe31e 	bne	r3,zero,12fe90 <_gp+0xfffec7b8>
  12ff04:	60002b26 	beq	r12,zero,12ffb4 <__hexnan+0x1a4>
  12ff08:	2b40022e 	bgeu	r5,r13,12ff14 <__hexnan+0x104>
  12ff0c:	008001c4 	movi	r2,7
  12ff10:	11c0430e 	bge	r2,r7,130020 <__hexnan+0x210>
  12ff14:	3140312e 	bgeu	r6,r5,12ffdc <__hexnan+0x1cc>
  12ff18:	3007883a 	mov	r3,r6
  12ff1c:	29000017 	ldw	r4,0(r5)
  12ff20:	18800104 	addi	r2,r3,4
  12ff24:	29400104 	addi	r5,r5,4
  12ff28:	19000015 	stw	r4,0(r3)
  12ff2c:	1007883a 	mov	r3,r2
  12ff30:	597ffa2e 	bgeu	r11,r5,12ff1c <_gp+0xfffec844>
  12ff34:	10000015 	stw	zero,0(r2)
  12ff38:	10800104 	addi	r2,r2,4
  12ff3c:	58bffd2e 	bgeu	r11,r2,12ff34 <_gp+0xfffec85c>
  12ff40:	78bfff17 	ldw	r2,-4(r15)
  12ff44:	1000041e 	bne	r2,zero,12ff58 <__hexnan+0x148>
  12ff48:	32c02d26 	beq	r6,r11,130000 <__hexnan+0x1f0>
  12ff4c:	5affff04 	addi	r11,r11,-4
  12ff50:	58800017 	ldw	r2,0(r11)
  12ff54:	103ffc26 	beq	r2,zero,12ff48 <_gp+0xfffec870>
  12ff58:	00800144 	movi	r2,5
  12ff5c:	00001606 	br	12ffb8 <__hexnan+0x1a8>
  12ff60:	39c00044 	addi	r7,r7,1
  12ff64:	63000044 	addi	r12,r12,1
  12ff68:	89c0040e 	bge	r17,r7,12ff7c <__hexnan+0x16c>
  12ff6c:	317fc52e 	bgeu	r6,r5,12fe84 <_gp+0xfffec7ac>
  12ff70:	283fff15 	stw	zero,-4(r5)
  12ff74:	01c00044 	movi	r7,1
  12ff78:	297fff04 	addi	r5,r5,-4
  12ff7c:	28c00017 	ldw	r3,0(r5)
  12ff80:	108003cc 	andi	r2,r2,15
  12ff84:	1806913a 	slli	r3,r3,4
  12ff88:	1884b03a 	or	r2,r3,r2
  12ff8c:	28800015 	stw	r2,0(r5)
  12ff90:	003fbc06 	br	12fe84 <_gp+0xfffec7ac>
  12ff94:	2b7fff04 	addi	r13,r5,-4
  12ff98:	283fff15 	stw	zero,-4(r5)
  12ff9c:	603f883a 	mov	ra,r12
  12ffa0:	680b883a 	mov	r5,r13
  12ffa4:	000f883a 	mov	r7,zero
  12ffa8:	003fb606 	br	12fe84 <_gp+0xfffec7ac>
  12ffac:	00800a44 	movi	r2,41
  12ffb0:	18801726 	beq	r3,r2,130010 <__hexnan+0x200>
  12ffb4:	00800104 	movi	r2,4
  12ffb8:	dfc00617 	ldw	ra,24(sp)
  12ffbc:	dd400517 	ldw	r21,20(sp)
  12ffc0:	dd000417 	ldw	r20,16(sp)
  12ffc4:	dcc00317 	ldw	r19,12(sp)
  12ffc8:	dc800217 	ldw	r18,8(sp)
  12ffcc:	dc400117 	ldw	r17,4(sp)
  12ffd0:	dc000017 	ldw	r16,0(sp)
  12ffd4:	dec00704 	addi	sp,sp,28
  12ffd8:	f800283a 	ret
  12ffdc:	903fd826 	beq	r18,zero,12ff40 <_gp+0xfffec868>
  12ffe0:	00c00804 	movi	r3,32
  12ffe4:	1ca5c83a 	sub	r18,r3,r18
  12ffe8:	00ffffc4 	movi	r3,-1
  12ffec:	78bfff17 	ldw	r2,-4(r15)
  12fff0:	1c86d83a 	srl	r3,r3,r18
  12fff4:	1884703a 	and	r2,r3,r2
  12fff8:	78bfff15 	stw	r2,-4(r15)
  12fffc:	003fd106 	br	12ff44 <_gp+0xfffec86c>
  130000:	00800044 	movi	r2,1
  130004:	58800015 	stw	r2,0(r11)
  130008:	00800144 	movi	r2,5
  13000c:	003fea06 	br	12ffb8 <_gp+0xfffec8e0>
  130010:	42000044 	addi	r8,r8,1
  130014:	22000015 	stw	r8,0(r4)
  130018:	603fbb1e 	bne	r12,zero,12ff08 <_gp+0xfffec830>
  13001c:	003fe506 	br	12ffb4 <_gp+0xfffec8dc>
  130020:	02400204 	movi	r9,8
  130024:	49d3c83a 	sub	r9,r9,r7
  130028:	4a53883a 	add	r9,r9,r9
  13002c:	2a000017 	ldw	r8,0(r5)
  130030:	4a53883a 	add	r9,r9,r9
  130034:	02800804 	movi	r10,32
  130038:	5255c83a 	sub	r10,r10,r9
  13003c:	28c00104 	addi	r3,r5,4
  130040:	2805883a 	mov	r2,r5
  130044:	19c00017 	ldw	r7,0(r3)
  130048:	10800104 	addi	r2,r2,4
  13004c:	18c00104 	addi	r3,r3,4
  130050:	3a88983a 	sll	r4,r7,r10
  130054:	2208b03a 	or	r4,r4,r8
  130058:	3a50d83a 	srl	r8,r7,r9
  13005c:	113fff15 	stw	r4,-4(r2)
  130060:	1a3fff15 	stw	r8,-4(r3)
  130064:	137ff736 	bltu	r2,r13,130044 <_gp+0xfffec96c>
  130068:	003faa06 	br	12ff14 <_gp+0xfffec83c>

0013006c <memmove>:
  13006c:	2005883a 	mov	r2,r4
  130070:	29000b2e 	bgeu	r5,r4,1300a0 <memmove+0x34>
  130074:	298f883a 	add	r7,r5,r6
  130078:	21c0092e 	bgeu	r4,r7,1300a0 <memmove+0x34>
  13007c:	2187883a 	add	r3,r4,r6
  130080:	198bc83a 	sub	r5,r3,r6
  130084:	30004826 	beq	r6,zero,1301a8 <memmove+0x13c>
  130088:	39ffffc4 	addi	r7,r7,-1
  13008c:	39000003 	ldbu	r4,0(r7)
  130090:	18ffffc4 	addi	r3,r3,-1
  130094:	19000005 	stb	r4,0(r3)
  130098:	28fffb1e 	bne	r5,r3,130088 <_gp+0xfffec9b0>
  13009c:	f800283a 	ret
  1300a0:	00c003c4 	movi	r3,15
  1300a4:	1980412e 	bgeu	r3,r6,1301ac <memmove+0x140>
  1300a8:	2886b03a 	or	r3,r5,r2
  1300ac:	18c000cc 	andi	r3,r3,3
  1300b0:	1800401e 	bne	r3,zero,1301b4 <memmove+0x148>
  1300b4:	33fffc04 	addi	r15,r6,-16
  1300b8:	781ed13a 	srli	r15,r15,4
  1300bc:	28c00104 	addi	r3,r5,4
  1300c0:	13400104 	addi	r13,r2,4
  1300c4:	781c913a 	slli	r14,r15,4
  1300c8:	2b000204 	addi	r12,r5,8
  1300cc:	12c00204 	addi	r11,r2,8
  1300d0:	73800504 	addi	r14,r14,20
  1300d4:	2a800304 	addi	r10,r5,12
  1300d8:	12400304 	addi	r9,r2,12
  1300dc:	2b9d883a 	add	r14,r5,r14
  1300e0:	2811883a 	mov	r8,r5
  1300e4:	100f883a 	mov	r7,r2
  1300e8:	41000017 	ldw	r4,0(r8)
  1300ec:	39c00404 	addi	r7,r7,16
  1300f0:	18c00404 	addi	r3,r3,16
  1300f4:	393ffc15 	stw	r4,-16(r7)
  1300f8:	193ffc17 	ldw	r4,-16(r3)
  1300fc:	6b400404 	addi	r13,r13,16
  130100:	5ac00404 	addi	r11,r11,16
  130104:	693ffc15 	stw	r4,-16(r13)
  130108:	61000017 	ldw	r4,0(r12)
  13010c:	4a400404 	addi	r9,r9,16
  130110:	42000404 	addi	r8,r8,16
  130114:	593ffc15 	stw	r4,-16(r11)
  130118:	51000017 	ldw	r4,0(r10)
  13011c:	63000404 	addi	r12,r12,16
  130120:	52800404 	addi	r10,r10,16
  130124:	493ffc15 	stw	r4,-16(r9)
  130128:	1bbfef1e 	bne	r3,r14,1300e8 <_gp+0xfffeca10>
  13012c:	79000044 	addi	r4,r15,1
  130130:	2008913a 	slli	r4,r4,4
  130134:	328003cc 	andi	r10,r6,15
  130138:	02c000c4 	movi	r11,3
  13013c:	1107883a 	add	r3,r2,r4
  130140:	290b883a 	add	r5,r5,r4
  130144:	5a801e2e 	bgeu	r11,r10,1301c0 <memmove+0x154>
  130148:	1813883a 	mov	r9,r3
  13014c:	2811883a 	mov	r8,r5
  130150:	500f883a 	mov	r7,r10
  130154:	41000017 	ldw	r4,0(r8)
  130158:	4a400104 	addi	r9,r9,4
  13015c:	39ffff04 	addi	r7,r7,-4
  130160:	493fff15 	stw	r4,-4(r9)
  130164:	42000104 	addi	r8,r8,4
  130168:	59fffa36 	bltu	r11,r7,130154 <_gp+0xfffeca7c>
  13016c:	513fff04 	addi	r4,r10,-4
  130170:	2008d0ba 	srli	r4,r4,2
  130174:	318000cc 	andi	r6,r6,3
  130178:	21000044 	addi	r4,r4,1
  13017c:	2109883a 	add	r4,r4,r4
  130180:	2109883a 	add	r4,r4,r4
  130184:	1907883a 	add	r3,r3,r4
  130188:	290b883a 	add	r5,r5,r4
  13018c:	30000b26 	beq	r6,zero,1301bc <memmove+0x150>
  130190:	198d883a 	add	r6,r3,r6
  130194:	29c00003 	ldbu	r7,0(r5)
  130198:	18c00044 	addi	r3,r3,1
  13019c:	29400044 	addi	r5,r5,1
  1301a0:	19ffffc5 	stb	r7,-1(r3)
  1301a4:	19bffb1e 	bne	r3,r6,130194 <_gp+0xfffecabc>
  1301a8:	f800283a 	ret
  1301ac:	1007883a 	mov	r3,r2
  1301b0:	003ff606 	br	13018c <_gp+0xfffecab4>
  1301b4:	1007883a 	mov	r3,r2
  1301b8:	003ff506 	br	130190 <_gp+0xfffecab8>
  1301bc:	f800283a 	ret
  1301c0:	500d883a 	mov	r6,r10
  1301c4:	003ff106 	br	13018c <_gp+0xfffecab4>

001301c8 <_realloc_r>:
  1301c8:	defff604 	addi	sp,sp,-40
  1301cc:	dc800215 	stw	r18,8(sp)
  1301d0:	dfc00915 	stw	ra,36(sp)
  1301d4:	df000815 	stw	fp,32(sp)
  1301d8:	ddc00715 	stw	r23,28(sp)
  1301dc:	dd800615 	stw	r22,24(sp)
  1301e0:	dd400515 	stw	r21,20(sp)
  1301e4:	dd000415 	stw	r20,16(sp)
  1301e8:	dcc00315 	stw	r19,12(sp)
  1301ec:	dc400115 	stw	r17,4(sp)
  1301f0:	dc000015 	stw	r16,0(sp)
  1301f4:	3025883a 	mov	r18,r6
  1301f8:	2800b726 	beq	r5,zero,1304d8 <_realloc_r+0x310>
  1301fc:	282b883a 	mov	r21,r5
  130200:	2029883a 	mov	r20,r4
  130204:	01347c80 	call	1347c8 <__malloc_lock>
  130208:	a8bfff17 	ldw	r2,-4(r21)
  13020c:	043fff04 	movi	r16,-4
  130210:	90c002c4 	addi	r3,r18,11
  130214:	01000584 	movi	r4,22
  130218:	acfffe04 	addi	r19,r21,-8
  13021c:	1420703a 	and	r16,r2,r16
  130220:	20c0332e 	bgeu	r4,r3,1302f0 <_realloc_r+0x128>
  130224:	047ffe04 	movi	r17,-8
  130228:	1c62703a 	and	r17,r3,r17
  13022c:	8807883a 	mov	r3,r17
  130230:	88005816 	blt	r17,zero,130394 <_realloc_r+0x1cc>
  130234:	8c805736 	bltu	r17,r18,130394 <_realloc_r+0x1cc>
  130238:	80c0300e 	bge	r16,r3,1302fc <_realloc_r+0x134>
  13023c:	07000534 	movhi	fp,20
  130240:	e727b604 	addi	fp,fp,-24872
  130244:	e1c00217 	ldw	r7,8(fp)
  130248:	9c09883a 	add	r4,r19,r16
  13024c:	22000117 	ldw	r8,4(r4)
  130250:	21c06326 	beq	r4,r7,1303e0 <_realloc_r+0x218>
  130254:	017fff84 	movi	r5,-2
  130258:	414a703a 	and	r5,r8,r5
  13025c:	214b883a 	add	r5,r4,r5
  130260:	29800117 	ldw	r6,4(r5)
  130264:	3180004c 	andi	r6,r6,1
  130268:	30003f26 	beq	r6,zero,130368 <_realloc_r+0x1a0>
  13026c:	1080004c 	andi	r2,r2,1
  130270:	10008326 	beq	r2,zero,130480 <_realloc_r+0x2b8>
  130274:	900b883a 	mov	r5,r18
  130278:	a009883a 	mov	r4,r20
  13027c:	01279080 	call	127908 <_malloc_r>
  130280:	1025883a 	mov	r18,r2
  130284:	10011e26 	beq	r2,zero,130700 <_realloc_r+0x538>
  130288:	a93fff17 	ldw	r4,-4(r21)
  13028c:	10fffe04 	addi	r3,r2,-8
  130290:	00bfff84 	movi	r2,-2
  130294:	2084703a 	and	r2,r4,r2
  130298:	9885883a 	add	r2,r19,r2
  13029c:	1880ee26 	beq	r3,r2,130658 <_realloc_r+0x490>
  1302a0:	81bfff04 	addi	r6,r16,-4
  1302a4:	00800904 	movi	r2,36
  1302a8:	1180b836 	bltu	r2,r6,13058c <_realloc_r+0x3c4>
  1302ac:	00c004c4 	movi	r3,19
  1302b0:	19809636 	bltu	r3,r6,13050c <_realloc_r+0x344>
  1302b4:	9005883a 	mov	r2,r18
  1302b8:	a807883a 	mov	r3,r21
  1302bc:	19000017 	ldw	r4,0(r3)
  1302c0:	11000015 	stw	r4,0(r2)
  1302c4:	19000117 	ldw	r4,4(r3)
  1302c8:	11000115 	stw	r4,4(r2)
  1302cc:	18c00217 	ldw	r3,8(r3)
  1302d0:	10c00215 	stw	r3,8(r2)
  1302d4:	a80b883a 	mov	r5,r21
  1302d8:	a009883a 	mov	r4,r20
  1302dc:	012f0280 	call	12f028 <_free_r>
  1302e0:	a009883a 	mov	r4,r20
  1302e4:	01347ec0 	call	1347ec <__malloc_unlock>
  1302e8:	9005883a 	mov	r2,r18
  1302ec:	00001206 	br	130338 <_realloc_r+0x170>
  1302f0:	00c00404 	movi	r3,16
  1302f4:	1823883a 	mov	r17,r3
  1302f8:	003fce06 	br	130234 <_gp+0xfffecb5c>
  1302fc:	a825883a 	mov	r18,r21
  130300:	8445c83a 	sub	r2,r16,r17
  130304:	00c003c4 	movi	r3,15
  130308:	18802636 	bltu	r3,r2,1303a4 <_realloc_r+0x1dc>
  13030c:	99800117 	ldw	r6,4(r19)
  130310:	9c07883a 	add	r3,r19,r16
  130314:	3180004c 	andi	r6,r6,1
  130318:	3420b03a 	or	r16,r6,r16
  13031c:	9c000115 	stw	r16,4(r19)
  130320:	18800117 	ldw	r2,4(r3)
  130324:	10800054 	ori	r2,r2,1
  130328:	18800115 	stw	r2,4(r3)
  13032c:	a009883a 	mov	r4,r20
  130330:	01347ec0 	call	1347ec <__malloc_unlock>
  130334:	9005883a 	mov	r2,r18
  130338:	dfc00917 	ldw	ra,36(sp)
  13033c:	df000817 	ldw	fp,32(sp)
  130340:	ddc00717 	ldw	r23,28(sp)
  130344:	dd800617 	ldw	r22,24(sp)
  130348:	dd400517 	ldw	r21,20(sp)
  13034c:	dd000417 	ldw	r20,16(sp)
  130350:	dcc00317 	ldw	r19,12(sp)
  130354:	dc800217 	ldw	r18,8(sp)
  130358:	dc400117 	ldw	r17,4(sp)
  13035c:	dc000017 	ldw	r16,0(sp)
  130360:	dec00a04 	addi	sp,sp,40
  130364:	f800283a 	ret
  130368:	017fff04 	movi	r5,-4
  13036c:	414a703a 	and	r5,r8,r5
  130370:	814d883a 	add	r6,r16,r5
  130374:	30c01f16 	blt	r6,r3,1303f4 <_realloc_r+0x22c>
  130378:	20800317 	ldw	r2,12(r4)
  13037c:	20c00217 	ldw	r3,8(r4)
  130380:	a825883a 	mov	r18,r21
  130384:	3021883a 	mov	r16,r6
  130388:	18800315 	stw	r2,12(r3)
  13038c:	10c00215 	stw	r3,8(r2)
  130390:	003fdb06 	br	130300 <_gp+0xfffecc28>
  130394:	00800304 	movi	r2,12
  130398:	a0800015 	stw	r2,0(r20)
  13039c:	0005883a 	mov	r2,zero
  1303a0:	003fe506 	br	130338 <_gp+0xfffecc60>
  1303a4:	98c00117 	ldw	r3,4(r19)
  1303a8:	9c4b883a 	add	r5,r19,r17
  1303ac:	11000054 	ori	r4,r2,1
  1303b0:	18c0004c 	andi	r3,r3,1
  1303b4:	1c62b03a 	or	r17,r3,r17
  1303b8:	9c400115 	stw	r17,4(r19)
  1303bc:	29000115 	stw	r4,4(r5)
  1303c0:	2885883a 	add	r2,r5,r2
  1303c4:	10c00117 	ldw	r3,4(r2)
  1303c8:	29400204 	addi	r5,r5,8
  1303cc:	a009883a 	mov	r4,r20
  1303d0:	18c00054 	ori	r3,r3,1
  1303d4:	10c00115 	stw	r3,4(r2)
  1303d8:	012f0280 	call	12f028 <_free_r>
  1303dc:	003fd306 	br	13032c <_gp+0xfffecc54>
  1303e0:	017fff04 	movi	r5,-4
  1303e4:	414a703a 	and	r5,r8,r5
  1303e8:	89800404 	addi	r6,r17,16
  1303ec:	8151883a 	add	r8,r16,r5
  1303f0:	4180590e 	bge	r8,r6,130558 <_realloc_r+0x390>
  1303f4:	1080004c 	andi	r2,r2,1
  1303f8:	103f9e1e 	bne	r2,zero,130274 <_gp+0xfffecb9c>
  1303fc:	adbffe17 	ldw	r22,-8(r21)
  130400:	00bfff04 	movi	r2,-4
  130404:	9dadc83a 	sub	r22,r19,r22
  130408:	b1800117 	ldw	r6,4(r22)
  13040c:	3084703a 	and	r2,r6,r2
  130410:	20002026 	beq	r4,zero,130494 <_realloc_r+0x2cc>
  130414:	80af883a 	add	r23,r16,r2
  130418:	b96f883a 	add	r23,r23,r5
  13041c:	21c05f26 	beq	r4,r7,13059c <_realloc_r+0x3d4>
  130420:	b8c01c16 	blt	r23,r3,130494 <_realloc_r+0x2cc>
  130424:	20800317 	ldw	r2,12(r4)
  130428:	20c00217 	ldw	r3,8(r4)
  13042c:	81bfff04 	addi	r6,r16,-4
  130430:	01000904 	movi	r4,36
  130434:	18800315 	stw	r2,12(r3)
  130438:	10c00215 	stw	r3,8(r2)
  13043c:	b0c00217 	ldw	r3,8(r22)
  130440:	b0800317 	ldw	r2,12(r22)
  130444:	b4800204 	addi	r18,r22,8
  130448:	18800315 	stw	r2,12(r3)
  13044c:	10c00215 	stw	r3,8(r2)
  130450:	21801b36 	bltu	r4,r6,1304c0 <_realloc_r+0x2f8>
  130454:	008004c4 	movi	r2,19
  130458:	1180352e 	bgeu	r2,r6,130530 <_realloc_r+0x368>
  13045c:	a8800017 	ldw	r2,0(r21)
  130460:	b0800215 	stw	r2,8(r22)
  130464:	a8800117 	ldw	r2,4(r21)
  130468:	b0800315 	stw	r2,12(r22)
  13046c:	008006c4 	movi	r2,27
  130470:	11807f36 	bltu	r2,r6,130670 <_realloc_r+0x4a8>
  130474:	b0800404 	addi	r2,r22,16
  130478:	ad400204 	addi	r21,r21,8
  13047c:	00002d06 	br	130534 <_realloc_r+0x36c>
  130480:	adbffe17 	ldw	r22,-8(r21)
  130484:	00bfff04 	movi	r2,-4
  130488:	9dadc83a 	sub	r22,r19,r22
  13048c:	b1000117 	ldw	r4,4(r22)
  130490:	2084703a 	and	r2,r4,r2
  130494:	b03f7726 	beq	r22,zero,130274 <_gp+0xfffecb9c>
  130498:	80af883a 	add	r23,r16,r2
  13049c:	b8ff7516 	blt	r23,r3,130274 <_gp+0xfffecb9c>
  1304a0:	b0800317 	ldw	r2,12(r22)
  1304a4:	b0c00217 	ldw	r3,8(r22)
  1304a8:	81bfff04 	addi	r6,r16,-4
  1304ac:	01000904 	movi	r4,36
  1304b0:	18800315 	stw	r2,12(r3)
  1304b4:	10c00215 	stw	r3,8(r2)
  1304b8:	b4800204 	addi	r18,r22,8
  1304bc:	21bfe52e 	bgeu	r4,r6,130454 <_gp+0xfffecd7c>
  1304c0:	a80b883a 	mov	r5,r21
  1304c4:	9009883a 	mov	r4,r18
  1304c8:	013006c0 	call	13006c <memmove>
  1304cc:	b821883a 	mov	r16,r23
  1304d0:	b027883a 	mov	r19,r22
  1304d4:	003f8a06 	br	130300 <_gp+0xfffecc28>
  1304d8:	300b883a 	mov	r5,r6
  1304dc:	dfc00917 	ldw	ra,36(sp)
  1304e0:	df000817 	ldw	fp,32(sp)
  1304e4:	ddc00717 	ldw	r23,28(sp)
  1304e8:	dd800617 	ldw	r22,24(sp)
  1304ec:	dd400517 	ldw	r21,20(sp)
  1304f0:	dd000417 	ldw	r20,16(sp)
  1304f4:	dcc00317 	ldw	r19,12(sp)
  1304f8:	dc800217 	ldw	r18,8(sp)
  1304fc:	dc400117 	ldw	r17,4(sp)
  130500:	dc000017 	ldw	r16,0(sp)
  130504:	dec00a04 	addi	sp,sp,40
  130508:	01279081 	jmpi	127908 <_malloc_r>
  13050c:	a8c00017 	ldw	r3,0(r21)
  130510:	90c00015 	stw	r3,0(r18)
  130514:	a8c00117 	ldw	r3,4(r21)
  130518:	90c00115 	stw	r3,4(r18)
  13051c:	00c006c4 	movi	r3,27
  130520:	19804536 	bltu	r3,r6,130638 <_realloc_r+0x470>
  130524:	90800204 	addi	r2,r18,8
  130528:	a8c00204 	addi	r3,r21,8
  13052c:	003f6306 	br	1302bc <_gp+0xfffecbe4>
  130530:	9005883a 	mov	r2,r18
  130534:	a8c00017 	ldw	r3,0(r21)
  130538:	b821883a 	mov	r16,r23
  13053c:	b027883a 	mov	r19,r22
  130540:	10c00015 	stw	r3,0(r2)
  130544:	a8c00117 	ldw	r3,4(r21)
  130548:	10c00115 	stw	r3,4(r2)
  13054c:	a8c00217 	ldw	r3,8(r21)
  130550:	10c00215 	stw	r3,8(r2)
  130554:	003f6a06 	br	130300 <_gp+0xfffecc28>
  130558:	9c67883a 	add	r19,r19,r17
  13055c:	4445c83a 	sub	r2,r8,r17
  130560:	e4c00215 	stw	r19,8(fp)
  130564:	10800054 	ori	r2,r2,1
  130568:	98800115 	stw	r2,4(r19)
  13056c:	a8bfff17 	ldw	r2,-4(r21)
  130570:	a009883a 	mov	r4,r20
  130574:	1080004c 	andi	r2,r2,1
  130578:	1462b03a 	or	r17,r2,r17
  13057c:	ac7fff15 	stw	r17,-4(r21)
  130580:	01347ec0 	call	1347ec <__malloc_unlock>
  130584:	a805883a 	mov	r2,r21
  130588:	003f6b06 	br	130338 <_gp+0xfffecc60>
  13058c:	a80b883a 	mov	r5,r21
  130590:	9009883a 	mov	r4,r18
  130594:	013006c0 	call	13006c <memmove>
  130598:	003f4e06 	br	1302d4 <_gp+0xfffecbfc>
  13059c:	89000404 	addi	r4,r17,16
  1305a0:	b93fbc16 	blt	r23,r4,130494 <_gp+0xfffecdbc>
  1305a4:	b0800317 	ldw	r2,12(r22)
  1305a8:	b0c00217 	ldw	r3,8(r22)
  1305ac:	81bfff04 	addi	r6,r16,-4
  1305b0:	01000904 	movi	r4,36
  1305b4:	18800315 	stw	r2,12(r3)
  1305b8:	10c00215 	stw	r3,8(r2)
  1305bc:	b4800204 	addi	r18,r22,8
  1305c0:	21804336 	bltu	r4,r6,1306d0 <_realloc_r+0x508>
  1305c4:	008004c4 	movi	r2,19
  1305c8:	11803f2e 	bgeu	r2,r6,1306c8 <_realloc_r+0x500>
  1305cc:	a8800017 	ldw	r2,0(r21)
  1305d0:	b0800215 	stw	r2,8(r22)
  1305d4:	a8800117 	ldw	r2,4(r21)
  1305d8:	b0800315 	stw	r2,12(r22)
  1305dc:	008006c4 	movi	r2,27
  1305e0:	11803f36 	bltu	r2,r6,1306e0 <_realloc_r+0x518>
  1305e4:	b0800404 	addi	r2,r22,16
  1305e8:	ad400204 	addi	r21,r21,8
  1305ec:	a8c00017 	ldw	r3,0(r21)
  1305f0:	10c00015 	stw	r3,0(r2)
  1305f4:	a8c00117 	ldw	r3,4(r21)
  1305f8:	10c00115 	stw	r3,4(r2)
  1305fc:	a8c00217 	ldw	r3,8(r21)
  130600:	10c00215 	stw	r3,8(r2)
  130604:	b447883a 	add	r3,r22,r17
  130608:	bc45c83a 	sub	r2,r23,r17
  13060c:	e0c00215 	stw	r3,8(fp)
  130610:	10800054 	ori	r2,r2,1
  130614:	18800115 	stw	r2,4(r3)
  130618:	b0800117 	ldw	r2,4(r22)
  13061c:	a009883a 	mov	r4,r20
  130620:	1080004c 	andi	r2,r2,1
  130624:	1462b03a 	or	r17,r2,r17
  130628:	b4400115 	stw	r17,4(r22)
  13062c:	01347ec0 	call	1347ec <__malloc_unlock>
  130630:	9005883a 	mov	r2,r18
  130634:	003f4006 	br	130338 <_gp+0xfffecc60>
  130638:	a8c00217 	ldw	r3,8(r21)
  13063c:	90c00215 	stw	r3,8(r18)
  130640:	a8c00317 	ldw	r3,12(r21)
  130644:	90c00315 	stw	r3,12(r18)
  130648:	30801126 	beq	r6,r2,130690 <_realloc_r+0x4c8>
  13064c:	90800404 	addi	r2,r18,16
  130650:	a8c00404 	addi	r3,r21,16
  130654:	003f1906 	br	1302bc <_gp+0xfffecbe4>
  130658:	90ffff17 	ldw	r3,-4(r18)
  13065c:	00bfff04 	movi	r2,-4
  130660:	a825883a 	mov	r18,r21
  130664:	1884703a 	and	r2,r3,r2
  130668:	80a1883a 	add	r16,r16,r2
  13066c:	003f2406 	br	130300 <_gp+0xfffecc28>
  130670:	a8800217 	ldw	r2,8(r21)
  130674:	b0800415 	stw	r2,16(r22)
  130678:	a8800317 	ldw	r2,12(r21)
  13067c:	b0800515 	stw	r2,20(r22)
  130680:	31000a26 	beq	r6,r4,1306ac <_realloc_r+0x4e4>
  130684:	b0800604 	addi	r2,r22,24
  130688:	ad400404 	addi	r21,r21,16
  13068c:	003fa906 	br	130534 <_gp+0xfffece5c>
  130690:	a9000417 	ldw	r4,16(r21)
  130694:	90800604 	addi	r2,r18,24
  130698:	a8c00604 	addi	r3,r21,24
  13069c:	91000415 	stw	r4,16(r18)
  1306a0:	a9000517 	ldw	r4,20(r21)
  1306a4:	91000515 	stw	r4,20(r18)
  1306a8:	003f0406 	br	1302bc <_gp+0xfffecbe4>
  1306ac:	a8c00417 	ldw	r3,16(r21)
  1306b0:	ad400604 	addi	r21,r21,24
  1306b4:	b0800804 	addi	r2,r22,32
  1306b8:	b0c00615 	stw	r3,24(r22)
  1306bc:	a8ffff17 	ldw	r3,-4(r21)
  1306c0:	b0c00715 	stw	r3,28(r22)
  1306c4:	003f9b06 	br	130534 <_gp+0xfffece5c>
  1306c8:	9005883a 	mov	r2,r18
  1306cc:	003fc706 	br	1305ec <_gp+0xfffecf14>
  1306d0:	a80b883a 	mov	r5,r21
  1306d4:	9009883a 	mov	r4,r18
  1306d8:	013006c0 	call	13006c <memmove>
  1306dc:	003fc906 	br	130604 <_gp+0xfffecf2c>
  1306e0:	a8800217 	ldw	r2,8(r21)
  1306e4:	b0800415 	stw	r2,16(r22)
  1306e8:	a8800317 	ldw	r2,12(r21)
  1306ec:	b0800515 	stw	r2,20(r22)
  1306f0:	31000726 	beq	r6,r4,130710 <_realloc_r+0x548>
  1306f4:	b0800604 	addi	r2,r22,24
  1306f8:	ad400404 	addi	r21,r21,16
  1306fc:	003fbb06 	br	1305ec <_gp+0xfffecf14>
  130700:	a009883a 	mov	r4,r20
  130704:	01347ec0 	call	1347ec <__malloc_unlock>
  130708:	0005883a 	mov	r2,zero
  13070c:	003f0a06 	br	130338 <_gp+0xfffecc60>
  130710:	a8c00417 	ldw	r3,16(r21)
  130714:	ad400604 	addi	r21,r21,24
  130718:	b0800804 	addi	r2,r22,32
  13071c:	b0c00615 	stw	r3,24(r22)
  130720:	a8ffff17 	ldw	r3,-4(r21)
  130724:	b0c00715 	stw	r3,28(r22)
  130728:	003fb006 	br	1305ec <_gp+0xfffecf14>

0013072c <strncmp>:
  13072c:	30003126 	beq	r6,zero,1307f4 <strncmp+0xc8>
  130730:	2144b03a 	or	r2,r4,r5
  130734:	108000cc 	andi	r2,r2,3
  130738:	10001e1e 	bne	r2,zero,1307b4 <strncmp+0x88>
  13073c:	024000c4 	movi	r9,3
  130740:	49801c2e 	bgeu	r9,r6,1307b4 <strncmp+0x88>
  130744:	20800017 	ldw	r2,0(r4)
  130748:	28c00017 	ldw	r3,0(r5)
  13074c:	10c0191e 	bne	r2,r3,1307b4 <strncmp+0x88>
  130750:	31bfff04 	addi	r6,r6,-4
  130754:	30002726 	beq	r6,zero,1307f4 <strncmp+0xc8>
  130758:	02ffbff4 	movhi	r11,65279
  13075c:	5affbfc4 	addi	r11,r11,-257
  130760:	0086303a 	nor	r3,zero,r2
  130764:	02a02074 	movhi	r10,32897
  130768:	12c5883a 	add	r2,r2,r11
  13076c:	52a02004 	addi	r10,r10,-32640
  130770:	10c4703a 	and	r2,r2,r3
  130774:	1284703a 	and	r2,r2,r10
  130778:	10000b26 	beq	r2,zero,1307a8 <strncmp+0x7c>
  13077c:	00001d06 	br	1307f4 <strncmp+0xc8>
  130780:	20c00017 	ldw	r3,0(r4)
  130784:	29c00017 	ldw	r7,0(r5)
  130788:	1ad1883a 	add	r8,r3,r11
  13078c:	00c4303a 	nor	r2,zero,r3
  130790:	4084703a 	and	r2,r8,r2
  130794:	1284703a 	and	r2,r2,r10
  130798:	19c0061e 	bne	r3,r7,1307b4 <strncmp+0x88>
  13079c:	31bfff04 	addi	r6,r6,-4
  1307a0:	30001426 	beq	r6,zero,1307f4 <strncmp+0xc8>
  1307a4:	1000131e 	bne	r2,zero,1307f4 <strncmp+0xc8>
  1307a8:	21000104 	addi	r4,r4,4
  1307ac:	29400104 	addi	r5,r5,4
  1307b0:	49bff336 	bltu	r9,r6,130780 <_gp+0xfffed0a8>
  1307b4:	28800007 	ldb	r2,0(r5)
  1307b8:	20c00007 	ldb	r3,0(r4)
  1307bc:	31bfffc4 	addi	r6,r6,-1
  1307c0:	10c0081e 	bne	r2,r3,1307e4 <strncmp+0xb8>
  1307c4:	30000b26 	beq	r6,zero,1307f4 <strncmp+0xc8>
  1307c8:	10000a26 	beq	r2,zero,1307f4 <strncmp+0xc8>
  1307cc:	21000044 	addi	r4,r4,1
  1307d0:	29400044 	addi	r5,r5,1
  1307d4:	20800007 	ldb	r2,0(r4)
  1307d8:	28c00007 	ldb	r3,0(r5)
  1307dc:	31bfffc4 	addi	r6,r6,-1
  1307e0:	10fff826 	beq	r2,r3,1307c4 <_gp+0xfffed0ec>
  1307e4:	20800003 	ldbu	r2,0(r4)
  1307e8:	28c00003 	ldbu	r3,0(r5)
  1307ec:	10c5c83a 	sub	r2,r2,r3
  1307f0:	f800283a 	ret
  1307f4:	0005883a 	mov	r2,zero
  1307f8:	f800283a 	ret

001307fc <_fclose_r>:
  1307fc:	28003926 	beq	r5,zero,1308e4 <_fclose_r+0xe8>
  130800:	defffc04 	addi	sp,sp,-16
  130804:	dc400115 	stw	r17,4(sp)
  130808:	dc000015 	stw	r16,0(sp)
  13080c:	dfc00315 	stw	ra,12(sp)
  130810:	dc800215 	stw	r18,8(sp)
  130814:	2023883a 	mov	r17,r4
  130818:	2821883a 	mov	r16,r5
  13081c:	20000226 	beq	r4,zero,130828 <_fclose_r+0x2c>
  130820:	20800e17 	ldw	r2,56(r4)
  130824:	10002726 	beq	r2,zero,1308c4 <_fclose_r+0xc8>
  130828:	8080030f 	ldh	r2,12(r16)
  13082c:	1000071e 	bne	r2,zero,13084c <_fclose_r+0x50>
  130830:	0005883a 	mov	r2,zero
  130834:	dfc00317 	ldw	ra,12(sp)
  130838:	dc800217 	ldw	r18,8(sp)
  13083c:	dc400117 	ldw	r17,4(sp)
  130840:	dc000017 	ldw	r16,0(sp)
  130844:	dec00404 	addi	sp,sp,16
  130848:	f800283a 	ret
  13084c:	800b883a 	mov	r5,r16
  130850:	8809883a 	mov	r4,r17
  130854:	012e8ac0 	call	12e8ac <__sflush_r>
  130858:	1025883a 	mov	r18,r2
  13085c:	80800b17 	ldw	r2,44(r16)
  130860:	10000426 	beq	r2,zero,130874 <_fclose_r+0x78>
  130864:	81400717 	ldw	r5,28(r16)
  130868:	8809883a 	mov	r4,r17
  13086c:	103ee83a 	callr	r2
  130870:	10001616 	blt	r2,zero,1308cc <_fclose_r+0xd0>
  130874:	8080030b 	ldhu	r2,12(r16)
  130878:	1080200c 	andi	r2,r2,128
  13087c:	1000151e 	bne	r2,zero,1308d4 <_fclose_r+0xd8>
  130880:	81400c17 	ldw	r5,48(r16)
  130884:	28000526 	beq	r5,zero,13089c <_fclose_r+0xa0>
  130888:	80801004 	addi	r2,r16,64
  13088c:	28800226 	beq	r5,r2,130898 <_fclose_r+0x9c>
  130890:	8809883a 	mov	r4,r17
  130894:	012f0280 	call	12f028 <_free_r>
  130898:	80000c15 	stw	zero,48(r16)
  13089c:	81401117 	ldw	r5,68(r16)
  1308a0:	28000326 	beq	r5,zero,1308b0 <_fclose_r+0xb4>
  1308a4:	8809883a 	mov	r4,r17
  1308a8:	012f0280 	call	12f028 <_free_r>
  1308ac:	80001115 	stw	zero,68(r16)
  1308b0:	012eec40 	call	12eec4 <__sfp_lock_acquire>
  1308b4:	8000030d 	sth	zero,12(r16)
  1308b8:	012eec80 	call	12eec8 <__sfp_lock_release>
  1308bc:	9005883a 	mov	r2,r18
  1308c0:	003fdc06 	br	130834 <_gp+0xfffed15c>
  1308c4:	012eeb40 	call	12eeb4 <__sinit>
  1308c8:	003fd706 	br	130828 <_gp+0xfffed150>
  1308cc:	04bfffc4 	movi	r18,-1
  1308d0:	003fe806 	br	130874 <_gp+0xfffed19c>
  1308d4:	81400417 	ldw	r5,16(r16)
  1308d8:	8809883a 	mov	r4,r17
  1308dc:	012f0280 	call	12f028 <_free_r>
  1308e0:	003fe706 	br	130880 <_gp+0xfffed1a8>
  1308e4:	0005883a 	mov	r2,zero
  1308e8:	f800283a 	ret

001308ec <fclose>:
  1308ec:	00800534 	movhi	r2,20
  1308f0:	10adba04 	addi	r2,r2,-18712
  1308f4:	200b883a 	mov	r5,r4
  1308f8:	11000017 	ldw	r4,0(r2)
  1308fc:	01307fc1 	jmpi	1307fc <_fclose_r>

00130900 <__muldi3>:
  130900:	defff604 	addi	sp,sp,-40
  130904:	dd800615 	stw	r22,24(sp)
  130908:	dd400515 	stw	r21,20(sp)
  13090c:	dc400115 	stw	r17,4(sp)
  130910:	357fffcc 	andi	r21,r6,65535
  130914:	2022d43a 	srli	r17,r4,16
  130918:	25bfffcc 	andi	r22,r4,65535
  13091c:	dcc00315 	stw	r19,12(sp)
  130920:	dc800215 	stw	r18,8(sp)
  130924:	2027883a 	mov	r19,r4
  130928:	2825883a 	mov	r18,r5
  13092c:	b009883a 	mov	r4,r22
  130930:	a80b883a 	mov	r5,r21
  130934:	dfc00915 	stw	ra,36(sp)
  130938:	df000815 	stw	fp,32(sp)
  13093c:	ddc00715 	stw	r23,28(sp)
  130940:	3839883a 	mov	fp,r7
  130944:	302ed43a 	srli	r23,r6,16
  130948:	dd000415 	stw	r20,16(sp)
  13094c:	dc000015 	stw	r16,0(sp)
  130950:	3029883a 	mov	r20,r6
  130954:	01213680 	call	121368 <__mulsi3>
  130958:	a80b883a 	mov	r5,r21
  13095c:	8809883a 	mov	r4,r17
  130960:	1021883a 	mov	r16,r2
  130964:	01213680 	call	121368 <__mulsi3>
  130968:	8809883a 	mov	r4,r17
  13096c:	b80b883a 	mov	r5,r23
  130970:	102b883a 	mov	r21,r2
  130974:	01213680 	call	121368 <__mulsi3>
  130978:	b80b883a 	mov	r5,r23
  13097c:	b009883a 	mov	r4,r22
  130980:	1023883a 	mov	r17,r2
  130984:	01213680 	call	121368 <__mulsi3>
  130988:	8006d43a 	srli	r3,r16,16
  13098c:	1545883a 	add	r2,r2,r21
  130990:	1885883a 	add	r2,r3,r2
  130994:	1540022e 	bgeu	r2,r21,1309a0 <__muldi3+0xa0>
  130998:	00c00074 	movhi	r3,1
  13099c:	88e3883a 	add	r17,r17,r3
  1309a0:	1006d43a 	srli	r3,r2,16
  1309a4:	1004943a 	slli	r2,r2,16
  1309a8:	e00b883a 	mov	r5,fp
  1309ac:	9809883a 	mov	r4,r19
  1309b0:	843fffcc 	andi	r16,r16,65535
  1309b4:	1c63883a 	add	r17,r3,r17
  1309b8:	1421883a 	add	r16,r2,r16
  1309bc:	01213680 	call	121368 <__mulsi3>
  1309c0:	900b883a 	mov	r5,r18
  1309c4:	a009883a 	mov	r4,r20
  1309c8:	1027883a 	mov	r19,r2
  1309cc:	01213680 	call	121368 <__mulsi3>
  1309d0:	9885883a 	add	r2,r19,r2
  1309d4:	1447883a 	add	r3,r2,r17
  1309d8:	8005883a 	mov	r2,r16
  1309dc:	dfc00917 	ldw	ra,36(sp)
  1309e0:	df000817 	ldw	fp,32(sp)
  1309e4:	ddc00717 	ldw	r23,28(sp)
  1309e8:	dd800617 	ldw	r22,24(sp)
  1309ec:	dd400517 	ldw	r21,20(sp)
  1309f0:	dd000417 	ldw	r20,16(sp)
  1309f4:	dcc00317 	ldw	r19,12(sp)
  1309f8:	dc800217 	ldw	r18,8(sp)
  1309fc:	dc400117 	ldw	r17,4(sp)
  130a00:	dc000017 	ldw	r16,0(sp)
  130a04:	dec00a04 	addi	sp,sp,40
  130a08:	f800283a 	ret

00130a0c <__fixunsdfsi>:
  130a0c:	defffd04 	addi	sp,sp,-12
  130a10:	000d883a 	mov	r6,zero
  130a14:	01d07834 	movhi	r7,16864
  130a18:	dc400115 	stw	r17,4(sp)
  130a1c:	dc000015 	stw	r16,0(sp)
  130a20:	dfc00215 	stw	ra,8(sp)
  130a24:	2023883a 	mov	r17,r4
  130a28:	2821883a 	mov	r16,r5
  130a2c:	0132b400 	call	132b40 <__gedf2>
  130a30:	1000080e 	bge	r2,zero,130a54 <__fixunsdfsi+0x48>
  130a34:	8809883a 	mov	r4,r17
  130a38:	800b883a 	mov	r5,r16
  130a3c:	0133e780 	call	133e78 <__fixdfsi>
  130a40:	dfc00217 	ldw	ra,8(sp)
  130a44:	dc400117 	ldw	r17,4(sp)
  130a48:	dc000017 	ldw	r16,0(sp)
  130a4c:	dec00304 	addi	sp,sp,12
  130a50:	f800283a 	ret
  130a54:	000d883a 	mov	r6,zero
  130a58:	01d07834 	movhi	r7,16864
  130a5c:	8809883a 	mov	r4,r17
  130a60:	800b883a 	mov	r5,r16
  130a64:	013357c0 	call	13357c <__subdf3>
  130a68:	180b883a 	mov	r5,r3
  130a6c:	1009883a 	mov	r4,r2
  130a70:	0133e780 	call	133e78 <__fixdfsi>
  130a74:	00e00034 	movhi	r3,32768
  130a78:	10c5883a 	add	r2,r2,r3
  130a7c:	003ff006 	br	130a40 <_gp+0xfffed368>

00130a80 <__udivdi3>:
  130a80:	defff404 	addi	sp,sp,-48
  130a84:	dcc00515 	stw	r19,20(sp)
  130a88:	dc000215 	stw	r16,8(sp)
  130a8c:	dfc00b15 	stw	ra,44(sp)
  130a90:	df000a15 	stw	fp,40(sp)
  130a94:	ddc00915 	stw	r23,36(sp)
  130a98:	dd800815 	stw	r22,32(sp)
  130a9c:	dd400715 	stw	r21,28(sp)
  130aa0:	dd000615 	stw	r20,24(sp)
  130aa4:	dc800415 	stw	r18,16(sp)
  130aa8:	dc400315 	stw	r17,12(sp)
  130aac:	2027883a 	mov	r19,r4
  130ab0:	2821883a 	mov	r16,r5
  130ab4:	3800461e 	bne	r7,zero,130bd0 <__udivdi3+0x150>
  130ab8:	3023883a 	mov	r17,r6
  130abc:	2025883a 	mov	r18,r4
  130ac0:	2980572e 	bgeu	r5,r6,130c20 <__udivdi3+0x1a0>
  130ac4:	00bfffd4 	movui	r2,65535
  130ac8:	282d883a 	mov	r22,r5
  130acc:	1180b236 	bltu	r2,r6,130d98 <__udivdi3+0x318>
  130ad0:	00803fc4 	movi	r2,255
  130ad4:	1185803a 	cmpltu	r2,r2,r6
  130ad8:	100490fa 	slli	r2,r2,3
  130adc:	3086d83a 	srl	r3,r6,r2
  130ae0:	01000534 	movhi	r4,20
  130ae4:	21263484 	addi	r4,r4,-26414
  130ae8:	20c7883a 	add	r3,r4,r3
  130aec:	18c00003 	ldbu	r3,0(r3)
  130af0:	1885883a 	add	r2,r3,r2
  130af4:	00c00804 	movi	r3,32
  130af8:	1887c83a 	sub	r3,r3,r2
  130afc:	18000526 	beq	r3,zero,130b14 <__udivdi3+0x94>
  130b00:	80e0983a 	sll	r16,r16,r3
  130b04:	9884d83a 	srl	r2,r19,r2
  130b08:	30e2983a 	sll	r17,r6,r3
  130b0c:	98e4983a 	sll	r18,r19,r3
  130b10:	142cb03a 	or	r22,r2,r16
  130b14:	882ad43a 	srli	r21,r17,16
  130b18:	b009883a 	mov	r4,r22
  130b1c:	8d3fffcc 	andi	r20,r17,65535
  130b20:	a80b883a 	mov	r5,r21
  130b24:	01213100 	call	121310 <__umodsi3>
  130b28:	b009883a 	mov	r4,r22
  130b2c:	a80b883a 	mov	r5,r21
  130b30:	1027883a 	mov	r19,r2
  130b34:	01212ac0 	call	1212ac <__udivsi3>
  130b38:	100b883a 	mov	r5,r2
  130b3c:	a009883a 	mov	r4,r20
  130b40:	102d883a 	mov	r22,r2
  130b44:	01213680 	call	121368 <__mulsi3>
  130b48:	9826943a 	slli	r19,r19,16
  130b4c:	9006d43a 	srli	r3,r18,16
  130b50:	1cc6b03a 	or	r3,r3,r19
  130b54:	1880052e 	bgeu	r3,r2,130b6c <__udivdi3+0xec>
  130b58:	1c47883a 	add	r3,r3,r17
  130b5c:	b13fffc4 	addi	r4,r22,-1
  130b60:	1c400136 	bltu	r3,r17,130b68 <__udivdi3+0xe8>
  130b64:	18814236 	bltu	r3,r2,131070 <__udivdi3+0x5f0>
  130b68:	202d883a 	mov	r22,r4
  130b6c:	18a1c83a 	sub	r16,r3,r2
  130b70:	8009883a 	mov	r4,r16
  130b74:	a80b883a 	mov	r5,r21
  130b78:	01213100 	call	121310 <__umodsi3>
  130b7c:	1027883a 	mov	r19,r2
  130b80:	8009883a 	mov	r4,r16
  130b84:	a80b883a 	mov	r5,r21
  130b88:	9826943a 	slli	r19,r19,16
  130b8c:	01212ac0 	call	1212ac <__udivsi3>
  130b90:	100b883a 	mov	r5,r2
  130b94:	a009883a 	mov	r4,r20
  130b98:	94bfffcc 	andi	r18,r18,65535
  130b9c:	1021883a 	mov	r16,r2
  130ba0:	94e4b03a 	or	r18,r18,r19
  130ba4:	01213680 	call	121368 <__mulsi3>
  130ba8:	9080052e 	bgeu	r18,r2,130bc0 <__udivdi3+0x140>
  130bac:	8ca5883a 	add	r18,r17,r18
  130bb0:	80ffffc4 	addi	r3,r16,-1
  130bb4:	94410c36 	bltu	r18,r17,130fe8 <__udivdi3+0x568>
  130bb8:	90810b2e 	bgeu	r18,r2,130fe8 <__udivdi3+0x568>
  130bbc:	843fff84 	addi	r16,r16,-2
  130bc0:	b004943a 	slli	r2,r22,16
  130bc4:	0007883a 	mov	r3,zero
  130bc8:	1404b03a 	or	r2,r2,r16
  130bcc:	00005e06 	br	130d48 <__udivdi3+0x2c8>
  130bd0:	29c05b36 	bltu	r5,r7,130d40 <__udivdi3+0x2c0>
  130bd4:	00bfffd4 	movui	r2,65535
  130bd8:	11c0672e 	bgeu	r2,r7,130d78 <__udivdi3+0x2f8>
  130bdc:	00804034 	movhi	r2,256
  130be0:	10bfffc4 	addi	r2,r2,-1
  130be4:	11c10a36 	bltu	r2,r7,131010 <__udivdi3+0x590>
  130be8:	00800404 	movi	r2,16
  130bec:	3886d83a 	srl	r3,r7,r2
  130bf0:	01000534 	movhi	r4,20
  130bf4:	21263484 	addi	r4,r4,-26414
  130bf8:	20c7883a 	add	r3,r4,r3
  130bfc:	18c00003 	ldbu	r3,0(r3)
  130c00:	05c00804 	movi	r23,32
  130c04:	1885883a 	add	r2,r3,r2
  130c08:	b8afc83a 	sub	r23,r23,r2
  130c0c:	b800671e 	bne	r23,zero,130dac <__udivdi3+0x32c>
  130c10:	3c010536 	bltu	r7,r16,131028 <__udivdi3+0x5a8>
  130c14:	9985403a 	cmpgeu	r2,r19,r6
  130c18:	0007883a 	mov	r3,zero
  130c1c:	00004a06 	br	130d48 <__udivdi3+0x2c8>
  130c20:	3000041e 	bne	r6,zero,130c34 <__udivdi3+0x1b4>
  130c24:	000b883a 	mov	r5,zero
  130c28:	01000044 	movi	r4,1
  130c2c:	01212ac0 	call	1212ac <__udivsi3>
  130c30:	1023883a 	mov	r17,r2
  130c34:	00bfffd4 	movui	r2,65535
  130c38:	1440532e 	bgeu	r2,r17,130d88 <__udivdi3+0x308>
  130c3c:	00804034 	movhi	r2,256
  130c40:	10bfffc4 	addi	r2,r2,-1
  130c44:	1440f436 	bltu	r2,r17,131018 <__udivdi3+0x598>
  130c48:	00800404 	movi	r2,16
  130c4c:	8886d83a 	srl	r3,r17,r2
  130c50:	01000534 	movhi	r4,20
  130c54:	21263484 	addi	r4,r4,-26414
  130c58:	20c7883a 	add	r3,r4,r3
  130c5c:	18c00003 	ldbu	r3,0(r3)
  130c60:	1885883a 	add	r2,r3,r2
  130c64:	00c00804 	movi	r3,32
  130c68:	1887c83a 	sub	r3,r3,r2
  130c6c:	1800a51e 	bne	r3,zero,130f04 <__udivdi3+0x484>
  130c70:	882ad43a 	srli	r21,r17,16
  130c74:	8461c83a 	sub	r16,r16,r17
  130c78:	8d3fffcc 	andi	r20,r17,65535
  130c7c:	00c00044 	movi	r3,1
  130c80:	a80b883a 	mov	r5,r21
  130c84:	8009883a 	mov	r4,r16
  130c88:	d8c00115 	stw	r3,4(sp)
  130c8c:	01213100 	call	121310 <__umodsi3>
  130c90:	a80b883a 	mov	r5,r21
  130c94:	8009883a 	mov	r4,r16
  130c98:	1027883a 	mov	r19,r2
  130c9c:	01212ac0 	call	1212ac <__udivsi3>
  130ca0:	a00b883a 	mov	r5,r20
  130ca4:	1009883a 	mov	r4,r2
  130ca8:	102d883a 	mov	r22,r2
  130cac:	01213680 	call	121368 <__mulsi3>
  130cb0:	9826943a 	slli	r19,r19,16
  130cb4:	900ed43a 	srli	r7,r18,16
  130cb8:	d8c00117 	ldw	r3,4(sp)
  130cbc:	3cceb03a 	or	r7,r7,r19
  130cc0:	3880052e 	bgeu	r7,r2,130cd8 <__udivdi3+0x258>
  130cc4:	3c4f883a 	add	r7,r7,r17
  130cc8:	b13fffc4 	addi	r4,r22,-1
  130ccc:	3c400136 	bltu	r7,r17,130cd4 <__udivdi3+0x254>
  130cd0:	3880e436 	bltu	r7,r2,131064 <__udivdi3+0x5e4>
  130cd4:	202d883a 	mov	r22,r4
  130cd8:	38a1c83a 	sub	r16,r7,r2
  130cdc:	8009883a 	mov	r4,r16
  130ce0:	a80b883a 	mov	r5,r21
  130ce4:	d8c00115 	stw	r3,4(sp)
  130ce8:	01213100 	call	121310 <__umodsi3>
  130cec:	1027883a 	mov	r19,r2
  130cf0:	8009883a 	mov	r4,r16
  130cf4:	a80b883a 	mov	r5,r21
  130cf8:	9826943a 	slli	r19,r19,16
  130cfc:	01212ac0 	call	1212ac <__udivsi3>
  130d00:	a00b883a 	mov	r5,r20
  130d04:	1009883a 	mov	r4,r2
  130d08:	94bfffcc 	andi	r18,r18,65535
  130d0c:	1021883a 	mov	r16,r2
  130d10:	94e4b03a 	or	r18,r18,r19
  130d14:	01213680 	call	121368 <__mulsi3>
  130d18:	d8c00117 	ldw	r3,4(sp)
  130d1c:	9080052e 	bgeu	r18,r2,130d34 <__udivdi3+0x2b4>
  130d20:	8ca5883a 	add	r18,r17,r18
  130d24:	813fffc4 	addi	r4,r16,-1
  130d28:	9440ad36 	bltu	r18,r17,130fe0 <__udivdi3+0x560>
  130d2c:	9080ac2e 	bgeu	r18,r2,130fe0 <__udivdi3+0x560>
  130d30:	843fff84 	addi	r16,r16,-2
  130d34:	b004943a 	slli	r2,r22,16
  130d38:	1404b03a 	or	r2,r2,r16
  130d3c:	00000206 	br	130d48 <__udivdi3+0x2c8>
  130d40:	0007883a 	mov	r3,zero
  130d44:	0005883a 	mov	r2,zero
  130d48:	dfc00b17 	ldw	ra,44(sp)
  130d4c:	df000a17 	ldw	fp,40(sp)
  130d50:	ddc00917 	ldw	r23,36(sp)
  130d54:	dd800817 	ldw	r22,32(sp)
  130d58:	dd400717 	ldw	r21,28(sp)
  130d5c:	dd000617 	ldw	r20,24(sp)
  130d60:	dcc00517 	ldw	r19,20(sp)
  130d64:	dc800417 	ldw	r18,16(sp)
  130d68:	dc400317 	ldw	r17,12(sp)
  130d6c:	dc000217 	ldw	r16,8(sp)
  130d70:	dec00c04 	addi	sp,sp,48
  130d74:	f800283a 	ret
  130d78:	00803fc4 	movi	r2,255
  130d7c:	11c5803a 	cmpltu	r2,r2,r7
  130d80:	100490fa 	slli	r2,r2,3
  130d84:	003f9906 	br	130bec <_gp+0xfffed514>
  130d88:	00803fc4 	movi	r2,255
  130d8c:	1445803a 	cmpltu	r2,r2,r17
  130d90:	100490fa 	slli	r2,r2,3
  130d94:	003fad06 	br	130c4c <_gp+0xfffed574>
  130d98:	00804034 	movhi	r2,256
  130d9c:	10bfffc4 	addi	r2,r2,-1
  130da0:	11809f36 	bltu	r2,r6,131020 <__udivdi3+0x5a0>
  130da4:	00800404 	movi	r2,16
  130da8:	003f4c06 	br	130adc <_gp+0xfffed404>
  130dac:	3dce983a 	sll	r7,r7,r23
  130db0:	30b8d83a 	srl	fp,r6,r2
  130db4:	80a2d83a 	srl	r17,r16,r2
  130db8:	35cc983a 	sll	r6,r6,r23
  130dbc:	3f38b03a 	or	fp,r7,fp
  130dc0:	e024d43a 	srli	r18,fp,16
  130dc4:	9884d83a 	srl	r2,r19,r2
  130dc8:	85e0983a 	sll	r16,r16,r23
  130dcc:	8809883a 	mov	r4,r17
  130dd0:	900b883a 	mov	r5,r18
  130dd4:	d9800015 	stw	r6,0(sp)
  130dd8:	1420b03a 	or	r16,r2,r16
  130ddc:	01213100 	call	121310 <__umodsi3>
  130de0:	900b883a 	mov	r5,r18
  130de4:	8809883a 	mov	r4,r17
  130de8:	1029883a 	mov	r20,r2
  130dec:	e5bfffcc 	andi	r22,fp,65535
  130df0:	01212ac0 	call	1212ac <__udivsi3>
  130df4:	100b883a 	mov	r5,r2
  130df8:	b009883a 	mov	r4,r22
  130dfc:	102b883a 	mov	r21,r2
  130e00:	01213680 	call	121368 <__mulsi3>
  130e04:	a028943a 	slli	r20,r20,16
  130e08:	8006d43a 	srli	r3,r16,16
  130e0c:	1d06b03a 	or	r3,r3,r20
  130e10:	1880042e 	bgeu	r3,r2,130e24 <__udivdi3+0x3a4>
  130e14:	1f07883a 	add	r3,r3,fp
  130e18:	a93fffc4 	addi	r4,r21,-1
  130e1c:	1f00892e 	bgeu	r3,fp,131044 <__udivdi3+0x5c4>
  130e20:	202b883a 	mov	r21,r4
  130e24:	18a3c83a 	sub	r17,r3,r2
  130e28:	8809883a 	mov	r4,r17
  130e2c:	900b883a 	mov	r5,r18
  130e30:	01213100 	call	121310 <__umodsi3>
  130e34:	1029883a 	mov	r20,r2
  130e38:	8809883a 	mov	r4,r17
  130e3c:	900b883a 	mov	r5,r18
  130e40:	a028943a 	slli	r20,r20,16
  130e44:	01212ac0 	call	1212ac <__udivsi3>
  130e48:	100b883a 	mov	r5,r2
  130e4c:	b009883a 	mov	r4,r22
  130e50:	843fffcc 	andi	r16,r16,65535
  130e54:	1023883a 	mov	r17,r2
  130e58:	8520b03a 	or	r16,r16,r20
  130e5c:	01213680 	call	121368 <__mulsi3>
  130e60:	8080042e 	bgeu	r16,r2,130e74 <__udivdi3+0x3f4>
  130e64:	8721883a 	add	r16,r16,fp
  130e68:	88ffffc4 	addi	r3,r17,-1
  130e6c:	8700712e 	bgeu	r16,fp,131034 <__udivdi3+0x5b4>
  130e70:	1823883a 	mov	r17,r3
  130e74:	a80e943a 	slli	r7,r21,16
  130e78:	d8c00017 	ldw	r3,0(sp)
  130e7c:	80a1c83a 	sub	r16,r16,r2
  130e80:	3c64b03a 	or	r18,r7,r17
  130e84:	1d3fffcc 	andi	r20,r3,65535
  130e88:	9022d43a 	srli	r17,r18,16
  130e8c:	95bfffcc 	andi	r22,r18,65535
  130e90:	a00b883a 	mov	r5,r20
  130e94:	b009883a 	mov	r4,r22
  130e98:	182ad43a 	srli	r21,r3,16
  130e9c:	01213680 	call	121368 <__mulsi3>
  130ea0:	a00b883a 	mov	r5,r20
  130ea4:	8809883a 	mov	r4,r17
  130ea8:	1039883a 	mov	fp,r2
  130eac:	01213680 	call	121368 <__mulsi3>
  130eb0:	8809883a 	mov	r4,r17
  130eb4:	a80b883a 	mov	r5,r21
  130eb8:	1029883a 	mov	r20,r2
  130ebc:	01213680 	call	121368 <__mulsi3>
  130ec0:	a80b883a 	mov	r5,r21
  130ec4:	b009883a 	mov	r4,r22
  130ec8:	1023883a 	mov	r17,r2
  130ecc:	01213680 	call	121368 <__mulsi3>
  130ed0:	e006d43a 	srli	r3,fp,16
  130ed4:	1505883a 	add	r2,r2,r20
  130ed8:	1887883a 	add	r3,r3,r2
  130edc:	1d00022e 	bgeu	r3,r20,130ee8 <__udivdi3+0x468>
  130ee0:	00800074 	movhi	r2,1
  130ee4:	88a3883a 	add	r17,r17,r2
  130ee8:	1804d43a 	srli	r2,r3,16
  130eec:	1463883a 	add	r17,r2,r17
  130ef0:	84404436 	bltu	r16,r17,131004 <__udivdi3+0x584>
  130ef4:	84403e26 	beq	r16,r17,130ff0 <__udivdi3+0x570>
  130ef8:	9005883a 	mov	r2,r18
  130efc:	0007883a 	mov	r3,zero
  130f00:	003f9106 	br	130d48 <_gp+0xfffed670>
  130f04:	88e2983a 	sll	r17,r17,r3
  130f08:	80aed83a 	srl	r23,r16,r2
  130f0c:	80e0983a 	sll	r16,r16,r3
  130f10:	882ad43a 	srli	r21,r17,16
  130f14:	9884d83a 	srl	r2,r19,r2
  130f18:	b809883a 	mov	r4,r23
  130f1c:	a80b883a 	mov	r5,r21
  130f20:	98e4983a 	sll	r18,r19,r3
  130f24:	142cb03a 	or	r22,r2,r16
  130f28:	01213100 	call	121310 <__umodsi3>
  130f2c:	b809883a 	mov	r4,r23
  130f30:	a80b883a 	mov	r5,r21
  130f34:	1027883a 	mov	r19,r2
  130f38:	8d3fffcc 	andi	r20,r17,65535
  130f3c:	01212ac0 	call	1212ac <__udivsi3>
  130f40:	a009883a 	mov	r4,r20
  130f44:	100b883a 	mov	r5,r2
  130f48:	102f883a 	mov	r23,r2
  130f4c:	01213680 	call	121368 <__mulsi3>
  130f50:	9826943a 	slli	r19,r19,16
  130f54:	b008d43a 	srli	r4,r22,16
  130f58:	24c8b03a 	or	r4,r4,r19
  130f5c:	2080062e 	bgeu	r4,r2,130f78 <__udivdi3+0x4f8>
  130f60:	2449883a 	add	r4,r4,r17
  130f64:	b8ffffc4 	addi	r3,r23,-1
  130f68:	24403c36 	bltu	r4,r17,13105c <__udivdi3+0x5dc>
  130f6c:	20803b2e 	bgeu	r4,r2,13105c <__udivdi3+0x5dc>
  130f70:	bdffff84 	addi	r23,r23,-2
  130f74:	2449883a 	add	r4,r4,r17
  130f78:	20a1c83a 	sub	r16,r4,r2
  130f7c:	a80b883a 	mov	r5,r21
  130f80:	8009883a 	mov	r4,r16
  130f84:	01213100 	call	121310 <__umodsi3>
  130f88:	a80b883a 	mov	r5,r21
  130f8c:	8009883a 	mov	r4,r16
  130f90:	1027883a 	mov	r19,r2
  130f94:	01212ac0 	call	1212ac <__udivsi3>
  130f98:	a009883a 	mov	r4,r20
  130f9c:	100b883a 	mov	r5,r2
  130fa0:	9826943a 	slli	r19,r19,16
  130fa4:	1039883a 	mov	fp,r2
  130fa8:	01213680 	call	121368 <__mulsi3>
  130fac:	b13fffcc 	andi	r4,r22,65535
  130fb0:	24c8b03a 	or	r4,r4,r19
  130fb4:	2080062e 	bgeu	r4,r2,130fd0 <__udivdi3+0x550>
  130fb8:	2449883a 	add	r4,r4,r17
  130fbc:	e0ffffc4 	addi	r3,fp,-1
  130fc0:	24402436 	bltu	r4,r17,131054 <__udivdi3+0x5d4>
  130fc4:	2080232e 	bgeu	r4,r2,131054 <__udivdi3+0x5d4>
  130fc8:	e73fff84 	addi	fp,fp,-2
  130fcc:	2449883a 	add	r4,r4,r17
  130fd0:	b82e943a 	slli	r23,r23,16
  130fd4:	20a1c83a 	sub	r16,r4,r2
  130fd8:	bf06b03a 	or	r3,r23,fp
  130fdc:	003f2806 	br	130c80 <_gp+0xfffed5a8>
  130fe0:	2021883a 	mov	r16,r4
  130fe4:	003f5306 	br	130d34 <_gp+0xfffed65c>
  130fe8:	1821883a 	mov	r16,r3
  130fec:	003ef406 	br	130bc0 <_gp+0xfffed4e8>
  130ff0:	1806943a 	slli	r3,r3,16
  130ff4:	9de6983a 	sll	r19,r19,r23
  130ff8:	e73fffcc 	andi	fp,fp,65535
  130ffc:	1f07883a 	add	r3,r3,fp
  131000:	98ffbd2e 	bgeu	r19,r3,130ef8 <_gp+0xfffed820>
  131004:	90bfffc4 	addi	r2,r18,-1
  131008:	0007883a 	mov	r3,zero
  13100c:	003f4e06 	br	130d48 <_gp+0xfffed670>
  131010:	00800604 	movi	r2,24
  131014:	003ef506 	br	130bec <_gp+0xfffed514>
  131018:	00800604 	movi	r2,24
  13101c:	003f0b06 	br	130c4c <_gp+0xfffed574>
  131020:	00800604 	movi	r2,24
  131024:	003ead06 	br	130adc <_gp+0xfffed404>
  131028:	0007883a 	mov	r3,zero
  13102c:	00800044 	movi	r2,1
  131030:	003f4506 	br	130d48 <_gp+0xfffed670>
  131034:	80bf8e2e 	bgeu	r16,r2,130e70 <_gp+0xfffed798>
  131038:	8c7fff84 	addi	r17,r17,-2
  13103c:	8721883a 	add	r16,r16,fp
  131040:	003f8c06 	br	130e74 <_gp+0xfffed79c>
  131044:	18bf762e 	bgeu	r3,r2,130e20 <_gp+0xfffed748>
  131048:	ad7fff84 	addi	r21,r21,-2
  13104c:	1f07883a 	add	r3,r3,fp
  131050:	003f7406 	br	130e24 <_gp+0xfffed74c>
  131054:	1839883a 	mov	fp,r3
  131058:	003fdd06 	br	130fd0 <_gp+0xfffed8f8>
  13105c:	182f883a 	mov	r23,r3
  131060:	003fc506 	br	130f78 <_gp+0xfffed8a0>
  131064:	b5bfff84 	addi	r22,r22,-2
  131068:	3c4f883a 	add	r7,r7,r17
  13106c:	003f1a06 	br	130cd8 <_gp+0xfffed600>
  131070:	b5bfff84 	addi	r22,r22,-2
  131074:	1c47883a 	add	r3,r3,r17
  131078:	003ebc06 	br	130b6c <_gp+0xfffed494>

0013107c <__umoddi3>:
  13107c:	defff304 	addi	sp,sp,-52
  131080:	df000b15 	stw	fp,44(sp)
  131084:	dc400415 	stw	r17,16(sp)
  131088:	dc000315 	stw	r16,12(sp)
  13108c:	dfc00c15 	stw	ra,48(sp)
  131090:	ddc00a15 	stw	r23,40(sp)
  131094:	dd800915 	stw	r22,36(sp)
  131098:	dd400815 	stw	r21,32(sp)
  13109c:	dd000715 	stw	r20,28(sp)
  1310a0:	dcc00615 	stw	r19,24(sp)
  1310a4:	dc800515 	stw	r18,20(sp)
  1310a8:	2021883a 	mov	r16,r4
  1310ac:	2823883a 	mov	r17,r5
  1310b0:	2839883a 	mov	fp,r5
  1310b4:	3800401e 	bne	r7,zero,1311b8 <__umoddi3+0x13c>
  1310b8:	3027883a 	mov	r19,r6
  1310bc:	2029883a 	mov	r20,r4
  1310c0:	2980552e 	bgeu	r5,r6,131218 <__umoddi3+0x19c>
  1310c4:	00bfffd4 	movui	r2,65535
  1310c8:	1180a236 	bltu	r2,r6,131354 <__umoddi3+0x2d8>
  1310cc:	01003fc4 	movi	r4,255
  1310d0:	2189803a 	cmpltu	r4,r4,r6
  1310d4:	200890fa 	slli	r4,r4,3
  1310d8:	3104d83a 	srl	r2,r6,r4
  1310dc:	00c00534 	movhi	r3,20
  1310e0:	18e63484 	addi	r3,r3,-26414
  1310e4:	1885883a 	add	r2,r3,r2
  1310e8:	10c00003 	ldbu	r3,0(r2)
  1310ec:	00800804 	movi	r2,32
  1310f0:	1909883a 	add	r4,r3,r4
  1310f4:	1125c83a 	sub	r18,r2,r4
  1310f8:	90000526 	beq	r18,zero,131110 <__umoddi3+0x94>
  1310fc:	8ca2983a 	sll	r17,r17,r18
  131100:	8108d83a 	srl	r4,r16,r4
  131104:	34a6983a 	sll	r19,r6,r18
  131108:	84a8983a 	sll	r20,r16,r18
  13110c:	2478b03a 	or	fp,r4,r17
  131110:	982cd43a 	srli	r22,r19,16
  131114:	e009883a 	mov	r4,fp
  131118:	9dffffcc 	andi	r23,r19,65535
  13111c:	b00b883a 	mov	r5,r22
  131120:	01213100 	call	121310 <__umodsi3>
  131124:	b00b883a 	mov	r5,r22
  131128:	e009883a 	mov	r4,fp
  13112c:	102b883a 	mov	r21,r2
  131130:	01212ac0 	call	1212ac <__udivsi3>
  131134:	100b883a 	mov	r5,r2
  131138:	b809883a 	mov	r4,r23
  13113c:	01213680 	call	121368 <__mulsi3>
  131140:	a82a943a 	slli	r21,r21,16
  131144:	a006d43a 	srli	r3,r20,16
  131148:	1d46b03a 	or	r3,r3,r21
  13114c:	1880032e 	bgeu	r3,r2,13115c <__umoddi3+0xe0>
  131150:	1cc7883a 	add	r3,r3,r19
  131154:	1cc00136 	bltu	r3,r19,13115c <__umoddi3+0xe0>
  131158:	18813136 	bltu	r3,r2,131620 <__umoddi3+0x5a4>
  13115c:	18a1c83a 	sub	r16,r3,r2
  131160:	b00b883a 	mov	r5,r22
  131164:	8009883a 	mov	r4,r16
  131168:	01213100 	call	121310 <__umodsi3>
  13116c:	b00b883a 	mov	r5,r22
  131170:	8009883a 	mov	r4,r16
  131174:	1023883a 	mov	r17,r2
  131178:	01212ac0 	call	1212ac <__udivsi3>
  13117c:	100b883a 	mov	r5,r2
  131180:	b809883a 	mov	r4,r23
  131184:	8822943a 	slli	r17,r17,16
  131188:	01213680 	call	121368 <__mulsi3>
  13118c:	a0ffffcc 	andi	r3,r20,65535
  131190:	1c46b03a 	or	r3,r3,r17
  131194:	1880042e 	bgeu	r3,r2,1311a8 <__umoddi3+0x12c>
  131198:	1cc7883a 	add	r3,r3,r19
  13119c:	1cc00236 	bltu	r3,r19,1311a8 <__umoddi3+0x12c>
  1311a0:	1880012e 	bgeu	r3,r2,1311a8 <__umoddi3+0x12c>
  1311a4:	1cc7883a 	add	r3,r3,r19
  1311a8:	1885c83a 	sub	r2,r3,r2
  1311ac:	1484d83a 	srl	r2,r2,r18
  1311b0:	0007883a 	mov	r3,zero
  1311b4:	00005306 	br	131304 <__umoddi3+0x288>
  1311b8:	29c05036 	bltu	r5,r7,1312fc <__umoddi3+0x280>
  1311bc:	00bfffd4 	movui	r2,65535
  1311c0:	11c05c2e 	bgeu	r2,r7,131334 <__umoddi3+0x2b8>
  1311c4:	00804034 	movhi	r2,256
  1311c8:	10bfffc4 	addi	r2,r2,-1
  1311cc:	11c10636 	bltu	r2,r7,1315e8 <__umoddi3+0x56c>
  1311d0:	01000404 	movi	r4,16
  1311d4:	3904d83a 	srl	r2,r7,r4
  1311d8:	00c00534 	movhi	r3,20
  1311dc:	18e63484 	addi	r3,r3,-26414
  1311e0:	1885883a 	add	r2,r3,r2
  1311e4:	14c00003 	ldbu	r19,0(r2)
  1311e8:	00c00804 	movi	r3,32
  1311ec:	9927883a 	add	r19,r19,r4
  1311f0:	1ce9c83a 	sub	r20,r3,r19
  1311f4:	a0005c1e 	bne	r20,zero,131368 <__umoddi3+0x2ec>
  1311f8:	3c400136 	bltu	r7,r17,131200 <__umoddi3+0x184>
  1311fc:	81810a36 	bltu	r16,r6,131628 <__umoddi3+0x5ac>
  131200:	8185c83a 	sub	r2,r16,r6
  131204:	89e3c83a 	sub	r17,r17,r7
  131208:	8089803a 	cmpltu	r4,r16,r2
  13120c:	8939c83a 	sub	fp,r17,r4
  131210:	e007883a 	mov	r3,fp
  131214:	00003b06 	br	131304 <__umoddi3+0x288>
  131218:	3000041e 	bne	r6,zero,13122c <__umoddi3+0x1b0>
  13121c:	000b883a 	mov	r5,zero
  131220:	01000044 	movi	r4,1
  131224:	01212ac0 	call	1212ac <__udivsi3>
  131228:	1027883a 	mov	r19,r2
  13122c:	00bfffd4 	movui	r2,65535
  131230:	14c0442e 	bgeu	r2,r19,131344 <__umoddi3+0x2c8>
  131234:	00804034 	movhi	r2,256
  131238:	10bfffc4 	addi	r2,r2,-1
  13123c:	14c0ec36 	bltu	r2,r19,1315f0 <__umoddi3+0x574>
  131240:	00800404 	movi	r2,16
  131244:	9886d83a 	srl	r3,r19,r2
  131248:	01000534 	movhi	r4,20
  13124c:	21263484 	addi	r4,r4,-26414
  131250:	20c7883a 	add	r3,r4,r3
  131254:	18c00003 	ldbu	r3,0(r3)
  131258:	1887883a 	add	r3,r3,r2
  13125c:	00800804 	movi	r2,32
  131260:	10e5c83a 	sub	r18,r2,r3
  131264:	9000ab1e 	bne	r18,zero,131514 <__umoddi3+0x498>
  131268:	982cd43a 	srli	r22,r19,16
  13126c:	8ce3c83a 	sub	r17,r17,r19
  131270:	9dffffcc 	andi	r23,r19,65535
  131274:	b00b883a 	mov	r5,r22
  131278:	8809883a 	mov	r4,r17
  13127c:	01213100 	call	121310 <__umodsi3>
  131280:	b00b883a 	mov	r5,r22
  131284:	8809883a 	mov	r4,r17
  131288:	102b883a 	mov	r21,r2
  13128c:	01212ac0 	call	1212ac <__udivsi3>
  131290:	b80b883a 	mov	r5,r23
  131294:	1009883a 	mov	r4,r2
  131298:	01213680 	call	121368 <__mulsi3>
  13129c:	a82a943a 	slli	r21,r21,16
  1312a0:	a006d43a 	srli	r3,r20,16
  1312a4:	1d46b03a 	or	r3,r3,r21
  1312a8:	1880042e 	bgeu	r3,r2,1312bc <__umoddi3+0x240>
  1312ac:	1cc7883a 	add	r3,r3,r19
  1312b0:	1cc00236 	bltu	r3,r19,1312bc <__umoddi3+0x240>
  1312b4:	1880012e 	bgeu	r3,r2,1312bc <__umoddi3+0x240>
  1312b8:	1cc7883a 	add	r3,r3,r19
  1312bc:	18a1c83a 	sub	r16,r3,r2
  1312c0:	b00b883a 	mov	r5,r22
  1312c4:	8009883a 	mov	r4,r16
  1312c8:	01213100 	call	121310 <__umodsi3>
  1312cc:	1023883a 	mov	r17,r2
  1312d0:	b00b883a 	mov	r5,r22
  1312d4:	8009883a 	mov	r4,r16
  1312d8:	01212ac0 	call	1212ac <__udivsi3>
  1312dc:	8822943a 	slli	r17,r17,16
  1312e0:	b80b883a 	mov	r5,r23
  1312e4:	1009883a 	mov	r4,r2
  1312e8:	01213680 	call	121368 <__mulsi3>
  1312ec:	a53fffcc 	andi	r20,r20,65535
  1312f0:	a446b03a 	or	r3,r20,r17
  1312f4:	18bfac2e 	bgeu	r3,r2,1311a8 <_gp+0xfffedad0>
  1312f8:	003fa706 	br	131198 <_gp+0xfffedac0>
  1312fc:	2005883a 	mov	r2,r4
  131300:	2807883a 	mov	r3,r5
  131304:	dfc00c17 	ldw	ra,48(sp)
  131308:	df000b17 	ldw	fp,44(sp)
  13130c:	ddc00a17 	ldw	r23,40(sp)
  131310:	dd800917 	ldw	r22,36(sp)
  131314:	dd400817 	ldw	r21,32(sp)
  131318:	dd000717 	ldw	r20,28(sp)
  13131c:	dcc00617 	ldw	r19,24(sp)
  131320:	dc800517 	ldw	r18,20(sp)
  131324:	dc400417 	ldw	r17,16(sp)
  131328:	dc000317 	ldw	r16,12(sp)
  13132c:	dec00d04 	addi	sp,sp,52
  131330:	f800283a 	ret
  131334:	04c03fc4 	movi	r19,255
  131338:	99c9803a 	cmpltu	r4,r19,r7
  13133c:	200890fa 	slli	r4,r4,3
  131340:	003fa406 	br	1311d4 <_gp+0xfffedafc>
  131344:	00803fc4 	movi	r2,255
  131348:	14c5803a 	cmpltu	r2,r2,r19
  13134c:	100490fa 	slli	r2,r2,3
  131350:	003fbc06 	br	131244 <_gp+0xfffedb6c>
  131354:	00804034 	movhi	r2,256
  131358:	10bfffc4 	addi	r2,r2,-1
  13135c:	1180a636 	bltu	r2,r6,1315f8 <__umoddi3+0x57c>
  131360:	01000404 	movi	r4,16
  131364:	003f5c06 	br	1310d8 <_gp+0xfffeda00>
  131368:	3d0e983a 	sll	r7,r7,r20
  13136c:	34ead83a 	srl	r21,r6,r19
  131370:	8cc6d83a 	srl	r3,r17,r19
  131374:	8d10983a 	sll	r8,r17,r20
  131378:	3d6ab03a 	or	r21,r7,r21
  13137c:	a82cd43a 	srli	r22,r21,16
  131380:	84e2d83a 	srl	r17,r16,r19
  131384:	1809883a 	mov	r4,r3
  131388:	b00b883a 	mov	r5,r22
  13138c:	8a22b03a 	or	r17,r17,r8
  131390:	3524983a 	sll	r18,r6,r20
  131394:	dc400015 	stw	r17,0(sp)
  131398:	d8c00115 	stw	r3,4(sp)
  13139c:	01213100 	call	121310 <__umodsi3>
  1313a0:	d8c00117 	ldw	r3,4(sp)
  1313a4:	b00b883a 	mov	r5,r22
  1313a8:	1039883a 	mov	fp,r2
  1313ac:	1809883a 	mov	r4,r3
  1313b0:	01212ac0 	call	1212ac <__udivsi3>
  1313b4:	adffffcc 	andi	r23,r21,65535
  1313b8:	100b883a 	mov	r5,r2
  1313bc:	b809883a 	mov	r4,r23
  1313c0:	1023883a 	mov	r17,r2
  1313c4:	01213680 	call	121368 <__mulsi3>
  1313c8:	d9400017 	ldw	r5,0(sp)
  1313cc:	e008943a 	slli	r4,fp,16
  1313d0:	8520983a 	sll	r16,r16,r20
  1313d4:	2806d43a 	srli	r3,r5,16
  1313d8:	1906b03a 	or	r3,r3,r4
  1313dc:	1880042e 	bgeu	r3,r2,1313f0 <__umoddi3+0x374>
  1313e0:	1d47883a 	add	r3,r3,r21
  1313e4:	893fffc4 	addi	r4,r17,-1
  1313e8:	1d40892e 	bgeu	r3,r21,131610 <__umoddi3+0x594>
  1313ec:	2023883a 	mov	r17,r4
  1313f0:	18b9c83a 	sub	fp,r3,r2
  1313f4:	b00b883a 	mov	r5,r22
  1313f8:	e009883a 	mov	r4,fp
  1313fc:	01213100 	call	121310 <__umodsi3>
  131400:	b00b883a 	mov	r5,r22
  131404:	e009883a 	mov	r4,fp
  131408:	d8800215 	stw	r2,8(sp)
  13140c:	01212ac0 	call	1212ac <__udivsi3>
  131410:	100b883a 	mov	r5,r2
  131414:	b809883a 	mov	r4,r23
  131418:	102d883a 	mov	r22,r2
  13141c:	01213680 	call	121368 <__mulsi3>
  131420:	d9800217 	ldw	r6,8(sp)
  131424:	d8c00017 	ldw	r3,0(sp)
  131428:	300c943a 	slli	r6,r6,16
  13142c:	1a3fffcc 	andi	r8,r3,65535
  131430:	4190b03a 	or	r8,r8,r6
  131434:	4080042e 	bgeu	r8,r2,131448 <__umoddi3+0x3cc>
  131438:	4551883a 	add	r8,r8,r21
  13143c:	b0ffffc4 	addi	r3,r22,-1
  131440:	45406f2e 	bgeu	r8,r21,131600 <__umoddi3+0x584>
  131444:	182d883a 	mov	r22,r3
  131448:	880e943a 	slli	r7,r17,16
  13144c:	9006d43a 	srli	r3,r18,16
  131450:	91bfffcc 	andi	r6,r18,65535
  131454:	3dacb03a 	or	r22,r7,r22
  131458:	b02ed43a 	srli	r23,r22,16
  13145c:	b5bfffcc 	andi	r22,r22,65535
  131460:	300b883a 	mov	r5,r6
  131464:	b009883a 	mov	r4,r22
  131468:	40a3c83a 	sub	r17,r8,r2
  13146c:	d8c00115 	stw	r3,4(sp)
  131470:	d9800215 	stw	r6,8(sp)
  131474:	01213680 	call	121368 <__mulsi3>
  131478:	d9800217 	ldw	r6,8(sp)
  13147c:	b809883a 	mov	r4,r23
  131480:	1039883a 	mov	fp,r2
  131484:	300b883a 	mov	r5,r6
  131488:	01213680 	call	121368 <__mulsi3>
  13148c:	d8c00117 	ldw	r3,4(sp)
  131490:	b809883a 	mov	r4,r23
  131494:	d8800215 	stw	r2,8(sp)
  131498:	180b883a 	mov	r5,r3
  13149c:	01213680 	call	121368 <__mulsi3>
  1314a0:	d8c00117 	ldw	r3,4(sp)
  1314a4:	b009883a 	mov	r4,r22
  1314a8:	102f883a 	mov	r23,r2
  1314ac:	180b883a 	mov	r5,r3
  1314b0:	01213680 	call	121368 <__mulsi3>
  1314b4:	d9800217 	ldw	r6,8(sp)
  1314b8:	e006d43a 	srli	r3,fp,16
  1314bc:	1185883a 	add	r2,r2,r6
  1314c0:	1885883a 	add	r2,r3,r2
  1314c4:	1180022e 	bgeu	r2,r6,1314d0 <__umoddi3+0x454>
  1314c8:	00c00074 	movhi	r3,1
  1314cc:	b8ef883a 	add	r23,r23,r3
  1314d0:	1006d43a 	srli	r3,r2,16
  1314d4:	1004943a 	slli	r2,r2,16
  1314d8:	e73fffcc 	andi	fp,fp,65535
  1314dc:	1dc7883a 	add	r3,r3,r23
  1314e0:	1739883a 	add	fp,r2,fp
  1314e4:	88c03a36 	bltu	r17,r3,1315d0 <__umoddi3+0x554>
  1314e8:	88c05126 	beq	r17,r3,131630 <__umoddi3+0x5b4>
  1314ec:	88c9c83a 	sub	r4,r17,r3
  1314f0:	e00f883a 	mov	r7,fp
  1314f4:	81cfc83a 	sub	r7,r16,r7
  1314f8:	81c7803a 	cmpltu	r3,r16,r7
  1314fc:	20c7c83a 	sub	r3,r4,r3
  131500:	1cc4983a 	sll	r2,r3,r19
  131504:	3d0ed83a 	srl	r7,r7,r20
  131508:	1d06d83a 	srl	r3,r3,r20
  13150c:	11c4b03a 	or	r2,r2,r7
  131510:	003f7c06 	br	131304 <_gp+0xfffedc2c>
  131514:	9ca6983a 	sll	r19,r19,r18
  131518:	88f8d83a 	srl	fp,r17,r3
  13151c:	80c4d83a 	srl	r2,r16,r3
  131520:	982cd43a 	srli	r22,r19,16
  131524:	8ca2983a 	sll	r17,r17,r18
  131528:	e009883a 	mov	r4,fp
  13152c:	b00b883a 	mov	r5,r22
  131530:	146ab03a 	or	r21,r2,r17
  131534:	01213100 	call	121310 <__umodsi3>
  131538:	b00b883a 	mov	r5,r22
  13153c:	e009883a 	mov	r4,fp
  131540:	1029883a 	mov	r20,r2
  131544:	9dffffcc 	andi	r23,r19,65535
  131548:	01212ac0 	call	1212ac <__udivsi3>
  13154c:	b809883a 	mov	r4,r23
  131550:	100b883a 	mov	r5,r2
  131554:	01213680 	call	121368 <__mulsi3>
  131558:	a008943a 	slli	r4,r20,16
  13155c:	a806d43a 	srli	r3,r21,16
  131560:	84a8983a 	sll	r20,r16,r18
  131564:	1906b03a 	or	r3,r3,r4
  131568:	1880042e 	bgeu	r3,r2,13157c <__umoddi3+0x500>
  13156c:	1cc7883a 	add	r3,r3,r19
  131570:	1cc00236 	bltu	r3,r19,13157c <__umoddi3+0x500>
  131574:	1880012e 	bgeu	r3,r2,13157c <__umoddi3+0x500>
  131578:	1cc7883a 	add	r3,r3,r19
  13157c:	18a3c83a 	sub	r17,r3,r2
  131580:	b00b883a 	mov	r5,r22
  131584:	8809883a 	mov	r4,r17
  131588:	01213100 	call	121310 <__umodsi3>
  13158c:	b00b883a 	mov	r5,r22
  131590:	8809883a 	mov	r4,r17
  131594:	1021883a 	mov	r16,r2
  131598:	01212ac0 	call	1212ac <__udivsi3>
  13159c:	100b883a 	mov	r5,r2
  1315a0:	b809883a 	mov	r4,r23
  1315a4:	8020943a 	slli	r16,r16,16
  1315a8:	01213680 	call	121368 <__mulsi3>
  1315ac:	a8ffffcc 	andi	r3,r21,65535
  1315b0:	1c06b03a 	or	r3,r3,r16
  1315b4:	1880042e 	bgeu	r3,r2,1315c8 <__umoddi3+0x54c>
  1315b8:	1cc7883a 	add	r3,r3,r19
  1315bc:	1cc00236 	bltu	r3,r19,1315c8 <__umoddi3+0x54c>
  1315c0:	1880012e 	bgeu	r3,r2,1315c8 <__umoddi3+0x54c>
  1315c4:	1cc7883a 	add	r3,r3,r19
  1315c8:	18a3c83a 	sub	r17,r3,r2
  1315cc:	003f2906 	br	131274 <_gp+0xfffedb9c>
  1315d0:	e48fc83a 	sub	r7,fp,r18
  1315d4:	1d49c83a 	sub	r4,r3,r21
  1315d8:	e1f9803a 	cmpltu	fp,fp,r7
  1315dc:	2739c83a 	sub	fp,r4,fp
  1315e0:	8f09c83a 	sub	r4,r17,fp
  1315e4:	003fc306 	br	1314f4 <_gp+0xfffede1c>
  1315e8:	01000604 	movi	r4,24
  1315ec:	003ef906 	br	1311d4 <_gp+0xfffedafc>
  1315f0:	00800604 	movi	r2,24
  1315f4:	003f1306 	br	131244 <_gp+0xfffedb6c>
  1315f8:	01000604 	movi	r4,24
  1315fc:	003eb606 	br	1310d8 <_gp+0xfffeda00>
  131600:	40bf902e 	bgeu	r8,r2,131444 <_gp+0xfffedd6c>
  131604:	b5bfff84 	addi	r22,r22,-2
  131608:	4551883a 	add	r8,r8,r21
  13160c:	003f8e06 	br	131448 <_gp+0xfffedd70>
  131610:	18bf762e 	bgeu	r3,r2,1313ec <_gp+0xfffedd14>
  131614:	8c7fff84 	addi	r17,r17,-2
  131618:	1d47883a 	add	r3,r3,r21
  13161c:	003f7406 	br	1313f0 <_gp+0xfffedd18>
  131620:	1cc7883a 	add	r3,r3,r19
  131624:	003ecd06 	br	13115c <_gp+0xfffeda84>
  131628:	8005883a 	mov	r2,r16
  13162c:	003ef806 	br	131210 <_gp+0xfffedb38>
  131630:	873fe736 	bltu	r16,fp,1315d0 <_gp+0xfffedef8>
  131634:	e00f883a 	mov	r7,fp
  131638:	0009883a 	mov	r4,zero
  13163c:	003fad06 	br	1314f4 <_gp+0xfffede1c>

00131640 <__eqsf2>:
  131640:	2006d5fa 	srli	r3,r4,23
  131644:	280cd5fa 	srli	r6,r5,23
  131648:	01c02034 	movhi	r7,128
  13164c:	39ffffc4 	addi	r7,r7,-1
  131650:	18c03fcc 	andi	r3,r3,255
  131654:	02003fc4 	movi	r8,255
  131658:	3904703a 	and	r2,r7,r4
  13165c:	31803fcc 	andi	r6,r6,255
  131660:	394e703a 	and	r7,r7,r5
  131664:	2008d7fa 	srli	r4,r4,31
  131668:	280ad7fa 	srli	r5,r5,31
  13166c:	1a000d26 	beq	r3,r8,1316a4 <__eqsf2+0x64>
  131670:	02003fc4 	movi	r8,255
  131674:	32000826 	beq	r6,r8,131698 <__eqsf2+0x58>
  131678:	19800226 	beq	r3,r6,131684 <__eqsf2+0x44>
  13167c:	00800044 	movi	r2,1
  131680:	f800283a 	ret
  131684:	11fffd1e 	bne	r2,r7,13167c <_gp+0xfffedfa4>
  131688:	21400926 	beq	r4,r5,1316b0 <__eqsf2+0x70>
  13168c:	183ffb1e 	bne	r3,zero,13167c <_gp+0xfffedfa4>
  131690:	1004c03a 	cmpne	r2,r2,zero
  131694:	f800283a 	ret
  131698:	383ff726 	beq	r7,zero,131678 <_gp+0xfffedfa0>
  13169c:	00800044 	movi	r2,1
  1316a0:	f800283a 	ret
  1316a4:	103ff226 	beq	r2,zero,131670 <_gp+0xfffedf98>
  1316a8:	00800044 	movi	r2,1
  1316ac:	f800283a 	ret
  1316b0:	0005883a 	mov	r2,zero
  1316b4:	f800283a 	ret

001316b8 <__gesf2>:
  1316b8:	2004d5fa 	srli	r2,r4,23
  1316bc:	2806d5fa 	srli	r3,r5,23
  1316c0:	01802034 	movhi	r6,128
  1316c4:	31bfffc4 	addi	r6,r6,-1
  1316c8:	10803fcc 	andi	r2,r2,255
  1316cc:	01c03fc4 	movi	r7,255
  1316d0:	3110703a 	and	r8,r6,r4
  1316d4:	18c03fcc 	andi	r3,r3,255
  1316d8:	314c703a 	and	r6,r6,r5
  1316dc:	2008d7fa 	srli	r4,r4,31
  1316e0:	280ad7fa 	srli	r5,r5,31
  1316e4:	11c01926 	beq	r2,r7,13174c <__gesf2+0x94>
  1316e8:	01c03fc4 	movi	r7,255
  1316ec:	19c00f26 	beq	r3,r7,13172c <__gesf2+0x74>
  1316f0:	1000061e 	bne	r2,zero,13170c <__gesf2+0x54>
  1316f4:	400f003a 	cmpeq	r7,r8,zero
  1316f8:	1800071e 	bne	r3,zero,131718 <__gesf2+0x60>
  1316fc:	3000061e 	bne	r6,zero,131718 <__gesf2+0x60>
  131700:	0005883a 	mov	r2,zero
  131704:	40000e1e 	bne	r8,zero,131740 <__gesf2+0x88>
  131708:	f800283a 	ret
  13170c:	18000a1e 	bne	r3,zero,131738 <__gesf2+0x80>
  131710:	30000b26 	beq	r6,zero,131740 <__gesf2+0x88>
  131714:	000f883a 	mov	r7,zero
  131718:	29403fcc 	andi	r5,r5,255
  13171c:	38000726 	beq	r7,zero,13173c <__gesf2+0x84>
  131720:	28000826 	beq	r5,zero,131744 <__gesf2+0x8c>
  131724:	00800044 	movi	r2,1
  131728:	f800283a 	ret
  13172c:	303ff026 	beq	r6,zero,1316f0 <_gp+0xfffee018>
  131730:	00bfff84 	movi	r2,-2
  131734:	f800283a 	ret
  131738:	29403fcc 	andi	r5,r5,255
  13173c:	21400526 	beq	r4,r5,131754 <__gesf2+0x9c>
  131740:	203ff826 	beq	r4,zero,131724 <_gp+0xfffee04c>
  131744:	00bfffc4 	movi	r2,-1
  131748:	f800283a 	ret
  13174c:	403fe626 	beq	r8,zero,1316e8 <_gp+0xfffee010>
  131750:	003ff706 	br	131730 <_gp+0xfffee058>
  131754:	18bffa16 	blt	r3,r2,131740 <_gp+0xfffee068>
  131758:	10c00216 	blt	r2,r3,131764 <__gesf2+0xac>
  13175c:	323ff836 	bltu	r6,r8,131740 <_gp+0xfffee068>
  131760:	4180022e 	bgeu	r8,r6,13176c <__gesf2+0xb4>
  131764:	203fef1e 	bne	r4,zero,131724 <_gp+0xfffee04c>
  131768:	003ff606 	br	131744 <_gp+0xfffee06c>
  13176c:	0005883a 	mov	r2,zero
  131770:	f800283a 	ret

00131774 <__lesf2>:
  131774:	2004d5fa 	srli	r2,r4,23
  131778:	280cd5fa 	srli	r6,r5,23
  13177c:	00c02034 	movhi	r3,128
  131780:	18ffffc4 	addi	r3,r3,-1
  131784:	10803fcc 	andi	r2,r2,255
  131788:	01c03fc4 	movi	r7,255
  13178c:	1910703a 	and	r8,r3,r4
  131790:	31803fcc 	andi	r6,r6,255
  131794:	1946703a 	and	r3,r3,r5
  131798:	2008d7fa 	srli	r4,r4,31
  13179c:	280ad7fa 	srli	r5,r5,31
  1317a0:	11c01b26 	beq	r2,r7,131810 <__lesf2+0x9c>
  1317a4:	01c03fc4 	movi	r7,255
  1317a8:	31c01126 	beq	r6,r7,1317f0 <__lesf2+0x7c>
  1317ac:	1000071e 	bne	r2,zero,1317cc <__lesf2+0x58>
  1317b0:	400f003a 	cmpeq	r7,r8,zero
  1317b4:	21003fcc 	andi	r4,r4,255
  1317b8:	3000081e 	bne	r6,zero,1317dc <__lesf2+0x68>
  1317bc:	1800071e 	bne	r3,zero,1317dc <__lesf2+0x68>
  1317c0:	0005883a 	mov	r2,zero
  1317c4:	40000f1e 	bne	r8,zero,131804 <__lesf2+0x90>
  1317c8:	f800283a 	ret
  1317cc:	21003fcc 	andi	r4,r4,255
  1317d0:	30000a1e 	bne	r6,zero,1317fc <__lesf2+0x88>
  1317d4:	18000b26 	beq	r3,zero,131804 <__lesf2+0x90>
  1317d8:	000f883a 	mov	r7,zero
  1317dc:	29403fcc 	andi	r5,r5,255
  1317e0:	38000726 	beq	r7,zero,131800 <__lesf2+0x8c>
  1317e4:	28000826 	beq	r5,zero,131808 <__lesf2+0x94>
  1317e8:	00800044 	movi	r2,1
  1317ec:	f800283a 	ret
  1317f0:	183fee26 	beq	r3,zero,1317ac <_gp+0xfffee0d4>
  1317f4:	00800084 	movi	r2,2
  1317f8:	f800283a 	ret
  1317fc:	29403fcc 	andi	r5,r5,255
  131800:	21400626 	beq	r4,r5,13181c <__lesf2+0xa8>
  131804:	203ff826 	beq	r4,zero,1317e8 <_gp+0xfffee110>
  131808:	00bfffc4 	movi	r2,-1
  13180c:	f800283a 	ret
  131810:	403fe426 	beq	r8,zero,1317a4 <_gp+0xfffee0cc>
  131814:	00800084 	movi	r2,2
  131818:	f800283a 	ret
  13181c:	30bff916 	blt	r6,r2,131804 <_gp+0xfffee12c>
  131820:	11800216 	blt	r2,r6,13182c <__lesf2+0xb8>
  131824:	1a3ff736 	bltu	r3,r8,131804 <_gp+0xfffee12c>
  131828:	40c0022e 	bgeu	r8,r3,131834 <__lesf2+0xc0>
  13182c:	203fee1e 	bne	r4,zero,1317e8 <_gp+0xfffee110>
  131830:	003ff506 	br	131808 <_gp+0xfffee130>
  131834:	0005883a 	mov	r2,zero
  131838:	f800283a 	ret

0013183c <__adddf3>:
  13183c:	02c00434 	movhi	r11,16
  131840:	5affffc4 	addi	r11,r11,-1
  131844:	2806d7fa 	srli	r3,r5,31
  131848:	2ad4703a 	and	r10,r5,r11
  13184c:	3ad2703a 	and	r9,r7,r11
  131850:	3804d53a 	srli	r2,r7,20
  131854:	3018d77a 	srli	r12,r6,29
  131858:	280ad53a 	srli	r5,r5,20
  13185c:	501490fa 	slli	r10,r10,3
  131860:	2010d77a 	srli	r8,r4,29
  131864:	481290fa 	slli	r9,r9,3
  131868:	380ed7fa 	srli	r7,r7,31
  13186c:	defffb04 	addi	sp,sp,-20
  131870:	dc800215 	stw	r18,8(sp)
  131874:	dc400115 	stw	r17,4(sp)
  131878:	dc000015 	stw	r16,0(sp)
  13187c:	dfc00415 	stw	ra,16(sp)
  131880:	dcc00315 	stw	r19,12(sp)
  131884:	1c803fcc 	andi	r18,r3,255
  131888:	2c01ffcc 	andi	r16,r5,2047
  13188c:	5210b03a 	or	r8,r10,r8
  131890:	202290fa 	slli	r17,r4,3
  131894:	1081ffcc 	andi	r2,r2,2047
  131898:	4b12b03a 	or	r9,r9,r12
  13189c:	300c90fa 	slli	r6,r6,3
  1318a0:	91c07526 	beq	r18,r7,131a78 <__adddf3+0x23c>
  1318a4:	8087c83a 	sub	r3,r16,r2
  1318a8:	00c0ab0e 	bge	zero,r3,131b58 <__adddf3+0x31c>
  1318ac:	10002a1e 	bne	r2,zero,131958 <__adddf3+0x11c>
  1318b0:	4984b03a 	or	r2,r9,r6
  1318b4:	1000961e 	bne	r2,zero,131b10 <__adddf3+0x2d4>
  1318b8:	888001cc 	andi	r2,r17,7
  1318bc:	10000726 	beq	r2,zero,1318dc <__adddf3+0xa0>
  1318c0:	888003cc 	andi	r2,r17,15
  1318c4:	00c00104 	movi	r3,4
  1318c8:	10c00426 	beq	r2,r3,1318dc <__adddf3+0xa0>
  1318cc:	88c7883a 	add	r3,r17,r3
  1318d0:	1c63803a 	cmpltu	r17,r3,r17
  1318d4:	4451883a 	add	r8,r8,r17
  1318d8:	1823883a 	mov	r17,r3
  1318dc:	4080202c 	andhi	r2,r8,128
  1318e0:	10005926 	beq	r2,zero,131a48 <__adddf3+0x20c>
  1318e4:	84000044 	addi	r16,r16,1
  1318e8:	0081ffc4 	movi	r2,2047
  1318ec:	8080ba26 	beq	r16,r2,131bd8 <__adddf3+0x39c>
  1318f0:	00bfe034 	movhi	r2,65408
  1318f4:	10bfffc4 	addi	r2,r2,-1
  1318f8:	4090703a 	and	r8,r8,r2
  1318fc:	4004977a 	slli	r2,r8,29
  131900:	4010927a 	slli	r8,r8,9
  131904:	8822d0fa 	srli	r17,r17,3
  131908:	8401ffcc 	andi	r16,r16,2047
  13190c:	4010d33a 	srli	r8,r8,12
  131910:	9007883a 	mov	r3,r18
  131914:	1444b03a 	or	r2,r2,r17
  131918:	8401ffcc 	andi	r16,r16,2047
  13191c:	8020953a 	slli	r16,r16,20
  131920:	18c03fcc 	andi	r3,r3,255
  131924:	01000434 	movhi	r4,16
  131928:	213fffc4 	addi	r4,r4,-1
  13192c:	180697fa 	slli	r3,r3,31
  131930:	4110703a 	and	r8,r8,r4
  131934:	4410b03a 	or	r8,r8,r16
  131938:	40c6b03a 	or	r3,r8,r3
  13193c:	dfc00417 	ldw	ra,16(sp)
  131940:	dcc00317 	ldw	r19,12(sp)
  131944:	dc800217 	ldw	r18,8(sp)
  131948:	dc400117 	ldw	r17,4(sp)
  13194c:	dc000017 	ldw	r16,0(sp)
  131950:	dec00504 	addi	sp,sp,20
  131954:	f800283a 	ret
  131958:	0081ffc4 	movi	r2,2047
  13195c:	80bfd626 	beq	r16,r2,1318b8 <_gp+0xfffee1e0>
  131960:	4a402034 	orhi	r9,r9,128
  131964:	00800e04 	movi	r2,56
  131968:	10c09f16 	blt	r2,r3,131be8 <__adddf3+0x3ac>
  13196c:	008007c4 	movi	r2,31
  131970:	10c0c216 	blt	r2,r3,131c7c <__adddf3+0x440>
  131974:	00800804 	movi	r2,32
  131978:	10c5c83a 	sub	r2,r2,r3
  13197c:	488a983a 	sll	r5,r9,r2
  131980:	30c8d83a 	srl	r4,r6,r3
  131984:	3084983a 	sll	r2,r6,r2
  131988:	48c6d83a 	srl	r3,r9,r3
  13198c:	290cb03a 	or	r6,r5,r4
  131990:	1004c03a 	cmpne	r2,r2,zero
  131994:	308cb03a 	or	r6,r6,r2
  131998:	898dc83a 	sub	r6,r17,r6
  13199c:	89a3803a 	cmpltu	r17,r17,r6
  1319a0:	40d1c83a 	sub	r8,r8,r3
  1319a4:	4451c83a 	sub	r8,r8,r17
  1319a8:	3023883a 	mov	r17,r6
  1319ac:	4080202c 	andhi	r2,r8,128
  1319b0:	10002326 	beq	r2,zero,131a40 <__adddf3+0x204>
  1319b4:	04c02034 	movhi	r19,128
  1319b8:	9cffffc4 	addi	r19,r19,-1
  1319bc:	44e6703a 	and	r19,r8,r19
  1319c0:	98007626 	beq	r19,zero,131b9c <__adddf3+0x360>
  1319c4:	9809883a 	mov	r4,r19
  1319c8:	01342240 	call	134224 <__clzsi2>
  1319cc:	10fffe04 	addi	r3,r2,-8
  1319d0:	010007c4 	movi	r4,31
  1319d4:	20c07716 	blt	r4,r3,131bb4 <__adddf3+0x378>
  1319d8:	00800804 	movi	r2,32
  1319dc:	10c5c83a 	sub	r2,r2,r3
  1319e0:	8884d83a 	srl	r2,r17,r2
  1319e4:	98d0983a 	sll	r8,r19,r3
  1319e8:	88e2983a 	sll	r17,r17,r3
  1319ec:	1204b03a 	or	r2,r2,r8
  1319f0:	1c007416 	blt	r3,r16,131bc4 <__adddf3+0x388>
  1319f4:	1c21c83a 	sub	r16,r3,r16
  1319f8:	82000044 	addi	r8,r16,1
  1319fc:	00c007c4 	movi	r3,31
  131a00:	1a009116 	blt	r3,r8,131c48 <__adddf3+0x40c>
  131a04:	00c00804 	movi	r3,32
  131a08:	1a07c83a 	sub	r3,r3,r8
  131a0c:	8a08d83a 	srl	r4,r17,r8
  131a10:	88e2983a 	sll	r17,r17,r3
  131a14:	10c6983a 	sll	r3,r2,r3
  131a18:	1210d83a 	srl	r8,r2,r8
  131a1c:	8804c03a 	cmpne	r2,r17,zero
  131a20:	1906b03a 	or	r3,r3,r4
  131a24:	18a2b03a 	or	r17,r3,r2
  131a28:	0021883a 	mov	r16,zero
  131a2c:	003fa206 	br	1318b8 <_gp+0xfffee1e0>
  131a30:	1890b03a 	or	r8,r3,r2
  131a34:	40017d26 	beq	r8,zero,13202c <__adddf3+0x7f0>
  131a38:	1011883a 	mov	r8,r2
  131a3c:	1823883a 	mov	r17,r3
  131a40:	888001cc 	andi	r2,r17,7
  131a44:	103f9e1e 	bne	r2,zero,1318c0 <_gp+0xfffee1e8>
  131a48:	4004977a 	slli	r2,r8,29
  131a4c:	8822d0fa 	srli	r17,r17,3
  131a50:	4010d0fa 	srli	r8,r8,3
  131a54:	9007883a 	mov	r3,r18
  131a58:	1444b03a 	or	r2,r2,r17
  131a5c:	0101ffc4 	movi	r4,2047
  131a60:	81002426 	beq	r16,r4,131af4 <__adddf3+0x2b8>
  131a64:	8120703a 	and	r16,r16,r4
  131a68:	01000434 	movhi	r4,16
  131a6c:	213fffc4 	addi	r4,r4,-1
  131a70:	4110703a 	and	r8,r8,r4
  131a74:	003fa806 	br	131918 <_gp+0xfffee240>
  131a78:	8089c83a 	sub	r4,r16,r2
  131a7c:	01005e0e 	bge	zero,r4,131bf8 <__adddf3+0x3bc>
  131a80:	10002b26 	beq	r2,zero,131b30 <__adddf3+0x2f4>
  131a84:	0081ffc4 	movi	r2,2047
  131a88:	80bf8b26 	beq	r16,r2,1318b8 <_gp+0xfffee1e0>
  131a8c:	4a402034 	orhi	r9,r9,128
  131a90:	00800e04 	movi	r2,56
  131a94:	1100a40e 	bge	r2,r4,131d28 <__adddf3+0x4ec>
  131a98:	498cb03a 	or	r6,r9,r6
  131a9c:	300ac03a 	cmpne	r5,r6,zero
  131aa0:	0013883a 	mov	r9,zero
  131aa4:	2c4b883a 	add	r5,r5,r17
  131aa8:	2c63803a 	cmpltu	r17,r5,r17
  131aac:	4a11883a 	add	r8,r9,r8
  131ab0:	8a11883a 	add	r8,r17,r8
  131ab4:	2823883a 	mov	r17,r5
  131ab8:	4080202c 	andhi	r2,r8,128
  131abc:	103fe026 	beq	r2,zero,131a40 <_gp+0xfffee368>
  131ac0:	84000044 	addi	r16,r16,1
  131ac4:	0081ffc4 	movi	r2,2047
  131ac8:	8080d226 	beq	r16,r2,131e14 <__adddf3+0x5d8>
  131acc:	00bfe034 	movhi	r2,65408
  131ad0:	10bfffc4 	addi	r2,r2,-1
  131ad4:	4090703a 	and	r8,r8,r2
  131ad8:	880ad07a 	srli	r5,r17,1
  131adc:	400897fa 	slli	r4,r8,31
  131ae0:	88c0004c 	andi	r3,r17,1
  131ae4:	28e2b03a 	or	r17,r5,r3
  131ae8:	4010d07a 	srli	r8,r8,1
  131aec:	2462b03a 	or	r17,r4,r17
  131af0:	003f7106 	br	1318b8 <_gp+0xfffee1e0>
  131af4:	4088b03a 	or	r4,r8,r2
  131af8:	20014526 	beq	r4,zero,132010 <__adddf3+0x7d4>
  131afc:	01000434 	movhi	r4,16
  131b00:	42000234 	orhi	r8,r8,8
  131b04:	213fffc4 	addi	r4,r4,-1
  131b08:	4110703a 	and	r8,r8,r4
  131b0c:	003f8206 	br	131918 <_gp+0xfffee240>
  131b10:	18ffffc4 	addi	r3,r3,-1
  131b14:	1800491e 	bne	r3,zero,131c3c <__adddf3+0x400>
  131b18:	898bc83a 	sub	r5,r17,r6
  131b1c:	8963803a 	cmpltu	r17,r17,r5
  131b20:	4251c83a 	sub	r8,r8,r9
  131b24:	4451c83a 	sub	r8,r8,r17
  131b28:	2823883a 	mov	r17,r5
  131b2c:	003f9f06 	br	1319ac <_gp+0xfffee2d4>
  131b30:	4984b03a 	or	r2,r9,r6
  131b34:	103f6026 	beq	r2,zero,1318b8 <_gp+0xfffee1e0>
  131b38:	213fffc4 	addi	r4,r4,-1
  131b3c:	2000931e 	bne	r4,zero,131d8c <__adddf3+0x550>
  131b40:	898d883a 	add	r6,r17,r6
  131b44:	3463803a 	cmpltu	r17,r6,r17
  131b48:	4251883a 	add	r8,r8,r9
  131b4c:	8a11883a 	add	r8,r17,r8
  131b50:	3023883a 	mov	r17,r6
  131b54:	003fd806 	br	131ab8 <_gp+0xfffee3e0>
  131b58:	1800541e 	bne	r3,zero,131cac <__adddf3+0x470>
  131b5c:	80800044 	addi	r2,r16,1
  131b60:	1081ffcc 	andi	r2,r2,2047
  131b64:	00c00044 	movi	r3,1
  131b68:	1880a00e 	bge	r3,r2,131dec <__adddf3+0x5b0>
  131b6c:	8989c83a 	sub	r4,r17,r6
  131b70:	8905803a 	cmpltu	r2,r17,r4
  131b74:	4267c83a 	sub	r19,r8,r9
  131b78:	98a7c83a 	sub	r19,r19,r2
  131b7c:	9880202c 	andhi	r2,r19,128
  131b80:	10006326 	beq	r2,zero,131d10 <__adddf3+0x4d4>
  131b84:	3463c83a 	sub	r17,r6,r17
  131b88:	4a07c83a 	sub	r3,r9,r8
  131b8c:	344d803a 	cmpltu	r6,r6,r17
  131b90:	19a7c83a 	sub	r19,r3,r6
  131b94:	3825883a 	mov	r18,r7
  131b98:	983f8a1e 	bne	r19,zero,1319c4 <_gp+0xfffee2ec>
  131b9c:	8809883a 	mov	r4,r17
  131ba0:	01342240 	call	134224 <__clzsi2>
  131ba4:	10800804 	addi	r2,r2,32
  131ba8:	10fffe04 	addi	r3,r2,-8
  131bac:	010007c4 	movi	r4,31
  131bb0:	20ff890e 	bge	r4,r3,1319d8 <_gp+0xfffee300>
  131bb4:	10bff604 	addi	r2,r2,-40
  131bb8:	8884983a 	sll	r2,r17,r2
  131bbc:	0023883a 	mov	r17,zero
  131bc0:	1c3f8c0e 	bge	r3,r16,1319f4 <_gp+0xfffee31c>
  131bc4:	023fe034 	movhi	r8,65408
  131bc8:	423fffc4 	addi	r8,r8,-1
  131bcc:	80e1c83a 	sub	r16,r16,r3
  131bd0:	1210703a 	and	r8,r2,r8
  131bd4:	003f3806 	br	1318b8 <_gp+0xfffee1e0>
  131bd8:	9007883a 	mov	r3,r18
  131bdc:	0011883a 	mov	r8,zero
  131be0:	0005883a 	mov	r2,zero
  131be4:	003f4c06 	br	131918 <_gp+0xfffee240>
  131be8:	498cb03a 	or	r6,r9,r6
  131bec:	300cc03a 	cmpne	r6,r6,zero
  131bf0:	0007883a 	mov	r3,zero
  131bf4:	003f6806 	br	131998 <_gp+0xfffee2c0>
  131bf8:	20009c1e 	bne	r4,zero,131e6c <__adddf3+0x630>
  131bfc:	80800044 	addi	r2,r16,1
  131c00:	1141ffcc 	andi	r5,r2,2047
  131c04:	01000044 	movi	r4,1
  131c08:	2140670e 	bge	r4,r5,131da8 <__adddf3+0x56c>
  131c0c:	0101ffc4 	movi	r4,2047
  131c10:	11007f26 	beq	r2,r4,131e10 <__adddf3+0x5d4>
  131c14:	898d883a 	add	r6,r17,r6
  131c18:	4247883a 	add	r3,r8,r9
  131c1c:	3451803a 	cmpltu	r8,r6,r17
  131c20:	40d1883a 	add	r8,r8,r3
  131c24:	402297fa 	slli	r17,r8,31
  131c28:	300cd07a 	srli	r6,r6,1
  131c2c:	4010d07a 	srli	r8,r8,1
  131c30:	1021883a 	mov	r16,r2
  131c34:	89a2b03a 	or	r17,r17,r6
  131c38:	003f1f06 	br	1318b8 <_gp+0xfffee1e0>
  131c3c:	0081ffc4 	movi	r2,2047
  131c40:	80bf481e 	bne	r16,r2,131964 <_gp+0xfffee28c>
  131c44:	003f1c06 	br	1318b8 <_gp+0xfffee1e0>
  131c48:	843ff844 	addi	r16,r16,-31
  131c4c:	01000804 	movi	r4,32
  131c50:	1406d83a 	srl	r3,r2,r16
  131c54:	41005026 	beq	r8,r4,131d98 <__adddf3+0x55c>
  131c58:	01001004 	movi	r4,64
  131c5c:	2211c83a 	sub	r8,r4,r8
  131c60:	1204983a 	sll	r2,r2,r8
  131c64:	88a2b03a 	or	r17,r17,r2
  131c68:	8822c03a 	cmpne	r17,r17,zero
  131c6c:	1c62b03a 	or	r17,r3,r17
  131c70:	0011883a 	mov	r8,zero
  131c74:	0021883a 	mov	r16,zero
  131c78:	003f7106 	br	131a40 <_gp+0xfffee368>
  131c7c:	193ff804 	addi	r4,r3,-32
  131c80:	00800804 	movi	r2,32
  131c84:	4908d83a 	srl	r4,r9,r4
  131c88:	18804526 	beq	r3,r2,131da0 <__adddf3+0x564>
  131c8c:	00801004 	movi	r2,64
  131c90:	10c5c83a 	sub	r2,r2,r3
  131c94:	4886983a 	sll	r3,r9,r2
  131c98:	198cb03a 	or	r6,r3,r6
  131c9c:	300cc03a 	cmpne	r6,r6,zero
  131ca0:	218cb03a 	or	r6,r4,r6
  131ca4:	0007883a 	mov	r3,zero
  131ca8:	003f3b06 	br	131998 <_gp+0xfffee2c0>
  131cac:	80002a26 	beq	r16,zero,131d58 <__adddf3+0x51c>
  131cb0:	0101ffc4 	movi	r4,2047
  131cb4:	11006826 	beq	r2,r4,131e58 <__adddf3+0x61c>
  131cb8:	00c7c83a 	sub	r3,zero,r3
  131cbc:	42002034 	orhi	r8,r8,128
  131cc0:	01000e04 	movi	r4,56
  131cc4:	20c07c16 	blt	r4,r3,131eb8 <__adddf3+0x67c>
  131cc8:	010007c4 	movi	r4,31
  131ccc:	20c0da16 	blt	r4,r3,132038 <__adddf3+0x7fc>
  131cd0:	01000804 	movi	r4,32
  131cd4:	20c9c83a 	sub	r4,r4,r3
  131cd8:	4114983a 	sll	r10,r8,r4
  131cdc:	88cad83a 	srl	r5,r17,r3
  131ce0:	8908983a 	sll	r4,r17,r4
  131ce4:	40c6d83a 	srl	r3,r8,r3
  131ce8:	5162b03a 	or	r17,r10,r5
  131cec:	2008c03a 	cmpne	r4,r4,zero
  131cf0:	8922b03a 	or	r17,r17,r4
  131cf4:	3463c83a 	sub	r17,r6,r17
  131cf8:	48c7c83a 	sub	r3,r9,r3
  131cfc:	344d803a 	cmpltu	r6,r6,r17
  131d00:	1991c83a 	sub	r8,r3,r6
  131d04:	1021883a 	mov	r16,r2
  131d08:	3825883a 	mov	r18,r7
  131d0c:	003f2706 	br	1319ac <_gp+0xfffee2d4>
  131d10:	24d0b03a 	or	r8,r4,r19
  131d14:	40001b1e 	bne	r8,zero,131d84 <__adddf3+0x548>
  131d18:	0005883a 	mov	r2,zero
  131d1c:	0007883a 	mov	r3,zero
  131d20:	0021883a 	mov	r16,zero
  131d24:	003f4d06 	br	131a5c <_gp+0xfffee384>
  131d28:	008007c4 	movi	r2,31
  131d2c:	11003c16 	blt	r2,r4,131e20 <__adddf3+0x5e4>
  131d30:	00800804 	movi	r2,32
  131d34:	1105c83a 	sub	r2,r2,r4
  131d38:	488e983a 	sll	r7,r9,r2
  131d3c:	310ad83a 	srl	r5,r6,r4
  131d40:	3084983a 	sll	r2,r6,r2
  131d44:	4912d83a 	srl	r9,r9,r4
  131d48:	394ab03a 	or	r5,r7,r5
  131d4c:	1004c03a 	cmpne	r2,r2,zero
  131d50:	288ab03a 	or	r5,r5,r2
  131d54:	003f5306 	br	131aa4 <_gp+0xfffee3cc>
  131d58:	4448b03a 	or	r4,r8,r17
  131d5c:	20003e26 	beq	r4,zero,131e58 <__adddf3+0x61c>
  131d60:	00c6303a 	nor	r3,zero,r3
  131d64:	18003a1e 	bne	r3,zero,131e50 <__adddf3+0x614>
  131d68:	3463c83a 	sub	r17,r6,r17
  131d6c:	4a07c83a 	sub	r3,r9,r8
  131d70:	344d803a 	cmpltu	r6,r6,r17
  131d74:	1991c83a 	sub	r8,r3,r6
  131d78:	1021883a 	mov	r16,r2
  131d7c:	3825883a 	mov	r18,r7
  131d80:	003f0a06 	br	1319ac <_gp+0xfffee2d4>
  131d84:	2023883a 	mov	r17,r4
  131d88:	003f0d06 	br	1319c0 <_gp+0xfffee2e8>
  131d8c:	0081ffc4 	movi	r2,2047
  131d90:	80bf3f1e 	bne	r16,r2,131a90 <_gp+0xfffee3b8>
  131d94:	003ec806 	br	1318b8 <_gp+0xfffee1e0>
  131d98:	0005883a 	mov	r2,zero
  131d9c:	003fb106 	br	131c64 <_gp+0xfffee58c>
  131da0:	0007883a 	mov	r3,zero
  131da4:	003fbc06 	br	131c98 <_gp+0xfffee5c0>
  131da8:	4444b03a 	or	r2,r8,r17
  131dac:	8000871e 	bne	r16,zero,131fcc <__adddf3+0x790>
  131db0:	1000ba26 	beq	r2,zero,13209c <__adddf3+0x860>
  131db4:	4984b03a 	or	r2,r9,r6
  131db8:	103ebf26 	beq	r2,zero,1318b8 <_gp+0xfffee1e0>
  131dbc:	8985883a 	add	r2,r17,r6
  131dc0:	4247883a 	add	r3,r8,r9
  131dc4:	1451803a 	cmpltu	r8,r2,r17
  131dc8:	40d1883a 	add	r8,r8,r3
  131dcc:	40c0202c 	andhi	r3,r8,128
  131dd0:	1023883a 	mov	r17,r2
  131dd4:	183f1a26 	beq	r3,zero,131a40 <_gp+0xfffee368>
  131dd8:	00bfe034 	movhi	r2,65408
  131ddc:	10bfffc4 	addi	r2,r2,-1
  131de0:	2021883a 	mov	r16,r4
  131de4:	4090703a 	and	r8,r8,r2
  131de8:	003eb306 	br	1318b8 <_gp+0xfffee1e0>
  131dec:	4444b03a 	or	r2,r8,r17
  131df0:	8000291e 	bne	r16,zero,131e98 <__adddf3+0x65c>
  131df4:	10004b1e 	bne	r2,zero,131f24 <__adddf3+0x6e8>
  131df8:	4990b03a 	or	r8,r9,r6
  131dfc:	40008b26 	beq	r8,zero,13202c <__adddf3+0x7f0>
  131e00:	4811883a 	mov	r8,r9
  131e04:	3023883a 	mov	r17,r6
  131e08:	3825883a 	mov	r18,r7
  131e0c:	003eaa06 	br	1318b8 <_gp+0xfffee1e0>
  131e10:	1021883a 	mov	r16,r2
  131e14:	0011883a 	mov	r8,zero
  131e18:	0005883a 	mov	r2,zero
  131e1c:	003f0f06 	br	131a5c <_gp+0xfffee384>
  131e20:	217ff804 	addi	r5,r4,-32
  131e24:	00800804 	movi	r2,32
  131e28:	494ad83a 	srl	r5,r9,r5
  131e2c:	20807d26 	beq	r4,r2,132024 <__adddf3+0x7e8>
  131e30:	00801004 	movi	r2,64
  131e34:	1109c83a 	sub	r4,r2,r4
  131e38:	4912983a 	sll	r9,r9,r4
  131e3c:	498cb03a 	or	r6,r9,r6
  131e40:	300cc03a 	cmpne	r6,r6,zero
  131e44:	298ab03a 	or	r5,r5,r6
  131e48:	0013883a 	mov	r9,zero
  131e4c:	003f1506 	br	131aa4 <_gp+0xfffee3cc>
  131e50:	0101ffc4 	movi	r4,2047
  131e54:	113f9a1e 	bne	r2,r4,131cc0 <_gp+0xfffee5e8>
  131e58:	4811883a 	mov	r8,r9
  131e5c:	3023883a 	mov	r17,r6
  131e60:	1021883a 	mov	r16,r2
  131e64:	3825883a 	mov	r18,r7
  131e68:	003e9306 	br	1318b8 <_gp+0xfffee1e0>
  131e6c:	8000161e 	bne	r16,zero,131ec8 <__adddf3+0x68c>
  131e70:	444ab03a 	or	r5,r8,r17
  131e74:	28005126 	beq	r5,zero,131fbc <__adddf3+0x780>
  131e78:	0108303a 	nor	r4,zero,r4
  131e7c:	20004d1e 	bne	r4,zero,131fb4 <__adddf3+0x778>
  131e80:	89a3883a 	add	r17,r17,r6
  131e84:	4253883a 	add	r9,r8,r9
  131e88:	898d803a 	cmpltu	r6,r17,r6
  131e8c:	3251883a 	add	r8,r6,r9
  131e90:	1021883a 	mov	r16,r2
  131e94:	003f0806 	br	131ab8 <_gp+0xfffee3e0>
  131e98:	1000301e 	bne	r2,zero,131f5c <__adddf3+0x720>
  131e9c:	4984b03a 	or	r2,r9,r6
  131ea0:	10007126 	beq	r2,zero,132068 <__adddf3+0x82c>
  131ea4:	4811883a 	mov	r8,r9
  131ea8:	3023883a 	mov	r17,r6
  131eac:	3825883a 	mov	r18,r7
  131eb0:	0401ffc4 	movi	r16,2047
  131eb4:	003e8006 	br	1318b8 <_gp+0xfffee1e0>
  131eb8:	4462b03a 	or	r17,r8,r17
  131ebc:	8822c03a 	cmpne	r17,r17,zero
  131ec0:	0007883a 	mov	r3,zero
  131ec4:	003f8b06 	br	131cf4 <_gp+0xfffee61c>
  131ec8:	0141ffc4 	movi	r5,2047
  131ecc:	11403b26 	beq	r2,r5,131fbc <__adddf3+0x780>
  131ed0:	0109c83a 	sub	r4,zero,r4
  131ed4:	42002034 	orhi	r8,r8,128
  131ed8:	01400e04 	movi	r5,56
  131edc:	29006716 	blt	r5,r4,13207c <__adddf3+0x840>
  131ee0:	014007c4 	movi	r5,31
  131ee4:	29007016 	blt	r5,r4,1320a8 <__adddf3+0x86c>
  131ee8:	01400804 	movi	r5,32
  131eec:	290bc83a 	sub	r5,r5,r4
  131ef0:	4154983a 	sll	r10,r8,r5
  131ef4:	890ed83a 	srl	r7,r17,r4
  131ef8:	894a983a 	sll	r5,r17,r5
  131efc:	4108d83a 	srl	r4,r8,r4
  131f00:	51e2b03a 	or	r17,r10,r7
  131f04:	280ac03a 	cmpne	r5,r5,zero
  131f08:	8962b03a 	or	r17,r17,r5
  131f0c:	89a3883a 	add	r17,r17,r6
  131f10:	2253883a 	add	r9,r4,r9
  131f14:	898d803a 	cmpltu	r6,r17,r6
  131f18:	3251883a 	add	r8,r6,r9
  131f1c:	1021883a 	mov	r16,r2
  131f20:	003ee506 	br	131ab8 <_gp+0xfffee3e0>
  131f24:	4984b03a 	or	r2,r9,r6
  131f28:	103e6326 	beq	r2,zero,1318b8 <_gp+0xfffee1e0>
  131f2c:	8987c83a 	sub	r3,r17,r6
  131f30:	88c9803a 	cmpltu	r4,r17,r3
  131f34:	4245c83a 	sub	r2,r8,r9
  131f38:	1105c83a 	sub	r2,r2,r4
  131f3c:	1100202c 	andhi	r4,r2,128
  131f40:	203ebb26 	beq	r4,zero,131a30 <_gp+0xfffee358>
  131f44:	3463c83a 	sub	r17,r6,r17
  131f48:	4a07c83a 	sub	r3,r9,r8
  131f4c:	344d803a 	cmpltu	r6,r6,r17
  131f50:	1991c83a 	sub	r8,r3,r6
  131f54:	3825883a 	mov	r18,r7
  131f58:	003e5706 	br	1318b8 <_gp+0xfffee1e0>
  131f5c:	4984b03a 	or	r2,r9,r6
  131f60:	10002e26 	beq	r2,zero,13201c <__adddf3+0x7e0>
  131f64:	4004d0fa 	srli	r2,r8,3
  131f68:	8822d0fa 	srli	r17,r17,3
  131f6c:	4010977a 	slli	r8,r8,29
  131f70:	10c0022c 	andhi	r3,r2,8
  131f74:	4462b03a 	or	r17,r8,r17
  131f78:	18000826 	beq	r3,zero,131f9c <__adddf3+0x760>
  131f7c:	4808d0fa 	srli	r4,r9,3
  131f80:	20c0022c 	andhi	r3,r4,8
  131f84:	1800051e 	bne	r3,zero,131f9c <__adddf3+0x760>
  131f88:	300cd0fa 	srli	r6,r6,3
  131f8c:	4806977a 	slli	r3,r9,29
  131f90:	2005883a 	mov	r2,r4
  131f94:	3825883a 	mov	r18,r7
  131f98:	19a2b03a 	or	r17,r3,r6
  131f9c:	8810d77a 	srli	r8,r17,29
  131fa0:	100490fa 	slli	r2,r2,3
  131fa4:	882290fa 	slli	r17,r17,3
  131fa8:	0401ffc4 	movi	r16,2047
  131fac:	4090b03a 	or	r8,r8,r2
  131fb0:	003e4106 	br	1318b8 <_gp+0xfffee1e0>
  131fb4:	0141ffc4 	movi	r5,2047
  131fb8:	117fc71e 	bne	r2,r5,131ed8 <_gp+0xfffee800>
  131fbc:	4811883a 	mov	r8,r9
  131fc0:	3023883a 	mov	r17,r6
  131fc4:	1021883a 	mov	r16,r2
  131fc8:	003e3b06 	br	1318b8 <_gp+0xfffee1e0>
  131fcc:	10002f26 	beq	r2,zero,13208c <__adddf3+0x850>
  131fd0:	4984b03a 	or	r2,r9,r6
  131fd4:	10001126 	beq	r2,zero,13201c <__adddf3+0x7e0>
  131fd8:	4004d0fa 	srli	r2,r8,3
  131fdc:	8822d0fa 	srli	r17,r17,3
  131fe0:	4010977a 	slli	r8,r8,29
  131fe4:	10c0022c 	andhi	r3,r2,8
  131fe8:	4462b03a 	or	r17,r8,r17
  131fec:	183feb26 	beq	r3,zero,131f9c <_gp+0xfffee8c4>
  131ff0:	4808d0fa 	srli	r4,r9,3
  131ff4:	20c0022c 	andhi	r3,r4,8
  131ff8:	183fe81e 	bne	r3,zero,131f9c <_gp+0xfffee8c4>
  131ffc:	300cd0fa 	srli	r6,r6,3
  132000:	4806977a 	slli	r3,r9,29
  132004:	2005883a 	mov	r2,r4
  132008:	19a2b03a 	or	r17,r3,r6
  13200c:	003fe306 	br	131f9c <_gp+0xfffee8c4>
  132010:	0011883a 	mov	r8,zero
  132014:	0005883a 	mov	r2,zero
  132018:	003e3f06 	br	131918 <_gp+0xfffee240>
  13201c:	0401ffc4 	movi	r16,2047
  132020:	003e2506 	br	1318b8 <_gp+0xfffee1e0>
  132024:	0013883a 	mov	r9,zero
  132028:	003f8406 	br	131e3c <_gp+0xfffee764>
  13202c:	0005883a 	mov	r2,zero
  132030:	0007883a 	mov	r3,zero
  132034:	003e8906 	br	131a5c <_gp+0xfffee384>
  132038:	197ff804 	addi	r5,r3,-32
  13203c:	01000804 	movi	r4,32
  132040:	414ad83a 	srl	r5,r8,r5
  132044:	19002426 	beq	r3,r4,1320d8 <__adddf3+0x89c>
  132048:	01001004 	movi	r4,64
  13204c:	20c7c83a 	sub	r3,r4,r3
  132050:	40c6983a 	sll	r3,r8,r3
  132054:	1c46b03a 	or	r3,r3,r17
  132058:	1806c03a 	cmpne	r3,r3,zero
  13205c:	28e2b03a 	or	r17,r5,r3
  132060:	0007883a 	mov	r3,zero
  132064:	003f2306 	br	131cf4 <_gp+0xfffee61c>
  132068:	0007883a 	mov	r3,zero
  13206c:	5811883a 	mov	r8,r11
  132070:	00bfffc4 	movi	r2,-1
  132074:	0401ffc4 	movi	r16,2047
  132078:	003e7806 	br	131a5c <_gp+0xfffee384>
  13207c:	4462b03a 	or	r17,r8,r17
  132080:	8822c03a 	cmpne	r17,r17,zero
  132084:	0009883a 	mov	r4,zero
  132088:	003fa006 	br	131f0c <_gp+0xfffee834>
  13208c:	4811883a 	mov	r8,r9
  132090:	3023883a 	mov	r17,r6
  132094:	0401ffc4 	movi	r16,2047
  132098:	003e0706 	br	1318b8 <_gp+0xfffee1e0>
  13209c:	4811883a 	mov	r8,r9
  1320a0:	3023883a 	mov	r17,r6
  1320a4:	003e0406 	br	1318b8 <_gp+0xfffee1e0>
  1320a8:	21fff804 	addi	r7,r4,-32
  1320ac:	01400804 	movi	r5,32
  1320b0:	41ced83a 	srl	r7,r8,r7
  1320b4:	21400a26 	beq	r4,r5,1320e0 <__adddf3+0x8a4>
  1320b8:	01401004 	movi	r5,64
  1320bc:	2909c83a 	sub	r4,r5,r4
  1320c0:	4108983a 	sll	r4,r8,r4
  1320c4:	2448b03a 	or	r4,r4,r17
  1320c8:	2008c03a 	cmpne	r4,r4,zero
  1320cc:	3922b03a 	or	r17,r7,r4
  1320d0:	0009883a 	mov	r4,zero
  1320d4:	003f8d06 	br	131f0c <_gp+0xfffee834>
  1320d8:	0007883a 	mov	r3,zero
  1320dc:	003fdd06 	br	132054 <_gp+0xfffee97c>
  1320e0:	0009883a 	mov	r4,zero
  1320e4:	003ff706 	br	1320c4 <_gp+0xfffee9ec>

001320e8 <__divdf3>:
  1320e8:	defff004 	addi	sp,sp,-64
  1320ec:	dc800815 	stw	r18,32(sp)
  1320f0:	2824d53a 	srli	r18,r5,20
  1320f4:	dd800c15 	stw	r22,48(sp)
  1320f8:	282cd7fa 	srli	r22,r5,31
  1320fc:	dc000615 	stw	r16,24(sp)
  132100:	04000434 	movhi	r16,16
  132104:	843fffc4 	addi	r16,r16,-1
  132108:	dfc00f15 	stw	ra,60(sp)
  13210c:	df000e15 	stw	fp,56(sp)
  132110:	ddc00d15 	stw	r23,52(sp)
  132114:	dd400b15 	stw	r21,44(sp)
  132118:	dd000a15 	stw	r20,40(sp)
  13211c:	dcc00915 	stw	r19,36(sp)
  132120:	dc400715 	stw	r17,28(sp)
  132124:	9481ffcc 	andi	r18,r18,2047
  132128:	2c20703a 	and	r16,r5,r16
  13212c:	b2003fcc 	andi	r8,r22,255
  132130:	90006126 	beq	r18,zero,1322b8 <__divdf3+0x1d0>
  132134:	0081ffc4 	movi	r2,2047
  132138:	202b883a 	mov	r21,r4
  13213c:	90803726 	beq	r18,r2,13221c <__divdf3+0x134>
  132140:	80800434 	orhi	r2,r16,16
  132144:	100490fa 	slli	r2,r2,3
  132148:	2020d77a 	srli	r16,r4,29
  13214c:	202a90fa 	slli	r21,r4,3
  132150:	94bf0044 	addi	r18,r18,-1023
  132154:	80a0b03a 	or	r16,r16,r2
  132158:	0013883a 	mov	r9,zero
  13215c:	000b883a 	mov	r5,zero
  132160:	3806d53a 	srli	r3,r7,20
  132164:	382ed7fa 	srli	r23,r7,31
  132168:	04400434 	movhi	r17,16
  13216c:	8c7fffc4 	addi	r17,r17,-1
  132170:	18c1ffcc 	andi	r3,r3,2047
  132174:	3029883a 	mov	r20,r6
  132178:	3c62703a 	and	r17,r7,r17
  13217c:	bf003fcc 	andi	fp,r23,255
  132180:	18006e26 	beq	r3,zero,13233c <__divdf3+0x254>
  132184:	0081ffc4 	movi	r2,2047
  132188:	18806626 	beq	r3,r2,132324 <__divdf3+0x23c>
  13218c:	88800434 	orhi	r2,r17,16
  132190:	100490fa 	slli	r2,r2,3
  132194:	3022d77a 	srli	r17,r6,29
  132198:	302890fa 	slli	r20,r6,3
  13219c:	18ff0044 	addi	r3,r3,-1023
  1321a0:	88a2b03a 	or	r17,r17,r2
  1321a4:	000f883a 	mov	r7,zero
  1321a8:	b5e6f03a 	xor	r19,r22,r23
  1321ac:	3a4cb03a 	or	r6,r7,r9
  1321b0:	008003c4 	movi	r2,15
  1321b4:	9809883a 	mov	r4,r19
  1321b8:	90c7c83a 	sub	r3,r18,r3
  1321bc:	9cc03fcc 	andi	r19,r19,255
  1321c0:	11809636 	bltu	r2,r6,13241c <__divdf3+0x334>
  1321c4:	300c90ba 	slli	r6,r6,2
  1321c8:	008004f4 	movhi	r2,19
  1321cc:	10887704 	addi	r2,r2,8668
  1321d0:	308d883a 	add	r6,r6,r2
  1321d4:	30800017 	ldw	r2,0(r6)
  1321d8:	1000683a 	jmp	r2
  1321dc:	0013241c 	xori	zero,zero,19600
  1321e0:	00132254 	movui	zero,19593
  1321e4:	0013240c 	andi	zero,zero,19600
  1321e8:	00132248 	cmpgei	zero,zero,19593
  1321ec:	0013240c 	andi	zero,zero,19600
  1321f0:	001323e0 	cmpeqi	zero,zero,19599
  1321f4:	0013240c 	andi	zero,zero,19600
  1321f8:	00132248 	cmpgei	zero,zero,19593
  1321fc:	00132254 	movui	zero,19593
  132200:	00132254 	movui	zero,19593
  132204:	001323e0 	cmpeqi	zero,zero,19599
  132208:	00132248 	cmpgei	zero,zero,19593
  13220c:	00132238 	rdprs	zero,zero,19592
  132210:	00132238 	rdprs	zero,zero,19592
  132214:	00132238 	rdprs	zero,zero,19592
  132218:	001327a4 	muli	zero,zero,19614
  13221c:	2404b03a 	or	r2,r4,r16
  132220:	10006c1e 	bne	r2,zero,1323d4 <__divdf3+0x2ec>
  132224:	02400204 	movi	r9,8
  132228:	0021883a 	mov	r16,zero
  13222c:	002b883a 	mov	r21,zero
  132230:	01400084 	movi	r5,2
  132234:	003fca06 	br	132160 <_gp+0xfffeea88>
  132238:	8023883a 	mov	r17,r16
  13223c:	a829883a 	mov	r20,r21
  132240:	4039883a 	mov	fp,r8
  132244:	280f883a 	mov	r7,r5
  132248:	00800084 	movi	r2,2
  13224c:	3881601e 	bne	r7,r2,1327d0 <__divdf3+0x6e8>
  132250:	e027883a 	mov	r19,fp
  132254:	9900004c 	andi	r4,r19,1
  132258:	0081ffc4 	movi	r2,2047
  13225c:	0021883a 	mov	r16,zero
  132260:	002b883a 	mov	r21,zero
  132264:	1004953a 	slli	r2,r2,20
  132268:	20c03fcc 	andi	r3,r4,255
  13226c:	01400434 	movhi	r5,16
  132270:	297fffc4 	addi	r5,r5,-1
  132274:	180697fa 	slli	r3,r3,31
  132278:	8160703a 	and	r16,r16,r5
  13227c:	80a0b03a 	or	r16,r16,r2
  132280:	80c6b03a 	or	r3,r16,r3
  132284:	a805883a 	mov	r2,r21
  132288:	dfc00f17 	ldw	ra,60(sp)
  13228c:	df000e17 	ldw	fp,56(sp)
  132290:	ddc00d17 	ldw	r23,52(sp)
  132294:	dd800c17 	ldw	r22,48(sp)
  132298:	dd400b17 	ldw	r21,44(sp)
  13229c:	dd000a17 	ldw	r20,40(sp)
  1322a0:	dcc00917 	ldw	r19,36(sp)
  1322a4:	dc800817 	ldw	r18,32(sp)
  1322a8:	dc400717 	ldw	r17,28(sp)
  1322ac:	dc000617 	ldw	r16,24(sp)
  1322b0:	dec01004 	addi	sp,sp,64
  1322b4:	f800283a 	ret
  1322b8:	2404b03a 	or	r2,r4,r16
  1322bc:	2023883a 	mov	r17,r4
  1322c0:	10003f26 	beq	r2,zero,1323c0 <__divdf3+0x2d8>
  1322c4:	80015e26 	beq	r16,zero,132840 <__divdf3+0x758>
  1322c8:	8009883a 	mov	r4,r16
  1322cc:	d9800215 	stw	r6,8(sp)
  1322d0:	d9c00515 	stw	r7,20(sp)
  1322d4:	da000415 	stw	r8,16(sp)
  1322d8:	01342240 	call	134224 <__clzsi2>
  1322dc:	d9800217 	ldw	r6,8(sp)
  1322e0:	d9c00517 	ldw	r7,20(sp)
  1322e4:	da000417 	ldw	r8,16(sp)
  1322e8:	113ffd44 	addi	r4,r2,-11
  1322ec:	00c00704 	movi	r3,28
  1322f0:	19014f16 	blt	r3,r4,132830 <__divdf3+0x748>
  1322f4:	00c00744 	movi	r3,29
  1322f8:	157ffe04 	addi	r21,r2,-8
  1322fc:	1907c83a 	sub	r3,r3,r4
  132300:	8560983a 	sll	r16,r16,r21
  132304:	88c6d83a 	srl	r3,r17,r3
  132308:	8d6a983a 	sll	r21,r17,r21
  13230c:	1c20b03a 	or	r16,r3,r16
  132310:	1080fcc4 	addi	r2,r2,1011
  132314:	00a5c83a 	sub	r18,zero,r2
  132318:	0013883a 	mov	r9,zero
  13231c:	000b883a 	mov	r5,zero
  132320:	003f8f06 	br	132160 <_gp+0xfffeea88>
  132324:	3444b03a 	or	r2,r6,r17
  132328:	1000231e 	bne	r2,zero,1323b8 <__divdf3+0x2d0>
  13232c:	0023883a 	mov	r17,zero
  132330:	0029883a 	mov	r20,zero
  132334:	01c00084 	movi	r7,2
  132338:	003f9b06 	br	1321a8 <_gp+0xfffeead0>
  13233c:	3444b03a 	or	r2,r6,r17
  132340:	10001926 	beq	r2,zero,1323a8 <__divdf3+0x2c0>
  132344:	88014b26 	beq	r17,zero,132874 <__divdf3+0x78c>
  132348:	8809883a 	mov	r4,r17
  13234c:	d9400115 	stw	r5,4(sp)
  132350:	d9800215 	stw	r6,8(sp)
  132354:	da000415 	stw	r8,16(sp)
  132358:	da400315 	stw	r9,12(sp)
  13235c:	01342240 	call	134224 <__clzsi2>
  132360:	d9400117 	ldw	r5,4(sp)
  132364:	d9800217 	ldw	r6,8(sp)
  132368:	da000417 	ldw	r8,16(sp)
  13236c:	da400317 	ldw	r9,12(sp)
  132370:	113ffd44 	addi	r4,r2,-11
  132374:	00c00704 	movi	r3,28
  132378:	19013a16 	blt	r3,r4,132864 <__divdf3+0x77c>
  13237c:	00c00744 	movi	r3,29
  132380:	153ffe04 	addi	r20,r2,-8
  132384:	1907c83a 	sub	r3,r3,r4
  132388:	8d22983a 	sll	r17,r17,r20
  13238c:	30c6d83a 	srl	r3,r6,r3
  132390:	3528983a 	sll	r20,r6,r20
  132394:	1c62b03a 	or	r17,r3,r17
  132398:	1080fcc4 	addi	r2,r2,1011
  13239c:	0087c83a 	sub	r3,zero,r2
  1323a0:	000f883a 	mov	r7,zero
  1323a4:	003f8006 	br	1321a8 <_gp+0xfffeead0>
  1323a8:	0023883a 	mov	r17,zero
  1323ac:	0029883a 	mov	r20,zero
  1323b0:	01c00044 	movi	r7,1
  1323b4:	003f7c06 	br	1321a8 <_gp+0xfffeead0>
  1323b8:	01c000c4 	movi	r7,3
  1323bc:	003f7a06 	br	1321a8 <_gp+0xfffeead0>
  1323c0:	02400104 	movi	r9,4
  1323c4:	0021883a 	mov	r16,zero
  1323c8:	002b883a 	mov	r21,zero
  1323cc:	01400044 	movi	r5,1
  1323d0:	003f6306 	br	132160 <_gp+0xfffeea88>
  1323d4:	02400304 	movi	r9,12
  1323d8:	014000c4 	movi	r5,3
  1323dc:	003f6006 	br	132160 <_gp+0xfffeea88>
  1323e0:	04000434 	movhi	r16,16
  1323e4:	0009883a 	mov	r4,zero
  1323e8:	843fffc4 	addi	r16,r16,-1
  1323ec:	057fffc4 	movi	r21,-1
  1323f0:	0081ffc4 	movi	r2,2047
  1323f4:	003f9b06 	br	132264 <_gp+0xfffeeb8c>
  1323f8:	00c00044 	movi	r3,1
  1323fc:	1887c83a 	sub	r3,r3,r2
  132400:	01000e04 	movi	r4,56
  132404:	20c1530e 	bge	r4,r3,132954 <__divdf3+0x86c>
  132408:	9900004c 	andi	r4,r19,1
  13240c:	0005883a 	mov	r2,zero
  132410:	0021883a 	mov	r16,zero
  132414:	002b883a 	mov	r21,zero
  132418:	003f9206 	br	132264 <_gp+0xfffeeb8c>
  13241c:	8c012e36 	bltu	r17,r16,1328d8 <__divdf3+0x7f0>
  132420:	84412c26 	beq	r16,r17,1328d4 <__divdf3+0x7ec>
  132424:	a82f883a 	mov	r23,r21
  132428:	18ffffc4 	addi	r3,r3,-1
  13242c:	002b883a 	mov	r21,zero
  132430:	a004d63a 	srli	r2,r20,24
  132434:	8822923a 	slli	r17,r17,8
  132438:	a028923a 	slli	r20,r20,8
  13243c:	8009883a 	mov	r4,r16
  132440:	88acb03a 	or	r22,r17,r2
  132444:	dd000015 	stw	r20,0(sp)
  132448:	b028d43a 	srli	r20,r22,16
  13244c:	d8c00215 	stw	r3,8(sp)
  132450:	b4bfffcc 	andi	r18,r22,65535
  132454:	a00b883a 	mov	r5,r20
  132458:	01212ac0 	call	1212ac <__udivsi3>
  13245c:	100b883a 	mov	r5,r2
  132460:	9009883a 	mov	r4,r18
  132464:	1023883a 	mov	r17,r2
  132468:	01213680 	call	121368 <__mulsi3>
  13246c:	8009883a 	mov	r4,r16
  132470:	a00b883a 	mov	r5,r20
  132474:	1039883a 	mov	fp,r2
  132478:	01213100 	call	121310 <__umodsi3>
  13247c:	1004943a 	slli	r2,r2,16
  132480:	b808d43a 	srli	r4,r23,16
  132484:	d8c00217 	ldw	r3,8(sp)
  132488:	2084b03a 	or	r2,r4,r2
  13248c:	1700062e 	bgeu	r2,fp,1324a8 <__divdf3+0x3c0>
  132490:	1585883a 	add	r2,r2,r22
  132494:	893fffc4 	addi	r4,r17,-1
  132498:	15811d36 	bltu	r2,r22,132910 <__divdf3+0x828>
  13249c:	17011c2e 	bgeu	r2,fp,132910 <__divdf3+0x828>
  1324a0:	8c7fff84 	addi	r17,r17,-2
  1324a4:	1585883a 	add	r2,r2,r22
  1324a8:	1739c83a 	sub	fp,r2,fp
  1324ac:	a00b883a 	mov	r5,r20
  1324b0:	e009883a 	mov	r4,fp
  1324b4:	d8c00215 	stw	r3,8(sp)
  1324b8:	01212ac0 	call	1212ac <__udivsi3>
  1324bc:	100b883a 	mov	r5,r2
  1324c0:	9009883a 	mov	r4,r18
  1324c4:	1021883a 	mov	r16,r2
  1324c8:	01213680 	call	121368 <__mulsi3>
  1324cc:	a00b883a 	mov	r5,r20
  1324d0:	e009883a 	mov	r4,fp
  1324d4:	d8800415 	stw	r2,16(sp)
  1324d8:	01213100 	call	121310 <__umodsi3>
  1324dc:	1004943a 	slli	r2,r2,16
  1324e0:	da000417 	ldw	r8,16(sp)
  1324e4:	bdffffcc 	andi	r23,r23,65535
  1324e8:	b884b03a 	or	r2,r23,r2
  1324ec:	d8c00217 	ldw	r3,8(sp)
  1324f0:	1200062e 	bgeu	r2,r8,13250c <__divdf3+0x424>
  1324f4:	1585883a 	add	r2,r2,r22
  1324f8:	813fffc4 	addi	r4,r16,-1
  1324fc:	15810236 	bltu	r2,r22,132908 <__divdf3+0x820>
  132500:	1201012e 	bgeu	r2,r8,132908 <__divdf3+0x820>
  132504:	843fff84 	addi	r16,r16,-2
  132508:	1585883a 	add	r2,r2,r22
  13250c:	8822943a 	slli	r17,r17,16
  132510:	d9800017 	ldw	r6,0(sp)
  132514:	1211c83a 	sub	r8,r2,r8
  132518:	8c22b03a 	or	r17,r17,r16
  13251c:	373fffcc 	andi	fp,r6,65535
  132520:	8abfffcc 	andi	r10,r17,65535
  132524:	8820d43a 	srli	r16,r17,16
  132528:	5009883a 	mov	r4,r10
  13252c:	e00b883a 	mov	r5,fp
  132530:	302ed43a 	srli	r23,r6,16
  132534:	d8c00215 	stw	r3,8(sp)
  132538:	da000415 	stw	r8,16(sp)
  13253c:	da800115 	stw	r10,4(sp)
  132540:	01213680 	call	121368 <__mulsi3>
  132544:	800b883a 	mov	r5,r16
  132548:	e009883a 	mov	r4,fp
  13254c:	d8800515 	stw	r2,20(sp)
  132550:	01213680 	call	121368 <__mulsi3>
  132554:	8009883a 	mov	r4,r16
  132558:	b80b883a 	mov	r5,r23
  13255c:	d8800315 	stw	r2,12(sp)
  132560:	01213680 	call	121368 <__mulsi3>
  132564:	da800117 	ldw	r10,4(sp)
  132568:	b80b883a 	mov	r5,r23
  13256c:	1021883a 	mov	r16,r2
  132570:	5009883a 	mov	r4,r10
  132574:	01213680 	call	121368 <__mulsi3>
  132578:	d9c00517 	ldw	r7,20(sp)
  13257c:	da400317 	ldw	r9,12(sp)
  132580:	d8c00217 	ldw	r3,8(sp)
  132584:	3808d43a 	srli	r4,r7,16
  132588:	1245883a 	add	r2,r2,r9
  13258c:	da000417 	ldw	r8,16(sp)
  132590:	2085883a 	add	r2,r4,r2
  132594:	1240022e 	bgeu	r2,r9,1325a0 <__divdf3+0x4b8>
  132598:	01000074 	movhi	r4,1
  13259c:	8121883a 	add	r16,r16,r4
  1325a0:	1008d43a 	srli	r4,r2,16
  1325a4:	1004943a 	slli	r2,r2,16
  1325a8:	39ffffcc 	andi	r7,r7,65535
  1325ac:	2409883a 	add	r4,r4,r16
  1325b0:	11c5883a 	add	r2,r2,r7
  1325b4:	4100bb36 	bltu	r8,r4,1328a4 <__divdf3+0x7bc>
  1325b8:	4100d726 	beq	r8,r4,132918 <__divdf3+0x830>
  1325bc:	4109c83a 	sub	r4,r8,r4
  1325c0:	a8a1c83a 	sub	r16,r21,r2
  1325c4:	ac2b803a 	cmpltu	r21,r21,r16
  1325c8:	256bc83a 	sub	r21,r4,r21
  1325cc:	b540d926 	beq	r22,r21,132934 <__divdf3+0x84c>
  1325d0:	a00b883a 	mov	r5,r20
  1325d4:	a809883a 	mov	r4,r21
  1325d8:	d8c00215 	stw	r3,8(sp)
  1325dc:	01212ac0 	call	1212ac <__udivsi3>
  1325e0:	100b883a 	mov	r5,r2
  1325e4:	9009883a 	mov	r4,r18
  1325e8:	d8800515 	stw	r2,20(sp)
  1325ec:	01213680 	call	121368 <__mulsi3>
  1325f0:	a809883a 	mov	r4,r21
  1325f4:	a00b883a 	mov	r5,r20
  1325f8:	d8800415 	stw	r2,16(sp)
  1325fc:	01213100 	call	121310 <__umodsi3>
  132600:	1004943a 	slli	r2,r2,16
  132604:	8008d43a 	srli	r4,r16,16
  132608:	da000417 	ldw	r8,16(sp)
  13260c:	d8c00217 	ldw	r3,8(sp)
  132610:	2084b03a 	or	r2,r4,r2
  132614:	d9c00517 	ldw	r7,20(sp)
  132618:	1200062e 	bgeu	r2,r8,132634 <__divdf3+0x54c>
  13261c:	1585883a 	add	r2,r2,r22
  132620:	393fffc4 	addi	r4,r7,-1
  132624:	1580c536 	bltu	r2,r22,13293c <__divdf3+0x854>
  132628:	1200c42e 	bgeu	r2,r8,13293c <__divdf3+0x854>
  13262c:	39ffff84 	addi	r7,r7,-2
  132630:	1585883a 	add	r2,r2,r22
  132634:	122bc83a 	sub	r21,r2,r8
  132638:	a00b883a 	mov	r5,r20
  13263c:	a809883a 	mov	r4,r21
  132640:	d8c00215 	stw	r3,8(sp)
  132644:	d9c00515 	stw	r7,20(sp)
  132648:	01212ac0 	call	1212ac <__udivsi3>
  13264c:	9009883a 	mov	r4,r18
  132650:	100b883a 	mov	r5,r2
  132654:	d8800415 	stw	r2,16(sp)
  132658:	01213680 	call	121368 <__mulsi3>
  13265c:	a809883a 	mov	r4,r21
  132660:	a00b883a 	mov	r5,r20
  132664:	1025883a 	mov	r18,r2
  132668:	01213100 	call	121310 <__umodsi3>
  13266c:	1004943a 	slli	r2,r2,16
  132670:	813fffcc 	andi	r4,r16,65535
  132674:	d8c00217 	ldw	r3,8(sp)
  132678:	20a0b03a 	or	r16,r4,r2
  13267c:	d9c00517 	ldw	r7,20(sp)
  132680:	da000417 	ldw	r8,16(sp)
  132684:	8480062e 	bgeu	r16,r18,1326a0 <__divdf3+0x5b8>
  132688:	85a1883a 	add	r16,r16,r22
  13268c:	40bfffc4 	addi	r2,r8,-1
  132690:	8580ac36 	bltu	r16,r22,132944 <__divdf3+0x85c>
  132694:	8480ab2e 	bgeu	r16,r18,132944 <__divdf3+0x85c>
  132698:	423fff84 	addi	r8,r8,-2
  13269c:	85a1883a 	add	r16,r16,r22
  1326a0:	3804943a 	slli	r2,r7,16
  1326a4:	84a1c83a 	sub	r16,r16,r18
  1326a8:	e009883a 	mov	r4,fp
  1326ac:	1228b03a 	or	r20,r2,r8
  1326b0:	a1ffffcc 	andi	r7,r20,65535
  1326b4:	a024d43a 	srli	r18,r20,16
  1326b8:	380b883a 	mov	r5,r7
  1326bc:	d8c00215 	stw	r3,8(sp)
  1326c0:	d9c00515 	stw	r7,20(sp)
  1326c4:	01213680 	call	121368 <__mulsi3>
  1326c8:	900b883a 	mov	r5,r18
  1326cc:	e009883a 	mov	r4,fp
  1326d0:	102b883a 	mov	r21,r2
  1326d4:	01213680 	call	121368 <__mulsi3>
  1326d8:	900b883a 	mov	r5,r18
  1326dc:	b809883a 	mov	r4,r23
  1326e0:	1039883a 	mov	fp,r2
  1326e4:	01213680 	call	121368 <__mulsi3>
  1326e8:	d9c00517 	ldw	r7,20(sp)
  1326ec:	b80b883a 	mov	r5,r23
  1326f0:	1025883a 	mov	r18,r2
  1326f4:	3809883a 	mov	r4,r7
  1326f8:	01213680 	call	121368 <__mulsi3>
  1326fc:	a808d43a 	srli	r4,r21,16
  132700:	1705883a 	add	r2,r2,fp
  132704:	d8c00217 	ldw	r3,8(sp)
  132708:	2085883a 	add	r2,r4,r2
  13270c:	1700022e 	bgeu	r2,fp,132718 <__divdf3+0x630>
  132710:	01000074 	movhi	r4,1
  132714:	9125883a 	add	r18,r18,r4
  132718:	1008d43a 	srli	r4,r2,16
  13271c:	1004943a 	slli	r2,r2,16
  132720:	ad7fffcc 	andi	r21,r21,65535
  132724:	2489883a 	add	r4,r4,r18
  132728:	1545883a 	add	r2,r2,r21
  13272c:	81003836 	bltu	r16,r4,132810 <__divdf3+0x728>
  132730:	81003626 	beq	r16,r4,13280c <__divdf3+0x724>
  132734:	a5000054 	ori	r20,r20,1
  132738:	1880ffc4 	addi	r2,r3,1023
  13273c:	00bf2e0e 	bge	zero,r2,1323f8 <_gp+0xfffeed20>
  132740:	a10001cc 	andi	r4,r20,7
  132744:	20000726 	beq	r4,zero,132764 <__divdf3+0x67c>
  132748:	a10003cc 	andi	r4,r20,15
  13274c:	01400104 	movi	r5,4
  132750:	21400426 	beq	r4,r5,132764 <__divdf3+0x67c>
  132754:	a149883a 	add	r4,r20,r5
  132758:	2529803a 	cmpltu	r20,r4,r20
  13275c:	8d23883a 	add	r17,r17,r20
  132760:	2029883a 	mov	r20,r4
  132764:	8900402c 	andhi	r4,r17,256
  132768:	20000426 	beq	r4,zero,13277c <__divdf3+0x694>
  13276c:	18810004 	addi	r2,r3,1024
  132770:	00ffc034 	movhi	r3,65280
  132774:	18ffffc4 	addi	r3,r3,-1
  132778:	88e2703a 	and	r17,r17,r3
  13277c:	00c1ff84 	movi	r3,2046
  132780:	18beb416 	blt	r3,r2,132254 <_gp+0xfffeeb7c>
  132784:	a028d0fa 	srli	r20,r20,3
  132788:	882a977a 	slli	r21,r17,29
  13278c:	8820927a 	slli	r16,r17,9
  132790:	1081ffcc 	andi	r2,r2,2047
  132794:	ad2ab03a 	or	r21,r21,r20
  132798:	8020d33a 	srli	r16,r16,12
  13279c:	9900004c 	andi	r4,r19,1
  1327a0:	003eb006 	br	132264 <_gp+0xfffeeb8c>
  1327a4:	8080022c 	andhi	r2,r16,8
  1327a8:	10001226 	beq	r2,zero,1327f4 <__divdf3+0x70c>
  1327ac:	8880022c 	andhi	r2,r17,8
  1327b0:	1000101e 	bne	r2,zero,1327f4 <__divdf3+0x70c>
  1327b4:	00800434 	movhi	r2,16
  1327b8:	8c000234 	orhi	r16,r17,8
  1327bc:	10bfffc4 	addi	r2,r2,-1
  1327c0:	b809883a 	mov	r4,r23
  1327c4:	80a0703a 	and	r16,r16,r2
  1327c8:	a02b883a 	mov	r21,r20
  1327cc:	003f0806 	br	1323f0 <_gp+0xfffeed18>
  1327d0:	008000c4 	movi	r2,3
  1327d4:	3880b126 	beq	r7,r2,132a9c <__divdf3+0x9b4>
  1327d8:	00800044 	movi	r2,1
  1327dc:	38805b1e 	bne	r7,r2,13294c <__divdf3+0x864>
  1327e0:	e009883a 	mov	r4,fp
  1327e4:	0005883a 	mov	r2,zero
  1327e8:	0021883a 	mov	r16,zero
  1327ec:	002b883a 	mov	r21,zero
  1327f0:	003e9c06 	br	132264 <_gp+0xfffeeb8c>
  1327f4:	00800434 	movhi	r2,16
  1327f8:	84000234 	orhi	r16,r16,8
  1327fc:	10bfffc4 	addi	r2,r2,-1
  132800:	b009883a 	mov	r4,r22
  132804:	80a0703a 	and	r16,r16,r2
  132808:	003ef906 	br	1323f0 <_gp+0xfffeed18>
  13280c:	103fca26 	beq	r2,zero,132738 <_gp+0xfffef060>
  132810:	b421883a 	add	r16,r22,r16
  132814:	a17fffc4 	addi	r5,r20,-1
  132818:	8580422e 	bgeu	r16,r22,132924 <__divdf3+0x83c>
  13281c:	2829883a 	mov	r20,r5
  132820:	813fc41e 	bne	r16,r4,132734 <_gp+0xfffef05c>
  132824:	d9800017 	ldw	r6,0(sp)
  132828:	30bfc21e 	bne	r6,r2,132734 <_gp+0xfffef05c>
  13282c:	003fc206 	br	132738 <_gp+0xfffef060>
  132830:	143ff604 	addi	r16,r2,-40
  132834:	8c20983a 	sll	r16,r17,r16
  132838:	002b883a 	mov	r21,zero
  13283c:	003eb406 	br	132310 <_gp+0xfffeec38>
  132840:	d9800215 	stw	r6,8(sp)
  132844:	d9c00515 	stw	r7,20(sp)
  132848:	da000415 	stw	r8,16(sp)
  13284c:	01342240 	call	134224 <__clzsi2>
  132850:	10800804 	addi	r2,r2,32
  132854:	da000417 	ldw	r8,16(sp)
  132858:	d9c00517 	ldw	r7,20(sp)
  13285c:	d9800217 	ldw	r6,8(sp)
  132860:	003ea106 	br	1322e8 <_gp+0xfffeec10>
  132864:	147ff604 	addi	r17,r2,-40
  132868:	3462983a 	sll	r17,r6,r17
  13286c:	0029883a 	mov	r20,zero
  132870:	003ec906 	br	132398 <_gp+0xfffeecc0>
  132874:	3009883a 	mov	r4,r6
  132878:	d9400115 	stw	r5,4(sp)
  13287c:	d9800215 	stw	r6,8(sp)
  132880:	da000415 	stw	r8,16(sp)
  132884:	da400315 	stw	r9,12(sp)
  132888:	01342240 	call	134224 <__clzsi2>
  13288c:	10800804 	addi	r2,r2,32
  132890:	da400317 	ldw	r9,12(sp)
  132894:	da000417 	ldw	r8,16(sp)
  132898:	d9800217 	ldw	r6,8(sp)
  13289c:	d9400117 	ldw	r5,4(sp)
  1328a0:	003eb306 	br	132370 <_gp+0xfffeec98>
  1328a4:	d9800017 	ldw	r6,0(sp)
  1328a8:	a9ab883a 	add	r21,r21,r6
  1328ac:	a98b803a 	cmpltu	r5,r21,r6
  1328b0:	2d8b883a 	add	r5,r5,r22
  1328b4:	2a11883a 	add	r8,r5,r8
  1328b8:	897fffc4 	addi	r5,r17,-1
  1328bc:	b2000c2e 	bgeu	r22,r8,1328f0 <__divdf3+0x808>
  1328c0:	41003f36 	bltu	r8,r4,1329c0 <__divdf3+0x8d8>
  1328c4:	22006c26 	beq	r4,r8,132a78 <__divdf3+0x990>
  1328c8:	4109c83a 	sub	r4,r8,r4
  1328cc:	2823883a 	mov	r17,r5
  1328d0:	003f3b06 	br	1325c0 <_gp+0xfffeeee8>
  1328d4:	ad3ed336 	bltu	r21,r20,132424 <_gp+0xfffeed4c>
  1328d8:	a804d07a 	srli	r2,r21,1
  1328dc:	802e97fa 	slli	r23,r16,31
  1328e0:	a82a97fa 	slli	r21,r21,31
  1328e4:	8020d07a 	srli	r16,r16,1
  1328e8:	b8aeb03a 	or	r23,r23,r2
  1328ec:	003ed006 	br	132430 <_gp+0xfffeed58>
  1328f0:	b23ff51e 	bne	r22,r8,1328c8 <_gp+0xfffef1f0>
  1328f4:	d9800017 	ldw	r6,0(sp)
  1328f8:	a9bff12e 	bgeu	r21,r6,1328c0 <_gp+0xfffef1e8>
  1328fc:	b109c83a 	sub	r4,r22,r4
  132900:	2823883a 	mov	r17,r5
  132904:	003f2e06 	br	1325c0 <_gp+0xfffeeee8>
  132908:	2021883a 	mov	r16,r4
  13290c:	003eff06 	br	13250c <_gp+0xfffeee34>
  132910:	2023883a 	mov	r17,r4
  132914:	003ee406 	br	1324a8 <_gp+0xfffeedd0>
  132918:	a8bfe236 	bltu	r21,r2,1328a4 <_gp+0xfffef1cc>
  13291c:	0009883a 	mov	r4,zero
  132920:	003f2706 	br	1325c0 <_gp+0xfffeeee8>
  132924:	81002d36 	bltu	r16,r4,1329dc <__divdf3+0x8f4>
  132928:	24005626 	beq	r4,r16,132a84 <__divdf3+0x99c>
  13292c:	2829883a 	mov	r20,r5
  132930:	003f8006 	br	132734 <_gp+0xfffef05c>
  132934:	053fffc4 	movi	r20,-1
  132938:	003f7f06 	br	132738 <_gp+0xfffef060>
  13293c:	200f883a 	mov	r7,r4
  132940:	003f3c06 	br	132634 <_gp+0xfffeef5c>
  132944:	1011883a 	mov	r8,r2
  132948:	003f5506 	br	1326a0 <_gp+0xfffeefc8>
  13294c:	e027883a 	mov	r19,fp
  132950:	003f7906 	br	132738 <_gp+0xfffef060>
  132954:	010007c4 	movi	r4,31
  132958:	20c02816 	blt	r4,r3,1329fc <__divdf3+0x914>
  13295c:	00800804 	movi	r2,32
  132960:	10c5c83a 	sub	r2,r2,r3
  132964:	888a983a 	sll	r5,r17,r2
  132968:	a0c8d83a 	srl	r4,r20,r3
  13296c:	a084983a 	sll	r2,r20,r2
  132970:	88e2d83a 	srl	r17,r17,r3
  132974:	2906b03a 	or	r3,r5,r4
  132978:	1004c03a 	cmpne	r2,r2,zero
  13297c:	1886b03a 	or	r3,r3,r2
  132980:	188001cc 	andi	r2,r3,7
  132984:	10000726 	beq	r2,zero,1329a4 <__divdf3+0x8bc>
  132988:	188003cc 	andi	r2,r3,15
  13298c:	01000104 	movi	r4,4
  132990:	11000426 	beq	r2,r4,1329a4 <__divdf3+0x8bc>
  132994:	1805883a 	mov	r2,r3
  132998:	10c00104 	addi	r3,r2,4
  13299c:	1885803a 	cmpltu	r2,r3,r2
  1329a0:	88a3883a 	add	r17,r17,r2
  1329a4:	8880202c 	andhi	r2,r17,128
  1329a8:	10002926 	beq	r2,zero,132a50 <__divdf3+0x968>
  1329ac:	9900004c 	andi	r4,r19,1
  1329b0:	00800044 	movi	r2,1
  1329b4:	0021883a 	mov	r16,zero
  1329b8:	002b883a 	mov	r21,zero
  1329bc:	003e2906 	br	132264 <_gp+0xfffeeb8c>
  1329c0:	d9800017 	ldw	r6,0(sp)
  1329c4:	8c7fff84 	addi	r17,r17,-2
  1329c8:	a9ab883a 	add	r21,r21,r6
  1329cc:	a98b803a 	cmpltu	r5,r21,r6
  1329d0:	2d8b883a 	add	r5,r5,r22
  1329d4:	2a11883a 	add	r8,r5,r8
  1329d8:	003ef806 	br	1325bc <_gp+0xfffeeee4>
  1329dc:	d9800017 	ldw	r6,0(sp)
  1329e0:	318f883a 	add	r7,r6,r6
  1329e4:	398b803a 	cmpltu	r5,r7,r6
  1329e8:	2d8d883a 	add	r6,r5,r22
  1329ec:	81a1883a 	add	r16,r16,r6
  1329f0:	a17fff84 	addi	r5,r20,-2
  1329f4:	d9c00015 	stw	r7,0(sp)
  1329f8:	003f8806 	br	13281c <_gp+0xfffef144>
  1329fc:	013ff844 	movi	r4,-31
  132a00:	2085c83a 	sub	r2,r4,r2
  132a04:	8888d83a 	srl	r4,r17,r2
  132a08:	00800804 	movi	r2,32
  132a0c:	18802126 	beq	r3,r2,132a94 <__divdf3+0x9ac>
  132a10:	04001004 	movi	r16,64
  132a14:	80c7c83a 	sub	r3,r16,r3
  132a18:	88e0983a 	sll	r16,r17,r3
  132a1c:	8504b03a 	or	r2,r16,r20
  132a20:	1004c03a 	cmpne	r2,r2,zero
  132a24:	2084b03a 	or	r2,r4,r2
  132a28:	144001cc 	andi	r17,r2,7
  132a2c:	88000d1e 	bne	r17,zero,132a64 <__divdf3+0x97c>
  132a30:	0021883a 	mov	r16,zero
  132a34:	102ad0fa 	srli	r21,r2,3
  132a38:	9900004c 	andi	r4,r19,1
  132a3c:	0005883a 	mov	r2,zero
  132a40:	ac6ab03a 	or	r21,r21,r17
  132a44:	003e0706 	br	132264 <_gp+0xfffeeb8c>
  132a48:	1007883a 	mov	r3,r2
  132a4c:	0023883a 	mov	r17,zero
  132a50:	8820927a 	slli	r16,r17,9
  132a54:	1805883a 	mov	r2,r3
  132a58:	8822977a 	slli	r17,r17,29
  132a5c:	8020d33a 	srli	r16,r16,12
  132a60:	003ff406 	br	132a34 <_gp+0xfffef35c>
  132a64:	10c003cc 	andi	r3,r2,15
  132a68:	01000104 	movi	r4,4
  132a6c:	193ff626 	beq	r3,r4,132a48 <_gp+0xfffef370>
  132a70:	0023883a 	mov	r17,zero
  132a74:	003fc806 	br	132998 <_gp+0xfffef2c0>
  132a78:	a8bfd136 	bltu	r21,r2,1329c0 <_gp+0xfffef2e8>
  132a7c:	2823883a 	mov	r17,r5
  132a80:	003fa606 	br	13291c <_gp+0xfffef244>
  132a84:	d9800017 	ldw	r6,0(sp)
  132a88:	30bfd436 	bltu	r6,r2,1329dc <_gp+0xfffef304>
  132a8c:	2829883a 	mov	r20,r5
  132a90:	003f6406 	br	132824 <_gp+0xfffef14c>
  132a94:	0021883a 	mov	r16,zero
  132a98:	003fe006 	br	132a1c <_gp+0xfffef344>
  132a9c:	00800434 	movhi	r2,16
  132aa0:	8c000234 	orhi	r16,r17,8
  132aa4:	10bfffc4 	addi	r2,r2,-1
  132aa8:	e009883a 	mov	r4,fp
  132aac:	80a0703a 	and	r16,r16,r2
  132ab0:	a02b883a 	mov	r21,r20
  132ab4:	003e4e06 	br	1323f0 <_gp+0xfffeed18>

00132ab8 <__eqdf2>:
  132ab8:	2804d53a 	srli	r2,r5,20
  132abc:	3806d53a 	srli	r3,r7,20
  132ac0:	02000434 	movhi	r8,16
  132ac4:	423fffc4 	addi	r8,r8,-1
  132ac8:	1081ffcc 	andi	r2,r2,2047
  132acc:	0281ffc4 	movi	r10,2047
  132ad0:	2a12703a 	and	r9,r5,r8
  132ad4:	18c1ffcc 	andi	r3,r3,2047
  132ad8:	3a10703a 	and	r8,r7,r8
  132adc:	280ad7fa 	srli	r5,r5,31
  132ae0:	380ed7fa 	srli	r7,r7,31
  132ae4:	12801026 	beq	r2,r10,132b28 <__eqdf2+0x70>
  132ae8:	0281ffc4 	movi	r10,2047
  132aec:	1a800a26 	beq	r3,r10,132b18 <__eqdf2+0x60>
  132af0:	10c00226 	beq	r2,r3,132afc <__eqdf2+0x44>
  132af4:	00800044 	movi	r2,1
  132af8:	f800283a 	ret
  132afc:	4a3ffd1e 	bne	r9,r8,132af4 <_gp+0xfffef41c>
  132b00:	21bffc1e 	bne	r4,r6,132af4 <_gp+0xfffef41c>
  132b04:	29c00c26 	beq	r5,r7,132b38 <__eqdf2+0x80>
  132b08:	103ffa1e 	bne	r2,zero,132af4 <_gp+0xfffef41c>
  132b0c:	2244b03a 	or	r2,r4,r9
  132b10:	1004c03a 	cmpne	r2,r2,zero
  132b14:	f800283a 	ret
  132b18:	3214b03a 	or	r10,r6,r8
  132b1c:	503ff426 	beq	r10,zero,132af0 <_gp+0xfffef418>
  132b20:	00800044 	movi	r2,1
  132b24:	f800283a 	ret
  132b28:	2254b03a 	or	r10,r4,r9
  132b2c:	503fee26 	beq	r10,zero,132ae8 <_gp+0xfffef410>
  132b30:	00800044 	movi	r2,1
  132b34:	f800283a 	ret
  132b38:	0005883a 	mov	r2,zero
  132b3c:	f800283a 	ret

00132b40 <__gedf2>:
  132b40:	2804d53a 	srli	r2,r5,20
  132b44:	3806d53a 	srli	r3,r7,20
  132b48:	02000434 	movhi	r8,16
  132b4c:	423fffc4 	addi	r8,r8,-1
  132b50:	1081ffcc 	andi	r2,r2,2047
  132b54:	0241ffc4 	movi	r9,2047
  132b58:	2a14703a 	and	r10,r5,r8
  132b5c:	18c1ffcc 	andi	r3,r3,2047
  132b60:	3a10703a 	and	r8,r7,r8
  132b64:	280ad7fa 	srli	r5,r5,31
  132b68:	380ed7fa 	srli	r7,r7,31
  132b6c:	12401d26 	beq	r2,r9,132be4 <__gedf2+0xa4>
  132b70:	0241ffc4 	movi	r9,2047
  132b74:	1a401226 	beq	r3,r9,132bc0 <__gedf2+0x80>
  132b78:	1000081e 	bne	r2,zero,132b9c <__gedf2+0x5c>
  132b7c:	2296b03a 	or	r11,r4,r10
  132b80:	5813003a 	cmpeq	r9,r11,zero
  132b84:	1800091e 	bne	r3,zero,132bac <__gedf2+0x6c>
  132b88:	3218b03a 	or	r12,r6,r8
  132b8c:	6000071e 	bne	r12,zero,132bac <__gedf2+0x6c>
  132b90:	0005883a 	mov	r2,zero
  132b94:	5800101e 	bne	r11,zero,132bd8 <__gedf2+0x98>
  132b98:	f800283a 	ret
  132b9c:	18000c1e 	bne	r3,zero,132bd0 <__gedf2+0x90>
  132ba0:	3212b03a 	or	r9,r6,r8
  132ba4:	48000c26 	beq	r9,zero,132bd8 <__gedf2+0x98>
  132ba8:	0013883a 	mov	r9,zero
  132bac:	39c03fcc 	andi	r7,r7,255
  132bb0:	48000826 	beq	r9,zero,132bd4 <__gedf2+0x94>
  132bb4:	38000926 	beq	r7,zero,132bdc <__gedf2+0x9c>
  132bb8:	00800044 	movi	r2,1
  132bbc:	f800283a 	ret
  132bc0:	3212b03a 	or	r9,r6,r8
  132bc4:	483fec26 	beq	r9,zero,132b78 <_gp+0xfffef4a0>
  132bc8:	00bfff84 	movi	r2,-2
  132bcc:	f800283a 	ret
  132bd0:	39c03fcc 	andi	r7,r7,255
  132bd4:	29c00626 	beq	r5,r7,132bf0 <__gedf2+0xb0>
  132bd8:	283ff726 	beq	r5,zero,132bb8 <_gp+0xfffef4e0>
  132bdc:	00bfffc4 	movi	r2,-1
  132be0:	f800283a 	ret
  132be4:	2292b03a 	or	r9,r4,r10
  132be8:	483fe126 	beq	r9,zero,132b70 <_gp+0xfffef498>
  132bec:	003ff606 	br	132bc8 <_gp+0xfffef4f0>
  132bf0:	18bff916 	blt	r3,r2,132bd8 <_gp+0xfffef500>
  132bf4:	10c00316 	blt	r2,r3,132c04 <__gedf2+0xc4>
  132bf8:	42bff736 	bltu	r8,r10,132bd8 <_gp+0xfffef500>
  132bfc:	52000326 	beq	r10,r8,132c0c <__gedf2+0xcc>
  132c00:	5200042e 	bgeu	r10,r8,132c14 <__gedf2+0xd4>
  132c04:	283fec1e 	bne	r5,zero,132bb8 <_gp+0xfffef4e0>
  132c08:	003ff406 	br	132bdc <_gp+0xfffef504>
  132c0c:	313ff236 	bltu	r6,r4,132bd8 <_gp+0xfffef500>
  132c10:	21bffc36 	bltu	r4,r6,132c04 <_gp+0xfffef52c>
  132c14:	0005883a 	mov	r2,zero
  132c18:	f800283a 	ret

00132c1c <__ledf2>:
  132c1c:	2804d53a 	srli	r2,r5,20
  132c20:	3810d53a 	srli	r8,r7,20
  132c24:	00c00434 	movhi	r3,16
  132c28:	18ffffc4 	addi	r3,r3,-1
  132c2c:	1081ffcc 	andi	r2,r2,2047
  132c30:	0241ffc4 	movi	r9,2047
  132c34:	28d4703a 	and	r10,r5,r3
  132c38:	4201ffcc 	andi	r8,r8,2047
  132c3c:	38c6703a 	and	r3,r7,r3
  132c40:	280ad7fa 	srli	r5,r5,31
  132c44:	380ed7fa 	srli	r7,r7,31
  132c48:	12401f26 	beq	r2,r9,132cc8 <__ledf2+0xac>
  132c4c:	0241ffc4 	movi	r9,2047
  132c50:	42401426 	beq	r8,r9,132ca4 <__ledf2+0x88>
  132c54:	1000091e 	bne	r2,zero,132c7c <__ledf2+0x60>
  132c58:	2296b03a 	or	r11,r4,r10
  132c5c:	5813003a 	cmpeq	r9,r11,zero
  132c60:	29403fcc 	andi	r5,r5,255
  132c64:	40000a1e 	bne	r8,zero,132c90 <__ledf2+0x74>
  132c68:	30d8b03a 	or	r12,r6,r3
  132c6c:	6000081e 	bne	r12,zero,132c90 <__ledf2+0x74>
  132c70:	0005883a 	mov	r2,zero
  132c74:	5800111e 	bne	r11,zero,132cbc <__ledf2+0xa0>
  132c78:	f800283a 	ret
  132c7c:	29403fcc 	andi	r5,r5,255
  132c80:	40000c1e 	bne	r8,zero,132cb4 <__ledf2+0x98>
  132c84:	30d2b03a 	or	r9,r6,r3
  132c88:	48000c26 	beq	r9,zero,132cbc <__ledf2+0xa0>
  132c8c:	0013883a 	mov	r9,zero
  132c90:	39c03fcc 	andi	r7,r7,255
  132c94:	48000826 	beq	r9,zero,132cb8 <__ledf2+0x9c>
  132c98:	38001126 	beq	r7,zero,132ce0 <__ledf2+0xc4>
  132c9c:	00800044 	movi	r2,1
  132ca0:	f800283a 	ret
  132ca4:	30d2b03a 	or	r9,r6,r3
  132ca8:	483fea26 	beq	r9,zero,132c54 <_gp+0xfffef57c>
  132cac:	00800084 	movi	r2,2
  132cb0:	f800283a 	ret
  132cb4:	39c03fcc 	andi	r7,r7,255
  132cb8:	39400726 	beq	r7,r5,132cd8 <__ledf2+0xbc>
  132cbc:	2800081e 	bne	r5,zero,132ce0 <__ledf2+0xc4>
  132cc0:	00800044 	movi	r2,1
  132cc4:	f800283a 	ret
  132cc8:	2292b03a 	or	r9,r4,r10
  132ccc:	483fdf26 	beq	r9,zero,132c4c <_gp+0xfffef574>
  132cd0:	00800084 	movi	r2,2
  132cd4:	f800283a 	ret
  132cd8:	4080030e 	bge	r8,r2,132ce8 <__ledf2+0xcc>
  132cdc:	383fef26 	beq	r7,zero,132c9c <_gp+0xfffef5c4>
  132ce0:	00bfffc4 	movi	r2,-1
  132ce4:	f800283a 	ret
  132ce8:	123feb16 	blt	r2,r8,132c98 <_gp+0xfffef5c0>
  132cec:	1abff336 	bltu	r3,r10,132cbc <_gp+0xfffef5e4>
  132cf0:	50c00326 	beq	r10,r3,132d00 <__ledf2+0xe4>
  132cf4:	50c0042e 	bgeu	r10,r3,132d08 <__ledf2+0xec>
  132cf8:	283fe81e 	bne	r5,zero,132c9c <_gp+0xfffef5c4>
  132cfc:	003ff806 	br	132ce0 <_gp+0xfffef608>
  132d00:	313fee36 	bltu	r6,r4,132cbc <_gp+0xfffef5e4>
  132d04:	21bffc36 	bltu	r4,r6,132cf8 <_gp+0xfffef620>
  132d08:	0005883a 	mov	r2,zero
  132d0c:	f800283a 	ret

00132d10 <__muldf3>:
  132d10:	deffee04 	addi	sp,sp,-72
  132d14:	dd000c15 	stw	r20,48(sp)
  132d18:	2828d53a 	srli	r20,r5,20
  132d1c:	ddc00f15 	stw	r23,60(sp)
  132d20:	282ed7fa 	srli	r23,r5,31
  132d24:	dc000815 	stw	r16,32(sp)
  132d28:	04000434 	movhi	r16,16
  132d2c:	dcc00b15 	stw	r19,44(sp)
  132d30:	843fffc4 	addi	r16,r16,-1
  132d34:	dfc01115 	stw	ra,68(sp)
  132d38:	df001015 	stw	fp,64(sp)
  132d3c:	dd800e15 	stw	r22,56(sp)
  132d40:	dd400d15 	stw	r21,52(sp)
  132d44:	dc800a15 	stw	r18,40(sp)
  132d48:	dc400915 	stw	r17,36(sp)
  132d4c:	a501ffcc 	andi	r20,r20,2047
  132d50:	2c20703a 	and	r16,r5,r16
  132d54:	b827883a 	mov	r19,r23
  132d58:	ba403fcc 	andi	r9,r23,255
  132d5c:	a0006026 	beq	r20,zero,132ee0 <__muldf3+0x1d0>
  132d60:	0081ffc4 	movi	r2,2047
  132d64:	202d883a 	mov	r22,r4
  132d68:	a0803626 	beq	r20,r2,132e44 <__muldf3+0x134>
  132d6c:	84000434 	orhi	r16,r16,16
  132d70:	200ad77a 	srli	r5,r4,29
  132d74:	800490fa 	slli	r2,r16,3
  132d78:	202c90fa 	slli	r22,r4,3
  132d7c:	a53f0044 	addi	r20,r20,-1023
  132d80:	28a0b03a 	or	r16,r5,r2
  132d84:	002b883a 	mov	r21,zero
  132d88:	000b883a 	mov	r5,zero
  132d8c:	3804d53a 	srli	r2,r7,20
  132d90:	3838d7fa 	srli	fp,r7,31
  132d94:	04400434 	movhi	r17,16
  132d98:	8c7fffc4 	addi	r17,r17,-1
  132d9c:	1081ffcc 	andi	r2,r2,2047
  132da0:	3025883a 	mov	r18,r6
  132da4:	3c62703a 	and	r17,r7,r17
  132da8:	e2803fcc 	andi	r10,fp,255
  132dac:	10006d26 	beq	r2,zero,132f64 <__muldf3+0x254>
  132db0:	00c1ffc4 	movi	r3,2047
  132db4:	10c06526 	beq	r2,r3,132f4c <__muldf3+0x23c>
  132db8:	8c400434 	orhi	r17,r17,16
  132dbc:	300ed77a 	srli	r7,r6,29
  132dc0:	880690fa 	slli	r3,r17,3
  132dc4:	302490fa 	slli	r18,r6,3
  132dc8:	10bf0044 	addi	r2,r2,-1023
  132dcc:	38e2b03a 	or	r17,r7,r3
  132dd0:	000f883a 	mov	r7,zero
  132dd4:	a087883a 	add	r3,r20,r2
  132dd8:	010003c4 	movi	r4,15
  132ddc:	3d44b03a 	or	r2,r7,r21
  132de0:	e5ccf03a 	xor	r6,fp,r23
  132de4:	1a000044 	addi	r8,r3,1
  132de8:	20809b36 	bltu	r4,r2,133058 <__muldf3+0x348>
  132dec:	100490ba 	slli	r2,r2,2
  132df0:	010004f4 	movhi	r4,19
  132df4:	210b8104 	addi	r4,r4,11780
  132df8:	1105883a 	add	r2,r2,r4
  132dfc:	10800017 	ldw	r2,0(r2)
  132e00:	1000683a 	jmp	r2
  132e04:	00133058 	cmpnei	zero,zero,19649
  132e08:	00132e64 	muli	zero,zero,19641
  132e0c:	00132e64 	muli	zero,zero,19641
  132e10:	00132e60 	cmpeqi	zero,zero,19641
  132e14:	00133034 	movhi	zero,19648
  132e18:	00133034 	movhi	zero,19648
  132e1c:	0013301c 	xori	zero,zero,19648
  132e20:	00132e60 	cmpeqi	zero,zero,19641
  132e24:	00133034 	movhi	zero,19648
  132e28:	0013301c 	xori	zero,zero,19648
  132e2c:	00133034 	movhi	zero,19648
  132e30:	00132e60 	cmpeqi	zero,zero,19641
  132e34:	00133044 	movi	zero,19649
  132e38:	00133044 	movi	zero,19649
  132e3c:	00133044 	movi	zero,19649
  132e40:	001333a4 	muli	zero,zero,19662
  132e44:	2404b03a 	or	r2,r4,r16
  132e48:	1000711e 	bne	r2,zero,133010 <__muldf3+0x300>
  132e4c:	05400204 	movi	r21,8
  132e50:	0021883a 	mov	r16,zero
  132e54:	002d883a 	mov	r22,zero
  132e58:	01400084 	movi	r5,2
  132e5c:	003fcb06 	br	132d8c <_gp+0xfffef6b4>
  132e60:	500d883a 	mov	r6,r10
  132e64:	00800084 	movi	r2,2
  132e68:	38805926 	beq	r7,r2,132fd0 <__muldf3+0x2c0>
  132e6c:	008000c4 	movi	r2,3
  132e70:	3881bb26 	beq	r7,r2,133560 <__muldf3+0x850>
  132e74:	00800044 	movi	r2,1
  132e78:	3881961e 	bne	r7,r2,1334d4 <__muldf3+0x7c4>
  132e7c:	3027883a 	mov	r19,r6
  132e80:	0005883a 	mov	r2,zero
  132e84:	0021883a 	mov	r16,zero
  132e88:	002d883a 	mov	r22,zero
  132e8c:	1004953a 	slli	r2,r2,20
  132e90:	98c03fcc 	andi	r3,r19,255
  132e94:	04400434 	movhi	r17,16
  132e98:	8c7fffc4 	addi	r17,r17,-1
  132e9c:	180697fa 	slli	r3,r3,31
  132ea0:	8460703a 	and	r16,r16,r17
  132ea4:	80a0b03a 	or	r16,r16,r2
  132ea8:	80c6b03a 	or	r3,r16,r3
  132eac:	b005883a 	mov	r2,r22
  132eb0:	dfc01117 	ldw	ra,68(sp)
  132eb4:	df001017 	ldw	fp,64(sp)
  132eb8:	ddc00f17 	ldw	r23,60(sp)
  132ebc:	dd800e17 	ldw	r22,56(sp)
  132ec0:	dd400d17 	ldw	r21,52(sp)
  132ec4:	dd000c17 	ldw	r20,48(sp)
  132ec8:	dcc00b17 	ldw	r19,44(sp)
  132ecc:	dc800a17 	ldw	r18,40(sp)
  132ed0:	dc400917 	ldw	r17,36(sp)
  132ed4:	dc000817 	ldw	r16,32(sp)
  132ed8:	dec01204 	addi	sp,sp,72
  132edc:	f800283a 	ret
  132ee0:	2404b03a 	or	r2,r4,r16
  132ee4:	202b883a 	mov	r21,r4
  132ee8:	10004426 	beq	r2,zero,132ffc <__muldf3+0x2ec>
  132eec:	80015126 	beq	r16,zero,133434 <__muldf3+0x724>
  132ef0:	8009883a 	mov	r4,r16
  132ef4:	d9800715 	stw	r6,28(sp)
  132ef8:	d9c00215 	stw	r7,8(sp)
  132efc:	da400415 	stw	r9,16(sp)
  132f00:	01342240 	call	134224 <__clzsi2>
  132f04:	d9800717 	ldw	r6,28(sp)
  132f08:	d9c00217 	ldw	r7,8(sp)
  132f0c:	da400417 	ldw	r9,16(sp)
  132f10:	113ffd44 	addi	r4,r2,-11
  132f14:	00c00704 	movi	r3,28
  132f18:	19014216 	blt	r3,r4,133424 <__muldf3+0x714>
  132f1c:	00c00744 	movi	r3,29
  132f20:	15bffe04 	addi	r22,r2,-8
  132f24:	1907c83a 	sub	r3,r3,r4
  132f28:	85a0983a 	sll	r16,r16,r22
  132f2c:	a8c6d83a 	srl	r3,r21,r3
  132f30:	adac983a 	sll	r22,r21,r22
  132f34:	1c20b03a 	or	r16,r3,r16
  132f38:	1080fcc4 	addi	r2,r2,1011
  132f3c:	00a9c83a 	sub	r20,zero,r2
  132f40:	002b883a 	mov	r21,zero
  132f44:	000b883a 	mov	r5,zero
  132f48:	003f9006 	br	132d8c <_gp+0xfffef6b4>
  132f4c:	3446b03a 	or	r3,r6,r17
  132f50:	1800281e 	bne	r3,zero,132ff4 <__muldf3+0x2e4>
  132f54:	0023883a 	mov	r17,zero
  132f58:	0025883a 	mov	r18,zero
  132f5c:	01c00084 	movi	r7,2
  132f60:	003f9c06 	br	132dd4 <_gp+0xfffef6fc>
  132f64:	3446b03a 	or	r3,r6,r17
  132f68:	18001e26 	beq	r3,zero,132fe4 <__muldf3+0x2d4>
  132f6c:	88012126 	beq	r17,zero,1333f4 <__muldf3+0x6e4>
  132f70:	8809883a 	mov	r4,r17
  132f74:	d9400215 	stw	r5,8(sp)
  132f78:	d9800715 	stw	r6,28(sp)
  132f7c:	da400415 	stw	r9,16(sp)
  132f80:	da800315 	stw	r10,12(sp)
  132f84:	01342240 	call	134224 <__clzsi2>
  132f88:	d9400217 	ldw	r5,8(sp)
  132f8c:	d9800717 	ldw	r6,28(sp)
  132f90:	da400417 	ldw	r9,16(sp)
  132f94:	da800317 	ldw	r10,12(sp)
  132f98:	113ffd44 	addi	r4,r2,-11
  132f9c:	00c00704 	movi	r3,28
  132fa0:	19011016 	blt	r3,r4,1333e4 <__muldf3+0x6d4>
  132fa4:	00c00744 	movi	r3,29
  132fa8:	14bffe04 	addi	r18,r2,-8
  132fac:	1907c83a 	sub	r3,r3,r4
  132fb0:	8ca2983a 	sll	r17,r17,r18
  132fb4:	30c6d83a 	srl	r3,r6,r3
  132fb8:	34a4983a 	sll	r18,r6,r18
  132fbc:	1c62b03a 	or	r17,r3,r17
  132fc0:	1080fcc4 	addi	r2,r2,1011
  132fc4:	0085c83a 	sub	r2,zero,r2
  132fc8:	000f883a 	mov	r7,zero
  132fcc:	003f8106 	br	132dd4 <_gp+0xfffef6fc>
  132fd0:	3027883a 	mov	r19,r6
  132fd4:	0081ffc4 	movi	r2,2047
  132fd8:	0021883a 	mov	r16,zero
  132fdc:	002d883a 	mov	r22,zero
  132fe0:	003faa06 	br	132e8c <_gp+0xfffef7b4>
  132fe4:	0023883a 	mov	r17,zero
  132fe8:	0025883a 	mov	r18,zero
  132fec:	01c00044 	movi	r7,1
  132ff0:	003f7806 	br	132dd4 <_gp+0xfffef6fc>
  132ff4:	01c000c4 	movi	r7,3
  132ff8:	003f7606 	br	132dd4 <_gp+0xfffef6fc>
  132ffc:	05400104 	movi	r21,4
  133000:	0021883a 	mov	r16,zero
  133004:	002d883a 	mov	r22,zero
  133008:	01400044 	movi	r5,1
  13300c:	003f5f06 	br	132d8c <_gp+0xfffef6b4>
  133010:	05400304 	movi	r21,12
  133014:	014000c4 	movi	r5,3
  133018:	003f5c06 	br	132d8c <_gp+0xfffef6b4>
  13301c:	04000434 	movhi	r16,16
  133020:	0027883a 	mov	r19,zero
  133024:	843fffc4 	addi	r16,r16,-1
  133028:	05bfffc4 	movi	r22,-1
  13302c:	0081ffc4 	movi	r2,2047
  133030:	003f9606 	br	132e8c <_gp+0xfffef7b4>
  133034:	8023883a 	mov	r17,r16
  133038:	b025883a 	mov	r18,r22
  13303c:	280f883a 	mov	r7,r5
  133040:	003f8806 	br	132e64 <_gp+0xfffef78c>
  133044:	8023883a 	mov	r17,r16
  133048:	b025883a 	mov	r18,r22
  13304c:	480d883a 	mov	r6,r9
  133050:	280f883a 	mov	r7,r5
  133054:	003f8306 	br	132e64 <_gp+0xfffef78c>
  133058:	b026d43a 	srli	r19,r22,16
  13305c:	902ed43a 	srli	r23,r18,16
  133060:	b5bfffcc 	andi	r22,r22,65535
  133064:	94bfffcc 	andi	r18,r18,65535
  133068:	b00b883a 	mov	r5,r22
  13306c:	9009883a 	mov	r4,r18
  133070:	d8c00515 	stw	r3,20(sp)
  133074:	d9800715 	stw	r6,28(sp)
  133078:	da000615 	stw	r8,24(sp)
  13307c:	01213680 	call	121368 <__mulsi3>
  133080:	980b883a 	mov	r5,r19
  133084:	9009883a 	mov	r4,r18
  133088:	1029883a 	mov	r20,r2
  13308c:	01213680 	call	121368 <__mulsi3>
  133090:	b80b883a 	mov	r5,r23
  133094:	9809883a 	mov	r4,r19
  133098:	102b883a 	mov	r21,r2
  13309c:	01213680 	call	121368 <__mulsi3>
  1330a0:	b809883a 	mov	r4,r23
  1330a4:	b00b883a 	mov	r5,r22
  1330a8:	1039883a 	mov	fp,r2
  1330ac:	01213680 	call	121368 <__mulsi3>
  1330b0:	a008d43a 	srli	r4,r20,16
  1330b4:	1545883a 	add	r2,r2,r21
  1330b8:	d8c00517 	ldw	r3,20(sp)
  1330bc:	2085883a 	add	r2,r4,r2
  1330c0:	d9800717 	ldw	r6,28(sp)
  1330c4:	da000617 	ldw	r8,24(sp)
  1330c8:	1540022e 	bgeu	r2,r21,1330d4 <__muldf3+0x3c4>
  1330cc:	01000074 	movhi	r4,1
  1330d0:	e139883a 	add	fp,fp,r4
  1330d4:	100e943a 	slli	r7,r2,16
  1330d8:	1004d43a 	srli	r2,r2,16
  1330dc:	882ad43a 	srli	r21,r17,16
  1330e0:	a53fffcc 	andi	r20,r20,65535
  1330e4:	8c7fffcc 	andi	r17,r17,65535
  1330e8:	3d29883a 	add	r20,r7,r20
  1330ec:	b00b883a 	mov	r5,r22
  1330f0:	8809883a 	mov	r4,r17
  1330f4:	d8c00515 	stw	r3,20(sp)
  1330f8:	d9800715 	stw	r6,28(sp)
  1330fc:	da000615 	stw	r8,24(sp)
  133100:	dd000115 	stw	r20,4(sp)
  133104:	d8800015 	stw	r2,0(sp)
  133108:	01213680 	call	121368 <__mulsi3>
  13310c:	980b883a 	mov	r5,r19
  133110:	8809883a 	mov	r4,r17
  133114:	d8800215 	stw	r2,8(sp)
  133118:	01213680 	call	121368 <__mulsi3>
  13311c:	9809883a 	mov	r4,r19
  133120:	a80b883a 	mov	r5,r21
  133124:	1029883a 	mov	r20,r2
  133128:	01213680 	call	121368 <__mulsi3>
  13312c:	b00b883a 	mov	r5,r22
  133130:	a809883a 	mov	r4,r21
  133134:	d8800415 	stw	r2,16(sp)
  133138:	01213680 	call	121368 <__mulsi3>
  13313c:	d9c00217 	ldw	r7,8(sp)
  133140:	1505883a 	add	r2,r2,r20
  133144:	d8c00517 	ldw	r3,20(sp)
  133148:	3826d43a 	srli	r19,r7,16
  13314c:	d9800717 	ldw	r6,28(sp)
  133150:	da000617 	ldw	r8,24(sp)
  133154:	9885883a 	add	r2,r19,r2
  133158:	da400417 	ldw	r9,16(sp)
  13315c:	1500022e 	bgeu	r2,r20,133168 <__muldf3+0x458>
  133160:	01000074 	movhi	r4,1
  133164:	4913883a 	add	r9,r9,r4
  133168:	1028d43a 	srli	r20,r2,16
  13316c:	1004943a 	slli	r2,r2,16
  133170:	802cd43a 	srli	r22,r16,16
  133174:	843fffcc 	andi	r16,r16,65535
  133178:	3cffffcc 	andi	r19,r7,65535
  13317c:	9009883a 	mov	r4,r18
  133180:	800b883a 	mov	r5,r16
  133184:	a269883a 	add	r20,r20,r9
  133188:	d8c00515 	stw	r3,20(sp)
  13318c:	d9800715 	stw	r6,28(sp)
  133190:	da000615 	stw	r8,24(sp)
  133194:	14e7883a 	add	r19,r2,r19
  133198:	01213680 	call	121368 <__mulsi3>
  13319c:	9009883a 	mov	r4,r18
  1331a0:	b00b883a 	mov	r5,r22
  1331a4:	d8800315 	stw	r2,12(sp)
  1331a8:	01213680 	call	121368 <__mulsi3>
  1331ac:	b809883a 	mov	r4,r23
  1331b0:	b00b883a 	mov	r5,r22
  1331b4:	d8800215 	stw	r2,8(sp)
  1331b8:	01213680 	call	121368 <__mulsi3>
  1331bc:	b80b883a 	mov	r5,r23
  1331c0:	8009883a 	mov	r4,r16
  1331c4:	d8800415 	stw	r2,16(sp)
  1331c8:	01213680 	call	121368 <__mulsi3>
  1331cc:	da800317 	ldw	r10,12(sp)
  1331d0:	d9c00217 	ldw	r7,8(sp)
  1331d4:	d9000017 	ldw	r4,0(sp)
  1331d8:	502ed43a 	srli	r23,r10,16
  1331dc:	11c5883a 	add	r2,r2,r7
  1331e0:	24e5883a 	add	r18,r4,r19
  1331e4:	b885883a 	add	r2,r23,r2
  1331e8:	d8c00517 	ldw	r3,20(sp)
  1331ec:	d9800717 	ldw	r6,28(sp)
  1331f0:	da000617 	ldw	r8,24(sp)
  1331f4:	da400417 	ldw	r9,16(sp)
  1331f8:	11c0022e 	bgeu	r2,r7,133204 <__muldf3+0x4f4>
  1331fc:	01000074 	movhi	r4,1
  133200:	4913883a 	add	r9,r9,r4
  133204:	100ed43a 	srli	r7,r2,16
  133208:	1004943a 	slli	r2,r2,16
  13320c:	55ffffcc 	andi	r23,r10,65535
  133210:	3a53883a 	add	r9,r7,r9
  133214:	8809883a 	mov	r4,r17
  133218:	800b883a 	mov	r5,r16
  13321c:	d8c00515 	stw	r3,20(sp)
  133220:	d9800715 	stw	r6,28(sp)
  133224:	da000615 	stw	r8,24(sp)
  133228:	da400415 	stw	r9,16(sp)
  13322c:	15ef883a 	add	r23,r2,r23
  133230:	01213680 	call	121368 <__mulsi3>
  133234:	8809883a 	mov	r4,r17
  133238:	b00b883a 	mov	r5,r22
  13323c:	d8800215 	stw	r2,8(sp)
  133240:	01213680 	call	121368 <__mulsi3>
  133244:	b00b883a 	mov	r5,r22
  133248:	a809883a 	mov	r4,r21
  13324c:	d8800315 	stw	r2,12(sp)
  133250:	01213680 	call	121368 <__mulsi3>
  133254:	8009883a 	mov	r4,r16
  133258:	a80b883a 	mov	r5,r21
  13325c:	1023883a 	mov	r17,r2
  133260:	01213680 	call	121368 <__mulsi3>
  133264:	d9c00217 	ldw	r7,8(sp)
  133268:	da800317 	ldw	r10,12(sp)
  13326c:	d8c00517 	ldw	r3,20(sp)
  133270:	3808d43a 	srli	r4,r7,16
  133274:	1285883a 	add	r2,r2,r10
  133278:	d9800717 	ldw	r6,28(sp)
  13327c:	2085883a 	add	r2,r4,r2
  133280:	da000617 	ldw	r8,24(sp)
  133284:	da400417 	ldw	r9,16(sp)
  133288:	1280022e 	bgeu	r2,r10,133294 <__muldf3+0x584>
  13328c:	01000074 	movhi	r4,1
  133290:	8923883a 	add	r17,r17,r4
  133294:	1008943a 	slli	r4,r2,16
  133298:	39ffffcc 	andi	r7,r7,65535
  13329c:	e4b9883a 	add	fp,fp,r18
  1332a0:	21cf883a 	add	r7,r4,r7
  1332a4:	e4e7803a 	cmpltu	r19,fp,r19
  1332a8:	3d0f883a 	add	r7,r7,r20
  1332ac:	bf39883a 	add	fp,r23,fp
  1332b0:	99c9883a 	add	r4,r19,r7
  1332b4:	e5ef803a 	cmpltu	r23,fp,r23
  1332b8:	490b883a 	add	r5,r9,r4
  1332bc:	1004d43a 	srli	r2,r2,16
  1332c0:	b965883a 	add	r18,r23,r5
  1332c4:	24c9803a 	cmpltu	r4,r4,r19
  1332c8:	3d29803a 	cmpltu	r20,r7,r20
  1332cc:	a128b03a 	or	r20,r20,r4
  1332d0:	95ef803a 	cmpltu	r23,r18,r23
  1332d4:	2a53803a 	cmpltu	r9,r5,r9
  1332d8:	a0a9883a 	add	r20,r20,r2
  1332dc:	4deeb03a 	or	r23,r9,r23
  1332e0:	a5ef883a 	add	r23,r20,r23
  1332e4:	bc63883a 	add	r17,r23,r17
  1332e8:	e004927a 	slli	r2,fp,9
  1332ec:	d9000117 	ldw	r4,4(sp)
  1332f0:	882e927a 	slli	r23,r17,9
  1332f4:	9022d5fa 	srli	r17,r18,23
  1332f8:	e038d5fa 	srli	fp,fp,23
  1332fc:	1104b03a 	or	r2,r2,r4
  133300:	9024927a 	slli	r18,r18,9
  133304:	1004c03a 	cmpne	r2,r2,zero
  133308:	bc62b03a 	or	r17,r23,r17
  13330c:	1738b03a 	or	fp,r2,fp
  133310:	8880402c 	andhi	r2,r17,256
  133314:	e4a4b03a 	or	r18,fp,r18
  133318:	10000726 	beq	r2,zero,133338 <__muldf3+0x628>
  13331c:	9006d07a 	srli	r3,r18,1
  133320:	880497fa 	slli	r2,r17,31
  133324:	9480004c 	andi	r18,r18,1
  133328:	8822d07a 	srli	r17,r17,1
  13332c:	1ca4b03a 	or	r18,r3,r18
  133330:	14a4b03a 	or	r18,r2,r18
  133334:	4007883a 	mov	r3,r8
  133338:	1880ffc4 	addi	r2,r3,1023
  13333c:	0080460e 	bge	zero,r2,133458 <__muldf3+0x748>
  133340:	910001cc 	andi	r4,r18,7
  133344:	20000726 	beq	r4,zero,133364 <__muldf3+0x654>
  133348:	910003cc 	andi	r4,r18,15
  13334c:	01400104 	movi	r5,4
  133350:	21400426 	beq	r4,r5,133364 <__muldf3+0x654>
  133354:	9149883a 	add	r4,r18,r5
  133358:	24a5803a 	cmpltu	r18,r4,r18
  13335c:	8ca3883a 	add	r17,r17,r18
  133360:	2025883a 	mov	r18,r4
  133364:	8900402c 	andhi	r4,r17,256
  133368:	20000426 	beq	r4,zero,13337c <__muldf3+0x66c>
  13336c:	18810004 	addi	r2,r3,1024
  133370:	00ffc034 	movhi	r3,65280
  133374:	18ffffc4 	addi	r3,r3,-1
  133378:	88e2703a 	and	r17,r17,r3
  13337c:	00c1ff84 	movi	r3,2046
  133380:	18bf1316 	blt	r3,r2,132fd0 <_gp+0xfffef8f8>
  133384:	882c977a 	slli	r22,r17,29
  133388:	9024d0fa 	srli	r18,r18,3
  13338c:	8822927a 	slli	r17,r17,9
  133390:	1081ffcc 	andi	r2,r2,2047
  133394:	b4acb03a 	or	r22,r22,r18
  133398:	8820d33a 	srli	r16,r17,12
  13339c:	3027883a 	mov	r19,r6
  1333a0:	003eba06 	br	132e8c <_gp+0xfffef7b4>
  1333a4:	8080022c 	andhi	r2,r16,8
  1333a8:	10000926 	beq	r2,zero,1333d0 <__muldf3+0x6c0>
  1333ac:	8880022c 	andhi	r2,r17,8
  1333b0:	1000071e 	bne	r2,zero,1333d0 <__muldf3+0x6c0>
  1333b4:	00800434 	movhi	r2,16
  1333b8:	8c000234 	orhi	r16,r17,8
  1333bc:	10bfffc4 	addi	r2,r2,-1
  1333c0:	e027883a 	mov	r19,fp
  1333c4:	80a0703a 	and	r16,r16,r2
  1333c8:	902d883a 	mov	r22,r18
  1333cc:	003f1706 	br	13302c <_gp+0xfffef954>
  1333d0:	00800434 	movhi	r2,16
  1333d4:	84000234 	orhi	r16,r16,8
  1333d8:	10bfffc4 	addi	r2,r2,-1
  1333dc:	80a0703a 	and	r16,r16,r2
  1333e0:	003f1206 	br	13302c <_gp+0xfffef954>
  1333e4:	147ff604 	addi	r17,r2,-40
  1333e8:	3462983a 	sll	r17,r6,r17
  1333ec:	0025883a 	mov	r18,zero
  1333f0:	003ef306 	br	132fc0 <_gp+0xfffef8e8>
  1333f4:	3009883a 	mov	r4,r6
  1333f8:	d9400215 	stw	r5,8(sp)
  1333fc:	d9800715 	stw	r6,28(sp)
  133400:	da400415 	stw	r9,16(sp)
  133404:	da800315 	stw	r10,12(sp)
  133408:	01342240 	call	134224 <__clzsi2>
  13340c:	10800804 	addi	r2,r2,32
  133410:	da800317 	ldw	r10,12(sp)
  133414:	da400417 	ldw	r9,16(sp)
  133418:	d9800717 	ldw	r6,28(sp)
  13341c:	d9400217 	ldw	r5,8(sp)
  133420:	003edd06 	br	132f98 <_gp+0xfffef8c0>
  133424:	143ff604 	addi	r16,r2,-40
  133428:	ac20983a 	sll	r16,r21,r16
  13342c:	002d883a 	mov	r22,zero
  133430:	003ec106 	br	132f38 <_gp+0xfffef860>
  133434:	d9800715 	stw	r6,28(sp)
  133438:	d9c00215 	stw	r7,8(sp)
  13343c:	da400415 	stw	r9,16(sp)
  133440:	01342240 	call	134224 <__clzsi2>
  133444:	10800804 	addi	r2,r2,32
  133448:	da400417 	ldw	r9,16(sp)
  13344c:	d9c00217 	ldw	r7,8(sp)
  133450:	d9800717 	ldw	r6,28(sp)
  133454:	003eae06 	br	132f10 <_gp+0xfffef838>
  133458:	00c00044 	movi	r3,1
  13345c:	1887c83a 	sub	r3,r3,r2
  133460:	01000e04 	movi	r4,56
  133464:	20fe8516 	blt	r4,r3,132e7c <_gp+0xfffef7a4>
  133468:	010007c4 	movi	r4,31
  13346c:	20c01b16 	blt	r4,r3,1334dc <__muldf3+0x7cc>
  133470:	00800804 	movi	r2,32
  133474:	10c5c83a 	sub	r2,r2,r3
  133478:	888a983a 	sll	r5,r17,r2
  13347c:	90c8d83a 	srl	r4,r18,r3
  133480:	9084983a 	sll	r2,r18,r2
  133484:	88e2d83a 	srl	r17,r17,r3
  133488:	2906b03a 	or	r3,r5,r4
  13348c:	1004c03a 	cmpne	r2,r2,zero
  133490:	1886b03a 	or	r3,r3,r2
  133494:	188001cc 	andi	r2,r3,7
  133498:	10000726 	beq	r2,zero,1334b8 <__muldf3+0x7a8>
  13349c:	188003cc 	andi	r2,r3,15
  1334a0:	01000104 	movi	r4,4
  1334a4:	11000426 	beq	r2,r4,1334b8 <__muldf3+0x7a8>
  1334a8:	1805883a 	mov	r2,r3
  1334ac:	10c00104 	addi	r3,r2,4
  1334b0:	1885803a 	cmpltu	r2,r3,r2
  1334b4:	88a3883a 	add	r17,r17,r2
  1334b8:	8880202c 	andhi	r2,r17,128
  1334bc:	10001c26 	beq	r2,zero,133530 <__muldf3+0x820>
  1334c0:	3027883a 	mov	r19,r6
  1334c4:	00800044 	movi	r2,1
  1334c8:	0021883a 	mov	r16,zero
  1334cc:	002d883a 	mov	r22,zero
  1334d0:	003e6e06 	br	132e8c <_gp+0xfffef7b4>
  1334d4:	4007883a 	mov	r3,r8
  1334d8:	003f9706 	br	133338 <_gp+0xfffefc60>
  1334dc:	017ff844 	movi	r5,-31
  1334e0:	2885c83a 	sub	r2,r5,r2
  1334e4:	888ad83a 	srl	r5,r17,r2
  1334e8:	00800804 	movi	r2,32
  1334ec:	18801a26 	beq	r3,r2,133558 <__muldf3+0x848>
  1334f0:	01001004 	movi	r4,64
  1334f4:	20c7c83a 	sub	r3,r4,r3
  1334f8:	88e2983a 	sll	r17,r17,r3
  1334fc:	8ca4b03a 	or	r18,r17,r18
  133500:	9004c03a 	cmpne	r2,r18,zero
  133504:	2884b03a 	or	r2,r5,r2
  133508:	144001cc 	andi	r17,r2,7
  13350c:	88000d1e 	bne	r17,zero,133544 <__muldf3+0x834>
  133510:	0021883a 	mov	r16,zero
  133514:	102cd0fa 	srli	r22,r2,3
  133518:	3027883a 	mov	r19,r6
  13351c:	0005883a 	mov	r2,zero
  133520:	b46cb03a 	or	r22,r22,r17
  133524:	003e5906 	br	132e8c <_gp+0xfffef7b4>
  133528:	1007883a 	mov	r3,r2
  13352c:	0023883a 	mov	r17,zero
  133530:	8820927a 	slli	r16,r17,9
  133534:	1805883a 	mov	r2,r3
  133538:	8822977a 	slli	r17,r17,29
  13353c:	8020d33a 	srli	r16,r16,12
  133540:	003ff406 	br	133514 <_gp+0xfffefe3c>
  133544:	10c003cc 	andi	r3,r2,15
  133548:	01000104 	movi	r4,4
  13354c:	193ff626 	beq	r3,r4,133528 <_gp+0xfffefe50>
  133550:	0023883a 	mov	r17,zero
  133554:	003fd506 	br	1334ac <_gp+0xfffefdd4>
  133558:	0023883a 	mov	r17,zero
  13355c:	003fe706 	br	1334fc <_gp+0xfffefe24>
  133560:	00800434 	movhi	r2,16
  133564:	8c000234 	orhi	r16,r17,8
  133568:	10bfffc4 	addi	r2,r2,-1
  13356c:	3027883a 	mov	r19,r6
  133570:	80a0703a 	and	r16,r16,r2
  133574:	902d883a 	mov	r22,r18
  133578:	003eac06 	br	13302c <_gp+0xfffef954>

0013357c <__subdf3>:
  13357c:	02000434 	movhi	r8,16
  133580:	423fffc4 	addi	r8,r8,-1
  133584:	defffb04 	addi	sp,sp,-20
  133588:	2a14703a 	and	r10,r5,r8
  13358c:	3812d53a 	srli	r9,r7,20
  133590:	3a10703a 	and	r8,r7,r8
  133594:	2006d77a 	srli	r3,r4,29
  133598:	3004d77a 	srli	r2,r6,29
  13359c:	dc000015 	stw	r16,0(sp)
  1335a0:	501490fa 	slli	r10,r10,3
  1335a4:	2820d53a 	srli	r16,r5,20
  1335a8:	401090fa 	slli	r8,r8,3
  1335ac:	dc800215 	stw	r18,8(sp)
  1335b0:	dc400115 	stw	r17,4(sp)
  1335b4:	dfc00415 	stw	ra,16(sp)
  1335b8:	202290fa 	slli	r17,r4,3
  1335bc:	dcc00315 	stw	r19,12(sp)
  1335c0:	4a41ffcc 	andi	r9,r9,2047
  1335c4:	0101ffc4 	movi	r4,2047
  1335c8:	2824d7fa 	srli	r18,r5,31
  1335cc:	8401ffcc 	andi	r16,r16,2047
  1335d0:	50c6b03a 	or	r3,r10,r3
  1335d4:	380ed7fa 	srli	r7,r7,31
  1335d8:	408ab03a 	or	r5,r8,r2
  1335dc:	300c90fa 	slli	r6,r6,3
  1335e0:	49009626 	beq	r9,r4,13383c <__subdf3+0x2c0>
  1335e4:	39c0005c 	xori	r7,r7,1
  1335e8:	8245c83a 	sub	r2,r16,r9
  1335ec:	3c807426 	beq	r7,r18,1337c0 <__subdf3+0x244>
  1335f0:	0080af0e 	bge	zero,r2,1338b0 <__subdf3+0x334>
  1335f4:	48002a1e 	bne	r9,zero,1336a0 <__subdf3+0x124>
  1335f8:	2988b03a 	or	r4,r5,r6
  1335fc:	20009a1e 	bne	r4,zero,133868 <__subdf3+0x2ec>
  133600:	888001cc 	andi	r2,r17,7
  133604:	10000726 	beq	r2,zero,133624 <__subdf3+0xa8>
  133608:	888003cc 	andi	r2,r17,15
  13360c:	01000104 	movi	r4,4
  133610:	11000426 	beq	r2,r4,133624 <__subdf3+0xa8>
  133614:	890b883a 	add	r5,r17,r4
  133618:	2c63803a 	cmpltu	r17,r5,r17
  13361c:	1c47883a 	add	r3,r3,r17
  133620:	2823883a 	mov	r17,r5
  133624:	1880202c 	andhi	r2,r3,128
  133628:	10005926 	beq	r2,zero,133790 <__subdf3+0x214>
  13362c:	84000044 	addi	r16,r16,1
  133630:	0081ffc4 	movi	r2,2047
  133634:	8080be26 	beq	r16,r2,133930 <__subdf3+0x3b4>
  133638:	017fe034 	movhi	r5,65408
  13363c:	297fffc4 	addi	r5,r5,-1
  133640:	1946703a 	and	r3,r3,r5
  133644:	1804977a 	slli	r2,r3,29
  133648:	1806927a 	slli	r3,r3,9
  13364c:	8822d0fa 	srli	r17,r17,3
  133650:	8401ffcc 	andi	r16,r16,2047
  133654:	180ad33a 	srli	r5,r3,12
  133658:	9100004c 	andi	r4,r18,1
  13365c:	1444b03a 	or	r2,r2,r17
  133660:	80c1ffcc 	andi	r3,r16,2047
  133664:	1820953a 	slli	r16,r3,20
  133668:	20c03fcc 	andi	r3,r4,255
  13366c:	180897fa 	slli	r4,r3,31
  133670:	00c00434 	movhi	r3,16
  133674:	18ffffc4 	addi	r3,r3,-1
  133678:	28c6703a 	and	r3,r5,r3
  13367c:	1c06b03a 	or	r3,r3,r16
  133680:	1906b03a 	or	r3,r3,r4
  133684:	dfc00417 	ldw	ra,16(sp)
  133688:	dcc00317 	ldw	r19,12(sp)
  13368c:	dc800217 	ldw	r18,8(sp)
  133690:	dc400117 	ldw	r17,4(sp)
  133694:	dc000017 	ldw	r16,0(sp)
  133698:	dec00504 	addi	sp,sp,20
  13369c:	f800283a 	ret
  1336a0:	0101ffc4 	movi	r4,2047
  1336a4:	813fd626 	beq	r16,r4,133600 <_gp+0xfffeff28>
  1336a8:	29402034 	orhi	r5,r5,128
  1336ac:	01000e04 	movi	r4,56
  1336b0:	2080a316 	blt	r4,r2,133940 <__subdf3+0x3c4>
  1336b4:	010007c4 	movi	r4,31
  1336b8:	2080c616 	blt	r4,r2,1339d4 <__subdf3+0x458>
  1336bc:	01000804 	movi	r4,32
  1336c0:	2089c83a 	sub	r4,r4,r2
  1336c4:	2910983a 	sll	r8,r5,r4
  1336c8:	308ed83a 	srl	r7,r6,r2
  1336cc:	3108983a 	sll	r4,r6,r4
  1336d0:	2884d83a 	srl	r2,r5,r2
  1336d4:	41ccb03a 	or	r6,r8,r7
  1336d8:	2008c03a 	cmpne	r4,r4,zero
  1336dc:	310cb03a 	or	r6,r6,r4
  1336e0:	898dc83a 	sub	r6,r17,r6
  1336e4:	89a3803a 	cmpltu	r17,r17,r6
  1336e8:	1887c83a 	sub	r3,r3,r2
  1336ec:	1c47c83a 	sub	r3,r3,r17
  1336f0:	3023883a 	mov	r17,r6
  1336f4:	1880202c 	andhi	r2,r3,128
  1336f8:	10002326 	beq	r2,zero,133788 <__subdf3+0x20c>
  1336fc:	04c02034 	movhi	r19,128
  133700:	9cffffc4 	addi	r19,r19,-1
  133704:	1ce6703a 	and	r19,r3,r19
  133708:	98007a26 	beq	r19,zero,1338f4 <__subdf3+0x378>
  13370c:	9809883a 	mov	r4,r19
  133710:	01342240 	call	134224 <__clzsi2>
  133714:	113ffe04 	addi	r4,r2,-8
  133718:	00c007c4 	movi	r3,31
  13371c:	19007b16 	blt	r3,r4,13390c <__subdf3+0x390>
  133720:	00800804 	movi	r2,32
  133724:	1105c83a 	sub	r2,r2,r4
  133728:	8884d83a 	srl	r2,r17,r2
  13372c:	9906983a 	sll	r3,r19,r4
  133730:	8922983a 	sll	r17,r17,r4
  133734:	10c4b03a 	or	r2,r2,r3
  133738:	24007816 	blt	r4,r16,13391c <__subdf3+0x3a0>
  13373c:	2421c83a 	sub	r16,r4,r16
  133740:	80c00044 	addi	r3,r16,1
  133744:	010007c4 	movi	r4,31
  133748:	20c09516 	blt	r4,r3,1339a0 <__subdf3+0x424>
  13374c:	01400804 	movi	r5,32
  133750:	28cbc83a 	sub	r5,r5,r3
  133754:	88c8d83a 	srl	r4,r17,r3
  133758:	8962983a 	sll	r17,r17,r5
  13375c:	114a983a 	sll	r5,r2,r5
  133760:	10c6d83a 	srl	r3,r2,r3
  133764:	8804c03a 	cmpne	r2,r17,zero
  133768:	290ab03a 	or	r5,r5,r4
  13376c:	28a2b03a 	or	r17,r5,r2
  133770:	0021883a 	mov	r16,zero
  133774:	003fa206 	br	133600 <_gp+0xfffeff28>
  133778:	2090b03a 	or	r8,r4,r2
  13377c:	40018e26 	beq	r8,zero,133db8 <__subdf3+0x83c>
  133780:	1007883a 	mov	r3,r2
  133784:	2023883a 	mov	r17,r4
  133788:	888001cc 	andi	r2,r17,7
  13378c:	103f9e1e 	bne	r2,zero,133608 <_gp+0xfffeff30>
  133790:	1804977a 	slli	r2,r3,29
  133794:	8822d0fa 	srli	r17,r17,3
  133798:	1810d0fa 	srli	r8,r3,3
  13379c:	9100004c 	andi	r4,r18,1
  1337a0:	1444b03a 	or	r2,r2,r17
  1337a4:	00c1ffc4 	movi	r3,2047
  1337a8:	80c02826 	beq	r16,r3,13384c <__subdf3+0x2d0>
  1337ac:	01400434 	movhi	r5,16
  1337b0:	297fffc4 	addi	r5,r5,-1
  1337b4:	80e0703a 	and	r16,r16,r3
  1337b8:	414a703a 	and	r5,r8,r5
  1337bc:	003fa806 	br	133660 <_gp+0xfffeff88>
  1337c0:	0080630e 	bge	zero,r2,133950 <__subdf3+0x3d4>
  1337c4:	48003026 	beq	r9,zero,133888 <__subdf3+0x30c>
  1337c8:	0101ffc4 	movi	r4,2047
  1337cc:	813f8c26 	beq	r16,r4,133600 <_gp+0xfffeff28>
  1337d0:	29402034 	orhi	r5,r5,128
  1337d4:	01000e04 	movi	r4,56
  1337d8:	2080a90e 	bge	r4,r2,133a80 <__subdf3+0x504>
  1337dc:	298cb03a 	or	r6,r5,r6
  1337e0:	3012c03a 	cmpne	r9,r6,zero
  1337e4:	0005883a 	mov	r2,zero
  1337e8:	4c53883a 	add	r9,r9,r17
  1337ec:	4c63803a 	cmpltu	r17,r9,r17
  1337f0:	10c7883a 	add	r3,r2,r3
  1337f4:	88c7883a 	add	r3,r17,r3
  1337f8:	4823883a 	mov	r17,r9
  1337fc:	1880202c 	andhi	r2,r3,128
  133800:	1000d026 	beq	r2,zero,133b44 <__subdf3+0x5c8>
  133804:	84000044 	addi	r16,r16,1
  133808:	0081ffc4 	movi	r2,2047
  13380c:	8080fe26 	beq	r16,r2,133c08 <__subdf3+0x68c>
  133810:	00bfe034 	movhi	r2,65408
  133814:	10bfffc4 	addi	r2,r2,-1
  133818:	1886703a 	and	r3,r3,r2
  13381c:	880ad07a 	srli	r5,r17,1
  133820:	180497fa 	slli	r2,r3,31
  133824:	8900004c 	andi	r4,r17,1
  133828:	2922b03a 	or	r17,r5,r4
  13382c:	1806d07a 	srli	r3,r3,1
  133830:	1462b03a 	or	r17,r2,r17
  133834:	3825883a 	mov	r18,r7
  133838:	003f7106 	br	133600 <_gp+0xfffeff28>
  13383c:	2984b03a 	or	r2,r5,r6
  133840:	103f6826 	beq	r2,zero,1335e4 <_gp+0xfffeff0c>
  133844:	39c03fcc 	andi	r7,r7,255
  133848:	003f6706 	br	1335e8 <_gp+0xfffeff10>
  13384c:	4086b03a 	or	r3,r8,r2
  133850:	18015226 	beq	r3,zero,133d9c <__subdf3+0x820>
  133854:	00c00434 	movhi	r3,16
  133858:	41400234 	orhi	r5,r8,8
  13385c:	18ffffc4 	addi	r3,r3,-1
  133860:	28ca703a 	and	r5,r5,r3
  133864:	003f7e06 	br	133660 <_gp+0xfffeff88>
  133868:	10bfffc4 	addi	r2,r2,-1
  13386c:	1000491e 	bne	r2,zero,133994 <__subdf3+0x418>
  133870:	898fc83a 	sub	r7,r17,r6
  133874:	89e3803a 	cmpltu	r17,r17,r7
  133878:	1947c83a 	sub	r3,r3,r5
  13387c:	1c47c83a 	sub	r3,r3,r17
  133880:	3823883a 	mov	r17,r7
  133884:	003f9b06 	br	1336f4 <_gp+0xffff001c>
  133888:	2988b03a 	or	r4,r5,r6
  13388c:	203f5c26 	beq	r4,zero,133600 <_gp+0xfffeff28>
  133890:	10bfffc4 	addi	r2,r2,-1
  133894:	1000931e 	bne	r2,zero,133ae4 <__subdf3+0x568>
  133898:	898d883a 	add	r6,r17,r6
  13389c:	3463803a 	cmpltu	r17,r6,r17
  1338a0:	1947883a 	add	r3,r3,r5
  1338a4:	88c7883a 	add	r3,r17,r3
  1338a8:	3023883a 	mov	r17,r6
  1338ac:	003fd306 	br	1337fc <_gp+0xffff0124>
  1338b0:	1000541e 	bne	r2,zero,133a04 <__subdf3+0x488>
  1338b4:	80800044 	addi	r2,r16,1
  1338b8:	1081ffcc 	andi	r2,r2,2047
  1338bc:	01000044 	movi	r4,1
  1338c0:	2080a20e 	bge	r4,r2,133b4c <__subdf3+0x5d0>
  1338c4:	8989c83a 	sub	r4,r17,r6
  1338c8:	8905803a 	cmpltu	r2,r17,r4
  1338cc:	1967c83a 	sub	r19,r3,r5
  1338d0:	98a7c83a 	sub	r19,r19,r2
  1338d4:	9880202c 	andhi	r2,r19,128
  1338d8:	10006326 	beq	r2,zero,133a68 <__subdf3+0x4ec>
  1338dc:	3463c83a 	sub	r17,r6,r17
  1338e0:	28c7c83a 	sub	r3,r5,r3
  1338e4:	344d803a 	cmpltu	r6,r6,r17
  1338e8:	19a7c83a 	sub	r19,r3,r6
  1338ec:	3825883a 	mov	r18,r7
  1338f0:	983f861e 	bne	r19,zero,13370c <_gp+0xffff0034>
  1338f4:	8809883a 	mov	r4,r17
  1338f8:	01342240 	call	134224 <__clzsi2>
  1338fc:	10800804 	addi	r2,r2,32
  133900:	113ffe04 	addi	r4,r2,-8
  133904:	00c007c4 	movi	r3,31
  133908:	193f850e 	bge	r3,r4,133720 <_gp+0xffff0048>
  13390c:	10bff604 	addi	r2,r2,-40
  133910:	8884983a 	sll	r2,r17,r2
  133914:	0023883a 	mov	r17,zero
  133918:	243f880e 	bge	r4,r16,13373c <_gp+0xffff0064>
  13391c:	00ffe034 	movhi	r3,65408
  133920:	18ffffc4 	addi	r3,r3,-1
  133924:	8121c83a 	sub	r16,r16,r4
  133928:	10c6703a 	and	r3,r2,r3
  13392c:	003f3406 	br	133600 <_gp+0xfffeff28>
  133930:	9100004c 	andi	r4,r18,1
  133934:	000b883a 	mov	r5,zero
  133938:	0005883a 	mov	r2,zero
  13393c:	003f4806 	br	133660 <_gp+0xfffeff88>
  133940:	298cb03a 	or	r6,r5,r6
  133944:	300cc03a 	cmpne	r6,r6,zero
  133948:	0005883a 	mov	r2,zero
  13394c:	003f6406 	br	1336e0 <_gp+0xffff0008>
  133950:	10009a1e 	bne	r2,zero,133bbc <__subdf3+0x640>
  133954:	82400044 	addi	r9,r16,1
  133958:	4881ffcc 	andi	r2,r9,2047
  13395c:	02800044 	movi	r10,1
  133960:	5080670e 	bge	r10,r2,133b00 <__subdf3+0x584>
  133964:	0081ffc4 	movi	r2,2047
  133968:	4880af26 	beq	r9,r2,133c28 <__subdf3+0x6ac>
  13396c:	898d883a 	add	r6,r17,r6
  133970:	1945883a 	add	r2,r3,r5
  133974:	3447803a 	cmpltu	r3,r6,r17
  133978:	1887883a 	add	r3,r3,r2
  13397c:	182297fa 	slli	r17,r3,31
  133980:	300cd07a 	srli	r6,r6,1
  133984:	1806d07a 	srli	r3,r3,1
  133988:	4821883a 	mov	r16,r9
  13398c:	89a2b03a 	or	r17,r17,r6
  133990:	003f1b06 	br	133600 <_gp+0xfffeff28>
  133994:	0101ffc4 	movi	r4,2047
  133998:	813f441e 	bne	r16,r4,1336ac <_gp+0xfffeffd4>
  13399c:	003f1806 	br	133600 <_gp+0xfffeff28>
  1339a0:	843ff844 	addi	r16,r16,-31
  1339a4:	01400804 	movi	r5,32
  1339a8:	1408d83a 	srl	r4,r2,r16
  1339ac:	19405026 	beq	r3,r5,133af0 <__subdf3+0x574>
  1339b0:	01401004 	movi	r5,64
  1339b4:	28c7c83a 	sub	r3,r5,r3
  1339b8:	10c4983a 	sll	r2,r2,r3
  1339bc:	88a2b03a 	or	r17,r17,r2
  1339c0:	8822c03a 	cmpne	r17,r17,zero
  1339c4:	2462b03a 	or	r17,r4,r17
  1339c8:	0007883a 	mov	r3,zero
  1339cc:	0021883a 	mov	r16,zero
  1339d0:	003f6d06 	br	133788 <_gp+0xffff00b0>
  1339d4:	11fff804 	addi	r7,r2,-32
  1339d8:	01000804 	movi	r4,32
  1339dc:	29ced83a 	srl	r7,r5,r7
  1339e0:	11004526 	beq	r2,r4,133af8 <__subdf3+0x57c>
  1339e4:	01001004 	movi	r4,64
  1339e8:	2089c83a 	sub	r4,r4,r2
  1339ec:	2904983a 	sll	r2,r5,r4
  1339f0:	118cb03a 	or	r6,r2,r6
  1339f4:	300cc03a 	cmpne	r6,r6,zero
  1339f8:	398cb03a 	or	r6,r7,r6
  1339fc:	0005883a 	mov	r2,zero
  133a00:	003f3706 	br	1336e0 <_gp+0xffff0008>
  133a04:	80002a26 	beq	r16,zero,133ab0 <__subdf3+0x534>
  133a08:	0101ffc4 	movi	r4,2047
  133a0c:	49006626 	beq	r9,r4,133ba8 <__subdf3+0x62c>
  133a10:	0085c83a 	sub	r2,zero,r2
  133a14:	18c02034 	orhi	r3,r3,128
  133a18:	01000e04 	movi	r4,56
  133a1c:	20807e16 	blt	r4,r2,133c18 <__subdf3+0x69c>
  133a20:	010007c4 	movi	r4,31
  133a24:	2080e716 	blt	r4,r2,133dc4 <__subdf3+0x848>
  133a28:	01000804 	movi	r4,32
  133a2c:	2089c83a 	sub	r4,r4,r2
  133a30:	1914983a 	sll	r10,r3,r4
  133a34:	8890d83a 	srl	r8,r17,r2
  133a38:	8908983a 	sll	r4,r17,r4
  133a3c:	1884d83a 	srl	r2,r3,r2
  133a40:	5222b03a 	or	r17,r10,r8
  133a44:	2006c03a 	cmpne	r3,r4,zero
  133a48:	88e2b03a 	or	r17,r17,r3
  133a4c:	3463c83a 	sub	r17,r6,r17
  133a50:	2885c83a 	sub	r2,r5,r2
  133a54:	344d803a 	cmpltu	r6,r6,r17
  133a58:	1187c83a 	sub	r3,r2,r6
  133a5c:	4821883a 	mov	r16,r9
  133a60:	3825883a 	mov	r18,r7
  133a64:	003f2306 	br	1336f4 <_gp+0xffff001c>
  133a68:	24d0b03a 	or	r8,r4,r19
  133a6c:	40001b1e 	bne	r8,zero,133adc <__subdf3+0x560>
  133a70:	0005883a 	mov	r2,zero
  133a74:	0009883a 	mov	r4,zero
  133a78:	0021883a 	mov	r16,zero
  133a7c:	003f4906 	br	1337a4 <_gp+0xffff00cc>
  133a80:	010007c4 	movi	r4,31
  133a84:	20803a16 	blt	r4,r2,133b70 <__subdf3+0x5f4>
  133a88:	01000804 	movi	r4,32
  133a8c:	2089c83a 	sub	r4,r4,r2
  133a90:	2912983a 	sll	r9,r5,r4
  133a94:	3090d83a 	srl	r8,r6,r2
  133a98:	3108983a 	sll	r4,r6,r4
  133a9c:	2884d83a 	srl	r2,r5,r2
  133aa0:	4a12b03a 	or	r9,r9,r8
  133aa4:	2008c03a 	cmpne	r4,r4,zero
  133aa8:	4912b03a 	or	r9,r9,r4
  133aac:	003f4e06 	br	1337e8 <_gp+0xffff0110>
  133ab0:	1c48b03a 	or	r4,r3,r17
  133ab4:	20003c26 	beq	r4,zero,133ba8 <__subdf3+0x62c>
  133ab8:	0084303a 	nor	r2,zero,r2
  133abc:	1000381e 	bne	r2,zero,133ba0 <__subdf3+0x624>
  133ac0:	3463c83a 	sub	r17,r6,r17
  133ac4:	28c5c83a 	sub	r2,r5,r3
  133ac8:	344d803a 	cmpltu	r6,r6,r17
  133acc:	1187c83a 	sub	r3,r2,r6
  133ad0:	4821883a 	mov	r16,r9
  133ad4:	3825883a 	mov	r18,r7
  133ad8:	003f0606 	br	1336f4 <_gp+0xffff001c>
  133adc:	2023883a 	mov	r17,r4
  133ae0:	003f0906 	br	133708 <_gp+0xffff0030>
  133ae4:	0101ffc4 	movi	r4,2047
  133ae8:	813f3a1e 	bne	r16,r4,1337d4 <_gp+0xffff00fc>
  133aec:	003ec406 	br	133600 <_gp+0xfffeff28>
  133af0:	0005883a 	mov	r2,zero
  133af4:	003fb106 	br	1339bc <_gp+0xffff02e4>
  133af8:	0005883a 	mov	r2,zero
  133afc:	003fbc06 	br	1339f0 <_gp+0xffff0318>
  133b00:	1c44b03a 	or	r2,r3,r17
  133b04:	80008e1e 	bne	r16,zero,133d40 <__subdf3+0x7c4>
  133b08:	1000c826 	beq	r2,zero,133e2c <__subdf3+0x8b0>
  133b0c:	2984b03a 	or	r2,r5,r6
  133b10:	103ebb26 	beq	r2,zero,133600 <_gp+0xfffeff28>
  133b14:	8989883a 	add	r4,r17,r6
  133b18:	1945883a 	add	r2,r3,r5
  133b1c:	2447803a 	cmpltu	r3,r4,r17
  133b20:	1887883a 	add	r3,r3,r2
  133b24:	1880202c 	andhi	r2,r3,128
  133b28:	2023883a 	mov	r17,r4
  133b2c:	103f1626 	beq	r2,zero,133788 <_gp+0xffff00b0>
  133b30:	00bfe034 	movhi	r2,65408
  133b34:	10bfffc4 	addi	r2,r2,-1
  133b38:	5021883a 	mov	r16,r10
  133b3c:	1886703a 	and	r3,r3,r2
  133b40:	003eaf06 	br	133600 <_gp+0xfffeff28>
  133b44:	3825883a 	mov	r18,r7
  133b48:	003f0f06 	br	133788 <_gp+0xffff00b0>
  133b4c:	1c44b03a 	or	r2,r3,r17
  133b50:	8000251e 	bne	r16,zero,133be8 <__subdf3+0x66c>
  133b54:	1000661e 	bne	r2,zero,133cf0 <__subdf3+0x774>
  133b58:	2990b03a 	or	r8,r5,r6
  133b5c:	40009626 	beq	r8,zero,133db8 <__subdf3+0x83c>
  133b60:	2807883a 	mov	r3,r5
  133b64:	3023883a 	mov	r17,r6
  133b68:	3825883a 	mov	r18,r7
  133b6c:	003ea406 	br	133600 <_gp+0xfffeff28>
  133b70:	127ff804 	addi	r9,r2,-32
  133b74:	01000804 	movi	r4,32
  133b78:	2a52d83a 	srl	r9,r5,r9
  133b7c:	11008c26 	beq	r2,r4,133db0 <__subdf3+0x834>
  133b80:	01001004 	movi	r4,64
  133b84:	2085c83a 	sub	r2,r4,r2
  133b88:	2884983a 	sll	r2,r5,r2
  133b8c:	118cb03a 	or	r6,r2,r6
  133b90:	300cc03a 	cmpne	r6,r6,zero
  133b94:	4992b03a 	or	r9,r9,r6
  133b98:	0005883a 	mov	r2,zero
  133b9c:	003f1206 	br	1337e8 <_gp+0xffff0110>
  133ba0:	0101ffc4 	movi	r4,2047
  133ba4:	493f9c1e 	bne	r9,r4,133a18 <_gp+0xffff0340>
  133ba8:	2807883a 	mov	r3,r5
  133bac:	3023883a 	mov	r17,r6
  133bb0:	4821883a 	mov	r16,r9
  133bb4:	3825883a 	mov	r18,r7
  133bb8:	003e9106 	br	133600 <_gp+0xfffeff28>
  133bbc:	80001f1e 	bne	r16,zero,133c3c <__subdf3+0x6c0>
  133bc0:	1c48b03a 	or	r4,r3,r17
  133bc4:	20005a26 	beq	r4,zero,133d30 <__subdf3+0x7b4>
  133bc8:	0084303a 	nor	r2,zero,r2
  133bcc:	1000561e 	bne	r2,zero,133d28 <__subdf3+0x7ac>
  133bd0:	89a3883a 	add	r17,r17,r6
  133bd4:	1945883a 	add	r2,r3,r5
  133bd8:	898d803a 	cmpltu	r6,r17,r6
  133bdc:	3087883a 	add	r3,r6,r2
  133be0:	4821883a 	mov	r16,r9
  133be4:	003f0506 	br	1337fc <_gp+0xffff0124>
  133be8:	10002b1e 	bne	r2,zero,133c98 <__subdf3+0x71c>
  133bec:	2984b03a 	or	r2,r5,r6
  133bf0:	10008026 	beq	r2,zero,133df4 <__subdf3+0x878>
  133bf4:	2807883a 	mov	r3,r5
  133bf8:	3023883a 	mov	r17,r6
  133bfc:	3825883a 	mov	r18,r7
  133c00:	0401ffc4 	movi	r16,2047
  133c04:	003e7e06 	br	133600 <_gp+0xfffeff28>
  133c08:	3809883a 	mov	r4,r7
  133c0c:	0011883a 	mov	r8,zero
  133c10:	0005883a 	mov	r2,zero
  133c14:	003ee306 	br	1337a4 <_gp+0xffff00cc>
  133c18:	1c62b03a 	or	r17,r3,r17
  133c1c:	8822c03a 	cmpne	r17,r17,zero
  133c20:	0005883a 	mov	r2,zero
  133c24:	003f8906 	br	133a4c <_gp+0xffff0374>
  133c28:	3809883a 	mov	r4,r7
  133c2c:	4821883a 	mov	r16,r9
  133c30:	0011883a 	mov	r8,zero
  133c34:	0005883a 	mov	r2,zero
  133c38:	003eda06 	br	1337a4 <_gp+0xffff00cc>
  133c3c:	0101ffc4 	movi	r4,2047
  133c40:	49003b26 	beq	r9,r4,133d30 <__subdf3+0x7b4>
  133c44:	0085c83a 	sub	r2,zero,r2
  133c48:	18c02034 	orhi	r3,r3,128
  133c4c:	01000e04 	movi	r4,56
  133c50:	20806e16 	blt	r4,r2,133e0c <__subdf3+0x890>
  133c54:	010007c4 	movi	r4,31
  133c58:	20807716 	blt	r4,r2,133e38 <__subdf3+0x8bc>
  133c5c:	01000804 	movi	r4,32
  133c60:	2089c83a 	sub	r4,r4,r2
  133c64:	1914983a 	sll	r10,r3,r4
  133c68:	8890d83a 	srl	r8,r17,r2
  133c6c:	8908983a 	sll	r4,r17,r4
  133c70:	1884d83a 	srl	r2,r3,r2
  133c74:	5222b03a 	or	r17,r10,r8
  133c78:	2006c03a 	cmpne	r3,r4,zero
  133c7c:	88e2b03a 	or	r17,r17,r3
  133c80:	89a3883a 	add	r17,r17,r6
  133c84:	1145883a 	add	r2,r2,r5
  133c88:	898d803a 	cmpltu	r6,r17,r6
  133c8c:	3087883a 	add	r3,r6,r2
  133c90:	4821883a 	mov	r16,r9
  133c94:	003ed906 	br	1337fc <_gp+0xffff0124>
  133c98:	2984b03a 	or	r2,r5,r6
  133c9c:	10004226 	beq	r2,zero,133da8 <__subdf3+0x82c>
  133ca0:	1808d0fa 	srli	r4,r3,3
  133ca4:	8822d0fa 	srli	r17,r17,3
  133ca8:	1806977a 	slli	r3,r3,29
  133cac:	2080022c 	andhi	r2,r4,8
  133cb0:	1c62b03a 	or	r17,r3,r17
  133cb4:	10000826 	beq	r2,zero,133cd8 <__subdf3+0x75c>
  133cb8:	2812d0fa 	srli	r9,r5,3
  133cbc:	4880022c 	andhi	r2,r9,8
  133cc0:	1000051e 	bne	r2,zero,133cd8 <__subdf3+0x75c>
  133cc4:	300cd0fa 	srli	r6,r6,3
  133cc8:	2804977a 	slli	r2,r5,29
  133ccc:	4809883a 	mov	r4,r9
  133cd0:	3825883a 	mov	r18,r7
  133cd4:	11a2b03a 	or	r17,r2,r6
  133cd8:	8806d77a 	srli	r3,r17,29
  133cdc:	200890fa 	slli	r4,r4,3
  133ce0:	882290fa 	slli	r17,r17,3
  133ce4:	0401ffc4 	movi	r16,2047
  133ce8:	1906b03a 	or	r3,r3,r4
  133cec:	003e4406 	br	133600 <_gp+0xfffeff28>
  133cf0:	2984b03a 	or	r2,r5,r6
  133cf4:	103e4226 	beq	r2,zero,133600 <_gp+0xfffeff28>
  133cf8:	8989c83a 	sub	r4,r17,r6
  133cfc:	8911803a 	cmpltu	r8,r17,r4
  133d00:	1945c83a 	sub	r2,r3,r5
  133d04:	1205c83a 	sub	r2,r2,r8
  133d08:	1200202c 	andhi	r8,r2,128
  133d0c:	403e9a26 	beq	r8,zero,133778 <_gp+0xffff00a0>
  133d10:	3463c83a 	sub	r17,r6,r17
  133d14:	28c5c83a 	sub	r2,r5,r3
  133d18:	344d803a 	cmpltu	r6,r6,r17
  133d1c:	1187c83a 	sub	r3,r2,r6
  133d20:	3825883a 	mov	r18,r7
  133d24:	003e3606 	br	133600 <_gp+0xfffeff28>
  133d28:	0101ffc4 	movi	r4,2047
  133d2c:	493fc71e 	bne	r9,r4,133c4c <_gp+0xffff0574>
  133d30:	2807883a 	mov	r3,r5
  133d34:	3023883a 	mov	r17,r6
  133d38:	4821883a 	mov	r16,r9
  133d3c:	003e3006 	br	133600 <_gp+0xfffeff28>
  133d40:	10003626 	beq	r2,zero,133e1c <__subdf3+0x8a0>
  133d44:	2984b03a 	or	r2,r5,r6
  133d48:	10001726 	beq	r2,zero,133da8 <__subdf3+0x82c>
  133d4c:	1808d0fa 	srli	r4,r3,3
  133d50:	8822d0fa 	srli	r17,r17,3
  133d54:	1806977a 	slli	r3,r3,29
  133d58:	2080022c 	andhi	r2,r4,8
  133d5c:	1c62b03a 	or	r17,r3,r17
  133d60:	10000726 	beq	r2,zero,133d80 <__subdf3+0x804>
  133d64:	2812d0fa 	srli	r9,r5,3
  133d68:	4880022c 	andhi	r2,r9,8
  133d6c:	1000041e 	bne	r2,zero,133d80 <__subdf3+0x804>
  133d70:	300cd0fa 	srli	r6,r6,3
  133d74:	2804977a 	slli	r2,r5,29
  133d78:	4809883a 	mov	r4,r9
  133d7c:	11a2b03a 	or	r17,r2,r6
  133d80:	8806d77a 	srli	r3,r17,29
  133d84:	200890fa 	slli	r4,r4,3
  133d88:	882290fa 	slli	r17,r17,3
  133d8c:	3825883a 	mov	r18,r7
  133d90:	1906b03a 	or	r3,r3,r4
  133d94:	0401ffc4 	movi	r16,2047
  133d98:	003e1906 	br	133600 <_gp+0xfffeff28>
  133d9c:	000b883a 	mov	r5,zero
  133da0:	0005883a 	mov	r2,zero
  133da4:	003e2e06 	br	133660 <_gp+0xfffeff88>
  133da8:	0401ffc4 	movi	r16,2047
  133dac:	003e1406 	br	133600 <_gp+0xfffeff28>
  133db0:	0005883a 	mov	r2,zero
  133db4:	003f7506 	br	133b8c <_gp+0xffff04b4>
  133db8:	0005883a 	mov	r2,zero
  133dbc:	0009883a 	mov	r4,zero
  133dc0:	003e7806 	br	1337a4 <_gp+0xffff00cc>
  133dc4:	123ff804 	addi	r8,r2,-32
  133dc8:	01000804 	movi	r4,32
  133dcc:	1a10d83a 	srl	r8,r3,r8
  133dd0:	11002526 	beq	r2,r4,133e68 <__subdf3+0x8ec>
  133dd4:	01001004 	movi	r4,64
  133dd8:	2085c83a 	sub	r2,r4,r2
  133ddc:	1884983a 	sll	r2,r3,r2
  133de0:	1444b03a 	or	r2,r2,r17
  133de4:	1004c03a 	cmpne	r2,r2,zero
  133de8:	40a2b03a 	or	r17,r8,r2
  133dec:	0005883a 	mov	r2,zero
  133df0:	003f1606 	br	133a4c <_gp+0xffff0374>
  133df4:	02000434 	movhi	r8,16
  133df8:	0009883a 	mov	r4,zero
  133dfc:	423fffc4 	addi	r8,r8,-1
  133e00:	00bfffc4 	movi	r2,-1
  133e04:	0401ffc4 	movi	r16,2047
  133e08:	003e6606 	br	1337a4 <_gp+0xffff00cc>
  133e0c:	1c62b03a 	or	r17,r3,r17
  133e10:	8822c03a 	cmpne	r17,r17,zero
  133e14:	0005883a 	mov	r2,zero
  133e18:	003f9906 	br	133c80 <_gp+0xffff05a8>
  133e1c:	2807883a 	mov	r3,r5
  133e20:	3023883a 	mov	r17,r6
  133e24:	0401ffc4 	movi	r16,2047
  133e28:	003df506 	br	133600 <_gp+0xfffeff28>
  133e2c:	2807883a 	mov	r3,r5
  133e30:	3023883a 	mov	r17,r6
  133e34:	003df206 	br	133600 <_gp+0xfffeff28>
  133e38:	123ff804 	addi	r8,r2,-32
  133e3c:	01000804 	movi	r4,32
  133e40:	1a10d83a 	srl	r8,r3,r8
  133e44:	11000a26 	beq	r2,r4,133e70 <__subdf3+0x8f4>
  133e48:	01001004 	movi	r4,64
  133e4c:	2085c83a 	sub	r2,r4,r2
  133e50:	1884983a 	sll	r2,r3,r2
  133e54:	1444b03a 	or	r2,r2,r17
  133e58:	1004c03a 	cmpne	r2,r2,zero
  133e5c:	40a2b03a 	or	r17,r8,r2
  133e60:	0005883a 	mov	r2,zero
  133e64:	003f8606 	br	133c80 <_gp+0xffff05a8>
  133e68:	0005883a 	mov	r2,zero
  133e6c:	003fdc06 	br	133de0 <_gp+0xffff0708>
  133e70:	0005883a 	mov	r2,zero
  133e74:	003ff706 	br	133e54 <_gp+0xffff077c>

00133e78 <__fixdfsi>:
  133e78:	280cd53a 	srli	r6,r5,20
  133e7c:	00c00434 	movhi	r3,16
  133e80:	18ffffc4 	addi	r3,r3,-1
  133e84:	3181ffcc 	andi	r6,r6,2047
  133e88:	01c0ff84 	movi	r7,1022
  133e8c:	28c6703a 	and	r3,r5,r3
  133e90:	280ad7fa 	srli	r5,r5,31
  133e94:	3980120e 	bge	r7,r6,133ee0 <__fixdfsi+0x68>
  133e98:	00810744 	movi	r2,1053
  133e9c:	11800c16 	blt	r2,r6,133ed0 <__fixdfsi+0x58>
  133ea0:	00810cc4 	movi	r2,1075
  133ea4:	1185c83a 	sub	r2,r2,r6
  133ea8:	01c007c4 	movi	r7,31
  133eac:	18c00434 	orhi	r3,r3,16
  133eb0:	38800d16 	blt	r7,r2,133ee8 <__fixdfsi+0x70>
  133eb4:	31befb44 	addi	r6,r6,-1043
  133eb8:	2084d83a 	srl	r2,r4,r2
  133ebc:	1986983a 	sll	r3,r3,r6
  133ec0:	1884b03a 	or	r2,r3,r2
  133ec4:	28000726 	beq	r5,zero,133ee4 <__fixdfsi+0x6c>
  133ec8:	0085c83a 	sub	r2,zero,r2
  133ecc:	f800283a 	ret
  133ed0:	00a00034 	movhi	r2,32768
  133ed4:	10bfffc4 	addi	r2,r2,-1
  133ed8:	2885883a 	add	r2,r5,r2
  133edc:	f800283a 	ret
  133ee0:	0005883a 	mov	r2,zero
  133ee4:	f800283a 	ret
  133ee8:	008104c4 	movi	r2,1043
  133eec:	1185c83a 	sub	r2,r2,r6
  133ef0:	1884d83a 	srl	r2,r3,r2
  133ef4:	003ff306 	br	133ec4 <_gp+0xffff07ec>

00133ef8 <__floatsidf>:
  133ef8:	defffd04 	addi	sp,sp,-12
  133efc:	dfc00215 	stw	ra,8(sp)
  133f00:	dc400115 	stw	r17,4(sp)
  133f04:	dc000015 	stw	r16,0(sp)
  133f08:	20002b26 	beq	r4,zero,133fb8 <__floatsidf+0xc0>
  133f0c:	2023883a 	mov	r17,r4
  133f10:	2020d7fa 	srli	r16,r4,31
  133f14:	20002d16 	blt	r4,zero,133fcc <__floatsidf+0xd4>
  133f18:	8809883a 	mov	r4,r17
  133f1c:	01342240 	call	134224 <__clzsi2>
  133f20:	01410784 	movi	r5,1054
  133f24:	288bc83a 	sub	r5,r5,r2
  133f28:	01010cc4 	movi	r4,1075
  133f2c:	2149c83a 	sub	r4,r4,r5
  133f30:	00c007c4 	movi	r3,31
  133f34:	1900160e 	bge	r3,r4,133f90 <__floatsidf+0x98>
  133f38:	00c104c4 	movi	r3,1043
  133f3c:	1947c83a 	sub	r3,r3,r5
  133f40:	88c6983a 	sll	r3,r17,r3
  133f44:	00800434 	movhi	r2,16
  133f48:	10bfffc4 	addi	r2,r2,-1
  133f4c:	1886703a 	and	r3,r3,r2
  133f50:	2941ffcc 	andi	r5,r5,2047
  133f54:	800d883a 	mov	r6,r16
  133f58:	0005883a 	mov	r2,zero
  133f5c:	280a953a 	slli	r5,r5,20
  133f60:	31803fcc 	andi	r6,r6,255
  133f64:	01000434 	movhi	r4,16
  133f68:	300c97fa 	slli	r6,r6,31
  133f6c:	213fffc4 	addi	r4,r4,-1
  133f70:	1906703a 	and	r3,r3,r4
  133f74:	1946b03a 	or	r3,r3,r5
  133f78:	1986b03a 	or	r3,r3,r6
  133f7c:	dfc00217 	ldw	ra,8(sp)
  133f80:	dc400117 	ldw	r17,4(sp)
  133f84:	dc000017 	ldw	r16,0(sp)
  133f88:	dec00304 	addi	sp,sp,12
  133f8c:	f800283a 	ret
  133f90:	00c002c4 	movi	r3,11
  133f94:	1887c83a 	sub	r3,r3,r2
  133f98:	88c6d83a 	srl	r3,r17,r3
  133f9c:	8904983a 	sll	r2,r17,r4
  133fa0:	01000434 	movhi	r4,16
  133fa4:	213fffc4 	addi	r4,r4,-1
  133fa8:	2941ffcc 	andi	r5,r5,2047
  133fac:	1906703a 	and	r3,r3,r4
  133fb0:	800d883a 	mov	r6,r16
  133fb4:	003fe906 	br	133f5c <_gp+0xffff0884>
  133fb8:	000d883a 	mov	r6,zero
  133fbc:	000b883a 	mov	r5,zero
  133fc0:	0007883a 	mov	r3,zero
  133fc4:	0005883a 	mov	r2,zero
  133fc8:	003fe406 	br	133f5c <_gp+0xffff0884>
  133fcc:	0123c83a 	sub	r17,zero,r4
  133fd0:	003fd106 	br	133f18 <_gp+0xffff0840>

00133fd4 <__floatunsidf>:
  133fd4:	defffe04 	addi	sp,sp,-8
  133fd8:	dc000015 	stw	r16,0(sp)
  133fdc:	dfc00115 	stw	ra,4(sp)
  133fe0:	2021883a 	mov	r16,r4
  133fe4:	20002226 	beq	r4,zero,134070 <__floatunsidf+0x9c>
  133fe8:	01342240 	call	134224 <__clzsi2>
  133fec:	01010784 	movi	r4,1054
  133ff0:	2089c83a 	sub	r4,r4,r2
  133ff4:	01810cc4 	movi	r6,1075
  133ff8:	310dc83a 	sub	r6,r6,r4
  133ffc:	00c007c4 	movi	r3,31
  134000:	1980120e 	bge	r3,r6,13404c <__floatunsidf+0x78>
  134004:	00c104c4 	movi	r3,1043
  134008:	1907c83a 	sub	r3,r3,r4
  13400c:	80ca983a 	sll	r5,r16,r3
  134010:	00800434 	movhi	r2,16
  134014:	10bfffc4 	addi	r2,r2,-1
  134018:	2101ffcc 	andi	r4,r4,2047
  13401c:	0021883a 	mov	r16,zero
  134020:	288a703a 	and	r5,r5,r2
  134024:	2008953a 	slli	r4,r4,20
  134028:	00c00434 	movhi	r3,16
  13402c:	18ffffc4 	addi	r3,r3,-1
  134030:	28c6703a 	and	r3,r5,r3
  134034:	8005883a 	mov	r2,r16
  134038:	1906b03a 	or	r3,r3,r4
  13403c:	dfc00117 	ldw	ra,4(sp)
  134040:	dc000017 	ldw	r16,0(sp)
  134044:	dec00204 	addi	sp,sp,8
  134048:	f800283a 	ret
  13404c:	00c002c4 	movi	r3,11
  134050:	188bc83a 	sub	r5,r3,r2
  134054:	814ad83a 	srl	r5,r16,r5
  134058:	00c00434 	movhi	r3,16
  13405c:	18ffffc4 	addi	r3,r3,-1
  134060:	81a0983a 	sll	r16,r16,r6
  134064:	2101ffcc 	andi	r4,r4,2047
  134068:	28ca703a 	and	r5,r5,r3
  13406c:	003fed06 	br	134024 <_gp+0xffff094c>
  134070:	0009883a 	mov	r4,zero
  134074:	000b883a 	mov	r5,zero
  134078:	003fea06 	br	134024 <_gp+0xffff094c>

0013407c <__truncdfsf2>:
  13407c:	2810d53a 	srli	r8,r5,20
  134080:	01c00434 	movhi	r7,16
  134084:	39ffffc4 	addi	r7,r7,-1
  134088:	29ce703a 	and	r7,r5,r7
  13408c:	4201ffcc 	andi	r8,r8,2047
  134090:	380e90fa 	slli	r7,r7,3
  134094:	200cd77a 	srli	r6,r4,29
  134098:	42400044 	addi	r9,r8,1
  13409c:	4a41ffcc 	andi	r9,r9,2047
  1340a0:	00c00044 	movi	r3,1
  1340a4:	280ad7fa 	srli	r5,r5,31
  1340a8:	31ceb03a 	or	r7,r6,r7
  1340ac:	200490fa 	slli	r2,r4,3
  1340b0:	1a40230e 	bge	r3,r9,134140 <__truncdfsf2+0xc4>
  1340b4:	40ff2004 	addi	r3,r8,-896
  1340b8:	01803f84 	movi	r6,254
  1340bc:	30c01516 	blt	r6,r3,134114 <__truncdfsf2+0x98>
  1340c0:	00c0380e 	bge	zero,r3,1341a4 <__truncdfsf2+0x128>
  1340c4:	200c91ba 	slli	r6,r4,6
  1340c8:	380e90fa 	slli	r7,r7,3
  1340cc:	1004d77a 	srli	r2,r2,29
  1340d0:	300cc03a 	cmpne	r6,r6,zero
  1340d4:	31ccb03a 	or	r6,r6,r7
  1340d8:	308cb03a 	or	r6,r6,r2
  1340dc:	308001cc 	andi	r2,r6,7
  1340e0:	10000426 	beq	r2,zero,1340f4 <__truncdfsf2+0x78>
  1340e4:	308003cc 	andi	r2,r6,15
  1340e8:	01000104 	movi	r4,4
  1340ec:	11000126 	beq	r2,r4,1340f4 <__truncdfsf2+0x78>
  1340f0:	31800104 	addi	r6,r6,4
  1340f4:	3081002c 	andhi	r2,r6,1024
  1340f8:	10001626 	beq	r2,zero,134154 <__truncdfsf2+0xd8>
  1340fc:	18c00044 	addi	r3,r3,1
  134100:	00803fc4 	movi	r2,255
  134104:	18800326 	beq	r3,r2,134114 <__truncdfsf2+0x98>
  134108:	300c91ba 	slli	r6,r6,6
  13410c:	300cd27a 	srli	r6,r6,9
  134110:	00000206 	br	13411c <__truncdfsf2+0xa0>
  134114:	00ffffc4 	movi	r3,-1
  134118:	000d883a 	mov	r6,zero
  13411c:	18c03fcc 	andi	r3,r3,255
  134120:	180895fa 	slli	r4,r3,23
  134124:	00c02034 	movhi	r3,128
  134128:	280a97fa 	slli	r5,r5,31
  13412c:	18ffffc4 	addi	r3,r3,-1
  134130:	30c6703a 	and	r3,r6,r3
  134134:	1906b03a 	or	r3,r3,r4
  134138:	1944b03a 	or	r2,r3,r5
  13413c:	f800283a 	ret
  134140:	40000b1e 	bne	r8,zero,134170 <__truncdfsf2+0xf4>
  134144:	388cb03a 	or	r6,r7,r2
  134148:	0007883a 	mov	r3,zero
  13414c:	30000426 	beq	r6,zero,134160 <__truncdfsf2+0xe4>
  134150:	01800144 	movi	r6,5
  134154:	00803fc4 	movi	r2,255
  134158:	300cd0fa 	srli	r6,r6,3
  13415c:	18800a26 	beq	r3,r2,134188 <__truncdfsf2+0x10c>
  134160:	00802034 	movhi	r2,128
  134164:	10bfffc4 	addi	r2,r2,-1
  134168:	308c703a 	and	r6,r6,r2
  13416c:	003feb06 	br	13411c <_gp+0xffff0a44>
  134170:	3888b03a 	or	r4,r7,r2
  134174:	203fe726 	beq	r4,zero,134114 <_gp+0xffff0a3c>
  134178:	380c90fa 	slli	r6,r7,3
  13417c:	00c03fc4 	movi	r3,255
  134180:	31808034 	orhi	r6,r6,512
  134184:	003fd506 	br	1340dc <_gp+0xffff0a04>
  134188:	303fe226 	beq	r6,zero,134114 <_gp+0xffff0a3c>
  13418c:	00802034 	movhi	r2,128
  134190:	31801034 	orhi	r6,r6,64
  134194:	10bfffc4 	addi	r2,r2,-1
  134198:	00ffffc4 	movi	r3,-1
  13419c:	308c703a 	and	r6,r6,r2
  1341a0:	003fde06 	br	13411c <_gp+0xffff0a44>
  1341a4:	013ffa44 	movi	r4,-23
  1341a8:	19000e16 	blt	r3,r4,1341e4 <__truncdfsf2+0x168>
  1341ac:	01000784 	movi	r4,30
  1341b0:	20c9c83a 	sub	r4,r4,r3
  1341b4:	018007c4 	movi	r6,31
  1341b8:	39c02034 	orhi	r7,r7,128
  1341bc:	31000b16 	blt	r6,r4,1341ec <__truncdfsf2+0x170>
  1341c0:	423f2084 	addi	r8,r8,-894
  1341c4:	120c983a 	sll	r6,r2,r8
  1341c8:	3a0e983a 	sll	r7,r7,r8
  1341cc:	1104d83a 	srl	r2,r2,r4
  1341d0:	300cc03a 	cmpne	r6,r6,zero
  1341d4:	31ceb03a 	or	r7,r6,r7
  1341d8:	388cb03a 	or	r6,r7,r2
  1341dc:	0007883a 	mov	r3,zero
  1341e0:	003fbe06 	br	1340dc <_gp+0xffff0a04>
  1341e4:	0007883a 	mov	r3,zero
  1341e8:	003fd906 	br	134150 <_gp+0xffff0a78>
  1341ec:	01bfff84 	movi	r6,-2
  1341f0:	30cdc83a 	sub	r6,r6,r3
  1341f4:	00c00804 	movi	r3,32
  1341f8:	398cd83a 	srl	r6,r7,r6
  1341fc:	20c00726 	beq	r4,r3,13421c <__truncdfsf2+0x1a0>
  134200:	423f2884 	addi	r8,r8,-862
  134204:	3a0e983a 	sll	r7,r7,r8
  134208:	3884b03a 	or	r2,r7,r2
  13420c:	1004c03a 	cmpne	r2,r2,zero
  134210:	118cb03a 	or	r6,r2,r6
  134214:	0007883a 	mov	r3,zero
  134218:	003fb006 	br	1340dc <_gp+0xffff0a04>
  13421c:	000f883a 	mov	r7,zero
  134220:	003ff906 	br	134208 <_gp+0xffff0b30>

00134224 <__clzsi2>:
  134224:	00bfffd4 	movui	r2,65535
  134228:	11000536 	bltu	r2,r4,134240 <__clzsi2+0x1c>
  13422c:	00803fc4 	movi	r2,255
  134230:	11000f36 	bltu	r2,r4,134270 <__clzsi2+0x4c>
  134234:	00800804 	movi	r2,32
  134238:	0007883a 	mov	r3,zero
  13423c:	00000506 	br	134254 <__clzsi2+0x30>
  134240:	00804034 	movhi	r2,256
  134244:	10bfffc4 	addi	r2,r2,-1
  134248:	11000c2e 	bgeu	r2,r4,13427c <__clzsi2+0x58>
  13424c:	00800204 	movi	r2,8
  134250:	00c00604 	movi	r3,24
  134254:	20c8d83a 	srl	r4,r4,r3
  134258:	00c00534 	movhi	r3,20
  13425c:	18e63484 	addi	r3,r3,-26414
  134260:	1909883a 	add	r4,r3,r4
  134264:	20c00003 	ldbu	r3,0(r4)
  134268:	10c5c83a 	sub	r2,r2,r3
  13426c:	f800283a 	ret
  134270:	00800604 	movi	r2,24
  134274:	00c00204 	movi	r3,8
  134278:	003ff606 	br	134254 <_gp+0xffff0b7c>
  13427c:	00800404 	movi	r2,16
  134280:	1007883a 	mov	r3,r2
  134284:	003ff306 	br	134254 <_gp+0xffff0b7c>

00134288 <alt_get_errno>:
  134288:	defffe04 	addi	sp,sp,-8
  13428c:	dfc00115 	stw	ra,4(sp)
  134290:	df000015 	stw	fp,0(sp)
  134294:	d839883a 	mov	fp,sp
  134298:	d0a00e17 	ldw	r2,-32712(gp)
  13429c:	10000326 	beq	r2,zero,1342ac <alt_get_errno+0x24>
  1342a0:	d0a00e17 	ldw	r2,-32712(gp)
  1342a4:	103ee83a 	callr	r2
  1342a8:	00000106 	br	1342b0 <alt_get_errno+0x28>
  1342ac:	d0a75804 	addi	r2,gp,-25248
  1342b0:	e037883a 	mov	sp,fp
  1342b4:	dfc00117 	ldw	ra,4(sp)
  1342b8:	df000017 	ldw	fp,0(sp)
  1342bc:	dec00204 	addi	sp,sp,8
  1342c0:	f800283a 	ret

001342c4 <close>:
  1342c4:	defffb04 	addi	sp,sp,-20
  1342c8:	dfc00415 	stw	ra,16(sp)
  1342cc:	df000315 	stw	fp,12(sp)
  1342d0:	df000304 	addi	fp,sp,12
  1342d4:	e13fff15 	stw	r4,-4(fp)
  1342d8:	e0bfff17 	ldw	r2,-4(fp)
  1342dc:	10000816 	blt	r2,zero,134300 <close+0x3c>
  1342e0:	01400304 	movi	r5,12
  1342e4:	e13fff17 	ldw	r4,-4(fp)
  1342e8:	01213680 	call	121368 <__mulsi3>
  1342ec:	1007883a 	mov	r3,r2
  1342f0:	00800534 	movhi	r2,20
  1342f4:	10a8c204 	addi	r2,r2,-23800
  1342f8:	1885883a 	add	r2,r3,r2
  1342fc:	00000106 	br	134304 <close+0x40>
  134300:	0005883a 	mov	r2,zero
  134304:	e0bffd15 	stw	r2,-12(fp)
  134308:	e0bffd17 	ldw	r2,-12(fp)
  13430c:	10001926 	beq	r2,zero,134374 <close+0xb0>
  134310:	e0bffd17 	ldw	r2,-12(fp)
  134314:	10800017 	ldw	r2,0(r2)
  134318:	10800417 	ldw	r2,16(r2)
  13431c:	10000626 	beq	r2,zero,134338 <close+0x74>
  134320:	e0bffd17 	ldw	r2,-12(fp)
  134324:	10800017 	ldw	r2,0(r2)
  134328:	10800417 	ldw	r2,16(r2)
  13432c:	e13ffd17 	ldw	r4,-12(fp)
  134330:	103ee83a 	callr	r2
  134334:	00000106 	br	13433c <close+0x78>
  134338:	0005883a 	mov	r2,zero
  13433c:	e0bffe15 	stw	r2,-8(fp)
  134340:	e13fff17 	ldw	r4,-4(fp)
  134344:	0134c100 	call	134c10 <alt_release_fd>
  134348:	e0bffe17 	ldw	r2,-8(fp)
  13434c:	1000070e 	bge	r2,zero,13436c <close+0xa8>
  134350:	01342880 	call	134288 <alt_get_errno>
  134354:	1007883a 	mov	r3,r2
  134358:	e0bffe17 	ldw	r2,-8(fp)
  13435c:	0085c83a 	sub	r2,zero,r2
  134360:	18800015 	stw	r2,0(r3)
  134364:	00bfffc4 	movi	r2,-1
  134368:	00000706 	br	134388 <close+0xc4>
  13436c:	0005883a 	mov	r2,zero
  134370:	00000506 	br	134388 <close+0xc4>
  134374:	01342880 	call	134288 <alt_get_errno>
  134378:	1007883a 	mov	r3,r2
  13437c:	00801444 	movi	r2,81
  134380:	18800015 	stw	r2,0(r3)
  134384:	00bfffc4 	movi	r2,-1
  134388:	e037883a 	mov	sp,fp
  13438c:	dfc00117 	ldw	ra,4(sp)
  134390:	df000017 	ldw	fp,0(sp)
  134394:	dec00204 	addi	sp,sp,8
  134398:	f800283a 	ret

0013439c <alt_dev_null_write>:
  13439c:	defffc04 	addi	sp,sp,-16
  1343a0:	df000315 	stw	fp,12(sp)
  1343a4:	df000304 	addi	fp,sp,12
  1343a8:	e13ffd15 	stw	r4,-12(fp)
  1343ac:	e17ffe15 	stw	r5,-8(fp)
  1343b0:	e1bfff15 	stw	r6,-4(fp)
  1343b4:	e0bfff17 	ldw	r2,-4(fp)
  1343b8:	e037883a 	mov	sp,fp
  1343bc:	df000017 	ldw	fp,0(sp)
  1343c0:	dec00104 	addi	sp,sp,4
  1343c4:	f800283a 	ret

001343c8 <alt_irq_register>:
  1343c8:	defff004 	addi	sp,sp,-64
  1343cc:	df000f15 	stw	fp,60(sp)
  1343d0:	df000f04 	addi	fp,sp,60
  1343d4:	e13ffd15 	stw	r4,-12(fp)
  1343d8:	e17ffe15 	stw	r5,-8(fp)
  1343dc:	e1bfff15 	stw	r6,-4(fp)
  1343e0:	00bffa84 	movi	r2,-22
  1343e4:	e0bff115 	stw	r2,-60(fp)
  1343e8:	e0bffd17 	ldw	r2,-12(fp)
  1343ec:	10800828 	cmpgeui	r2,r2,32
  1343f0:	1000501e 	bne	r2,zero,134534 <alt_irq_register+0x16c>
  1343f4:	0005303a 	rdctl	r2,status
  1343f8:	e0bff615 	stw	r2,-40(fp)
  1343fc:	e0fff617 	ldw	r3,-40(fp)
  134400:	00bfff84 	movi	r2,-2
  134404:	1884703a 	and	r2,r3,r2
  134408:	1001703a 	wrctl	status,r2
  13440c:	e0bff617 	ldw	r2,-40(fp)
  134410:	e0bff315 	stw	r2,-52(fp)
  134414:	00800534 	movhi	r2,20
  134418:	10b52604 	addi	r2,r2,-11112
  13441c:	e0fffd17 	ldw	r3,-12(fp)
  134420:	180690fa 	slli	r3,r3,3
  134424:	10c5883a 	add	r2,r2,r3
  134428:	e0ffff17 	ldw	r3,-4(fp)
  13442c:	10c00015 	stw	r3,0(r2)
  134430:	00800534 	movhi	r2,20
  134434:	10b52604 	addi	r2,r2,-11112
  134438:	e0fffd17 	ldw	r3,-12(fp)
  13443c:	180690fa 	slli	r3,r3,3
  134440:	10c5883a 	add	r2,r2,r3
  134444:	10800104 	addi	r2,r2,4
  134448:	e0fffe17 	ldw	r3,-8(fp)
  13444c:	10c00015 	stw	r3,0(r2)
  134450:	e0bfff17 	ldw	r2,-4(fp)
  134454:	10001926 	beq	r2,zero,1344bc <alt_irq_register+0xf4>
  134458:	e0bffd17 	ldw	r2,-12(fp)
  13445c:	e0bff215 	stw	r2,-56(fp)
  134460:	0005303a 	rdctl	r2,status
  134464:	e0bff715 	stw	r2,-36(fp)
  134468:	e0fff717 	ldw	r3,-36(fp)
  13446c:	00bfff84 	movi	r2,-2
  134470:	1884703a 	and	r2,r3,r2
  134474:	1001703a 	wrctl	status,r2
  134478:	e0bff717 	ldw	r2,-36(fp)
  13447c:	e0bff815 	stw	r2,-32(fp)
  134480:	00c00044 	movi	r3,1
  134484:	e0bff217 	ldw	r2,-56(fp)
  134488:	1884983a 	sll	r2,r3,r2
  13448c:	1007883a 	mov	r3,r2
  134490:	d0a75f17 	ldw	r2,-25220(gp)
  134494:	1884b03a 	or	r2,r3,r2
  134498:	d0a75f15 	stw	r2,-25220(gp)
  13449c:	d0a75f17 	ldw	r2,-25220(gp)
  1344a0:	100170fa 	wrctl	ienable,r2
  1344a4:	e0bff817 	ldw	r2,-32(fp)
  1344a8:	e0bff915 	stw	r2,-28(fp)
  1344ac:	e0bff917 	ldw	r2,-28(fp)
  1344b0:	1001703a 	wrctl	status,r2
  1344b4:	0005883a 	mov	r2,zero
  1344b8:	00001906 	br	134520 <alt_irq_register+0x158>
  1344bc:	e0bffd17 	ldw	r2,-12(fp)
  1344c0:	e0bff415 	stw	r2,-48(fp)
  1344c4:	0005303a 	rdctl	r2,status
  1344c8:	e0bffa15 	stw	r2,-24(fp)
  1344cc:	e0fffa17 	ldw	r3,-24(fp)
  1344d0:	00bfff84 	movi	r2,-2
  1344d4:	1884703a 	and	r2,r3,r2
  1344d8:	1001703a 	wrctl	status,r2
  1344dc:	e0bffa17 	ldw	r2,-24(fp)
  1344e0:	e0bffb15 	stw	r2,-20(fp)
  1344e4:	00c00044 	movi	r3,1
  1344e8:	e0bff417 	ldw	r2,-48(fp)
  1344ec:	1884983a 	sll	r2,r3,r2
  1344f0:	0084303a 	nor	r2,zero,r2
  1344f4:	1007883a 	mov	r3,r2
  1344f8:	d0a75f17 	ldw	r2,-25220(gp)
  1344fc:	1884703a 	and	r2,r3,r2
  134500:	d0a75f15 	stw	r2,-25220(gp)
  134504:	d0a75f17 	ldw	r2,-25220(gp)
  134508:	100170fa 	wrctl	ienable,r2
  13450c:	e0bffb17 	ldw	r2,-20(fp)
  134510:	e0bffc15 	stw	r2,-16(fp)
  134514:	e0bffc17 	ldw	r2,-16(fp)
  134518:	1001703a 	wrctl	status,r2
  13451c:	0005883a 	mov	r2,zero
  134520:	e0bff115 	stw	r2,-60(fp)
  134524:	e0bff317 	ldw	r2,-52(fp)
  134528:	e0bff515 	stw	r2,-44(fp)
  13452c:	e0bff517 	ldw	r2,-44(fp)
  134530:	1001703a 	wrctl	status,r2
  134534:	e0bff117 	ldw	r2,-60(fp)
  134538:	e037883a 	mov	sp,fp
  13453c:	df000017 	ldw	fp,0(sp)
  134540:	dec00104 	addi	sp,sp,4
  134544:	f800283a 	ret

00134548 <alt_load_section>:
  134548:	defffc04 	addi	sp,sp,-16
  13454c:	df000315 	stw	fp,12(sp)
  134550:	df000304 	addi	fp,sp,12
  134554:	e13ffd15 	stw	r4,-12(fp)
  134558:	e17ffe15 	stw	r5,-8(fp)
  13455c:	e1bfff15 	stw	r6,-4(fp)
  134560:	e0fffe17 	ldw	r3,-8(fp)
  134564:	e0bffd17 	ldw	r2,-12(fp)
  134568:	18800c26 	beq	r3,r2,13459c <alt_load_section+0x54>
  13456c:	00000806 	br	134590 <alt_load_section+0x48>
  134570:	e0bffe17 	ldw	r2,-8(fp)
  134574:	10c00104 	addi	r3,r2,4
  134578:	e0fffe15 	stw	r3,-8(fp)
  13457c:	e0fffd17 	ldw	r3,-12(fp)
  134580:	19000104 	addi	r4,r3,4
  134584:	e13ffd15 	stw	r4,-12(fp)
  134588:	18c00017 	ldw	r3,0(r3)
  13458c:	10c00015 	stw	r3,0(r2)
  134590:	e0fffe17 	ldw	r3,-8(fp)
  134594:	e0bfff17 	ldw	r2,-4(fp)
  134598:	18bff51e 	bne	r3,r2,134570 <_gp+0xffff0e98>
  13459c:	0001883a 	nop
  1345a0:	e037883a 	mov	sp,fp
  1345a4:	df000017 	ldw	fp,0(sp)
  1345a8:	dec00104 	addi	sp,sp,4
  1345ac:	f800283a 	ret

001345b0 <alt_load>:
  1345b0:	defffe04 	addi	sp,sp,-8
  1345b4:	dfc00115 	stw	ra,4(sp)
  1345b8:	df000015 	stw	fp,0(sp)
  1345bc:	d839883a 	mov	fp,sp
  1345c0:	01800534 	movhi	r6,20
  1345c4:	31adcd04 	addi	r6,r6,-18636
  1345c8:	01400534 	movhi	r5,20
  1345cc:	29668f04 	addi	r5,r5,-26052
  1345d0:	01000534 	movhi	r4,20
  1345d4:	212dcd04 	addi	r4,r4,-18636
  1345d8:	01345480 	call	134548 <alt_load_section>
  1345dc:	018004b4 	movhi	r6,18
  1345e0:	31808d04 	addi	r6,r6,564
  1345e4:	014004b4 	movhi	r5,18
  1345e8:	29400804 	addi	r5,r5,32
  1345ec:	010004b4 	movhi	r4,18
  1345f0:	21000804 	addi	r4,r4,32
  1345f4:	01345480 	call	134548 <alt_load_section>
  1345f8:	01800534 	movhi	r6,20
  1345fc:	31a68f04 	addi	r6,r6,-26052
  134600:	01400534 	movhi	r5,20
  134604:	29640d04 	addi	r5,r5,-28620
  134608:	01000534 	movhi	r4,20
  13460c:	21240d04 	addi	r4,r4,-28620
  134610:	01345480 	call	134548 <alt_load_section>
  134614:	01379480 	call	137948 <alt_dcache_flush_all>
  134618:	0137e200 	call	137e20 <alt_icache_flush_all>
  13461c:	0001883a 	nop
  134620:	e037883a 	mov	sp,fp
  134624:	dfc00117 	ldw	ra,4(sp)
  134628:	df000017 	ldw	fp,0(sp)
  13462c:	dec00204 	addi	sp,sp,8
  134630:	f800283a 	ret

00134634 <alt_get_errno>:
  134634:	defffe04 	addi	sp,sp,-8
  134638:	dfc00115 	stw	ra,4(sp)
  13463c:	df000015 	stw	fp,0(sp)
  134640:	d839883a 	mov	fp,sp
  134644:	d0a00e17 	ldw	r2,-32712(gp)
  134648:	10000326 	beq	r2,zero,134658 <alt_get_errno+0x24>
  13464c:	d0a00e17 	ldw	r2,-32712(gp)
  134650:	103ee83a 	callr	r2
  134654:	00000106 	br	13465c <alt_get_errno+0x28>
  134658:	d0a75804 	addi	r2,gp,-25248
  13465c:	e037883a 	mov	sp,fp
  134660:	dfc00117 	ldw	ra,4(sp)
  134664:	df000017 	ldw	fp,0(sp)
  134668:	dec00204 	addi	sp,sp,8
  13466c:	f800283a 	ret

00134670 <lseek>:
  134670:	defff904 	addi	sp,sp,-28
  134674:	dfc00615 	stw	ra,24(sp)
  134678:	df000515 	stw	fp,20(sp)
  13467c:	df000504 	addi	fp,sp,20
  134680:	e13ffd15 	stw	r4,-12(fp)
  134684:	e17ffe15 	stw	r5,-8(fp)
  134688:	e1bfff15 	stw	r6,-4(fp)
  13468c:	e03ffb15 	stw	zero,-20(fp)
  134690:	e0bffd17 	ldw	r2,-12(fp)
  134694:	10000816 	blt	r2,zero,1346b8 <lseek+0x48>
  134698:	01400304 	movi	r5,12
  13469c:	e13ffd17 	ldw	r4,-12(fp)
  1346a0:	01213680 	call	121368 <__mulsi3>
  1346a4:	1007883a 	mov	r3,r2
  1346a8:	00800534 	movhi	r2,20
  1346ac:	10a8c204 	addi	r2,r2,-23800
  1346b0:	1885883a 	add	r2,r3,r2
  1346b4:	00000106 	br	1346bc <lseek+0x4c>
  1346b8:	0005883a 	mov	r2,zero
  1346bc:	e0bffc15 	stw	r2,-16(fp)
  1346c0:	e0bffc17 	ldw	r2,-16(fp)
  1346c4:	10001026 	beq	r2,zero,134708 <lseek+0x98>
  1346c8:	e0bffc17 	ldw	r2,-16(fp)
  1346cc:	10800017 	ldw	r2,0(r2)
  1346d0:	10800717 	ldw	r2,28(r2)
  1346d4:	10000926 	beq	r2,zero,1346fc <lseek+0x8c>
  1346d8:	e0bffc17 	ldw	r2,-16(fp)
  1346dc:	10800017 	ldw	r2,0(r2)
  1346e0:	10800717 	ldw	r2,28(r2)
  1346e4:	e1bfff17 	ldw	r6,-4(fp)
  1346e8:	e17ffe17 	ldw	r5,-8(fp)
  1346ec:	e13ffc17 	ldw	r4,-16(fp)
  1346f0:	103ee83a 	callr	r2
  1346f4:	e0bffb15 	stw	r2,-20(fp)
  1346f8:	00000506 	br	134710 <lseek+0xa0>
  1346fc:	00bfde84 	movi	r2,-134
  134700:	e0bffb15 	stw	r2,-20(fp)
  134704:	00000206 	br	134710 <lseek+0xa0>
  134708:	00bfebc4 	movi	r2,-81
  13470c:	e0bffb15 	stw	r2,-20(fp)
  134710:	e0bffb17 	ldw	r2,-20(fp)
  134714:	1000070e 	bge	r2,zero,134734 <lseek+0xc4>
  134718:	01346340 	call	134634 <alt_get_errno>
  13471c:	1007883a 	mov	r3,r2
  134720:	e0bffb17 	ldw	r2,-20(fp)
  134724:	0085c83a 	sub	r2,zero,r2
  134728:	18800015 	stw	r2,0(r3)
  13472c:	00bfffc4 	movi	r2,-1
  134730:	e0bffb15 	stw	r2,-20(fp)
  134734:	e0bffb17 	ldw	r2,-20(fp)
  134738:	e037883a 	mov	sp,fp
  13473c:	dfc00117 	ldw	ra,4(sp)
  134740:	df000017 	ldw	fp,0(sp)
  134744:	dec00204 	addi	sp,sp,8
  134748:	f800283a 	ret

0013474c <alt_main>:
  13474c:	defffd04 	addi	sp,sp,-12
  134750:	dfc00215 	stw	ra,8(sp)
  134754:	df000115 	stw	fp,4(sp)
  134758:	df000104 	addi	fp,sp,4
  13475c:	0009883a 	mov	r4,zero
  134760:	0134eb40 	call	134eb4 <alt_irq_init>
  134764:	0001883a 	nop
  134768:	0134eec0 	call	134eec <alt_sys_init>
  13476c:	01800534 	movhi	r6,20
  134770:	31a67804 	addi	r6,r6,-26144
  134774:	01400534 	movhi	r5,20
  134778:	29667804 	addi	r5,r5,-26144
  13477c:	01000534 	movhi	r4,20
  134780:	21267804 	addi	r4,r4,-26144
  134784:	0137f240 	call	137f24 <alt_io_redirect>
  134788:	0137a480 	call	137a48 <_do_ctors>
  13478c:	010004f4 	movhi	r4,19
  134790:	211eaa04 	addi	r4,r4,31400
  134794:	01382040 	call	138204 <atexit>
  134798:	d0a76017 	ldw	r2,-25216(gp)
  13479c:	d0e76117 	ldw	r3,-25212(gp)
  1347a0:	d1276217 	ldw	r4,-25208(gp)
  1347a4:	200d883a 	mov	r6,r4
  1347a8:	180b883a 	mov	r5,r3
  1347ac:	1009883a 	mov	r4,r2
  1347b0:	0120e340 	call	120e34 <main>
  1347b4:	e0bfff15 	stw	r2,-4(fp)
  1347b8:	01000044 	movi	r4,1
  1347bc:	01342c40 	call	1342c4 <close>
  1347c0:	e13fff17 	ldw	r4,-4(fp)
  1347c4:	01382180 	call	138218 <exit>

001347c8 <__malloc_lock>:
  1347c8:	defffe04 	addi	sp,sp,-8
  1347cc:	df000115 	stw	fp,4(sp)
  1347d0:	df000104 	addi	fp,sp,4
  1347d4:	e13fff15 	stw	r4,-4(fp)
  1347d8:	0001883a 	nop
  1347dc:	e037883a 	mov	sp,fp
  1347e0:	df000017 	ldw	fp,0(sp)
  1347e4:	dec00104 	addi	sp,sp,4
  1347e8:	f800283a 	ret

001347ec <__malloc_unlock>:
  1347ec:	defffe04 	addi	sp,sp,-8
  1347f0:	df000115 	stw	fp,4(sp)
  1347f4:	df000104 	addi	fp,sp,4
  1347f8:	e13fff15 	stw	r4,-4(fp)
  1347fc:	0001883a 	nop
  134800:	e037883a 	mov	sp,fp
  134804:	df000017 	ldw	fp,0(sp)
  134808:	dec00104 	addi	sp,sp,4
  13480c:	f800283a 	ret

00134810 <alt_get_errno>:
  134810:	defffe04 	addi	sp,sp,-8
  134814:	dfc00115 	stw	ra,4(sp)
  134818:	df000015 	stw	fp,0(sp)
  13481c:	d839883a 	mov	fp,sp
  134820:	d0a00e17 	ldw	r2,-32712(gp)
  134824:	10000326 	beq	r2,zero,134834 <alt_get_errno+0x24>
  134828:	d0a00e17 	ldw	r2,-32712(gp)
  13482c:	103ee83a 	callr	r2
  134830:	00000106 	br	134838 <alt_get_errno+0x28>
  134834:	d0a75804 	addi	r2,gp,-25248
  134838:	e037883a 	mov	sp,fp
  13483c:	dfc00117 	ldw	ra,4(sp)
  134840:	df000017 	ldw	fp,0(sp)
  134844:	dec00204 	addi	sp,sp,8
  134848:	f800283a 	ret

0013484c <alt_file_locked>:
  13484c:	defffb04 	addi	sp,sp,-20
  134850:	dfc00415 	stw	ra,16(sp)
  134854:	df000315 	stw	fp,12(sp)
  134858:	dc000215 	stw	r16,8(sp)
  13485c:	df000304 	addi	fp,sp,12
  134860:	e13ffe15 	stw	r4,-8(fp)
  134864:	e0bffe17 	ldw	r2,-8(fp)
  134868:	10800217 	ldw	r2,8(r2)
  13486c:	10d00034 	orhi	r3,r2,16384
  134870:	e0bffe17 	ldw	r2,-8(fp)
  134874:	10c00215 	stw	r3,8(r2)
  134878:	e03ffd15 	stw	zero,-12(fp)
  13487c:	00002306 	br	13490c <alt_file_locked+0xc0>
  134880:	04000534 	movhi	r16,20
  134884:	8428c204 	addi	r16,r16,-23800
  134888:	e0bffd17 	ldw	r2,-12(fp)
  13488c:	01400304 	movi	r5,12
  134890:	1009883a 	mov	r4,r2
  134894:	01213680 	call	121368 <__mulsi3>
  134898:	8085883a 	add	r2,r16,r2
  13489c:	10c00017 	ldw	r3,0(r2)
  1348a0:	e0bffe17 	ldw	r2,-8(fp)
  1348a4:	10800017 	ldw	r2,0(r2)
  1348a8:	1880151e 	bne	r3,r2,134900 <alt_file_locked+0xb4>
  1348ac:	04000534 	movhi	r16,20
  1348b0:	8428c204 	addi	r16,r16,-23800
  1348b4:	e0bffd17 	ldw	r2,-12(fp)
  1348b8:	01400304 	movi	r5,12
  1348bc:	1009883a 	mov	r4,r2
  1348c0:	01213680 	call	121368 <__mulsi3>
  1348c4:	8085883a 	add	r2,r16,r2
  1348c8:	10800204 	addi	r2,r2,8
  1348cc:	10800017 	ldw	r2,0(r2)
  1348d0:	10000b0e 	bge	r2,zero,134900 <alt_file_locked+0xb4>
  1348d4:	01400304 	movi	r5,12
  1348d8:	e13ffd17 	ldw	r4,-12(fp)
  1348dc:	01213680 	call	121368 <__mulsi3>
  1348e0:	1007883a 	mov	r3,r2
  1348e4:	00800534 	movhi	r2,20
  1348e8:	10a8c204 	addi	r2,r2,-23800
  1348ec:	1887883a 	add	r3,r3,r2
  1348f0:	e0bffe17 	ldw	r2,-8(fp)
  1348f4:	18800226 	beq	r3,r2,134900 <alt_file_locked+0xb4>
  1348f8:	00bffcc4 	movi	r2,-13
  1348fc:	00000806 	br	134920 <alt_file_locked+0xd4>
  134900:	e0bffd17 	ldw	r2,-12(fp)
  134904:	10800044 	addi	r2,r2,1
  134908:	e0bffd15 	stw	r2,-12(fp)
  13490c:	d0a00d17 	ldw	r2,-32716(gp)
  134910:	1007883a 	mov	r3,r2
  134914:	e0bffd17 	ldw	r2,-12(fp)
  134918:	18bfd92e 	bgeu	r3,r2,134880 <_gp+0xffff11a8>
  13491c:	0005883a 	mov	r2,zero
  134920:	e6ffff04 	addi	sp,fp,-4
  134924:	dfc00217 	ldw	ra,8(sp)
  134928:	df000117 	ldw	fp,4(sp)
  13492c:	dc000017 	ldw	r16,0(sp)
  134930:	dec00304 	addi	sp,sp,12
  134934:	f800283a 	ret

00134938 <open>:
  134938:	defff604 	addi	sp,sp,-40
  13493c:	dfc00915 	stw	ra,36(sp)
  134940:	df000815 	stw	fp,32(sp)
  134944:	df000804 	addi	fp,sp,32
  134948:	e13ffd15 	stw	r4,-12(fp)
  13494c:	e17ffe15 	stw	r5,-8(fp)
  134950:	e1bfff15 	stw	r6,-4(fp)
  134954:	00bfffc4 	movi	r2,-1
  134958:	e0bff915 	stw	r2,-28(fp)
  13495c:	00bffb44 	movi	r2,-19
  134960:	e0bffa15 	stw	r2,-24(fp)
  134964:	e03ffb15 	stw	zero,-20(fp)
  134968:	d1600b04 	addi	r5,gp,-32724
  13496c:	e13ffd17 	ldw	r4,-12(fp)
  134970:	0137b080 	call	137b08 <alt_find_dev>
  134974:	e0bff815 	stw	r2,-32(fp)
  134978:	e0bff817 	ldw	r2,-32(fp)
  13497c:	1000051e 	bne	r2,zero,134994 <open+0x5c>
  134980:	e13ffd17 	ldw	r4,-12(fp)
  134984:	0137b980 	call	137b98 <alt_find_file>
  134988:	e0bff815 	stw	r2,-32(fp)
  13498c:	00800044 	movi	r2,1
  134990:	e0bffb15 	stw	r2,-20(fp)
  134994:	e0bff817 	ldw	r2,-32(fp)
  134998:	10002b26 	beq	r2,zero,134a48 <open+0x110>
  13499c:	e13ff817 	ldw	r4,-32(fp)
  1349a0:	0137d5c0 	call	137d5c <alt_get_fd>
  1349a4:	e0bff915 	stw	r2,-28(fp)
  1349a8:	e0bff917 	ldw	r2,-28(fp)
  1349ac:	1000030e 	bge	r2,zero,1349bc <open+0x84>
  1349b0:	e0bff917 	ldw	r2,-28(fp)
  1349b4:	e0bffa15 	stw	r2,-24(fp)
  1349b8:	00002506 	br	134a50 <open+0x118>
  1349bc:	01400304 	movi	r5,12
  1349c0:	e13ff917 	ldw	r4,-28(fp)
  1349c4:	01213680 	call	121368 <__mulsi3>
  1349c8:	1007883a 	mov	r3,r2
  1349cc:	00800534 	movhi	r2,20
  1349d0:	10a8c204 	addi	r2,r2,-23800
  1349d4:	1885883a 	add	r2,r3,r2
  1349d8:	e0bffc15 	stw	r2,-16(fp)
  1349dc:	e0fffe17 	ldw	r3,-8(fp)
  1349e0:	00900034 	movhi	r2,16384
  1349e4:	10bfffc4 	addi	r2,r2,-1
  1349e8:	1886703a 	and	r3,r3,r2
  1349ec:	e0bffc17 	ldw	r2,-16(fp)
  1349f0:	10c00215 	stw	r3,8(r2)
  1349f4:	e0bffb17 	ldw	r2,-20(fp)
  1349f8:	1000051e 	bne	r2,zero,134a10 <open+0xd8>
  1349fc:	e13ffc17 	ldw	r4,-16(fp)
  134a00:	013484c0 	call	13484c <alt_file_locked>
  134a04:	e0bffa15 	stw	r2,-24(fp)
  134a08:	e0bffa17 	ldw	r2,-24(fp)
  134a0c:	10001016 	blt	r2,zero,134a50 <open+0x118>
  134a10:	e0bff817 	ldw	r2,-32(fp)
  134a14:	10800317 	ldw	r2,12(r2)
  134a18:	10000826 	beq	r2,zero,134a3c <open+0x104>
  134a1c:	e0bff817 	ldw	r2,-32(fp)
  134a20:	10800317 	ldw	r2,12(r2)
  134a24:	e1ffff17 	ldw	r7,-4(fp)
  134a28:	e1bffe17 	ldw	r6,-8(fp)
  134a2c:	e17ffd17 	ldw	r5,-12(fp)
  134a30:	e13ffc17 	ldw	r4,-16(fp)
  134a34:	103ee83a 	callr	r2
  134a38:	00000106 	br	134a40 <open+0x108>
  134a3c:	0005883a 	mov	r2,zero
  134a40:	e0bffa15 	stw	r2,-24(fp)
  134a44:	00000206 	br	134a50 <open+0x118>
  134a48:	00bffb44 	movi	r2,-19
  134a4c:	e0bffa15 	stw	r2,-24(fp)
  134a50:	e0bffa17 	ldw	r2,-24(fp)
  134a54:	1000090e 	bge	r2,zero,134a7c <open+0x144>
  134a58:	e13ff917 	ldw	r4,-28(fp)
  134a5c:	0134c100 	call	134c10 <alt_release_fd>
  134a60:	01348100 	call	134810 <alt_get_errno>
  134a64:	1007883a 	mov	r3,r2
  134a68:	e0bffa17 	ldw	r2,-24(fp)
  134a6c:	0085c83a 	sub	r2,zero,r2
  134a70:	18800015 	stw	r2,0(r3)
  134a74:	00bfffc4 	movi	r2,-1
  134a78:	00000106 	br	134a80 <open+0x148>
  134a7c:	e0bff917 	ldw	r2,-28(fp)
  134a80:	e037883a 	mov	sp,fp
  134a84:	dfc00117 	ldw	ra,4(sp)
  134a88:	df000017 	ldw	fp,0(sp)
  134a8c:	dec00204 	addi	sp,sp,8
  134a90:	f800283a 	ret

00134a94 <alt_putstr>:
  134a94:	defffd04 	addi	sp,sp,-12
  134a98:	dfc00215 	stw	ra,8(sp)
  134a9c:	df000115 	stw	fp,4(sp)
  134aa0:	df000104 	addi	fp,sp,4
  134aa4:	e13fff15 	stw	r4,-4(fp)
  134aa8:	d0a00417 	ldw	r2,-32752(gp)
  134aac:	10800217 	ldw	r2,8(r2)
  134ab0:	100b883a 	mov	r5,r2
  134ab4:	e13fff17 	ldw	r4,-4(fp)
  134ab8:	01382ec0 	call	1382ec <fputs>
  134abc:	e037883a 	mov	sp,fp
  134ac0:	dfc00117 	ldw	ra,4(sp)
  134ac4:	df000017 	ldw	fp,0(sp)
  134ac8:	dec00204 	addi	sp,sp,8
  134acc:	f800283a 	ret

00134ad0 <alt_get_errno>:
  134ad0:	defffe04 	addi	sp,sp,-8
  134ad4:	dfc00115 	stw	ra,4(sp)
  134ad8:	df000015 	stw	fp,0(sp)
  134adc:	d839883a 	mov	fp,sp
  134ae0:	d0a00e17 	ldw	r2,-32712(gp)
  134ae4:	10000326 	beq	r2,zero,134af4 <alt_get_errno+0x24>
  134ae8:	d0a00e17 	ldw	r2,-32712(gp)
  134aec:	103ee83a 	callr	r2
  134af0:	00000106 	br	134af8 <alt_get_errno+0x28>
  134af4:	d0a75804 	addi	r2,gp,-25248
  134af8:	e037883a 	mov	sp,fp
  134afc:	dfc00117 	ldw	ra,4(sp)
  134b00:	df000017 	ldw	fp,0(sp)
  134b04:	dec00204 	addi	sp,sp,8
  134b08:	f800283a 	ret

00134b0c <read>:
  134b0c:	defff904 	addi	sp,sp,-28
  134b10:	dfc00615 	stw	ra,24(sp)
  134b14:	df000515 	stw	fp,20(sp)
  134b18:	df000504 	addi	fp,sp,20
  134b1c:	e13ffd15 	stw	r4,-12(fp)
  134b20:	e17ffe15 	stw	r5,-8(fp)
  134b24:	e1bfff15 	stw	r6,-4(fp)
  134b28:	e0bffd17 	ldw	r2,-12(fp)
  134b2c:	10000816 	blt	r2,zero,134b50 <read+0x44>
  134b30:	01400304 	movi	r5,12
  134b34:	e13ffd17 	ldw	r4,-12(fp)
  134b38:	01213680 	call	121368 <__mulsi3>
  134b3c:	1007883a 	mov	r3,r2
  134b40:	00800534 	movhi	r2,20
  134b44:	10a8c204 	addi	r2,r2,-23800
  134b48:	1885883a 	add	r2,r3,r2
  134b4c:	00000106 	br	134b54 <read+0x48>
  134b50:	0005883a 	mov	r2,zero
  134b54:	e0bffb15 	stw	r2,-20(fp)
  134b58:	e0bffb17 	ldw	r2,-20(fp)
  134b5c:	10002226 	beq	r2,zero,134be8 <read+0xdc>
  134b60:	e0bffb17 	ldw	r2,-20(fp)
  134b64:	10800217 	ldw	r2,8(r2)
  134b68:	108000cc 	andi	r2,r2,3
  134b6c:	10800060 	cmpeqi	r2,r2,1
  134b70:	1000181e 	bne	r2,zero,134bd4 <read+0xc8>
  134b74:	e0bffb17 	ldw	r2,-20(fp)
  134b78:	10800017 	ldw	r2,0(r2)
  134b7c:	10800517 	ldw	r2,20(r2)
  134b80:	10001426 	beq	r2,zero,134bd4 <read+0xc8>
  134b84:	e0bffb17 	ldw	r2,-20(fp)
  134b88:	10800017 	ldw	r2,0(r2)
  134b8c:	10800517 	ldw	r2,20(r2)
  134b90:	e0ffff17 	ldw	r3,-4(fp)
  134b94:	180d883a 	mov	r6,r3
  134b98:	e17ffe17 	ldw	r5,-8(fp)
  134b9c:	e13ffb17 	ldw	r4,-20(fp)
  134ba0:	103ee83a 	callr	r2
  134ba4:	e0bffc15 	stw	r2,-16(fp)
  134ba8:	e0bffc17 	ldw	r2,-16(fp)
  134bac:	1000070e 	bge	r2,zero,134bcc <read+0xc0>
  134bb0:	0134ad00 	call	134ad0 <alt_get_errno>
  134bb4:	1007883a 	mov	r3,r2
  134bb8:	e0bffc17 	ldw	r2,-16(fp)
  134bbc:	0085c83a 	sub	r2,zero,r2
  134bc0:	18800015 	stw	r2,0(r3)
  134bc4:	00bfffc4 	movi	r2,-1
  134bc8:	00000c06 	br	134bfc <read+0xf0>
  134bcc:	e0bffc17 	ldw	r2,-16(fp)
  134bd0:	00000a06 	br	134bfc <read+0xf0>
  134bd4:	0134ad00 	call	134ad0 <alt_get_errno>
  134bd8:	1007883a 	mov	r3,r2
  134bdc:	00800344 	movi	r2,13
  134be0:	18800015 	stw	r2,0(r3)
  134be4:	00000406 	br	134bf8 <read+0xec>
  134be8:	0134ad00 	call	134ad0 <alt_get_errno>
  134bec:	1007883a 	mov	r3,r2
  134bf0:	00801444 	movi	r2,81
  134bf4:	18800015 	stw	r2,0(r3)
  134bf8:	00bfffc4 	movi	r2,-1
  134bfc:	e037883a 	mov	sp,fp
  134c00:	dfc00117 	ldw	ra,4(sp)
  134c04:	df000017 	ldw	fp,0(sp)
  134c08:	dec00204 	addi	sp,sp,8
  134c0c:	f800283a 	ret

00134c10 <alt_release_fd>:
  134c10:	defffc04 	addi	sp,sp,-16
  134c14:	dfc00315 	stw	ra,12(sp)
  134c18:	df000215 	stw	fp,8(sp)
  134c1c:	dc000115 	stw	r16,4(sp)
  134c20:	df000204 	addi	fp,sp,8
  134c24:	e13ffe15 	stw	r4,-8(fp)
  134c28:	e0bffe17 	ldw	r2,-8(fp)
  134c2c:	108000d0 	cmplti	r2,r2,3
  134c30:	1000111e 	bne	r2,zero,134c78 <alt_release_fd+0x68>
  134c34:	04000534 	movhi	r16,20
  134c38:	8428c204 	addi	r16,r16,-23800
  134c3c:	e0bffe17 	ldw	r2,-8(fp)
  134c40:	01400304 	movi	r5,12
  134c44:	1009883a 	mov	r4,r2
  134c48:	01213680 	call	121368 <__mulsi3>
  134c4c:	8085883a 	add	r2,r16,r2
  134c50:	10800204 	addi	r2,r2,8
  134c54:	10000015 	stw	zero,0(r2)
  134c58:	04000534 	movhi	r16,20
  134c5c:	8428c204 	addi	r16,r16,-23800
  134c60:	e0bffe17 	ldw	r2,-8(fp)
  134c64:	01400304 	movi	r5,12
  134c68:	1009883a 	mov	r4,r2
  134c6c:	01213680 	call	121368 <__mulsi3>
  134c70:	8085883a 	add	r2,r16,r2
  134c74:	10000015 	stw	zero,0(r2)
  134c78:	0001883a 	nop
  134c7c:	e6ffff04 	addi	sp,fp,-4
  134c80:	dfc00217 	ldw	ra,8(sp)
  134c84:	df000117 	ldw	fp,4(sp)
  134c88:	dc000017 	ldw	r16,0(sp)
  134c8c:	dec00304 	addi	sp,sp,12
  134c90:	f800283a 	ret

00134c94 <sbrk>:
  134c94:	defff904 	addi	sp,sp,-28
  134c98:	df000615 	stw	fp,24(sp)
  134c9c:	df000604 	addi	fp,sp,24
  134ca0:	e13fff15 	stw	r4,-4(fp)
  134ca4:	0005303a 	rdctl	r2,status
  134ca8:	e0bffe15 	stw	r2,-8(fp)
  134cac:	e0fffe17 	ldw	r3,-8(fp)
  134cb0:	00bfff84 	movi	r2,-2
  134cb4:	1884703a 	and	r2,r3,r2
  134cb8:	1001703a 	wrctl	status,r2
  134cbc:	e0bffe17 	ldw	r2,-8(fp)
  134cc0:	e0bffb15 	stw	r2,-20(fp)
  134cc4:	d0a01017 	ldw	r2,-32704(gp)
  134cc8:	10c000c4 	addi	r3,r2,3
  134ccc:	00bfff04 	movi	r2,-4
  134cd0:	1884703a 	and	r2,r3,r2
  134cd4:	d0a01015 	stw	r2,-32704(gp)
  134cd8:	d0e01017 	ldw	r3,-32704(gp)
  134cdc:	e0bfff17 	ldw	r2,-4(fp)
  134ce0:	1887883a 	add	r3,r3,r2
  134ce4:	00800534 	movhi	r2,20
  134ce8:	10bdc804 	addi	r2,r2,-2272
  134cec:	10c0062e 	bgeu	r2,r3,134d08 <sbrk+0x74>
  134cf0:	e0bffb17 	ldw	r2,-20(fp)
  134cf4:	e0bffa15 	stw	r2,-24(fp)
  134cf8:	e0bffa17 	ldw	r2,-24(fp)
  134cfc:	1001703a 	wrctl	status,r2
  134d00:	00bfffc4 	movi	r2,-1
  134d04:	00000b06 	br	134d34 <sbrk+0xa0>
  134d08:	d0a01017 	ldw	r2,-32704(gp)
  134d0c:	e0bffd15 	stw	r2,-12(fp)
  134d10:	d0e01017 	ldw	r3,-32704(gp)
  134d14:	e0bfff17 	ldw	r2,-4(fp)
  134d18:	1885883a 	add	r2,r3,r2
  134d1c:	d0a01015 	stw	r2,-32704(gp)
  134d20:	e0bffb17 	ldw	r2,-20(fp)
  134d24:	e0bffc15 	stw	r2,-16(fp)
  134d28:	e0bffc17 	ldw	r2,-16(fp)
  134d2c:	1001703a 	wrctl	status,r2
  134d30:	e0bffd17 	ldw	r2,-12(fp)
  134d34:	e037883a 	mov	sp,fp
  134d38:	df000017 	ldw	fp,0(sp)
  134d3c:	dec00104 	addi	sp,sp,4
  134d40:	f800283a 	ret

00134d44 <alt_get_errno>:
  134d44:	defffe04 	addi	sp,sp,-8
  134d48:	dfc00115 	stw	ra,4(sp)
  134d4c:	df000015 	stw	fp,0(sp)
  134d50:	d839883a 	mov	fp,sp
  134d54:	d0a00e17 	ldw	r2,-32712(gp)
  134d58:	10000326 	beq	r2,zero,134d68 <alt_get_errno+0x24>
  134d5c:	d0a00e17 	ldw	r2,-32712(gp)
  134d60:	103ee83a 	callr	r2
  134d64:	00000106 	br	134d6c <alt_get_errno+0x28>
  134d68:	d0a75804 	addi	r2,gp,-25248
  134d6c:	e037883a 	mov	sp,fp
  134d70:	dfc00117 	ldw	ra,4(sp)
  134d74:	df000017 	ldw	fp,0(sp)
  134d78:	dec00204 	addi	sp,sp,8
  134d7c:	f800283a 	ret

00134d80 <write>:
  134d80:	defff904 	addi	sp,sp,-28
  134d84:	dfc00615 	stw	ra,24(sp)
  134d88:	df000515 	stw	fp,20(sp)
  134d8c:	df000504 	addi	fp,sp,20
  134d90:	e13ffd15 	stw	r4,-12(fp)
  134d94:	e17ffe15 	stw	r5,-8(fp)
  134d98:	e1bfff15 	stw	r6,-4(fp)
  134d9c:	e0bffd17 	ldw	r2,-12(fp)
  134da0:	10000816 	blt	r2,zero,134dc4 <write+0x44>
  134da4:	01400304 	movi	r5,12
  134da8:	e13ffd17 	ldw	r4,-12(fp)
  134dac:	01213680 	call	121368 <__mulsi3>
  134db0:	1007883a 	mov	r3,r2
  134db4:	00800534 	movhi	r2,20
  134db8:	10a8c204 	addi	r2,r2,-23800
  134dbc:	1885883a 	add	r2,r3,r2
  134dc0:	00000106 	br	134dc8 <write+0x48>
  134dc4:	0005883a 	mov	r2,zero
  134dc8:	e0bffb15 	stw	r2,-20(fp)
  134dcc:	e0bffb17 	ldw	r2,-20(fp)
  134dd0:	10002126 	beq	r2,zero,134e58 <write+0xd8>
  134dd4:	e0bffb17 	ldw	r2,-20(fp)
  134dd8:	10800217 	ldw	r2,8(r2)
  134ddc:	108000cc 	andi	r2,r2,3
  134de0:	10001826 	beq	r2,zero,134e44 <write+0xc4>
  134de4:	e0bffb17 	ldw	r2,-20(fp)
  134de8:	10800017 	ldw	r2,0(r2)
  134dec:	10800617 	ldw	r2,24(r2)
  134df0:	10001426 	beq	r2,zero,134e44 <write+0xc4>
  134df4:	e0bffb17 	ldw	r2,-20(fp)
  134df8:	10800017 	ldw	r2,0(r2)
  134dfc:	10800617 	ldw	r2,24(r2)
  134e00:	e0ffff17 	ldw	r3,-4(fp)
  134e04:	180d883a 	mov	r6,r3
  134e08:	e17ffe17 	ldw	r5,-8(fp)
  134e0c:	e13ffb17 	ldw	r4,-20(fp)
  134e10:	103ee83a 	callr	r2
  134e14:	e0bffc15 	stw	r2,-16(fp)
  134e18:	e0bffc17 	ldw	r2,-16(fp)
  134e1c:	1000070e 	bge	r2,zero,134e3c <write+0xbc>
  134e20:	0134d440 	call	134d44 <alt_get_errno>
  134e24:	1007883a 	mov	r3,r2
  134e28:	e0bffc17 	ldw	r2,-16(fp)
  134e2c:	0085c83a 	sub	r2,zero,r2
  134e30:	18800015 	stw	r2,0(r3)
  134e34:	00bfffc4 	movi	r2,-1
  134e38:	00000c06 	br	134e6c <write+0xec>
  134e3c:	e0bffc17 	ldw	r2,-16(fp)
  134e40:	00000a06 	br	134e6c <write+0xec>
  134e44:	0134d440 	call	134d44 <alt_get_errno>
  134e48:	1007883a 	mov	r3,r2
  134e4c:	00800344 	movi	r2,13
  134e50:	18800015 	stw	r2,0(r3)
  134e54:	00000406 	br	134e68 <write+0xe8>
  134e58:	0134d440 	call	134d44 <alt_get_errno>
  134e5c:	1007883a 	mov	r3,r2
  134e60:	00801444 	movi	r2,81
  134e64:	18800015 	stw	r2,0(r3)
  134e68:	00bfffc4 	movi	r2,-1
  134e6c:	e037883a 	mov	sp,fp
  134e70:	dfc00117 	ldw	ra,4(sp)
  134e74:	df000017 	ldw	fp,0(sp)
  134e78:	dec00204 	addi	sp,sp,8
  134e7c:	f800283a 	ret

00134e80 <alt_dev_reg>:
  134e80:	defffd04 	addi	sp,sp,-12
  134e84:	dfc00215 	stw	ra,8(sp)
  134e88:	df000115 	stw	fp,4(sp)
  134e8c:	df000104 	addi	fp,sp,4
  134e90:	e13fff15 	stw	r4,-4(fp)
  134e94:	d1600b04 	addi	r5,gp,-32724
  134e98:	e13fff17 	ldw	r4,-4(fp)
  134e9c:	01379a40 	call	1379a4 <alt_dev_llist_insert>
  134ea0:	e037883a 	mov	sp,fp
  134ea4:	dfc00117 	ldw	ra,4(sp)
  134ea8:	df000017 	ldw	fp,0(sp)
  134eac:	dec00204 	addi	sp,sp,8
  134eb0:	f800283a 	ret

00134eb4 <alt_irq_init>:
  134eb4:	defffd04 	addi	sp,sp,-12
  134eb8:	dfc00215 	stw	ra,8(sp)
  134ebc:	df000115 	stw	fp,4(sp)
  134ec0:	df000104 	addi	fp,sp,4
  134ec4:	e13fff15 	stw	r4,-4(fp)
  134ec8:	01381440 	call	138144 <altera_nios2_gen2_irq_init>
  134ecc:	00800044 	movi	r2,1
  134ed0:	1001703a 	wrctl	status,r2
  134ed4:	0001883a 	nop
  134ed8:	e037883a 	mov	sp,fp
  134edc:	dfc00117 	ldw	ra,4(sp)
  134ee0:	df000017 	ldw	fp,0(sp)
  134ee4:	dec00204 	addi	sp,sp,8
  134ee8:	f800283a 	ret

00134eec <alt_sys_init>:
  134eec:	defffe04 	addi	sp,sp,-8
  134ef0:	dfc00115 	stw	ra,4(sp)
  134ef4:	df000015 	stw	fp,0(sp)
  134ef8:	d839883a 	mov	fp,sp
  134efc:	01c0fa04 	movi	r7,1000
  134f00:	01800184 	movi	r6,6
  134f04:	000b883a 	mov	r5,zero
  134f08:	01000534 	movhi	r4,20
  134f0c:	21040804 	addi	r4,r4,4128
  134f10:	0135a640 	call	135a64 <alt_avalon_timer_sc_init>
  134f14:	000d883a 	mov	r6,zero
  134f18:	000b883a 	mov	r5,zero
  134f1c:	01000534 	movhi	r4,20
  134f20:	21292c04 	addi	r4,r4,-23376
  134f24:	01350ec0 	call	1350ec <altera_avalon_jtag_uart_init>
  134f28:	01000534 	movhi	r4,20
  134f2c:	21292204 	addi	r4,r4,-23416
  134f30:	0134e800 	call	134e80 <alt_dev_reg>
  134f34:	0001883a 	nop
  134f38:	01800144 	movi	r6,5
  134f3c:	000b883a 	mov	r5,zero
  134f40:	01000534 	movhi	r4,20
  134f44:	212d4404 	addi	r4,r4,-19184
  134f48:	0135be80 	call	135be8 <altera_avalon_uart_init>
  134f4c:	01000534 	movhi	r4,20
  134f50:	212d3a04 	addi	r4,r4,-19224
  134f54:	0134e800 	call	134e80 <alt_dev_reg>
  134f58:	01000534 	movhi	r4,20
  134f5c:	212d6b04 	addi	r4,r4,-19028
  134f60:	0136c600 	call	136c60 <altera_onchip_flash_init>
  134f64:	01000534 	movhi	r4,20
  134f68:	212dab04 	addi	r4,r4,-18772
  134f6c:	0134e800 	call	134e80 <alt_dev_reg>
  134f70:	0001883a 	nop
  134f74:	e037883a 	mov	sp,fp
  134f78:	dfc00117 	ldw	ra,4(sp)
  134f7c:	df000017 	ldw	fp,0(sp)
  134f80:	dec00204 	addi	sp,sp,8
  134f84:	f800283a 	ret

00134f88 <altera_avalon_jtag_uart_read_fd>:
  134f88:	defffa04 	addi	sp,sp,-24
  134f8c:	dfc00515 	stw	ra,20(sp)
  134f90:	df000415 	stw	fp,16(sp)
  134f94:	df000404 	addi	fp,sp,16
  134f98:	e13ffd15 	stw	r4,-12(fp)
  134f9c:	e17ffe15 	stw	r5,-8(fp)
  134fa0:	e1bfff15 	stw	r6,-4(fp)
  134fa4:	e0bffd17 	ldw	r2,-12(fp)
  134fa8:	10800017 	ldw	r2,0(r2)
  134fac:	e0bffc15 	stw	r2,-16(fp)
  134fb0:	e0bffc17 	ldw	r2,-16(fp)
  134fb4:	10c00a04 	addi	r3,r2,40
  134fb8:	e0bffd17 	ldw	r2,-12(fp)
  134fbc:	10800217 	ldw	r2,8(r2)
  134fc0:	100f883a 	mov	r7,r2
  134fc4:	e1bfff17 	ldw	r6,-4(fp)
  134fc8:	e17ffe17 	ldw	r5,-8(fp)
  134fcc:	1809883a 	mov	r4,r3
  134fd0:	01355a80 	call	1355a8 <altera_avalon_jtag_uart_read>
  134fd4:	e037883a 	mov	sp,fp
  134fd8:	dfc00117 	ldw	ra,4(sp)
  134fdc:	df000017 	ldw	fp,0(sp)
  134fe0:	dec00204 	addi	sp,sp,8
  134fe4:	f800283a 	ret

00134fe8 <altera_avalon_jtag_uart_write_fd>:
  134fe8:	defffa04 	addi	sp,sp,-24
  134fec:	dfc00515 	stw	ra,20(sp)
  134ff0:	df000415 	stw	fp,16(sp)
  134ff4:	df000404 	addi	fp,sp,16
  134ff8:	e13ffd15 	stw	r4,-12(fp)
  134ffc:	e17ffe15 	stw	r5,-8(fp)
  135000:	e1bfff15 	stw	r6,-4(fp)
  135004:	e0bffd17 	ldw	r2,-12(fp)
  135008:	10800017 	ldw	r2,0(r2)
  13500c:	e0bffc15 	stw	r2,-16(fp)
  135010:	e0bffc17 	ldw	r2,-16(fp)
  135014:	10c00a04 	addi	r3,r2,40
  135018:	e0bffd17 	ldw	r2,-12(fp)
  13501c:	10800217 	ldw	r2,8(r2)
  135020:	100f883a 	mov	r7,r2
  135024:	e1bfff17 	ldw	r6,-4(fp)
  135028:	e17ffe17 	ldw	r5,-8(fp)
  13502c:	1809883a 	mov	r4,r3
  135030:	01357c40 	call	1357c4 <altera_avalon_jtag_uart_write>
  135034:	e037883a 	mov	sp,fp
  135038:	dfc00117 	ldw	ra,4(sp)
  13503c:	df000017 	ldw	fp,0(sp)
  135040:	dec00204 	addi	sp,sp,8
  135044:	f800283a 	ret

00135048 <altera_avalon_jtag_uart_close_fd>:
  135048:	defffc04 	addi	sp,sp,-16
  13504c:	dfc00315 	stw	ra,12(sp)
  135050:	df000215 	stw	fp,8(sp)
  135054:	df000204 	addi	fp,sp,8
  135058:	e13fff15 	stw	r4,-4(fp)
  13505c:	e0bfff17 	ldw	r2,-4(fp)
  135060:	10800017 	ldw	r2,0(r2)
  135064:	e0bffe15 	stw	r2,-8(fp)
  135068:	e0bffe17 	ldw	r2,-8(fp)
  13506c:	10c00a04 	addi	r3,r2,40
  135070:	e0bfff17 	ldw	r2,-4(fp)
  135074:	10800217 	ldw	r2,8(r2)
  135078:	100b883a 	mov	r5,r2
  13507c:	1809883a 	mov	r4,r3
  135080:	01354500 	call	135450 <altera_avalon_jtag_uart_close>
  135084:	e037883a 	mov	sp,fp
  135088:	dfc00117 	ldw	ra,4(sp)
  13508c:	df000017 	ldw	fp,0(sp)
  135090:	dec00204 	addi	sp,sp,8
  135094:	f800283a 	ret

00135098 <altera_avalon_jtag_uart_ioctl_fd>:
  135098:	defffa04 	addi	sp,sp,-24
  13509c:	dfc00515 	stw	ra,20(sp)
  1350a0:	df000415 	stw	fp,16(sp)
  1350a4:	df000404 	addi	fp,sp,16
  1350a8:	e13ffd15 	stw	r4,-12(fp)
  1350ac:	e17ffe15 	stw	r5,-8(fp)
  1350b0:	e1bfff15 	stw	r6,-4(fp)
  1350b4:	e0bffd17 	ldw	r2,-12(fp)
  1350b8:	10800017 	ldw	r2,0(r2)
  1350bc:	e0bffc15 	stw	r2,-16(fp)
  1350c0:	e0bffc17 	ldw	r2,-16(fp)
  1350c4:	10800a04 	addi	r2,r2,40
  1350c8:	e1bfff17 	ldw	r6,-4(fp)
  1350cc:	e17ffe17 	ldw	r5,-8(fp)
  1350d0:	1009883a 	mov	r4,r2
  1350d4:	01354b80 	call	1354b8 <altera_avalon_jtag_uart_ioctl>
  1350d8:	e037883a 	mov	sp,fp
  1350dc:	dfc00117 	ldw	ra,4(sp)
  1350e0:	df000017 	ldw	fp,0(sp)
  1350e4:	dec00204 	addi	sp,sp,8
  1350e8:	f800283a 	ret

001350ec <altera_avalon_jtag_uart_init>:
  1350ec:	defffb04 	addi	sp,sp,-20
  1350f0:	dfc00415 	stw	ra,16(sp)
  1350f4:	df000315 	stw	fp,12(sp)
  1350f8:	df000304 	addi	fp,sp,12
  1350fc:	e13ffd15 	stw	r4,-12(fp)
  135100:	e17ffe15 	stw	r5,-8(fp)
  135104:	e1bfff15 	stw	r6,-4(fp)
  135108:	e0bffd17 	ldw	r2,-12(fp)
  13510c:	00c00044 	movi	r3,1
  135110:	10c00815 	stw	r3,32(r2)
  135114:	e0bffd17 	ldw	r2,-12(fp)
  135118:	10800017 	ldw	r2,0(r2)
  13511c:	10800104 	addi	r2,r2,4
  135120:	1007883a 	mov	r3,r2
  135124:	e0bffd17 	ldw	r2,-12(fp)
  135128:	10800817 	ldw	r2,32(r2)
  13512c:	18800035 	stwio	r2,0(r3)
  135130:	e0bfff17 	ldw	r2,-4(fp)
  135134:	018004f4 	movhi	r6,19
  135138:	31946804 	addi	r6,r6,20896
  13513c:	e17ffd17 	ldw	r5,-12(fp)
  135140:	1009883a 	mov	r4,r2
  135144:	01343c80 	call	1343c8 <alt_irq_register>
  135148:	e0bffd17 	ldw	r2,-12(fp)
  13514c:	10000915 	stw	zero,36(r2)
  135150:	e0bffd17 	ldw	r2,-12(fp)
  135154:	10800204 	addi	r2,r2,8
  135158:	d0e76317 	ldw	r3,-25204(gp)
  13515c:	e1fffd17 	ldw	r7,-12(fp)
  135160:	018004f4 	movhi	r6,19
  135164:	3194ec04 	addi	r6,r6,21424
  135168:	180b883a 	mov	r5,r3
  13516c:	1009883a 	mov	r4,r2
  135170:	013769c0 	call	13769c <alt_alarm_start>
  135174:	1000040e 	bge	r2,zero,135188 <altera_avalon_jtag_uart_init+0x9c>
  135178:	e0fffd17 	ldw	r3,-12(fp)
  13517c:	00a00034 	movhi	r2,32768
  135180:	10bfffc4 	addi	r2,r2,-1
  135184:	18800115 	stw	r2,4(r3)
  135188:	0001883a 	nop
  13518c:	e037883a 	mov	sp,fp
  135190:	dfc00117 	ldw	ra,4(sp)
  135194:	df000017 	ldw	fp,0(sp)
  135198:	dec00204 	addi	sp,sp,8
  13519c:	f800283a 	ret

001351a0 <altera_avalon_jtag_uart_irq>:
  1351a0:	defff704 	addi	sp,sp,-36
  1351a4:	df000815 	stw	fp,32(sp)
  1351a8:	df000804 	addi	fp,sp,32
  1351ac:	e13ffe15 	stw	r4,-8(fp)
  1351b0:	e17fff15 	stw	r5,-4(fp)
  1351b4:	e0bffe17 	ldw	r2,-8(fp)
  1351b8:	e0bffa15 	stw	r2,-24(fp)
  1351bc:	e0bffa17 	ldw	r2,-24(fp)
  1351c0:	10800017 	ldw	r2,0(r2)
  1351c4:	e0bffb15 	stw	r2,-20(fp)
  1351c8:	e0bffb17 	ldw	r2,-20(fp)
  1351cc:	10800104 	addi	r2,r2,4
  1351d0:	10800037 	ldwio	r2,0(r2)
  1351d4:	e0bffc15 	stw	r2,-16(fp)
  1351d8:	e0bffc17 	ldw	r2,-16(fp)
  1351dc:	1080c00c 	andi	r2,r2,768
  1351e0:	10006d26 	beq	r2,zero,135398 <altera_avalon_jtag_uart_irq+0x1f8>
  1351e4:	e0bffc17 	ldw	r2,-16(fp)
  1351e8:	1080400c 	andi	r2,r2,256
  1351ec:	10003526 	beq	r2,zero,1352c4 <altera_avalon_jtag_uart_irq+0x124>
  1351f0:	00800074 	movhi	r2,1
  1351f4:	e0bff815 	stw	r2,-32(fp)
  1351f8:	e0bffa17 	ldw	r2,-24(fp)
  1351fc:	10800a17 	ldw	r2,40(r2)
  135200:	10800044 	addi	r2,r2,1
  135204:	1081ffcc 	andi	r2,r2,2047
  135208:	e0bffd15 	stw	r2,-12(fp)
  13520c:	e0bffa17 	ldw	r2,-24(fp)
  135210:	10c00b17 	ldw	r3,44(r2)
  135214:	e0bffd17 	ldw	r2,-12(fp)
  135218:	18801526 	beq	r3,r2,135270 <altera_avalon_jtag_uart_irq+0xd0>
  13521c:	e0bffb17 	ldw	r2,-20(fp)
  135220:	10800037 	ldwio	r2,0(r2)
  135224:	e0bff815 	stw	r2,-32(fp)
  135228:	e0bff817 	ldw	r2,-32(fp)
  13522c:	10a0000c 	andi	r2,r2,32768
  135230:	10001126 	beq	r2,zero,135278 <altera_avalon_jtag_uart_irq+0xd8>
  135234:	e0bffa17 	ldw	r2,-24(fp)
  135238:	10800a17 	ldw	r2,40(r2)
  13523c:	e0fff817 	ldw	r3,-32(fp)
  135240:	1809883a 	mov	r4,r3
  135244:	e0fffa17 	ldw	r3,-24(fp)
  135248:	1885883a 	add	r2,r3,r2
  13524c:	10800e04 	addi	r2,r2,56
  135250:	11000005 	stb	r4,0(r2)
  135254:	e0bffa17 	ldw	r2,-24(fp)
  135258:	10800a17 	ldw	r2,40(r2)
  13525c:	10800044 	addi	r2,r2,1
  135260:	10c1ffcc 	andi	r3,r2,2047
  135264:	e0bffa17 	ldw	r2,-24(fp)
  135268:	10c00a15 	stw	r3,40(r2)
  13526c:	003fe206 	br	1351f8 <_gp+0xffff1b20>
  135270:	0001883a 	nop
  135274:	00000106 	br	13527c <altera_avalon_jtag_uart_irq+0xdc>
  135278:	0001883a 	nop
  13527c:	e0bff817 	ldw	r2,-32(fp)
  135280:	10bfffec 	andhi	r2,r2,65535
  135284:	10000f26 	beq	r2,zero,1352c4 <altera_avalon_jtag_uart_irq+0x124>
  135288:	e0bffa17 	ldw	r2,-24(fp)
  13528c:	10c00817 	ldw	r3,32(r2)
  135290:	00bfff84 	movi	r2,-2
  135294:	1886703a 	and	r3,r3,r2
  135298:	e0bffa17 	ldw	r2,-24(fp)
  13529c:	10c00815 	stw	r3,32(r2)
  1352a0:	e0bffb17 	ldw	r2,-20(fp)
  1352a4:	10800104 	addi	r2,r2,4
  1352a8:	1007883a 	mov	r3,r2
  1352ac:	e0bffa17 	ldw	r2,-24(fp)
  1352b0:	10800817 	ldw	r2,32(r2)
  1352b4:	18800035 	stwio	r2,0(r3)
  1352b8:	e0bffb17 	ldw	r2,-20(fp)
  1352bc:	10800104 	addi	r2,r2,4
  1352c0:	10800037 	ldwio	r2,0(r2)
  1352c4:	e0bffc17 	ldw	r2,-16(fp)
  1352c8:	1080800c 	andi	r2,r2,512
  1352cc:	103fbe26 	beq	r2,zero,1351c8 <_gp+0xffff1af0>
  1352d0:	e0bffc17 	ldw	r2,-16(fp)
  1352d4:	1004d43a 	srli	r2,r2,16
  1352d8:	e0bff915 	stw	r2,-28(fp)
  1352dc:	00001406 	br	135330 <altera_avalon_jtag_uart_irq+0x190>
  1352e0:	e0bffb17 	ldw	r2,-20(fp)
  1352e4:	e0fffa17 	ldw	r3,-24(fp)
  1352e8:	18c00d17 	ldw	r3,52(r3)
  1352ec:	e13ffa17 	ldw	r4,-24(fp)
  1352f0:	20c7883a 	add	r3,r4,r3
  1352f4:	18c20e04 	addi	r3,r3,2104
  1352f8:	18c00003 	ldbu	r3,0(r3)
  1352fc:	18c03fcc 	andi	r3,r3,255
  135300:	18c0201c 	xori	r3,r3,128
  135304:	18ffe004 	addi	r3,r3,-128
  135308:	10c00035 	stwio	r3,0(r2)
  13530c:	e0bffa17 	ldw	r2,-24(fp)
  135310:	10800d17 	ldw	r2,52(r2)
  135314:	10800044 	addi	r2,r2,1
  135318:	10c1ffcc 	andi	r3,r2,2047
  13531c:	e0bffa17 	ldw	r2,-24(fp)
  135320:	10c00d15 	stw	r3,52(r2)
  135324:	e0bff917 	ldw	r2,-28(fp)
  135328:	10bfffc4 	addi	r2,r2,-1
  13532c:	e0bff915 	stw	r2,-28(fp)
  135330:	e0bff917 	ldw	r2,-28(fp)
  135334:	10000526 	beq	r2,zero,13534c <altera_avalon_jtag_uart_irq+0x1ac>
  135338:	e0bffa17 	ldw	r2,-24(fp)
  13533c:	10c00d17 	ldw	r3,52(r2)
  135340:	e0bffa17 	ldw	r2,-24(fp)
  135344:	10800c17 	ldw	r2,48(r2)
  135348:	18bfe51e 	bne	r3,r2,1352e0 <_gp+0xffff1c08>
  13534c:	e0bff917 	ldw	r2,-28(fp)
  135350:	103f9d26 	beq	r2,zero,1351c8 <_gp+0xffff1af0>
  135354:	e0bffa17 	ldw	r2,-24(fp)
  135358:	10c00817 	ldw	r3,32(r2)
  13535c:	00bfff44 	movi	r2,-3
  135360:	1886703a 	and	r3,r3,r2
  135364:	e0bffa17 	ldw	r2,-24(fp)
  135368:	10c00815 	stw	r3,32(r2)
  13536c:	e0bffa17 	ldw	r2,-24(fp)
  135370:	10800017 	ldw	r2,0(r2)
  135374:	10800104 	addi	r2,r2,4
  135378:	1007883a 	mov	r3,r2
  13537c:	e0bffa17 	ldw	r2,-24(fp)
  135380:	10800817 	ldw	r2,32(r2)
  135384:	18800035 	stwio	r2,0(r3)
  135388:	e0bffb17 	ldw	r2,-20(fp)
  13538c:	10800104 	addi	r2,r2,4
  135390:	10800037 	ldwio	r2,0(r2)
  135394:	003f8c06 	br	1351c8 <_gp+0xffff1af0>
  135398:	0001883a 	nop
  13539c:	0001883a 	nop
  1353a0:	e037883a 	mov	sp,fp
  1353a4:	df000017 	ldw	fp,0(sp)
  1353a8:	dec00104 	addi	sp,sp,4
  1353ac:	f800283a 	ret

001353b0 <altera_avalon_jtag_uart_timeout>:
  1353b0:	defff804 	addi	sp,sp,-32
  1353b4:	df000715 	stw	fp,28(sp)
  1353b8:	df000704 	addi	fp,sp,28
  1353bc:	e13ffb15 	stw	r4,-20(fp)
  1353c0:	e0bffb17 	ldw	r2,-20(fp)
  1353c4:	e0bff915 	stw	r2,-28(fp)
  1353c8:	e0bff917 	ldw	r2,-28(fp)
  1353cc:	10800017 	ldw	r2,0(r2)
  1353d0:	10800104 	addi	r2,r2,4
  1353d4:	10800037 	ldwio	r2,0(r2)
  1353d8:	e0bffa15 	stw	r2,-24(fp)
  1353dc:	e0bffa17 	ldw	r2,-24(fp)
  1353e0:	1081000c 	andi	r2,r2,1024
  1353e4:	10000b26 	beq	r2,zero,135414 <altera_avalon_jtag_uart_timeout+0x64>
  1353e8:	e0bff917 	ldw	r2,-28(fp)
  1353ec:	10800017 	ldw	r2,0(r2)
  1353f0:	10800104 	addi	r2,r2,4
  1353f4:	1007883a 	mov	r3,r2
  1353f8:	e0bff917 	ldw	r2,-28(fp)
  1353fc:	10800817 	ldw	r2,32(r2)
  135400:	10810014 	ori	r2,r2,1024
  135404:	18800035 	stwio	r2,0(r3)
  135408:	e0bff917 	ldw	r2,-28(fp)
  13540c:	10000915 	stw	zero,36(r2)
  135410:	00000a06 	br	13543c <altera_avalon_jtag_uart_timeout+0x8c>
  135414:	e0bff917 	ldw	r2,-28(fp)
  135418:	10c00917 	ldw	r3,36(r2)
  13541c:	00a00034 	movhi	r2,32768
  135420:	10bfff04 	addi	r2,r2,-4
  135424:	10c00536 	bltu	r2,r3,13543c <altera_avalon_jtag_uart_timeout+0x8c>
  135428:	e0bff917 	ldw	r2,-28(fp)
  13542c:	10800917 	ldw	r2,36(r2)
  135430:	10c00044 	addi	r3,r2,1
  135434:	e0bff917 	ldw	r2,-28(fp)
  135438:	10c00915 	stw	r3,36(r2)
  13543c:	d0a76317 	ldw	r2,-25204(gp)
  135440:	e037883a 	mov	sp,fp
  135444:	df000017 	ldw	fp,0(sp)
  135448:	dec00104 	addi	sp,sp,4
  13544c:	f800283a 	ret

00135450 <altera_avalon_jtag_uart_close>:
  135450:	defffd04 	addi	sp,sp,-12
  135454:	df000215 	stw	fp,8(sp)
  135458:	df000204 	addi	fp,sp,8
  13545c:	e13ffe15 	stw	r4,-8(fp)
  135460:	e17fff15 	stw	r5,-4(fp)
  135464:	00000506 	br	13547c <altera_avalon_jtag_uart_close+0x2c>
  135468:	e0bfff17 	ldw	r2,-4(fp)
  13546c:	1090000c 	andi	r2,r2,16384
  135470:	10000226 	beq	r2,zero,13547c <altera_avalon_jtag_uart_close+0x2c>
  135474:	00bffd44 	movi	r2,-11
  135478:	00000b06 	br	1354a8 <altera_avalon_jtag_uart_close+0x58>
  13547c:	e0bffe17 	ldw	r2,-8(fp)
  135480:	10c00d17 	ldw	r3,52(r2)
  135484:	e0bffe17 	ldw	r2,-8(fp)
  135488:	10800c17 	ldw	r2,48(r2)
  13548c:	18800526 	beq	r3,r2,1354a4 <altera_avalon_jtag_uart_close+0x54>
  135490:	e0bffe17 	ldw	r2,-8(fp)
  135494:	10c00917 	ldw	r3,36(r2)
  135498:	e0bffe17 	ldw	r2,-8(fp)
  13549c:	10800117 	ldw	r2,4(r2)
  1354a0:	18bff136 	bltu	r3,r2,135468 <_gp+0xffff1d90>
  1354a4:	0005883a 	mov	r2,zero
  1354a8:	e037883a 	mov	sp,fp
  1354ac:	df000017 	ldw	fp,0(sp)
  1354b0:	dec00104 	addi	sp,sp,4
  1354b4:	f800283a 	ret

001354b8 <altera_avalon_jtag_uart_ioctl>:
  1354b8:	defffa04 	addi	sp,sp,-24
  1354bc:	df000515 	stw	fp,20(sp)
  1354c0:	df000504 	addi	fp,sp,20
  1354c4:	e13ffd15 	stw	r4,-12(fp)
  1354c8:	e17ffe15 	stw	r5,-8(fp)
  1354cc:	e1bfff15 	stw	r6,-4(fp)
  1354d0:	00bff9c4 	movi	r2,-25
  1354d4:	e0bffb15 	stw	r2,-20(fp)
  1354d8:	e0bffe17 	ldw	r2,-8(fp)
  1354dc:	10da8060 	cmpeqi	r3,r2,27137
  1354e0:	1800031e 	bne	r3,zero,1354f0 <altera_avalon_jtag_uart_ioctl+0x38>
  1354e4:	109a80a0 	cmpeqi	r2,r2,27138
  1354e8:	1000181e 	bne	r2,zero,13554c <altera_avalon_jtag_uart_ioctl+0x94>
  1354ec:	00002906 	br	135594 <altera_avalon_jtag_uart_ioctl+0xdc>
  1354f0:	e0bffd17 	ldw	r2,-12(fp)
  1354f4:	10c00117 	ldw	r3,4(r2)
  1354f8:	00a00034 	movhi	r2,32768
  1354fc:	10bfffc4 	addi	r2,r2,-1
  135500:	18802126 	beq	r3,r2,135588 <altera_avalon_jtag_uart_ioctl+0xd0>
  135504:	e0bfff17 	ldw	r2,-4(fp)
  135508:	10800017 	ldw	r2,0(r2)
  13550c:	e0bffc15 	stw	r2,-16(fp)
  135510:	e0bffc17 	ldw	r2,-16(fp)
  135514:	10800090 	cmplti	r2,r2,2
  135518:	1000061e 	bne	r2,zero,135534 <altera_avalon_jtag_uart_ioctl+0x7c>
  13551c:	e0fffc17 	ldw	r3,-16(fp)
  135520:	00a00034 	movhi	r2,32768
  135524:	10bfffc4 	addi	r2,r2,-1
  135528:	18800226 	beq	r3,r2,135534 <altera_avalon_jtag_uart_ioctl+0x7c>
  13552c:	e0bffc17 	ldw	r2,-16(fp)
  135530:	00000206 	br	13553c <altera_avalon_jtag_uart_ioctl+0x84>
  135534:	00a00034 	movhi	r2,32768
  135538:	10bfff84 	addi	r2,r2,-2
  13553c:	e0fffd17 	ldw	r3,-12(fp)
  135540:	18800115 	stw	r2,4(r3)
  135544:	e03ffb15 	stw	zero,-20(fp)
  135548:	00000f06 	br	135588 <altera_avalon_jtag_uart_ioctl+0xd0>
  13554c:	e0bffd17 	ldw	r2,-12(fp)
  135550:	10c00117 	ldw	r3,4(r2)
  135554:	00a00034 	movhi	r2,32768
  135558:	10bfffc4 	addi	r2,r2,-1
  13555c:	18800c26 	beq	r3,r2,135590 <altera_avalon_jtag_uart_ioctl+0xd8>
  135560:	e0bffd17 	ldw	r2,-12(fp)
  135564:	10c00917 	ldw	r3,36(r2)
  135568:	e0bffd17 	ldw	r2,-12(fp)
  13556c:	10800117 	ldw	r2,4(r2)
  135570:	1885803a 	cmpltu	r2,r3,r2
  135574:	10c03fcc 	andi	r3,r2,255
  135578:	e0bfff17 	ldw	r2,-4(fp)
  13557c:	10c00015 	stw	r3,0(r2)
  135580:	e03ffb15 	stw	zero,-20(fp)
  135584:	00000206 	br	135590 <altera_avalon_jtag_uart_ioctl+0xd8>
  135588:	0001883a 	nop
  13558c:	00000106 	br	135594 <altera_avalon_jtag_uart_ioctl+0xdc>
  135590:	0001883a 	nop
  135594:	e0bffb17 	ldw	r2,-20(fp)
  135598:	e037883a 	mov	sp,fp
  13559c:	df000017 	ldw	fp,0(sp)
  1355a0:	dec00104 	addi	sp,sp,4
  1355a4:	f800283a 	ret

001355a8 <altera_avalon_jtag_uart_read>:
  1355a8:	defff304 	addi	sp,sp,-52
  1355ac:	dfc00c15 	stw	ra,48(sp)
  1355b0:	df000b15 	stw	fp,44(sp)
  1355b4:	df000b04 	addi	fp,sp,44
  1355b8:	e13ffc15 	stw	r4,-16(fp)
  1355bc:	e17ffd15 	stw	r5,-12(fp)
  1355c0:	e1bffe15 	stw	r6,-8(fp)
  1355c4:	e1ffff15 	stw	r7,-4(fp)
  1355c8:	e0bffd17 	ldw	r2,-12(fp)
  1355cc:	e0bff515 	stw	r2,-44(fp)
  1355d0:	00004706 	br	1356f0 <altera_avalon_jtag_uart_read+0x148>
  1355d4:	e0bffc17 	ldw	r2,-16(fp)
  1355d8:	10800a17 	ldw	r2,40(r2)
  1355dc:	e0bff715 	stw	r2,-36(fp)
  1355e0:	e0bffc17 	ldw	r2,-16(fp)
  1355e4:	10800b17 	ldw	r2,44(r2)
  1355e8:	e0bff815 	stw	r2,-32(fp)
  1355ec:	e0fff717 	ldw	r3,-36(fp)
  1355f0:	e0bff817 	ldw	r2,-32(fp)
  1355f4:	18800536 	bltu	r3,r2,13560c <altera_avalon_jtag_uart_read+0x64>
  1355f8:	e0fff717 	ldw	r3,-36(fp)
  1355fc:	e0bff817 	ldw	r2,-32(fp)
  135600:	1885c83a 	sub	r2,r3,r2
  135604:	e0bff615 	stw	r2,-40(fp)
  135608:	00000406 	br	13561c <altera_avalon_jtag_uart_read+0x74>
  13560c:	00c20004 	movi	r3,2048
  135610:	e0bff817 	ldw	r2,-32(fp)
  135614:	1885c83a 	sub	r2,r3,r2
  135618:	e0bff615 	stw	r2,-40(fp)
  13561c:	e0bff617 	ldw	r2,-40(fp)
  135620:	10001e26 	beq	r2,zero,13569c <altera_avalon_jtag_uart_read+0xf4>
  135624:	e0fffe17 	ldw	r3,-8(fp)
  135628:	e0bff617 	ldw	r2,-40(fp)
  13562c:	1880022e 	bgeu	r3,r2,135638 <altera_avalon_jtag_uart_read+0x90>
  135630:	e0bffe17 	ldw	r2,-8(fp)
  135634:	e0bff615 	stw	r2,-40(fp)
  135638:	e0bffc17 	ldw	r2,-16(fp)
  13563c:	10c00e04 	addi	r3,r2,56
  135640:	e0bff817 	ldw	r2,-32(fp)
  135644:	1885883a 	add	r2,r3,r2
  135648:	e1bff617 	ldw	r6,-40(fp)
  13564c:	100b883a 	mov	r5,r2
  135650:	e13ff517 	ldw	r4,-44(fp)
  135654:	01213900 	call	121390 <memcpy>
  135658:	e0fff517 	ldw	r3,-44(fp)
  13565c:	e0bff617 	ldw	r2,-40(fp)
  135660:	1885883a 	add	r2,r3,r2
  135664:	e0bff515 	stw	r2,-44(fp)
  135668:	e0fffe17 	ldw	r3,-8(fp)
  13566c:	e0bff617 	ldw	r2,-40(fp)
  135670:	1885c83a 	sub	r2,r3,r2
  135674:	e0bffe15 	stw	r2,-8(fp)
  135678:	e0fff817 	ldw	r3,-32(fp)
  13567c:	e0bff617 	ldw	r2,-40(fp)
  135680:	1885883a 	add	r2,r3,r2
  135684:	10c1ffcc 	andi	r3,r2,2047
  135688:	e0bffc17 	ldw	r2,-16(fp)
  13568c:	10c00b15 	stw	r3,44(r2)
  135690:	e0bffe17 	ldw	r2,-8(fp)
  135694:	00bfcf16 	blt	zero,r2,1355d4 <_gp+0xffff1efc>
  135698:	00000106 	br	1356a0 <altera_avalon_jtag_uart_read+0xf8>
  13569c:	0001883a 	nop
  1356a0:	e0fff517 	ldw	r3,-44(fp)
  1356a4:	e0bffd17 	ldw	r2,-12(fp)
  1356a8:	1880141e 	bne	r3,r2,1356fc <altera_avalon_jtag_uart_read+0x154>
  1356ac:	e0bfff17 	ldw	r2,-4(fp)
  1356b0:	1090000c 	andi	r2,r2,16384
  1356b4:	1000131e 	bne	r2,zero,135704 <altera_avalon_jtag_uart_read+0x15c>
  1356b8:	0001883a 	nop
  1356bc:	e0bffc17 	ldw	r2,-16(fp)
  1356c0:	10c00a17 	ldw	r3,40(r2)
  1356c4:	e0bff717 	ldw	r2,-36(fp)
  1356c8:	1880051e 	bne	r3,r2,1356e0 <altera_avalon_jtag_uart_read+0x138>
  1356cc:	e0bffc17 	ldw	r2,-16(fp)
  1356d0:	10c00917 	ldw	r3,36(r2)
  1356d4:	e0bffc17 	ldw	r2,-16(fp)
  1356d8:	10800117 	ldw	r2,4(r2)
  1356dc:	18bff736 	bltu	r3,r2,1356bc <_gp+0xffff1fe4>
  1356e0:	e0bffc17 	ldw	r2,-16(fp)
  1356e4:	10c00a17 	ldw	r3,40(r2)
  1356e8:	e0bff717 	ldw	r2,-36(fp)
  1356ec:	18800726 	beq	r3,r2,13570c <altera_avalon_jtag_uart_read+0x164>
  1356f0:	e0bffe17 	ldw	r2,-8(fp)
  1356f4:	00bfb716 	blt	zero,r2,1355d4 <_gp+0xffff1efc>
  1356f8:	00000506 	br	135710 <altera_avalon_jtag_uart_read+0x168>
  1356fc:	0001883a 	nop
  135700:	00000306 	br	135710 <altera_avalon_jtag_uart_read+0x168>
  135704:	0001883a 	nop
  135708:	00000106 	br	135710 <altera_avalon_jtag_uart_read+0x168>
  13570c:	0001883a 	nop
  135710:	e0fff517 	ldw	r3,-44(fp)
  135714:	e0bffd17 	ldw	r2,-12(fp)
  135718:	18801826 	beq	r3,r2,13577c <altera_avalon_jtag_uart_read+0x1d4>
  13571c:	0005303a 	rdctl	r2,status
  135720:	e0bffb15 	stw	r2,-20(fp)
  135724:	e0fffb17 	ldw	r3,-20(fp)
  135728:	00bfff84 	movi	r2,-2
  13572c:	1884703a 	and	r2,r3,r2
  135730:	1001703a 	wrctl	status,r2
  135734:	e0bffb17 	ldw	r2,-20(fp)
  135738:	e0bffa15 	stw	r2,-24(fp)
  13573c:	e0bffc17 	ldw	r2,-16(fp)
  135740:	10800817 	ldw	r2,32(r2)
  135744:	10c00054 	ori	r3,r2,1
  135748:	e0bffc17 	ldw	r2,-16(fp)
  13574c:	10c00815 	stw	r3,32(r2)
  135750:	e0bffc17 	ldw	r2,-16(fp)
  135754:	10800017 	ldw	r2,0(r2)
  135758:	10800104 	addi	r2,r2,4
  13575c:	1007883a 	mov	r3,r2
  135760:	e0bffc17 	ldw	r2,-16(fp)
  135764:	10800817 	ldw	r2,32(r2)
  135768:	18800035 	stwio	r2,0(r3)
  13576c:	e0bffa17 	ldw	r2,-24(fp)
  135770:	e0bff915 	stw	r2,-28(fp)
  135774:	e0bff917 	ldw	r2,-28(fp)
  135778:	1001703a 	wrctl	status,r2
  13577c:	e0fff517 	ldw	r3,-44(fp)
  135780:	e0bffd17 	ldw	r2,-12(fp)
  135784:	18800426 	beq	r3,r2,135798 <altera_avalon_jtag_uart_read+0x1f0>
  135788:	e0fff517 	ldw	r3,-44(fp)
  13578c:	e0bffd17 	ldw	r2,-12(fp)
  135790:	1885c83a 	sub	r2,r3,r2
  135794:	00000606 	br	1357b0 <altera_avalon_jtag_uart_read+0x208>
  135798:	e0bfff17 	ldw	r2,-4(fp)
  13579c:	1090000c 	andi	r2,r2,16384
  1357a0:	10000226 	beq	r2,zero,1357ac <altera_avalon_jtag_uart_read+0x204>
  1357a4:	00bffd44 	movi	r2,-11
  1357a8:	00000106 	br	1357b0 <altera_avalon_jtag_uart_read+0x208>
  1357ac:	00bffec4 	movi	r2,-5
  1357b0:	e037883a 	mov	sp,fp
  1357b4:	dfc00117 	ldw	ra,4(sp)
  1357b8:	df000017 	ldw	fp,0(sp)
  1357bc:	dec00204 	addi	sp,sp,8
  1357c0:	f800283a 	ret

001357c4 <altera_avalon_jtag_uart_write>:
  1357c4:	defff304 	addi	sp,sp,-52
  1357c8:	dfc00c15 	stw	ra,48(sp)
  1357cc:	df000b15 	stw	fp,44(sp)
  1357d0:	df000b04 	addi	fp,sp,44
  1357d4:	e13ffc15 	stw	r4,-16(fp)
  1357d8:	e17ffd15 	stw	r5,-12(fp)
  1357dc:	e1bffe15 	stw	r6,-8(fp)
  1357e0:	e1ffff15 	stw	r7,-4(fp)
  1357e4:	e03ff515 	stw	zero,-44(fp)
  1357e8:	e0bffd17 	ldw	r2,-12(fp)
  1357ec:	e0bff715 	stw	r2,-36(fp)
  1357f0:	00003706 	br	1358d0 <altera_avalon_jtag_uart_write+0x10c>
  1357f4:	e0bffc17 	ldw	r2,-16(fp)
  1357f8:	10800c17 	ldw	r2,48(r2)
  1357fc:	e0bff915 	stw	r2,-28(fp)
  135800:	e0bffc17 	ldw	r2,-16(fp)
  135804:	10800d17 	ldw	r2,52(r2)
  135808:	e0bff515 	stw	r2,-44(fp)
  13580c:	e0fff917 	ldw	r3,-28(fp)
  135810:	e0bff517 	ldw	r2,-44(fp)
  135814:	1880062e 	bgeu	r3,r2,135830 <altera_avalon_jtag_uart_write+0x6c>
  135818:	e0fff517 	ldw	r3,-44(fp)
  13581c:	e0bff917 	ldw	r2,-28(fp)
  135820:	1885c83a 	sub	r2,r3,r2
  135824:	10bfffc4 	addi	r2,r2,-1
  135828:	e0bff615 	stw	r2,-40(fp)
  13582c:	00000b06 	br	13585c <altera_avalon_jtag_uart_write+0x98>
  135830:	e0bff517 	ldw	r2,-44(fp)
  135834:	10000526 	beq	r2,zero,13584c <altera_avalon_jtag_uart_write+0x88>
  135838:	00c20004 	movi	r3,2048
  13583c:	e0bff917 	ldw	r2,-28(fp)
  135840:	1885c83a 	sub	r2,r3,r2
  135844:	e0bff615 	stw	r2,-40(fp)
  135848:	00000406 	br	13585c <altera_avalon_jtag_uart_write+0x98>
  13584c:	00c1ffc4 	movi	r3,2047
  135850:	e0bff917 	ldw	r2,-28(fp)
  135854:	1885c83a 	sub	r2,r3,r2
  135858:	e0bff615 	stw	r2,-40(fp)
  13585c:	e0bff617 	ldw	r2,-40(fp)
  135860:	10001e26 	beq	r2,zero,1358dc <altera_avalon_jtag_uart_write+0x118>
  135864:	e0fffe17 	ldw	r3,-8(fp)
  135868:	e0bff617 	ldw	r2,-40(fp)
  13586c:	1880022e 	bgeu	r3,r2,135878 <altera_avalon_jtag_uart_write+0xb4>
  135870:	e0bffe17 	ldw	r2,-8(fp)
  135874:	e0bff615 	stw	r2,-40(fp)
  135878:	e0bffc17 	ldw	r2,-16(fp)
  13587c:	10c20e04 	addi	r3,r2,2104
  135880:	e0bff917 	ldw	r2,-28(fp)
  135884:	1885883a 	add	r2,r3,r2
  135888:	e1bff617 	ldw	r6,-40(fp)
  13588c:	e17ffd17 	ldw	r5,-12(fp)
  135890:	1009883a 	mov	r4,r2
  135894:	01213900 	call	121390 <memcpy>
  135898:	e0fffd17 	ldw	r3,-12(fp)
  13589c:	e0bff617 	ldw	r2,-40(fp)
  1358a0:	1885883a 	add	r2,r3,r2
  1358a4:	e0bffd15 	stw	r2,-12(fp)
  1358a8:	e0fffe17 	ldw	r3,-8(fp)
  1358ac:	e0bff617 	ldw	r2,-40(fp)
  1358b0:	1885c83a 	sub	r2,r3,r2
  1358b4:	e0bffe15 	stw	r2,-8(fp)
  1358b8:	e0fff917 	ldw	r3,-28(fp)
  1358bc:	e0bff617 	ldw	r2,-40(fp)
  1358c0:	1885883a 	add	r2,r3,r2
  1358c4:	10c1ffcc 	andi	r3,r2,2047
  1358c8:	e0bffc17 	ldw	r2,-16(fp)
  1358cc:	10c00c15 	stw	r3,48(r2)
  1358d0:	e0bffe17 	ldw	r2,-8(fp)
  1358d4:	00bfc716 	blt	zero,r2,1357f4 <_gp+0xffff211c>
  1358d8:	00000106 	br	1358e0 <altera_avalon_jtag_uart_write+0x11c>
  1358dc:	0001883a 	nop
  1358e0:	0005303a 	rdctl	r2,status
  1358e4:	e0bffb15 	stw	r2,-20(fp)
  1358e8:	e0fffb17 	ldw	r3,-20(fp)
  1358ec:	00bfff84 	movi	r2,-2
  1358f0:	1884703a 	and	r2,r3,r2
  1358f4:	1001703a 	wrctl	status,r2
  1358f8:	e0bffb17 	ldw	r2,-20(fp)
  1358fc:	e0bffa15 	stw	r2,-24(fp)
  135900:	e0bffc17 	ldw	r2,-16(fp)
  135904:	10800817 	ldw	r2,32(r2)
  135908:	10c00094 	ori	r3,r2,2
  13590c:	e0bffc17 	ldw	r2,-16(fp)
  135910:	10c00815 	stw	r3,32(r2)
  135914:	e0bffc17 	ldw	r2,-16(fp)
  135918:	10800017 	ldw	r2,0(r2)
  13591c:	10800104 	addi	r2,r2,4
  135920:	1007883a 	mov	r3,r2
  135924:	e0bffc17 	ldw	r2,-16(fp)
  135928:	10800817 	ldw	r2,32(r2)
  13592c:	18800035 	stwio	r2,0(r3)
  135930:	e0bffa17 	ldw	r2,-24(fp)
  135934:	e0bff815 	stw	r2,-32(fp)
  135938:	e0bff817 	ldw	r2,-32(fp)
  13593c:	1001703a 	wrctl	status,r2
  135940:	e0bffe17 	ldw	r2,-8(fp)
  135944:	0080100e 	bge	zero,r2,135988 <altera_avalon_jtag_uart_write+0x1c4>
  135948:	e0bfff17 	ldw	r2,-4(fp)
  13594c:	1090000c 	andi	r2,r2,16384
  135950:	1000101e 	bne	r2,zero,135994 <altera_avalon_jtag_uart_write+0x1d0>
  135954:	0001883a 	nop
  135958:	e0bffc17 	ldw	r2,-16(fp)
  13595c:	10c00d17 	ldw	r3,52(r2)
  135960:	e0bff517 	ldw	r2,-44(fp)
  135964:	1880051e 	bne	r3,r2,13597c <altera_avalon_jtag_uart_write+0x1b8>
  135968:	e0bffc17 	ldw	r2,-16(fp)
  13596c:	10c00917 	ldw	r3,36(r2)
  135970:	e0bffc17 	ldw	r2,-16(fp)
  135974:	10800117 	ldw	r2,4(r2)
  135978:	18bff736 	bltu	r3,r2,135958 <_gp+0xffff2280>
  13597c:	e0bffc17 	ldw	r2,-16(fp)
  135980:	10800917 	ldw	r2,36(r2)
  135984:	1000051e 	bne	r2,zero,13599c <altera_avalon_jtag_uart_write+0x1d8>
  135988:	e0bffe17 	ldw	r2,-8(fp)
  13598c:	00bfd016 	blt	zero,r2,1358d0 <_gp+0xffff21f8>
  135990:	00000306 	br	1359a0 <altera_avalon_jtag_uart_write+0x1dc>
  135994:	0001883a 	nop
  135998:	00000106 	br	1359a0 <altera_avalon_jtag_uart_write+0x1dc>
  13599c:	0001883a 	nop
  1359a0:	e0fffd17 	ldw	r3,-12(fp)
  1359a4:	e0bff717 	ldw	r2,-36(fp)
  1359a8:	18800426 	beq	r3,r2,1359bc <altera_avalon_jtag_uart_write+0x1f8>
  1359ac:	e0fffd17 	ldw	r3,-12(fp)
  1359b0:	e0bff717 	ldw	r2,-36(fp)
  1359b4:	1885c83a 	sub	r2,r3,r2
  1359b8:	00000606 	br	1359d4 <altera_avalon_jtag_uart_write+0x210>
  1359bc:	e0bfff17 	ldw	r2,-4(fp)
  1359c0:	1090000c 	andi	r2,r2,16384
  1359c4:	10000226 	beq	r2,zero,1359d0 <altera_avalon_jtag_uart_write+0x20c>
  1359c8:	00bffd44 	movi	r2,-11
  1359cc:	00000106 	br	1359d4 <altera_avalon_jtag_uart_write+0x210>
  1359d0:	00bffec4 	movi	r2,-5
  1359d4:	e037883a 	mov	sp,fp
  1359d8:	dfc00117 	ldw	ra,4(sp)
  1359dc:	df000017 	ldw	fp,0(sp)
  1359e0:	dec00204 	addi	sp,sp,8
  1359e4:	f800283a 	ret

001359e8 <alt_avalon_timer_sc_irq>:
  1359e8:	defff904 	addi	sp,sp,-28
  1359ec:	dfc00615 	stw	ra,24(sp)
  1359f0:	df000515 	stw	fp,20(sp)
  1359f4:	df000504 	addi	fp,sp,20
  1359f8:	e13ffe15 	stw	r4,-8(fp)
  1359fc:	e17fff15 	stw	r5,-4(fp)
  135a00:	0007883a 	mov	r3,zero
  135a04:	e0bffe17 	ldw	r2,-8(fp)
  135a08:	10c00035 	stwio	r3,0(r2)
  135a0c:	e0bffe17 	ldw	r2,-8(fp)
  135a10:	10800104 	addi	r2,r2,4
  135a14:	10800037 	ldwio	r2,0(r2)
  135a18:	0005303a 	rdctl	r2,status
  135a1c:	e0bffc15 	stw	r2,-16(fp)
  135a20:	e0fffc17 	ldw	r3,-16(fp)
  135a24:	00bfff84 	movi	r2,-2
  135a28:	1884703a 	and	r2,r3,r2
  135a2c:	1001703a 	wrctl	status,r2
  135a30:	e0bffc17 	ldw	r2,-16(fp)
  135a34:	e0bffb15 	stw	r2,-20(fp)
  135a38:	013803c0 	call	13803c <alt_tick>
  135a3c:	e0bffb17 	ldw	r2,-20(fp)
  135a40:	e0bffd15 	stw	r2,-12(fp)
  135a44:	e0bffd17 	ldw	r2,-12(fp)
  135a48:	1001703a 	wrctl	status,r2
  135a4c:	0001883a 	nop
  135a50:	e037883a 	mov	sp,fp
  135a54:	dfc00117 	ldw	ra,4(sp)
  135a58:	df000017 	ldw	fp,0(sp)
  135a5c:	dec00204 	addi	sp,sp,8
  135a60:	f800283a 	ret

00135a64 <alt_avalon_timer_sc_init>:
  135a64:	defff904 	addi	sp,sp,-28
  135a68:	dfc00615 	stw	ra,24(sp)
  135a6c:	df000515 	stw	fp,20(sp)
  135a70:	df000504 	addi	fp,sp,20
  135a74:	e13ffc15 	stw	r4,-16(fp)
  135a78:	e17ffd15 	stw	r5,-12(fp)
  135a7c:	e1bffe15 	stw	r6,-8(fp)
  135a80:	e1ffff15 	stw	r7,-4(fp)
  135a84:	e0bfff17 	ldw	r2,-4(fp)
  135a88:	e0bffb15 	stw	r2,-20(fp)
  135a8c:	d0a76317 	ldw	r2,-25204(gp)
  135a90:	1000021e 	bne	r2,zero,135a9c <alt_avalon_timer_sc_init+0x38>
  135a94:	e0bffb17 	ldw	r2,-20(fp)
  135a98:	d0a76315 	stw	r2,-25204(gp)
  135a9c:	e0bffc17 	ldw	r2,-16(fp)
  135aa0:	10800104 	addi	r2,r2,4
  135aa4:	00c001c4 	movi	r3,7
  135aa8:	10c00035 	stwio	r3,0(r2)
  135aac:	018004f4 	movhi	r6,19
  135ab0:	31967a04 	addi	r6,r6,23016
  135ab4:	e17ffc17 	ldw	r5,-16(fp)
  135ab8:	e13ffe17 	ldw	r4,-8(fp)
  135abc:	01343c80 	call	1343c8 <alt_irq_register>
  135ac0:	0001883a 	nop
  135ac4:	e037883a 	mov	sp,fp
  135ac8:	dfc00117 	ldw	ra,4(sp)
  135acc:	df000017 	ldw	fp,0(sp)
  135ad0:	dec00204 	addi	sp,sp,8
  135ad4:	f800283a 	ret

00135ad8 <altera_avalon_uart_read_fd>:
  135ad8:	defffa04 	addi	sp,sp,-24
  135adc:	dfc00515 	stw	ra,20(sp)
  135ae0:	df000415 	stw	fp,16(sp)
  135ae4:	df000404 	addi	fp,sp,16
  135ae8:	e13ffd15 	stw	r4,-12(fp)
  135aec:	e17ffe15 	stw	r5,-8(fp)
  135af0:	e1bfff15 	stw	r6,-4(fp)
  135af4:	e0bffd17 	ldw	r2,-12(fp)
  135af8:	10800017 	ldw	r2,0(r2)
  135afc:	e0bffc15 	stw	r2,-16(fp)
  135b00:	e0bffc17 	ldw	r2,-16(fp)
  135b04:	10c00a04 	addi	r3,r2,40
  135b08:	e0bffd17 	ldw	r2,-12(fp)
  135b0c:	10800217 	ldw	r2,8(r2)
  135b10:	100f883a 	mov	r7,r2
  135b14:	e1bfff17 	ldw	r6,-4(fp)
  135b18:	e17ffe17 	ldw	r5,-8(fp)
  135b1c:	1809883a 	mov	r4,r3
  135b20:	0135fe80 	call	135fe8 <altera_avalon_uart_read>
  135b24:	e037883a 	mov	sp,fp
  135b28:	dfc00117 	ldw	ra,4(sp)
  135b2c:	df000017 	ldw	fp,0(sp)
  135b30:	dec00204 	addi	sp,sp,8
  135b34:	f800283a 	ret

00135b38 <altera_avalon_uart_write_fd>:
  135b38:	defffa04 	addi	sp,sp,-24
  135b3c:	dfc00515 	stw	ra,20(sp)
  135b40:	df000415 	stw	fp,16(sp)
  135b44:	df000404 	addi	fp,sp,16
  135b48:	e13ffd15 	stw	r4,-12(fp)
  135b4c:	e17ffe15 	stw	r5,-8(fp)
  135b50:	e1bfff15 	stw	r6,-4(fp)
  135b54:	e0bffd17 	ldw	r2,-12(fp)
  135b58:	10800017 	ldw	r2,0(r2)
  135b5c:	e0bffc15 	stw	r2,-16(fp)
  135b60:	e0bffc17 	ldw	r2,-16(fp)
  135b64:	10c00a04 	addi	r3,r2,40
  135b68:	e0bffd17 	ldw	r2,-12(fp)
  135b6c:	10800217 	ldw	r2,8(r2)
  135b70:	100f883a 	mov	r7,r2
  135b74:	e1bfff17 	ldw	r6,-4(fp)
  135b78:	e17ffe17 	ldw	r5,-8(fp)
  135b7c:	1809883a 	mov	r4,r3
  135b80:	01362000 	call	136200 <altera_avalon_uart_write>
  135b84:	e037883a 	mov	sp,fp
  135b88:	dfc00117 	ldw	ra,4(sp)
  135b8c:	df000017 	ldw	fp,0(sp)
  135b90:	dec00204 	addi	sp,sp,8
  135b94:	f800283a 	ret

00135b98 <altera_avalon_uart_close_fd>:
  135b98:	defffc04 	addi	sp,sp,-16
  135b9c:	dfc00315 	stw	ra,12(sp)
  135ba0:	df000215 	stw	fp,8(sp)
  135ba4:	df000204 	addi	fp,sp,8
  135ba8:	e13fff15 	stw	r4,-4(fp)
  135bac:	e0bfff17 	ldw	r2,-4(fp)
  135bb0:	10800017 	ldw	r2,0(r2)
  135bb4:	e0bffe15 	stw	r2,-8(fp)
  135bb8:	e0bffe17 	ldw	r2,-8(fp)
  135bbc:	10c00a04 	addi	r3,r2,40
  135bc0:	e0bfff17 	ldw	r2,-4(fp)
  135bc4:	10800217 	ldw	r2,8(r2)
  135bc8:	100b883a 	mov	r5,r2
  135bcc:	1809883a 	mov	r4,r3
  135bd0:	0135f580 	call	135f58 <altera_avalon_uart_close>
  135bd4:	e037883a 	mov	sp,fp
  135bd8:	dfc00117 	ldw	ra,4(sp)
  135bdc:	df000017 	ldw	fp,0(sp)
  135be0:	dec00204 	addi	sp,sp,8
  135be4:	f800283a 	ret

00135be8 <altera_avalon_uart_init>:
  135be8:	defff904 	addi	sp,sp,-28
  135bec:	dfc00615 	stw	ra,24(sp)
  135bf0:	df000515 	stw	fp,20(sp)
  135bf4:	df000504 	addi	fp,sp,20
  135bf8:	e13ffd15 	stw	r4,-12(fp)
  135bfc:	e17ffe15 	stw	r5,-8(fp)
  135c00:	e1bfff15 	stw	r6,-4(fp)
  135c04:	e0bffd17 	ldw	r2,-12(fp)
  135c08:	10800017 	ldw	r2,0(r2)
  135c0c:	e0bffb15 	stw	r2,-20(fp)
  135c10:	0005883a 	mov	r2,zero
  135c14:	1000041e 	bne	r2,zero,135c28 <altera_avalon_uart_init+0x40>
  135c18:	0005883a 	mov	r2,zero
  135c1c:	1000021e 	bne	r2,zero,135c28 <altera_avalon_uart_init+0x40>
  135c20:	0005883a 	mov	r2,zero
  135c24:	10000226 	beq	r2,zero,135c30 <altera_avalon_uart_init+0x48>
  135c28:	00800044 	movi	r2,1
  135c2c:	00000106 	br	135c34 <altera_avalon_uart_init+0x4c>
  135c30:	0005883a 	mov	r2,zero
  135c34:	e0bffc15 	stw	r2,-16(fp)
  135c38:	e0bffc17 	ldw	r2,-16(fp)
  135c3c:	10000d1e 	bne	r2,zero,135c74 <altera_avalon_uart_init+0x8c>
  135c40:	e0bffd17 	ldw	r2,-12(fp)
  135c44:	00c32004 	movi	r3,3200
  135c48:	10c00115 	stw	r3,4(r2)
  135c4c:	e0bffb17 	ldw	r2,-20(fp)
  135c50:	10800304 	addi	r2,r2,12
  135c54:	e0fffd17 	ldw	r3,-12(fp)
  135c58:	18c00117 	ldw	r3,4(r3)
  135c5c:	10c00035 	stwio	r3,0(r2)
  135c60:	018004f4 	movhi	r6,19
  135c64:	31972304 	addi	r6,r6,23692
  135c68:	e17ffd17 	ldw	r5,-12(fp)
  135c6c:	e13fff17 	ldw	r4,-4(fp)
  135c70:	01343c80 	call	1343c8 <alt_irq_register>
  135c74:	0001883a 	nop
  135c78:	e037883a 	mov	sp,fp
  135c7c:	dfc00117 	ldw	ra,4(sp)
  135c80:	df000017 	ldw	fp,0(sp)
  135c84:	dec00204 	addi	sp,sp,8
  135c88:	f800283a 	ret

00135c8c <altera_avalon_uart_irq>:
  135c8c:	defff904 	addi	sp,sp,-28
  135c90:	dfc00615 	stw	ra,24(sp)
  135c94:	df000515 	stw	fp,20(sp)
  135c98:	df000504 	addi	fp,sp,20
  135c9c:	e13ffe15 	stw	r4,-8(fp)
  135ca0:	e17fff15 	stw	r5,-4(fp)
  135ca4:	e0bffe17 	ldw	r2,-8(fp)
  135ca8:	e0bffb15 	stw	r2,-20(fp)
  135cac:	e0bffb17 	ldw	r2,-20(fp)
  135cb0:	10800017 	ldw	r2,0(r2)
  135cb4:	e0bffc15 	stw	r2,-16(fp)
  135cb8:	e0bffc17 	ldw	r2,-16(fp)
  135cbc:	10800204 	addi	r2,r2,8
  135cc0:	10800037 	ldwio	r2,0(r2)
  135cc4:	e0bffd15 	stw	r2,-12(fp)
  135cc8:	e0bffc17 	ldw	r2,-16(fp)
  135ccc:	10800204 	addi	r2,r2,8
  135cd0:	0007883a 	mov	r3,zero
  135cd4:	10c00035 	stwio	r3,0(r2)
  135cd8:	e0bffc17 	ldw	r2,-16(fp)
  135cdc:	10800204 	addi	r2,r2,8
  135ce0:	10800037 	ldwio	r2,0(r2)
  135ce4:	e0bffd17 	ldw	r2,-12(fp)
  135ce8:	1080200c 	andi	r2,r2,128
  135cec:	10000326 	beq	r2,zero,135cfc <altera_avalon_uart_irq+0x70>
  135cf0:	e17ffd17 	ldw	r5,-12(fp)
  135cf4:	e13ffb17 	ldw	r4,-20(fp)
  135cf8:	0135d2c0 	call	135d2c <altera_avalon_uart_rxirq>
  135cfc:	e0bffd17 	ldw	r2,-12(fp)
  135d00:	1081100c 	andi	r2,r2,1088
  135d04:	10000326 	beq	r2,zero,135d14 <altera_avalon_uart_irq+0x88>
  135d08:	e17ffd17 	ldw	r5,-12(fp)
  135d0c:	e13ffb17 	ldw	r4,-20(fp)
  135d10:	0135e100 	call	135e10 <altera_avalon_uart_txirq>
  135d14:	0001883a 	nop
  135d18:	e037883a 	mov	sp,fp
  135d1c:	dfc00117 	ldw	ra,4(sp)
  135d20:	df000017 	ldw	fp,0(sp)
  135d24:	dec00204 	addi	sp,sp,8
  135d28:	f800283a 	ret

00135d2c <altera_avalon_uart_rxirq>:
  135d2c:	defffc04 	addi	sp,sp,-16
  135d30:	df000315 	stw	fp,12(sp)
  135d34:	df000304 	addi	fp,sp,12
  135d38:	e13ffe15 	stw	r4,-8(fp)
  135d3c:	e17fff15 	stw	r5,-4(fp)
  135d40:	e0bfff17 	ldw	r2,-4(fp)
  135d44:	108000cc 	andi	r2,r2,3
  135d48:	10002c1e 	bne	r2,zero,135dfc <altera_avalon_uart_rxirq+0xd0>
  135d4c:	e0bffe17 	ldw	r2,-8(fp)
  135d50:	10800317 	ldw	r2,12(r2)
  135d54:	e0bffe17 	ldw	r2,-8(fp)
  135d58:	10800217 	ldw	r2,8(r2)
  135d5c:	e0bffe17 	ldw	r2,-8(fp)
  135d60:	10800317 	ldw	r2,12(r2)
  135d64:	10800044 	addi	r2,r2,1
  135d68:	10800fcc 	andi	r2,r2,63
  135d6c:	e0bffd15 	stw	r2,-12(fp)
  135d70:	e0bffe17 	ldw	r2,-8(fp)
  135d74:	10800317 	ldw	r2,12(r2)
  135d78:	e0fffe17 	ldw	r3,-8(fp)
  135d7c:	18c00017 	ldw	r3,0(r3)
  135d80:	18c00037 	ldwio	r3,0(r3)
  135d84:	1809883a 	mov	r4,r3
  135d88:	e0fffe17 	ldw	r3,-8(fp)
  135d8c:	1885883a 	add	r2,r3,r2
  135d90:	10800704 	addi	r2,r2,28
  135d94:	11000005 	stb	r4,0(r2)
  135d98:	e0bffe17 	ldw	r2,-8(fp)
  135d9c:	e0fffd17 	ldw	r3,-12(fp)
  135da0:	10c00315 	stw	r3,12(r2)
  135da4:	e0bffe17 	ldw	r2,-8(fp)
  135da8:	10800317 	ldw	r2,12(r2)
  135dac:	10800044 	addi	r2,r2,1
  135db0:	10800fcc 	andi	r2,r2,63
  135db4:	e0bffd15 	stw	r2,-12(fp)
  135db8:	e0bffe17 	ldw	r2,-8(fp)
  135dbc:	10c00217 	ldw	r3,8(r2)
  135dc0:	e0bffd17 	ldw	r2,-12(fp)
  135dc4:	18800e1e 	bne	r3,r2,135e00 <altera_avalon_uart_rxirq+0xd4>
  135dc8:	e0bffe17 	ldw	r2,-8(fp)
  135dcc:	10c00117 	ldw	r3,4(r2)
  135dd0:	00bfdfc4 	movi	r2,-129
  135dd4:	1886703a 	and	r3,r3,r2
  135dd8:	e0bffe17 	ldw	r2,-8(fp)
  135ddc:	10c00115 	stw	r3,4(r2)
  135de0:	e0bffe17 	ldw	r2,-8(fp)
  135de4:	10800017 	ldw	r2,0(r2)
  135de8:	10800304 	addi	r2,r2,12
  135dec:	e0fffe17 	ldw	r3,-8(fp)
  135df0:	18c00117 	ldw	r3,4(r3)
  135df4:	10c00035 	stwio	r3,0(r2)
  135df8:	00000106 	br	135e00 <altera_avalon_uart_rxirq+0xd4>
  135dfc:	0001883a 	nop
  135e00:	e037883a 	mov	sp,fp
  135e04:	df000017 	ldw	fp,0(sp)
  135e08:	dec00104 	addi	sp,sp,4
  135e0c:	f800283a 	ret

00135e10 <altera_avalon_uart_txirq>:
  135e10:	defffb04 	addi	sp,sp,-20
  135e14:	df000415 	stw	fp,16(sp)
  135e18:	df000404 	addi	fp,sp,16
  135e1c:	e13ffc15 	stw	r4,-16(fp)
  135e20:	e17ffd15 	stw	r5,-12(fp)
  135e24:	e0bffc17 	ldw	r2,-16(fp)
  135e28:	10c00417 	ldw	r3,16(r2)
  135e2c:	e0bffc17 	ldw	r2,-16(fp)
  135e30:	10800517 	ldw	r2,20(r2)
  135e34:	18803226 	beq	r3,r2,135f00 <altera_avalon_uart_txirq+0xf0>
  135e38:	e0bffc17 	ldw	r2,-16(fp)
  135e3c:	10800617 	ldw	r2,24(r2)
  135e40:	1080008c 	andi	r2,r2,2
  135e44:	10000326 	beq	r2,zero,135e54 <altera_avalon_uart_txirq+0x44>
  135e48:	e0bffd17 	ldw	r2,-12(fp)
  135e4c:	1082000c 	andi	r2,r2,2048
  135e50:	10001d26 	beq	r2,zero,135ec8 <altera_avalon_uart_txirq+0xb8>
  135e54:	e0bffc17 	ldw	r2,-16(fp)
  135e58:	10800417 	ldw	r2,16(r2)
  135e5c:	e0bffc17 	ldw	r2,-16(fp)
  135e60:	10800517 	ldw	r2,20(r2)
  135e64:	e0bffc17 	ldw	r2,-16(fp)
  135e68:	10800017 	ldw	r2,0(r2)
  135e6c:	10800104 	addi	r2,r2,4
  135e70:	e0fffc17 	ldw	r3,-16(fp)
  135e74:	18c00417 	ldw	r3,16(r3)
  135e78:	e13ffc17 	ldw	r4,-16(fp)
  135e7c:	20c7883a 	add	r3,r4,r3
  135e80:	18c01704 	addi	r3,r3,92
  135e84:	18c00003 	ldbu	r3,0(r3)
  135e88:	18c03fcc 	andi	r3,r3,255
  135e8c:	10c00035 	stwio	r3,0(r2)
  135e90:	e0bffc17 	ldw	r2,-16(fp)
  135e94:	10800417 	ldw	r2,16(r2)
  135e98:	10800044 	addi	r2,r2,1
  135e9c:	e0fffc17 	ldw	r3,-16(fp)
  135ea0:	18800415 	stw	r2,16(r3)
  135ea4:	10c00fcc 	andi	r3,r2,63
  135ea8:	e0bffc17 	ldw	r2,-16(fp)
  135eac:	10c00415 	stw	r3,16(r2)
  135eb0:	e0bffc17 	ldw	r2,-16(fp)
  135eb4:	10800117 	ldw	r2,4(r2)
  135eb8:	10c01014 	ori	r3,r2,64
  135ebc:	e0bffc17 	ldw	r2,-16(fp)
  135ec0:	10c00115 	stw	r3,4(r2)
  135ec4:	00000e06 	br	135f00 <altera_avalon_uart_txirq+0xf0>
  135ec8:	e0bffc17 	ldw	r2,-16(fp)
  135ecc:	10800017 	ldw	r2,0(r2)
  135ed0:	10800204 	addi	r2,r2,8
  135ed4:	10800037 	ldwio	r2,0(r2)
  135ed8:	e0bffd15 	stw	r2,-12(fp)
  135edc:	e0bffd17 	ldw	r2,-12(fp)
  135ee0:	1082000c 	andi	r2,r2,2048
  135ee4:	1000061e 	bne	r2,zero,135f00 <altera_avalon_uart_txirq+0xf0>
  135ee8:	e0bffc17 	ldw	r2,-16(fp)
  135eec:	10c00117 	ldw	r3,4(r2)
  135ef0:	00bfefc4 	movi	r2,-65
  135ef4:	1886703a 	and	r3,r3,r2
  135ef8:	e0bffc17 	ldw	r2,-16(fp)
  135efc:	10c00115 	stw	r3,4(r2)
  135f00:	e0bffc17 	ldw	r2,-16(fp)
  135f04:	10c00417 	ldw	r3,16(r2)
  135f08:	e0bffc17 	ldw	r2,-16(fp)
  135f0c:	10800517 	ldw	r2,20(r2)
  135f10:	1880061e 	bne	r3,r2,135f2c <altera_avalon_uart_txirq+0x11c>
  135f14:	e0bffc17 	ldw	r2,-16(fp)
  135f18:	10c00117 	ldw	r3,4(r2)
  135f1c:	00beefc4 	movi	r2,-1089
  135f20:	1886703a 	and	r3,r3,r2
  135f24:	e0bffc17 	ldw	r2,-16(fp)
  135f28:	10c00115 	stw	r3,4(r2)
  135f2c:	e0bffc17 	ldw	r2,-16(fp)
  135f30:	10800017 	ldw	r2,0(r2)
  135f34:	10800304 	addi	r2,r2,12
  135f38:	e0fffc17 	ldw	r3,-16(fp)
  135f3c:	18c00117 	ldw	r3,4(r3)
  135f40:	10c00035 	stwio	r3,0(r2)
  135f44:	0001883a 	nop
  135f48:	e037883a 	mov	sp,fp
  135f4c:	df000017 	ldw	fp,0(sp)
  135f50:	dec00104 	addi	sp,sp,4
  135f54:	f800283a 	ret

00135f58 <altera_avalon_uart_close>:
  135f58:	defffd04 	addi	sp,sp,-12
  135f5c:	df000215 	stw	fp,8(sp)
  135f60:	df000204 	addi	fp,sp,8
  135f64:	e13ffe15 	stw	r4,-8(fp)
  135f68:	e17fff15 	stw	r5,-4(fp)
  135f6c:	00000506 	br	135f84 <altera_avalon_uart_close+0x2c>
  135f70:	e0bfff17 	ldw	r2,-4(fp)
  135f74:	1090000c 	andi	r2,r2,16384
  135f78:	10000226 	beq	r2,zero,135f84 <altera_avalon_uart_close+0x2c>
  135f7c:	00bffd44 	movi	r2,-11
  135f80:	00000606 	br	135f9c <altera_avalon_uart_close+0x44>
  135f84:	e0bffe17 	ldw	r2,-8(fp)
  135f88:	10c00417 	ldw	r3,16(r2)
  135f8c:	e0bffe17 	ldw	r2,-8(fp)
  135f90:	10800517 	ldw	r2,20(r2)
  135f94:	18bff61e 	bne	r3,r2,135f70 <_gp+0xffff2898>
  135f98:	0005883a 	mov	r2,zero
  135f9c:	e037883a 	mov	sp,fp
  135fa0:	df000017 	ldw	fp,0(sp)
  135fa4:	dec00104 	addi	sp,sp,4
  135fa8:	f800283a 	ret

00135fac <alt_get_errno>:
  135fac:	defffe04 	addi	sp,sp,-8
  135fb0:	dfc00115 	stw	ra,4(sp)
  135fb4:	df000015 	stw	fp,0(sp)
  135fb8:	d839883a 	mov	fp,sp
  135fbc:	d0a00e17 	ldw	r2,-32712(gp)
  135fc0:	10000326 	beq	r2,zero,135fd0 <alt_get_errno+0x24>
  135fc4:	d0a00e17 	ldw	r2,-32712(gp)
  135fc8:	103ee83a 	callr	r2
  135fcc:	00000106 	br	135fd4 <alt_get_errno+0x28>
  135fd0:	d0a75804 	addi	r2,gp,-25248
  135fd4:	e037883a 	mov	sp,fp
  135fd8:	dfc00117 	ldw	ra,4(sp)
  135fdc:	df000017 	ldw	fp,0(sp)
  135fe0:	dec00204 	addi	sp,sp,8
  135fe4:	f800283a 	ret

00135fe8 <altera_avalon_uart_read>:
  135fe8:	defff204 	addi	sp,sp,-56
  135fec:	dfc00d15 	stw	ra,52(sp)
  135ff0:	df000c15 	stw	fp,48(sp)
  135ff4:	df000c04 	addi	fp,sp,48
  135ff8:	e13ffc15 	stw	r4,-16(fp)
  135ffc:	e17ffd15 	stw	r5,-12(fp)
  136000:	e1bffe15 	stw	r6,-8(fp)
  136004:	e1ffff15 	stw	r7,-4(fp)
  136008:	e03ff405 	stb	zero,-48(fp)
  13600c:	e03ff515 	stw	zero,-44(fp)
  136010:	e0bfff17 	ldw	r2,-4(fp)
  136014:	1090000c 	andi	r2,r2,16384
  136018:	1005003a 	cmpeq	r2,r2,zero
  13601c:	10803fcc 	andi	r2,r2,255
  136020:	e0bff615 	stw	r2,-40(fp)
  136024:	00001306 	br	136074 <altera_avalon_uart_read+0x8c>
  136028:	e0bff517 	ldw	r2,-44(fp)
  13602c:	10800044 	addi	r2,r2,1
  136030:	e0bff515 	stw	r2,-44(fp)
  136034:	e0bffd17 	ldw	r2,-12(fp)
  136038:	10c00044 	addi	r3,r2,1
  13603c:	e0fffd15 	stw	r3,-12(fp)
  136040:	e0fffc17 	ldw	r3,-16(fp)
  136044:	18c00217 	ldw	r3,8(r3)
  136048:	e13ffc17 	ldw	r4,-16(fp)
  13604c:	20c7883a 	add	r3,r4,r3
  136050:	18c00704 	addi	r3,r3,28
  136054:	18c00003 	ldbu	r3,0(r3)
  136058:	10c00005 	stb	r3,0(r2)
  13605c:	e0bffc17 	ldw	r2,-16(fp)
  136060:	10800217 	ldw	r2,8(r2)
  136064:	10800044 	addi	r2,r2,1
  136068:	10c00fcc 	andi	r3,r2,63
  13606c:	e0bffc17 	ldw	r2,-16(fp)
  136070:	10c00215 	stw	r3,8(r2)
  136074:	e0fff517 	ldw	r3,-44(fp)
  136078:	e0bffe17 	ldw	r2,-8(fp)
  13607c:	1880050e 	bge	r3,r2,136094 <altera_avalon_uart_read+0xac>
  136080:	e0bffc17 	ldw	r2,-16(fp)
  136084:	10c00217 	ldw	r3,8(r2)
  136088:	e0bffc17 	ldw	r2,-16(fp)
  13608c:	10800317 	ldw	r2,12(r2)
  136090:	18bfe51e 	bne	r3,r2,136028 <_gp+0xffff2950>
  136094:	e0bff517 	ldw	r2,-44(fp)
  136098:	1000251e 	bne	r2,zero,136130 <altera_avalon_uart_read+0x148>
  13609c:	e0bffc17 	ldw	r2,-16(fp)
  1360a0:	10c00217 	ldw	r3,8(r2)
  1360a4:	e0bffc17 	ldw	r2,-16(fp)
  1360a8:	10800317 	ldw	r2,12(r2)
  1360ac:	1880201e 	bne	r3,r2,136130 <altera_avalon_uart_read+0x148>
  1360b0:	e0bff617 	ldw	r2,-40(fp)
  1360b4:	1000071e 	bne	r2,zero,1360d4 <altera_avalon_uart_read+0xec>
  1360b8:	0135fac0 	call	135fac <alt_get_errno>
  1360bc:	1007883a 	mov	r3,r2
  1360c0:	008002c4 	movi	r2,11
  1360c4:	18800015 	stw	r2,0(r3)
  1360c8:	00800044 	movi	r2,1
  1360cc:	e0bff405 	stb	r2,-48(fp)
  1360d0:	00001b06 	br	136140 <altera_avalon_uart_read+0x158>
  1360d4:	0005303a 	rdctl	r2,status
  1360d8:	e0bff915 	stw	r2,-28(fp)
  1360dc:	e0fff917 	ldw	r3,-28(fp)
  1360e0:	00bfff84 	movi	r2,-2
  1360e4:	1884703a 	and	r2,r3,r2
  1360e8:	1001703a 	wrctl	status,r2
  1360ec:	e0bff917 	ldw	r2,-28(fp)
  1360f0:	e0bff815 	stw	r2,-32(fp)
  1360f4:	e0bffc17 	ldw	r2,-16(fp)
  1360f8:	10800117 	ldw	r2,4(r2)
  1360fc:	10c02014 	ori	r3,r2,128
  136100:	e0bffc17 	ldw	r2,-16(fp)
  136104:	10c00115 	stw	r3,4(r2)
  136108:	e0bffc17 	ldw	r2,-16(fp)
  13610c:	10800017 	ldw	r2,0(r2)
  136110:	10800304 	addi	r2,r2,12
  136114:	e0fffc17 	ldw	r3,-16(fp)
  136118:	18c00117 	ldw	r3,4(r3)
  13611c:	10c00035 	stwio	r3,0(r2)
  136120:	e0bff817 	ldw	r2,-32(fp)
  136124:	e0bffa15 	stw	r2,-24(fp)
  136128:	e0bffa17 	ldw	r2,-24(fp)
  13612c:	1001703a 	wrctl	status,r2
  136130:	e0bff517 	ldw	r2,-44(fp)
  136134:	1000021e 	bne	r2,zero,136140 <altera_avalon_uart_read+0x158>
  136138:	e0bffe17 	ldw	r2,-8(fp)
  13613c:	103fcd1e 	bne	r2,zero,136074 <_gp+0xffff299c>
  136140:	0005303a 	rdctl	r2,status
  136144:	e0bffb15 	stw	r2,-20(fp)
  136148:	e0fffb17 	ldw	r3,-20(fp)
  13614c:	00bfff84 	movi	r2,-2
  136150:	1884703a 	and	r2,r3,r2
  136154:	1001703a 	wrctl	status,r2
  136158:	e0bffb17 	ldw	r2,-20(fp)
  13615c:	e0bff815 	stw	r2,-32(fp)
  136160:	e0bffc17 	ldw	r2,-16(fp)
  136164:	10800117 	ldw	r2,4(r2)
  136168:	10c02014 	ori	r3,r2,128
  13616c:	e0bffc17 	ldw	r2,-16(fp)
  136170:	10c00115 	stw	r3,4(r2)
  136174:	e0bffc17 	ldw	r2,-16(fp)
  136178:	10800017 	ldw	r2,0(r2)
  13617c:	10800304 	addi	r2,r2,12
  136180:	e0fffc17 	ldw	r3,-16(fp)
  136184:	18c00117 	ldw	r3,4(r3)
  136188:	10c00035 	stwio	r3,0(r2)
  13618c:	e0bff817 	ldw	r2,-32(fp)
  136190:	e0bff715 	stw	r2,-36(fp)
  136194:	e0bff717 	ldw	r2,-36(fp)
  136198:	1001703a 	wrctl	status,r2
  13619c:	e0bff403 	ldbu	r2,-48(fp)
  1361a0:	10000226 	beq	r2,zero,1361ac <altera_avalon_uart_read+0x1c4>
  1361a4:	00bffd44 	movi	r2,-11
  1361a8:	00000106 	br	1361b0 <altera_avalon_uart_read+0x1c8>
  1361ac:	e0bff517 	ldw	r2,-44(fp)
  1361b0:	e037883a 	mov	sp,fp
  1361b4:	dfc00117 	ldw	ra,4(sp)
  1361b8:	df000017 	ldw	fp,0(sp)
  1361bc:	dec00204 	addi	sp,sp,8
  1361c0:	f800283a 	ret

001361c4 <alt_get_errno>:
  1361c4:	defffe04 	addi	sp,sp,-8
  1361c8:	dfc00115 	stw	ra,4(sp)
  1361cc:	df000015 	stw	fp,0(sp)
  1361d0:	d839883a 	mov	fp,sp
  1361d4:	d0a00e17 	ldw	r2,-32712(gp)
  1361d8:	10000326 	beq	r2,zero,1361e8 <alt_get_errno+0x24>
  1361dc:	d0a00e17 	ldw	r2,-32712(gp)
  1361e0:	103ee83a 	callr	r2
  1361e4:	00000106 	br	1361ec <alt_get_errno+0x28>
  1361e8:	d0a75804 	addi	r2,gp,-25248
  1361ec:	e037883a 	mov	sp,fp
  1361f0:	dfc00117 	ldw	ra,4(sp)
  1361f4:	df000017 	ldw	fp,0(sp)
  1361f8:	dec00204 	addi	sp,sp,8
  1361fc:	f800283a 	ret

00136200 <altera_avalon_uart_write>:
  136200:	defff204 	addi	sp,sp,-56
  136204:	dfc00d15 	stw	ra,52(sp)
  136208:	df000c15 	stw	fp,48(sp)
  13620c:	df000c04 	addi	fp,sp,48
  136210:	e13ffc15 	stw	r4,-16(fp)
  136214:	e17ffd15 	stw	r5,-12(fp)
  136218:	e1bffe15 	stw	r6,-8(fp)
  13621c:	e1ffff15 	stw	r7,-4(fp)
  136220:	e0bffe17 	ldw	r2,-8(fp)
  136224:	e0bff415 	stw	r2,-48(fp)
  136228:	e0bfff17 	ldw	r2,-4(fp)
  13622c:	1090000c 	andi	r2,r2,16384
  136230:	e0bff515 	stw	r2,-44(fp)
  136234:	00003c06 	br	136328 <altera_avalon_uart_write+0x128>
  136238:	e0bffc17 	ldw	r2,-16(fp)
  13623c:	10800517 	ldw	r2,20(r2)
  136240:	10800044 	addi	r2,r2,1
  136244:	10800fcc 	andi	r2,r2,63
  136248:	e0bff715 	stw	r2,-36(fp)
  13624c:	e0bffc17 	ldw	r2,-16(fp)
  136250:	10c00417 	ldw	r3,16(r2)
  136254:	e0bff717 	ldw	r2,-36(fp)
  136258:	1880221e 	bne	r3,r2,1362e4 <altera_avalon_uart_write+0xe4>
  13625c:	e0bff517 	ldw	r2,-44(fp)
  136260:	10000526 	beq	r2,zero,136278 <altera_avalon_uart_write+0x78>
  136264:	01361c40 	call	1361c4 <alt_get_errno>
  136268:	1007883a 	mov	r3,r2
  13626c:	008002c4 	movi	r2,11
  136270:	18800015 	stw	r2,0(r3)
  136274:	00002e06 	br	136330 <altera_avalon_uart_write+0x130>
  136278:	0005303a 	rdctl	r2,status
  13627c:	e0bff915 	stw	r2,-28(fp)
  136280:	e0fff917 	ldw	r3,-28(fp)
  136284:	00bfff84 	movi	r2,-2
  136288:	1884703a 	and	r2,r3,r2
  13628c:	1001703a 	wrctl	status,r2
  136290:	e0bff917 	ldw	r2,-28(fp)
  136294:	e0bff815 	stw	r2,-32(fp)
  136298:	e0bffc17 	ldw	r2,-16(fp)
  13629c:	10800117 	ldw	r2,4(r2)
  1362a0:	10c11014 	ori	r3,r2,1088
  1362a4:	e0bffc17 	ldw	r2,-16(fp)
  1362a8:	10c00115 	stw	r3,4(r2)
  1362ac:	e0bffc17 	ldw	r2,-16(fp)
  1362b0:	10800017 	ldw	r2,0(r2)
  1362b4:	10800304 	addi	r2,r2,12
  1362b8:	e0fffc17 	ldw	r3,-16(fp)
  1362bc:	18c00117 	ldw	r3,4(r3)
  1362c0:	10c00035 	stwio	r3,0(r2)
  1362c4:	e0bff817 	ldw	r2,-32(fp)
  1362c8:	e0bff615 	stw	r2,-40(fp)
  1362cc:	e0bff617 	ldw	r2,-40(fp)
  1362d0:	1001703a 	wrctl	status,r2
  1362d4:	e0bffc17 	ldw	r2,-16(fp)
  1362d8:	10c00417 	ldw	r3,16(r2)
  1362dc:	e0bff717 	ldw	r2,-36(fp)
  1362e0:	18bffc26 	beq	r3,r2,1362d4 <_gp+0xffff2bfc>
  1362e4:	e0bff417 	ldw	r2,-48(fp)
  1362e8:	10bfffc4 	addi	r2,r2,-1
  1362ec:	e0bff415 	stw	r2,-48(fp)
  1362f0:	e0bffc17 	ldw	r2,-16(fp)
  1362f4:	10c00517 	ldw	r3,20(r2)
  1362f8:	e0bffd17 	ldw	r2,-12(fp)
  1362fc:	11000044 	addi	r4,r2,1
  136300:	e13ffd15 	stw	r4,-12(fp)
  136304:	10800003 	ldbu	r2,0(r2)
  136308:	1009883a 	mov	r4,r2
  13630c:	e0bffc17 	ldw	r2,-16(fp)
  136310:	10c5883a 	add	r2,r2,r3
  136314:	10801704 	addi	r2,r2,92
  136318:	11000005 	stb	r4,0(r2)
  13631c:	e0bffc17 	ldw	r2,-16(fp)
  136320:	e0fff717 	ldw	r3,-36(fp)
  136324:	10c00515 	stw	r3,20(r2)
  136328:	e0bff417 	ldw	r2,-48(fp)
  13632c:	103fc21e 	bne	r2,zero,136238 <_gp+0xffff2b60>
  136330:	0005303a 	rdctl	r2,status
  136334:	e0bffb15 	stw	r2,-20(fp)
  136338:	e0fffb17 	ldw	r3,-20(fp)
  13633c:	00bfff84 	movi	r2,-2
  136340:	1884703a 	and	r2,r3,r2
  136344:	1001703a 	wrctl	status,r2
  136348:	e0bffb17 	ldw	r2,-20(fp)
  13634c:	e0bff815 	stw	r2,-32(fp)
  136350:	e0bffc17 	ldw	r2,-16(fp)
  136354:	10800117 	ldw	r2,4(r2)
  136358:	10c11014 	ori	r3,r2,1088
  13635c:	e0bffc17 	ldw	r2,-16(fp)
  136360:	10c00115 	stw	r3,4(r2)
  136364:	e0bffc17 	ldw	r2,-16(fp)
  136368:	10800017 	ldw	r2,0(r2)
  13636c:	10800304 	addi	r2,r2,12
  136370:	e0fffc17 	ldw	r3,-16(fp)
  136374:	18c00117 	ldw	r3,4(r3)
  136378:	10c00035 	stwio	r3,0(r2)
  13637c:	e0bff817 	ldw	r2,-32(fp)
  136380:	e0bffa15 	stw	r2,-24(fp)
  136384:	e0bffa17 	ldw	r2,-24(fp)
  136388:	1001703a 	wrctl	status,r2
  13638c:	e0fffe17 	ldw	r3,-8(fp)
  136390:	e0bff417 	ldw	r2,-48(fp)
  136394:	1885c83a 	sub	r2,r3,r2
  136398:	e037883a 	mov	sp,fp
  13639c:	dfc00117 	ldw	ra,4(sp)
  1363a0:	df000017 	ldw	fp,0(sp)
  1363a4:	dec00204 	addi	sp,sp,8
  1363a8:	f800283a 	ret

001363ac <alt_flash_device_register>:
  1363ac:	defffd04 	addi	sp,sp,-12
  1363b0:	dfc00215 	stw	ra,8(sp)
  1363b4:	df000115 	stw	fp,4(sp)
  1363b8:	df000104 	addi	fp,sp,4
  1363bc:	e13fff15 	stw	r4,-4(fp)
  1363c0:	d1601304 	addi	r5,gp,-32692
  1363c4:	e13fff17 	ldw	r4,-4(fp)
  1363c8:	01379a40 	call	1379a4 <alt_dev_llist_insert>
  1363cc:	e037883a 	mov	sp,fp
  1363d0:	dfc00117 	ldw	ra,4(sp)
  1363d4:	df000017 	ldw	fp,0(sp)
  1363d8:	dec00204 	addi	sp,sp,8
  1363dc:	f800283a 	ret

001363e0 <alt_onchip_flash_read>:
  1363e0:	defff704 	addi	sp,sp,-36
  1363e4:	dfc00815 	stw	ra,32(sp)
  1363e8:	df000715 	stw	fp,28(sp)
  1363ec:	df000704 	addi	fp,sp,28
  1363f0:	e13ffc15 	stw	r4,-16(fp)
  1363f4:	e17ffd15 	stw	r5,-12(fp)
  1363f8:	e1bffe15 	stw	r6,-8(fp)
  1363fc:	e1ffff15 	stw	r7,-4(fp)
  136400:	e03ff915 	stw	zero,-28(fp)
  136404:	e0bffc17 	ldw	r2,-16(fp)
  136408:	e0bffa15 	stw	r2,-24(fp)
  13640c:	e0bffa17 	ldw	r2,-24(fp)
  136410:	10800b17 	ldw	r2,44(r2)
  136414:	e0fffd17 	ldw	r3,-12(fp)
  136418:	1880060e 	bge	r3,r2,136434 <alt_onchip_flash_read+0x54>
  13641c:	e0fffd17 	ldw	r3,-12(fp)
  136420:	e0bfff17 	ldw	r2,-4(fp)
  136424:	1885883a 	add	r2,r3,r2
  136428:	e0fffa17 	ldw	r3,-24(fp)
  13642c:	18c00b17 	ldw	r3,44(r3)
  136430:	1880020e 	bge	r3,r2,13643c <alt_onchip_flash_read+0x5c>
  136434:	00bffc84 	movi	r2,-14
  136438:	00001706 	br	136498 <alt_onchip_flash_read+0xb8>
  13643c:	e0bffa17 	ldw	r2,-24(fp)
  136440:	10c00a17 	ldw	r3,40(r2)
  136444:	e0bffd17 	ldw	r2,-12(fp)
  136448:	1885883a 	add	r2,r3,r2
  13644c:	e0ffff17 	ldw	r3,-4(fp)
  136450:	180d883a 	mov	r6,r3
  136454:	100b883a 	mov	r5,r2
  136458:	e13ffe17 	ldw	r4,-8(fp)
  13645c:	01213900 	call	121390 <memcpy>
  136460:	e0bffa17 	ldw	r2,-24(fp)
  136464:	10802f17 	ldw	r2,188(r2)
  136468:	10000a26 	beq	r2,zero,136494 <alt_onchip_flash_read+0xb4>
  13646c:	e0bffa17 	ldw	r2,-24(fp)
  136470:	10802f17 	ldw	r2,188(r2)
  136474:	10800037 	ldwio	r2,0(r2)
  136478:	1080010c 	andi	r2,r2,4
  13647c:	e0bffb15 	stw	r2,-20(fp)
  136480:	e0bffb17 	ldw	r2,-20(fp)
  136484:	10800120 	cmpeqi	r2,r2,4
  136488:	1000021e 	bne	r2,zero,136494 <alt_onchip_flash_read+0xb4>
  13648c:	00bffec4 	movi	r2,-5
  136490:	e0bff915 	stw	r2,-28(fp)
  136494:	e0bff917 	ldw	r2,-28(fp)
  136498:	e037883a 	mov	sp,fp
  13649c:	dfc00117 	ldw	ra,4(sp)
  1364a0:	df000017 	ldw	fp,0(sp)
  1364a4:	dec00204 	addi	sp,sp,8
  1364a8:	f800283a 	ret

001364ac <alt_onchip_flash_get_info>:
  1364ac:	defffa04 	addi	sp,sp,-24
  1364b0:	df000515 	stw	fp,20(sp)
  1364b4:	df000504 	addi	fp,sp,20
  1364b8:	e13ffd15 	stw	r4,-12(fp)
  1364bc:	e17ffe15 	stw	r5,-8(fp)
  1364c0:	e1bfff15 	stw	r6,-4(fp)
  1364c4:	e03ffb15 	stw	zero,-20(fp)
  1364c8:	e0bffd17 	ldw	r2,-12(fp)
  1364cc:	e0bffc15 	stw	r2,-16(fp)
  1364d0:	e0bfff17 	ldw	r2,-4(fp)
  1364d4:	10000426 	beq	r2,zero,1364e8 <alt_onchip_flash_get_info+0x3c>
  1364d8:	e0bffc17 	ldw	r2,-16(fp)
  1364dc:	10c00c17 	ldw	r3,48(r2)
  1364e0:	e0bfff17 	ldw	r2,-4(fp)
  1364e4:	10c00015 	stw	r3,0(r2)
  1364e8:	e0bffc17 	ldw	r2,-16(fp)
  1364ec:	10800c17 	ldw	r2,48(r2)
  1364f0:	1000031e 	bne	r2,zero,136500 <alt_onchip_flash_get_info+0x54>
  1364f4:	00bffd04 	movi	r2,-12
  1364f8:	e0bffb15 	stw	r2,-20(fp)
  1364fc:	00000d06 	br	136534 <alt_onchip_flash_get_info+0x88>
  136500:	e0bffc17 	ldw	r2,-16(fp)
  136504:	10800c17 	ldw	r2,48(r2)
  136508:	10800250 	cmplti	r2,r2,9
  13650c:	1000031e 	bne	r2,zero,13651c <alt_onchip_flash_get_info+0x70>
  136510:	00bffc84 	movi	r2,-14
  136514:	e0bffb15 	stw	r2,-20(fp)
  136518:	00000606 	br	136534 <alt_onchip_flash_get_info+0x88>
  13651c:	e0bffe17 	ldw	r2,-8(fp)
  136520:	10000426 	beq	r2,zero,136534 <alt_onchip_flash_get_info+0x88>
  136524:	e0bffc17 	ldw	r2,-16(fp)
  136528:	10c00d04 	addi	r3,r2,52
  13652c:	e0bffe17 	ldw	r2,-8(fp)
  136530:	10c00015 	stw	r3,0(r2)
  136534:	e0bffb17 	ldw	r2,-20(fp)
  136538:	e037883a 	mov	sp,fp
  13653c:	df000017 	ldw	fp,0(sp)
  136540:	dec00104 	addi	sp,sp,4
  136544:	f800283a 	ret

00136548 <alt_onchip_flash_erase_block>:
  136548:	defff904 	addi	sp,sp,-28
  13654c:	dfc00615 	stw	ra,24(sp)
  136550:	df000515 	stw	fp,20(sp)
  136554:	df000504 	addi	fp,sp,20
  136558:	e13ffe15 	stw	r4,-8(fp)
  13655c:	e17fff15 	stw	r5,-4(fp)
  136560:	e03ffb15 	stw	zero,-20(fp)
  136564:	e0bffe17 	ldw	r2,-8(fp)
  136568:	e0bffc15 	stw	r2,-16(fp)
  13656c:	e0bffc17 	ldw	r2,-16(fp)
  136570:	10800b17 	ldw	r2,44(r2)
  136574:	e0ffff17 	ldw	r3,-4(fp)
  136578:	18800216 	blt	r3,r2,136584 <alt_onchip_flash_erase_block+0x3c>
  13657c:	00bffc84 	movi	r2,-14
  136580:	00004606 	br	13669c <alt_onchip_flash_erase_block+0x154>
  136584:	e0bffc17 	ldw	r2,-16(fp)
  136588:	10802f17 	ldw	r2,188(r2)
  13658c:	10000326 	beq	r2,zero,13659c <alt_onchip_flash_erase_block+0x54>
  136590:	e0bffc17 	ldw	r2,-16(fp)
  136594:	10802e17 	ldw	r2,184(r2)
  136598:	10000226 	beq	r2,zero,1365a4 <alt_onchip_flash_erase_block+0x5c>
  13659c:	00bffb44 	movi	r2,-19
  1365a0:	00003e06 	br	13669c <alt_onchip_flash_erase_block+0x154>
  1365a4:	e0bffc17 	ldw	r2,-16(fp)
  1365a8:	10803f17 	ldw	r2,252(r2)
  1365ac:	10ffffc4 	addi	r3,r2,-1
  1365b0:	e0bfff17 	ldw	r2,-4(fp)
  1365b4:	1884703a 	and	r2,r3,r2
  1365b8:	10000226 	beq	r2,zero,1365c4 <alt_onchip_flash_erase_block+0x7c>
  1365bc:	00bffa84 	movi	r2,-22
  1365c0:	00003606 	br	13669c <alt_onchip_flash_erase_block+0x154>
  1365c4:	e13ffc17 	ldw	r4,-16(fp)
  1365c8:	013713c0 	call	13713c <alt_onchip_flash_poll_for_status_to_go_idle>
  1365cc:	e0bffb15 	stw	r2,-20(fp)
  1365d0:	e0bffb17 	ldw	r2,-20(fp)
  1365d4:	10000226 	beq	r2,zero,1365e0 <alt_onchip_flash_erase_block+0x98>
  1365d8:	e0bffb17 	ldw	r2,-20(fp)
  1365dc:	00002f06 	br	13669c <alt_onchip_flash_erase_block+0x154>
  1365e0:	e0bffc17 	ldw	r2,-16(fp)
  1365e4:	10802f17 	ldw	r2,188(r2)
  1365e8:	10c00104 	addi	r3,r2,4
  1365ec:	e0bffc17 	ldw	r2,-16(fp)
  1365f0:	10802f17 	ldw	r2,188(r2)
  1365f4:	10800104 	addi	r2,r2,4
  1365f8:	10800037 	ldwio	r2,0(r2)
  1365fc:	113c002c 	andhi	r4,r2,61440
  136600:	00802034 	movhi	r2,128
  136604:	10bfffc4 	addi	r2,r2,-1
  136608:	2084b03a 	or	r2,r4,r2
  13660c:	18800035 	stwio	r2,0(r3)
  136610:	e0bfff17 	ldw	r2,-4(fp)
  136614:	1000010e 	bge	r2,zero,13661c <alt_onchip_flash_erase_block+0xd4>
  136618:	108000c4 	addi	r2,r2,3
  13661c:	1005d0ba 	srai	r2,r2,2
  136620:	e0bffd15 	stw	r2,-12(fp)
  136624:	e0bffc17 	ldw	r2,-16(fp)
  136628:	10802f17 	ldw	r2,188(r2)
  13662c:	10800104 	addi	r2,r2,4
  136630:	e0fffc17 	ldw	r3,-16(fp)
  136634:	18c02f17 	ldw	r3,188(r3)
  136638:	18c00104 	addi	r3,r3,4
  13663c:	18c00037 	ldwio	r3,0(r3)
  136640:	193c002c 	andhi	r4,r3,61440
  136644:	e0fffd17 	ldw	r3,-12(fp)
  136648:	18c01c34 	orhi	r3,r3,112
  13664c:	20c6b03a 	or	r3,r4,r3
  136650:	10c00035 	stwio	r3,0(r2)
  136654:	e13ffc17 	ldw	r4,-16(fp)
  136658:	013713c0 	call	13713c <alt_onchip_flash_poll_for_status_to_go_idle>
  13665c:	e0bffb15 	stw	r2,-20(fp)
  136660:	e13ffc17 	ldw	r4,-16(fp)
  136664:	01371cc0 	call	1371cc <alt_onchip_flash_poll_for_status_erase_passed>
  136668:	e0bffb15 	stw	r2,-20(fp)
  13666c:	e0bffc17 	ldw	r2,-16(fp)
  136670:	10802f17 	ldw	r2,188(r2)
  136674:	10c00104 	addi	r3,r2,4
  136678:	e0bffc17 	ldw	r2,-16(fp)
  13667c:	10802f17 	ldw	r2,188(r2)
  136680:	10800104 	addi	r2,r2,4
  136684:	11000037 	ldwio	r4,0(r2)
  136688:	00840034 	movhi	r2,4096
  13668c:	10bfffc4 	addi	r2,r2,-1
  136690:	2084b03a 	or	r2,r4,r2
  136694:	18800035 	stwio	r2,0(r3)
  136698:	e0bffb17 	ldw	r2,-20(fp)
  13669c:	e037883a 	mov	sp,fp
  1366a0:	dfc00117 	ldw	ra,4(sp)
  1366a4:	df000017 	ldw	fp,0(sp)
  1366a8:	dec00204 	addi	sp,sp,8
  1366ac:	f800283a 	ret

001366b0 <alt_onchip_flash_write_block>:
  1366b0:	defff204 	addi	sp,sp,-56
  1366b4:	dfc00d15 	stw	ra,52(sp)
  1366b8:	df000c15 	stw	fp,48(sp)
  1366bc:	df000c04 	addi	fp,sp,48
  1366c0:	e13ffc15 	stw	r4,-16(fp)
  1366c4:	e17ffd15 	stw	r5,-12(fp)
  1366c8:	e1bffe15 	stw	r6,-8(fp)
  1366cc:	e1ffff15 	stw	r7,-4(fp)
  1366d0:	e03ff415 	stw	zero,-48(fp)
  1366d4:	e0bffc17 	ldw	r2,-16(fp)
  1366d8:	e0bff815 	stw	r2,-32(fp)
  1366dc:	e03ff515 	stw	zero,-44(fp)
  1366e0:	e0bffe17 	ldw	r2,-8(fp)
  1366e4:	e0bff615 	stw	r2,-40(fp)
  1366e8:	e0bff817 	ldw	r2,-32(fp)
  1366ec:	10800b17 	ldw	r2,44(r2)
  1366f0:	e0fffd17 	ldw	r3,-12(fp)
  1366f4:	18800a0e 	bge	r3,r2,136720 <alt_onchip_flash_write_block+0x70>
  1366f8:	e0bff817 	ldw	r2,-32(fp)
  1366fc:	10800b17 	ldw	r2,44(r2)
  136700:	e0fffe17 	ldw	r3,-8(fp)
  136704:	1880060e 	bge	r3,r2,136720 <alt_onchip_flash_write_block+0x70>
  136708:	e0bff817 	ldw	r2,-32(fp)
  13670c:	10c00b17 	ldw	r3,44(r2)
  136710:	e0bffe17 	ldw	r2,-8(fp)
  136714:	1887c83a 	sub	r3,r3,r2
  136718:	e0800217 	ldw	r2,8(fp)
  13671c:	1880020e 	bge	r3,r2,136728 <alt_onchip_flash_write_block+0x78>
  136720:	00bffc84 	movi	r2,-14
  136724:	00009306 	br	136974 <alt_onchip_flash_write_block+0x2c4>
  136728:	e0bff817 	ldw	r2,-32(fp)
  13672c:	10802f17 	ldw	r2,188(r2)
  136730:	10000326 	beq	r2,zero,136740 <alt_onchip_flash_write_block+0x90>
  136734:	e0bff817 	ldw	r2,-32(fp)
  136738:	10802e17 	ldw	r2,184(r2)
  13673c:	10000226 	beq	r2,zero,136748 <alt_onchip_flash_write_block+0x98>
  136740:	00bffb44 	movi	r2,-19
  136744:	00008b06 	br	136974 <alt_onchip_flash_write_block+0x2c4>
  136748:	e13ff817 	ldw	r4,-32(fp)
  13674c:	013713c0 	call	13713c <alt_onchip_flash_poll_for_status_to_go_idle>
  136750:	e0bff415 	stw	r2,-48(fp)
  136754:	e0bff417 	ldw	r2,-48(fp)
  136758:	10000226 	beq	r2,zero,136764 <alt_onchip_flash_write_block+0xb4>
  13675c:	e0bff417 	ldw	r2,-48(fp)
  136760:	00008406 	br	136974 <alt_onchip_flash_write_block+0x2c4>
  136764:	e0bff817 	ldw	r2,-32(fp)
  136768:	10802f17 	ldw	r2,188(r2)
  13676c:	10c00104 	addi	r3,r2,4
  136770:	e0bff817 	ldw	r2,-32(fp)
  136774:	10802f17 	ldw	r2,188(r2)
  136778:	10800104 	addi	r2,r2,4
  13677c:	10800037 	ldwio	r2,0(r2)
  136780:	113c002c 	andhi	r4,r2,61440
  136784:	00802034 	movhi	r2,128
  136788:	10bfffc4 	addi	r2,r2,-1
  13678c:	2084b03a 	or	r2,r4,r2
  136790:	18800035 	stwio	r2,0(r3)
  136794:	00006506 	br	13692c <alt_onchip_flash_write_block+0x27c>
  136798:	00bfffc4 	movi	r2,-1
  13679c:	e0bffb15 	stw	r2,-20(fp)
  1367a0:	e0bff617 	ldw	r2,-40(fp)
  1367a4:	108000cc 	andi	r2,r2,3
  1367a8:	10001e1e 	bne	r2,zero,136824 <alt_onchip_flash_write_block+0x174>
  1367ac:	e0bff617 	ldw	r2,-40(fp)
  1367b0:	10c00104 	addi	r3,r2,4
  1367b4:	00bfff04 	movi	r2,-4
  1367b8:	1884703a 	and	r2,r3,r2
  1367bc:	e0bff715 	stw	r2,-36(fp)
  1367c0:	e0fff717 	ldw	r3,-36(fp)
  1367c4:	e0bff617 	ldw	r2,-40(fp)
  1367c8:	1885c83a 	sub	r2,r3,r2
  1367cc:	e0c00217 	ldw	r3,8(fp)
  1367d0:	1880010e 	bge	r3,r2,1367d8 <alt_onchip_flash_write_block+0x128>
  1367d4:	1805883a 	mov	r2,r3
  1367d8:	e0bff915 	stw	r2,-28(fp)
  1367dc:	e0bff517 	ldw	r2,-44(fp)
  1367e0:	e0ffff17 	ldw	r3,-4(fp)
  1367e4:	1887883a 	add	r3,r3,r2
  1367e8:	e13ff917 	ldw	r4,-28(fp)
  1367ec:	e0bffb04 	addi	r2,fp,-20
  1367f0:	200d883a 	mov	r6,r4
  1367f4:	180b883a 	mov	r5,r3
  1367f8:	1009883a 	mov	r4,r2
  1367fc:	01213900 	call	121390 <memcpy>
  136800:	e0fff517 	ldw	r3,-44(fp)
  136804:	e0bff917 	ldw	r2,-28(fp)
  136808:	1885883a 	add	r2,r3,r2
  13680c:	e0bff515 	stw	r2,-44(fp)
  136810:	e0c00217 	ldw	r3,8(fp)
  136814:	e0bff917 	ldw	r2,-28(fp)
  136818:	1885c83a 	sub	r2,r3,r2
  13681c:	e0800215 	stw	r2,8(fp)
  136820:	00003006 	br	1368e4 <alt_onchip_flash_write_block+0x234>
  136824:	e0bff617 	ldw	r2,-40(fp)
  136828:	108000cc 	andi	r2,r2,3
  13682c:	e0bffa15 	stw	r2,-24(fp)
  136830:	e0fff617 	ldw	r3,-40(fp)
  136834:	e0bffa17 	ldw	r2,-24(fp)
  136838:	1885c83a 	sub	r2,r3,r2
  13683c:	e0bff615 	stw	r2,-40(fp)
  136840:	e0bff617 	ldw	r2,-40(fp)
  136844:	10c00104 	addi	r3,r2,4
  136848:	00bfff04 	movi	r2,-4
  13684c:	1884703a 	and	r2,r3,r2
  136850:	e0bff715 	stw	r2,-36(fp)
  136854:	e0fff717 	ldw	r3,-36(fp)
  136858:	e0bff617 	ldw	r2,-40(fp)
  13685c:	1889c83a 	sub	r4,r3,r2
  136860:	e0c00217 	ldw	r3,8(fp)
  136864:	e0bffa17 	ldw	r2,-24(fp)
  136868:	1887883a 	add	r3,r3,r2
  13686c:	2005883a 	mov	r2,r4
  136870:	1880010e 	bge	r3,r2,136878 <alt_onchip_flash_write_block+0x1c8>
  136874:	1805883a 	mov	r2,r3
  136878:	e0bff915 	stw	r2,-28(fp)
  13687c:	e0fffb04 	addi	r3,fp,-20
  136880:	e0bffa17 	ldw	r2,-24(fp)
  136884:	1885883a 	add	r2,r3,r2
  136888:	100f883a 	mov	r7,r2
  13688c:	e0bff517 	ldw	r2,-44(fp)
  136890:	e0ffff17 	ldw	r3,-4(fp)
  136894:	1889883a 	add	r4,r3,r2
  136898:	e0fff917 	ldw	r3,-28(fp)
  13689c:	e0bffa17 	ldw	r2,-24(fp)
  1368a0:	1885c83a 	sub	r2,r3,r2
  1368a4:	100d883a 	mov	r6,r2
  1368a8:	200b883a 	mov	r5,r4
  1368ac:	3809883a 	mov	r4,r7
  1368b0:	01213900 	call	121390 <memcpy>
  1368b4:	e0fff917 	ldw	r3,-28(fp)
  1368b8:	e0bffa17 	ldw	r2,-24(fp)
  1368bc:	1885c83a 	sub	r2,r3,r2
  1368c0:	e0fff517 	ldw	r3,-44(fp)
  1368c4:	1885883a 	add	r2,r3,r2
  1368c8:	e0bff515 	stw	r2,-44(fp)
  1368cc:	e0fff917 	ldw	r3,-28(fp)
  1368d0:	e0bffa17 	ldw	r2,-24(fp)
  1368d4:	1885c83a 	sub	r2,r3,r2
  1368d8:	e0c00217 	ldw	r3,8(fp)
  1368dc:	1885c83a 	sub	r2,r3,r2
  1368e0:	e0800215 	stw	r2,8(fp)
  1368e4:	e0bff817 	ldw	r2,-32(fp)
  1368e8:	10c00a17 	ldw	r3,40(r2)
  1368ec:	e0bff617 	ldw	r2,-40(fp)
  1368f0:	1885883a 	add	r2,r3,r2
  1368f4:	e0fffb17 	ldw	r3,-20(fp)
  1368f8:	10c00035 	stwio	r3,0(r2)
  1368fc:	e13ff817 	ldw	r4,-32(fp)
  136900:	013713c0 	call	13713c <alt_onchip_flash_poll_for_status_to_go_idle>
  136904:	e0bff415 	stw	r2,-48(fp)
  136908:	e0bff417 	ldw	r2,-48(fp)
  13690c:	10000a1e 	bne	r2,zero,136938 <alt_onchip_flash_write_block+0x288>
  136910:	e13ff817 	ldw	r4,-32(fp)
  136914:	013725c0 	call	13725c <alt_onchip_flash_poll_for_status_write_passed>
  136918:	e0bff415 	stw	r2,-48(fp)
  13691c:	e0bff417 	ldw	r2,-48(fp)
  136920:	1000071e 	bne	r2,zero,136940 <alt_onchip_flash_write_block+0x290>
  136924:	e0bff717 	ldw	r2,-36(fp)
  136928:	e0bff615 	stw	r2,-40(fp)
  13692c:	e0800217 	ldw	r2,8(fp)
  136930:	103f991e 	bne	r2,zero,136798 <_gp+0xffff30c0>
  136934:	00000306 	br	136944 <alt_onchip_flash_write_block+0x294>
  136938:	0001883a 	nop
  13693c:	00000106 	br	136944 <alt_onchip_flash_write_block+0x294>
  136940:	0001883a 	nop
  136944:	e0bff817 	ldw	r2,-32(fp)
  136948:	10802f17 	ldw	r2,188(r2)
  13694c:	10c00104 	addi	r3,r2,4
  136950:	e0bff817 	ldw	r2,-32(fp)
  136954:	10802f17 	ldw	r2,188(r2)
  136958:	10800104 	addi	r2,r2,4
  13695c:	11000037 	ldwio	r4,0(r2)
  136960:	00840034 	movhi	r2,4096
  136964:	10bfffc4 	addi	r2,r2,-1
  136968:	2084b03a 	or	r2,r4,r2
  13696c:	18800035 	stwio	r2,0(r3)
  136970:	e0bff417 	ldw	r2,-48(fp)
  136974:	e037883a 	mov	sp,fp
  136978:	dfc00117 	ldw	ra,4(sp)
  13697c:	df000017 	ldw	fp,0(sp)
  136980:	dec00204 	addi	sp,sp,8
  136984:	f800283a 	ret

00136988 <alt_onchip_flash_write>:
  136988:	defff104 	addi	sp,sp,-60
  13698c:	dfc00e15 	stw	ra,56(sp)
  136990:	df000d15 	stw	fp,52(sp)
  136994:	df000d04 	addi	fp,sp,52
  136998:	e13ffc15 	stw	r4,-16(fp)
  13699c:	e17ffd15 	stw	r5,-12(fp)
  1369a0:	e1bffe15 	stw	r6,-8(fp)
  1369a4:	e1ffff15 	stw	r7,-4(fp)
  1369a8:	e03ff415 	stw	zero,-48(fp)
  1369ac:	e0bfff17 	ldw	r2,-4(fp)
  1369b0:	e0bff815 	stw	r2,-32(fp)
  1369b4:	e0bffd17 	ldw	r2,-12(fp)
  1369b8:	e0bff915 	stw	r2,-28(fp)
  1369bc:	e0bffc17 	ldw	r2,-16(fp)
  1369c0:	e0bffa15 	stw	r2,-24(fp)
  1369c4:	e0bffa17 	ldw	r2,-24(fp)
  1369c8:	10800b17 	ldw	r2,44(r2)
  1369cc:	e0fffd17 	ldw	r3,-12(fp)
  1369d0:	1880060e 	bge	r3,r2,1369ec <alt_onchip_flash_write+0x64>
  1369d4:	e0bffa17 	ldw	r2,-24(fp)
  1369d8:	10c00b17 	ldw	r3,44(r2)
  1369dc:	e0bffd17 	ldw	r2,-12(fp)
  1369e0:	1887c83a 	sub	r3,r3,r2
  1369e4:	e0bfff17 	ldw	r2,-4(fp)
  1369e8:	1880020e 	bge	r3,r2,1369f4 <alt_onchip_flash_write+0x6c>
  1369ec:	00bffc84 	movi	r2,-14
  1369f0:	00009606 	br	136c4c <alt_onchip_flash_write+0x2c4>
  1369f4:	e03ff515 	stw	zero,-44(fp)
  1369f8:	00008706 	br	136c18 <alt_onchip_flash_write+0x290>
  1369fc:	e0fffa17 	ldw	r3,-24(fp)
  136a00:	e0bff517 	ldw	r2,-44(fp)
  136a04:	1004913a 	slli	r2,r2,4
  136a08:	1885883a 	add	r2,r3,r2
  136a0c:	10800d04 	addi	r2,r2,52
  136a10:	10800017 	ldw	r2,0(r2)
  136a14:	e0fffd17 	ldw	r3,-12(fp)
  136a18:	18807c16 	blt	r3,r2,136c0c <alt_onchip_flash_write+0x284>
  136a1c:	e0fffa17 	ldw	r3,-24(fp)
  136a20:	e0bff517 	ldw	r2,-44(fp)
  136a24:	1004913a 	slli	r2,r2,4
  136a28:	1885883a 	add	r2,r3,r2
  136a2c:	10800d04 	addi	r2,r2,52
  136a30:	10c00017 	ldw	r3,0(r2)
  136a34:	e13ffa17 	ldw	r4,-24(fp)
  136a38:	e0bff517 	ldw	r2,-44(fp)
  136a3c:	1004913a 	slli	r2,r2,4
  136a40:	2085883a 	add	r2,r4,r2
  136a44:	10800e04 	addi	r2,r2,56
  136a48:	10800017 	ldw	r2,0(r2)
  136a4c:	1885883a 	add	r2,r3,r2
  136a50:	e0fffd17 	ldw	r3,-12(fp)
  136a54:	18806d0e 	bge	r3,r2,136c0c <alt_onchip_flash_write+0x284>
  136a58:	e0fffa17 	ldw	r3,-24(fp)
  136a5c:	e0bff517 	ldw	r2,-44(fp)
  136a60:	1004913a 	slli	r2,r2,4
  136a64:	1885883a 	add	r2,r3,r2
  136a68:	10800d04 	addi	r2,r2,52
  136a6c:	10800017 	ldw	r2,0(r2)
  136a70:	e0bff715 	stw	r2,-36(fp)
  136a74:	e03ff615 	stw	zero,-40(fp)
  136a78:	00005c06 	br	136bec <alt_onchip_flash_write+0x264>
  136a7c:	e0fffd17 	ldw	r3,-12(fp)
  136a80:	e0bff717 	ldw	r2,-36(fp)
  136a84:	18804d16 	blt	r3,r2,136bbc <alt_onchip_flash_write+0x234>
  136a88:	e0fffa17 	ldw	r3,-24(fp)
  136a8c:	e0bff517 	ldw	r2,-44(fp)
  136a90:	10800104 	addi	r2,r2,4
  136a94:	1004913a 	slli	r2,r2,4
  136a98:	1885883a 	add	r2,r3,r2
  136a9c:	10c00017 	ldw	r3,0(r2)
  136aa0:	e0bff717 	ldw	r2,-36(fp)
  136aa4:	1885883a 	add	r2,r3,r2
  136aa8:	e0fffd17 	ldw	r3,-12(fp)
  136aac:	1880430e 	bge	r3,r2,136bbc <alt_onchip_flash_write+0x234>
  136ab0:	e0fffa17 	ldw	r3,-24(fp)
  136ab4:	e0bff517 	ldw	r2,-44(fp)
  136ab8:	10800104 	addi	r2,r2,4
  136abc:	1004913a 	slli	r2,r2,4
  136ac0:	1885883a 	add	r2,r3,r2
  136ac4:	10c00017 	ldw	r3,0(r2)
  136ac8:	e0bff717 	ldw	r2,-36(fp)
  136acc:	1887883a 	add	r3,r3,r2
  136ad0:	e0bffd17 	ldw	r2,-12(fp)
  136ad4:	1885c83a 	sub	r2,r3,r2
  136ad8:	e0bffb15 	stw	r2,-20(fp)
  136adc:	e0fffb17 	ldw	r3,-20(fp)
  136ae0:	e0bfff17 	ldw	r2,-4(fp)
  136ae4:	1880010e 	bge	r3,r2,136aec <alt_onchip_flash_write+0x164>
  136ae8:	1805883a 	mov	r2,r3
  136aec:	e0bffb15 	stw	r2,-20(fp)
  136af0:	e0bffa17 	ldw	r2,-24(fp)
  136af4:	10c00a17 	ldw	r3,40(r2)
  136af8:	e0bffd17 	ldw	r2,-12(fp)
  136afc:	1885883a 	add	r2,r3,r2
  136b00:	e0fffb17 	ldw	r3,-20(fp)
  136b04:	180d883a 	mov	r6,r3
  136b08:	100b883a 	mov	r5,r2
  136b0c:	e13ffe17 	ldw	r4,-8(fp)
  136b10:	012841c0 	call	12841c <memcmp>
  136b14:	10001326 	beq	r2,zero,136b64 <alt_onchip_flash_write+0x1dc>
  136b18:	e0bffa17 	ldw	r2,-24(fp)
  136b1c:	10800817 	ldw	r2,32(r2)
  136b20:	e0fffa17 	ldw	r3,-24(fp)
  136b24:	e17ff717 	ldw	r5,-36(fp)
  136b28:	1809883a 	mov	r4,r3
  136b2c:	103ee83a 	callr	r2
  136b30:	e0bff415 	stw	r2,-48(fp)
  136b34:	e0bff417 	ldw	r2,-48(fp)
  136b38:	10000a1e 	bne	r2,zero,136b64 <alt_onchip_flash_write+0x1dc>
  136b3c:	e0bffa17 	ldw	r2,-24(fp)
  136b40:	10800917 	ldw	r2,36(r2)
  136b44:	e13ffa17 	ldw	r4,-24(fp)
  136b48:	e0fffb17 	ldw	r3,-20(fp)
  136b4c:	d8c00015 	stw	r3,0(sp)
  136b50:	e1fffe17 	ldw	r7,-8(fp)
  136b54:	e1bffd17 	ldw	r6,-12(fp)
  136b58:	e17ff717 	ldw	r5,-36(fp)
  136b5c:	103ee83a 	callr	r2
  136b60:	e0bff415 	stw	r2,-48(fp)
  136b64:	e0ffff17 	ldw	r3,-4(fp)
  136b68:	e0bffb17 	ldw	r2,-20(fp)
  136b6c:	18802e26 	beq	r3,r2,136c28 <alt_onchip_flash_write+0x2a0>
  136b70:	e0bff417 	ldw	r2,-48(fp)
  136b74:	10002c1e 	bne	r2,zero,136c28 <alt_onchip_flash_write+0x2a0>
  136b78:	e0ffff17 	ldw	r3,-4(fp)
  136b7c:	e0bffb17 	ldw	r2,-20(fp)
  136b80:	1885c83a 	sub	r2,r3,r2
  136b84:	e0bfff15 	stw	r2,-4(fp)
  136b88:	e0fffa17 	ldw	r3,-24(fp)
  136b8c:	e0bff517 	ldw	r2,-44(fp)
  136b90:	10800104 	addi	r2,r2,4
  136b94:	1004913a 	slli	r2,r2,4
  136b98:	1885883a 	add	r2,r3,r2
  136b9c:	10c00017 	ldw	r3,0(r2)
  136ba0:	e0bff717 	ldw	r2,-36(fp)
  136ba4:	1885883a 	add	r2,r3,r2
  136ba8:	e0bffd15 	stw	r2,-12(fp)
  136bac:	e0bffb17 	ldw	r2,-20(fp)
  136bb0:	e0fffe17 	ldw	r3,-8(fp)
  136bb4:	1885883a 	add	r2,r3,r2
  136bb8:	e0bffe15 	stw	r2,-8(fp)
  136bbc:	e0fffa17 	ldw	r3,-24(fp)
  136bc0:	e0bff517 	ldw	r2,-44(fp)
  136bc4:	10800104 	addi	r2,r2,4
  136bc8:	1004913a 	slli	r2,r2,4
  136bcc:	1885883a 	add	r2,r3,r2
  136bd0:	10800017 	ldw	r2,0(r2)
  136bd4:	e0fff717 	ldw	r3,-36(fp)
  136bd8:	1885883a 	add	r2,r3,r2
  136bdc:	e0bff715 	stw	r2,-36(fp)
  136be0:	e0bff617 	ldw	r2,-40(fp)
  136be4:	10800044 	addi	r2,r2,1
  136be8:	e0bff615 	stw	r2,-40(fp)
  136bec:	e0fffa17 	ldw	r3,-24(fp)
  136bf0:	e0bff517 	ldw	r2,-44(fp)
  136bf4:	1004913a 	slli	r2,r2,4
  136bf8:	1885883a 	add	r2,r3,r2
  136bfc:	10800f04 	addi	r2,r2,60
  136c00:	10800017 	ldw	r2,0(r2)
  136c04:	e0fff617 	ldw	r3,-40(fp)
  136c08:	18bf9c16 	blt	r3,r2,136a7c <_gp+0xffff33a4>
  136c0c:	e0bff517 	ldw	r2,-44(fp)
  136c10:	10800044 	addi	r2,r2,1
  136c14:	e0bff515 	stw	r2,-44(fp)
  136c18:	e0bffa17 	ldw	r2,-24(fp)
  136c1c:	10800c17 	ldw	r2,48(r2)
  136c20:	e0fff517 	ldw	r3,-44(fp)
  136c24:	18bf7516 	blt	r3,r2,1369fc <_gp+0xffff3324>
  136c28:	e0bffa17 	ldw	r2,-24(fp)
  136c2c:	10c00a17 	ldw	r3,40(r2)
  136c30:	e0bff917 	ldw	r2,-28(fp)
  136c34:	1885883a 	add	r2,r3,r2
  136c38:	e0fff817 	ldw	r3,-32(fp)
  136c3c:	180b883a 	mov	r5,r3
  136c40:	1009883a 	mov	r4,r2
  136c44:	01379200 	call	137920 <alt_dcache_flush>
  136c48:	e0bff417 	ldw	r2,-48(fp)
  136c4c:	e037883a 	mov	sp,fp
  136c50:	dfc00117 	ldw	ra,4(sp)
  136c54:	df000017 	ldw	fp,0(sp)
  136c58:	dec00204 	addi	sp,sp,8
  136c5c:	f800283a 	ret

00136c60 <altera_onchip_flash_init>:
  136c60:	defff504 	addi	sp,sp,-44
  136c64:	dfc00a15 	stw	ra,40(sp)
  136c68:	df000915 	stw	fp,36(sp)
  136c6c:	dc000815 	stw	r16,32(sp)
  136c70:	df000904 	addi	fp,sp,36
  136c74:	e13ffe15 	stw	r4,-8(fp)
  136c78:	e03ff815 	stw	zero,-32(fp)
  136c7c:	e03ff915 	stw	zero,-28(fp)
  136c80:	e03ffa15 	stw	zero,-24(fp)
  136c84:	e03ffb15 	stw	zero,-20(fp)
  136c88:	e03ffc15 	stw	zero,-16(fp)
  136c8c:	e03ff715 	stw	zero,-36(fp)
  136c90:	e0bffe17 	ldw	r2,-8(fp)
  136c94:	10800d04 	addi	r2,r2,52
  136c98:	e0bffd15 	stw	r2,-12(fp)
  136c9c:	e0bffe17 	ldw	r2,-8(fp)
  136ca0:	10802f17 	ldw	r2,188(r2)
  136ca4:	10001926 	beq	r2,zero,136d0c <altera_onchip_flash_init+0xac>
  136ca8:	e0bffe17 	ldw	r2,-8(fp)
  136cac:	10802f17 	ldw	r2,188(r2)
  136cb0:	10800037 	ldwio	r2,0(r2)
  136cb4:	1080080c 	andi	r2,r2,32
  136cb8:	e0bff815 	stw	r2,-32(fp)
  136cbc:	e0bffe17 	ldw	r2,-8(fp)
  136cc0:	10802f17 	ldw	r2,188(r2)
  136cc4:	10800037 	ldwio	r2,0(r2)
  136cc8:	1080100c 	andi	r2,r2,64
  136ccc:	e0bff915 	stw	r2,-28(fp)
  136cd0:	e0bffe17 	ldw	r2,-8(fp)
  136cd4:	10802f17 	ldw	r2,188(r2)
  136cd8:	10800037 	ldwio	r2,0(r2)
  136cdc:	1080200c 	andi	r2,r2,128
  136ce0:	e0bffa15 	stw	r2,-24(fp)
  136ce4:	e0bffe17 	ldw	r2,-8(fp)
  136ce8:	10802f17 	ldw	r2,188(r2)
  136cec:	10800037 	ldwio	r2,0(r2)
  136cf0:	1080400c 	andi	r2,r2,256
  136cf4:	e0bffb15 	stw	r2,-20(fp)
  136cf8:	e0bffe17 	ldw	r2,-8(fp)
  136cfc:	10802f17 	ldw	r2,188(r2)
  136d00:	10800037 	ldwio	r2,0(r2)
  136d04:	1080800c 	andi	r2,r2,512
  136d08:	e0bffc15 	stw	r2,-16(fp)
  136d0c:	e0bffe17 	ldw	r2,-8(fp)
  136d10:	10803017 	ldw	r2,192(r2)
  136d14:	10800058 	cmpnei	r2,r2,1
  136d18:	10002f1e 	bne	r2,zero,136dd8 <altera_onchip_flash_init+0x178>
  136d1c:	e0bff817 	ldw	r2,-32(fp)
  136d20:	10800820 	cmpeqi	r2,r2,32
  136d24:	10002c1e 	bne	r2,zero,136dd8 <altera_onchip_flash_init+0x178>
  136d28:	e0bff717 	ldw	r2,-36(fp)
  136d2c:	1004913a 	slli	r2,r2,4
  136d30:	e0fffd17 	ldw	r3,-12(fp)
  136d34:	1885883a 	add	r2,r3,r2
  136d38:	e0fffe17 	ldw	r3,-8(fp)
  136d3c:	18c03117 	ldw	r3,196(r3)
  136d40:	10c00015 	stw	r3,0(r2)
  136d44:	e0bff717 	ldw	r2,-36(fp)
  136d48:	1004913a 	slli	r2,r2,4
  136d4c:	e0fffd17 	ldw	r3,-12(fp)
  136d50:	1885883a 	add	r2,r3,r2
  136d54:	e0fffe17 	ldw	r3,-8(fp)
  136d58:	19003217 	ldw	r4,200(r3)
  136d5c:	e0fffe17 	ldw	r3,-8(fp)
  136d60:	18c03117 	ldw	r3,196(r3)
  136d64:	20c7c83a 	sub	r3,r4,r3
  136d68:	18c00044 	addi	r3,r3,1
  136d6c:	10c00115 	stw	r3,4(r2)
  136d70:	e0bff717 	ldw	r2,-36(fp)
  136d74:	1004913a 	slli	r2,r2,4
  136d78:	e0fffd17 	ldw	r3,-12(fp)
  136d7c:	18a1883a 	add	r16,r3,r2
  136d80:	e0fffe17 	ldw	r3,-8(fp)
  136d84:	e0bff717 	ldw	r2,-36(fp)
  136d88:	1004913a 	slli	r2,r2,4
  136d8c:	1885883a 	add	r2,r3,r2
  136d90:	10800e04 	addi	r2,r2,56
  136d94:	10c00017 	ldw	r3,0(r2)
  136d98:	e0bffe17 	ldw	r2,-8(fp)
  136d9c:	10803f17 	ldw	r2,252(r2)
  136da0:	100b883a 	mov	r5,r2
  136da4:	1809883a 	mov	r4,r3
  136da8:	01211b40 	call	1211b4 <__divsi3>
  136dac:	80800215 	stw	r2,8(r16)
  136db0:	e0bff717 	ldw	r2,-36(fp)
  136db4:	1004913a 	slli	r2,r2,4
  136db8:	e0fffd17 	ldw	r3,-12(fp)
  136dbc:	1885883a 	add	r2,r3,r2
  136dc0:	e0fffe17 	ldw	r3,-8(fp)
  136dc4:	18c03f17 	ldw	r3,252(r3)
  136dc8:	10c00315 	stw	r3,12(r2)
  136dcc:	e0bff717 	ldw	r2,-36(fp)
  136dd0:	10800044 	addi	r2,r2,1
  136dd4:	e0bff715 	stw	r2,-36(fp)
  136dd8:	e0bffe17 	ldw	r2,-8(fp)
  136ddc:	10803317 	ldw	r2,204(r2)
  136de0:	10800058 	cmpnei	r2,r2,1
  136de4:	10002f1e 	bne	r2,zero,136ea4 <altera_onchip_flash_init+0x244>
  136de8:	e0bff917 	ldw	r2,-28(fp)
  136dec:	10801020 	cmpeqi	r2,r2,64
  136df0:	10002c1e 	bne	r2,zero,136ea4 <altera_onchip_flash_init+0x244>
  136df4:	e0bff717 	ldw	r2,-36(fp)
  136df8:	1004913a 	slli	r2,r2,4
  136dfc:	e0fffd17 	ldw	r3,-12(fp)
  136e00:	1885883a 	add	r2,r3,r2
  136e04:	e0fffe17 	ldw	r3,-8(fp)
  136e08:	18c03417 	ldw	r3,208(r3)
  136e0c:	10c00015 	stw	r3,0(r2)
  136e10:	e0bff717 	ldw	r2,-36(fp)
  136e14:	1004913a 	slli	r2,r2,4
  136e18:	e0fffd17 	ldw	r3,-12(fp)
  136e1c:	1885883a 	add	r2,r3,r2
  136e20:	e0fffe17 	ldw	r3,-8(fp)
  136e24:	19003517 	ldw	r4,212(r3)
  136e28:	e0fffe17 	ldw	r3,-8(fp)
  136e2c:	18c03417 	ldw	r3,208(r3)
  136e30:	20c7c83a 	sub	r3,r4,r3
  136e34:	18c00044 	addi	r3,r3,1
  136e38:	10c00115 	stw	r3,4(r2)
  136e3c:	e0bff717 	ldw	r2,-36(fp)
  136e40:	1004913a 	slli	r2,r2,4
  136e44:	e0fffd17 	ldw	r3,-12(fp)
  136e48:	18a1883a 	add	r16,r3,r2
  136e4c:	e0fffe17 	ldw	r3,-8(fp)
  136e50:	e0bff717 	ldw	r2,-36(fp)
  136e54:	1004913a 	slli	r2,r2,4
  136e58:	1885883a 	add	r2,r3,r2
  136e5c:	10800e04 	addi	r2,r2,56
  136e60:	10c00017 	ldw	r3,0(r2)
  136e64:	e0bffe17 	ldw	r2,-8(fp)
  136e68:	10803f17 	ldw	r2,252(r2)
  136e6c:	100b883a 	mov	r5,r2
  136e70:	1809883a 	mov	r4,r3
  136e74:	01211b40 	call	1211b4 <__divsi3>
  136e78:	80800215 	stw	r2,8(r16)
  136e7c:	e0bff717 	ldw	r2,-36(fp)
  136e80:	1004913a 	slli	r2,r2,4
  136e84:	e0fffd17 	ldw	r3,-12(fp)
  136e88:	1885883a 	add	r2,r3,r2
  136e8c:	e0fffe17 	ldw	r3,-8(fp)
  136e90:	18c03f17 	ldw	r3,252(r3)
  136e94:	10c00315 	stw	r3,12(r2)
  136e98:	e0bff717 	ldw	r2,-36(fp)
  136e9c:	10800044 	addi	r2,r2,1
  136ea0:	e0bff715 	stw	r2,-36(fp)
  136ea4:	e0bffe17 	ldw	r2,-8(fp)
  136ea8:	10803617 	ldw	r2,216(r2)
  136eac:	10800058 	cmpnei	r2,r2,1
  136eb0:	10002f1e 	bne	r2,zero,136f70 <altera_onchip_flash_init+0x310>
  136eb4:	e0bffa17 	ldw	r2,-24(fp)
  136eb8:	10802020 	cmpeqi	r2,r2,128
  136ebc:	10002c1e 	bne	r2,zero,136f70 <altera_onchip_flash_init+0x310>
  136ec0:	e0bff717 	ldw	r2,-36(fp)
  136ec4:	1004913a 	slli	r2,r2,4
  136ec8:	e0fffd17 	ldw	r3,-12(fp)
  136ecc:	1885883a 	add	r2,r3,r2
  136ed0:	e0fffe17 	ldw	r3,-8(fp)
  136ed4:	18c03717 	ldw	r3,220(r3)
  136ed8:	10c00015 	stw	r3,0(r2)
  136edc:	e0bff717 	ldw	r2,-36(fp)
  136ee0:	1004913a 	slli	r2,r2,4
  136ee4:	e0fffd17 	ldw	r3,-12(fp)
  136ee8:	1885883a 	add	r2,r3,r2
  136eec:	e0fffe17 	ldw	r3,-8(fp)
  136ef0:	19003817 	ldw	r4,224(r3)
  136ef4:	e0fffe17 	ldw	r3,-8(fp)
  136ef8:	18c03717 	ldw	r3,220(r3)
  136efc:	20c7c83a 	sub	r3,r4,r3
  136f00:	18c00044 	addi	r3,r3,1
  136f04:	10c00115 	stw	r3,4(r2)
  136f08:	e0bff717 	ldw	r2,-36(fp)
  136f0c:	1004913a 	slli	r2,r2,4
  136f10:	e0fffd17 	ldw	r3,-12(fp)
  136f14:	18a1883a 	add	r16,r3,r2
  136f18:	e0fffe17 	ldw	r3,-8(fp)
  136f1c:	e0bff717 	ldw	r2,-36(fp)
  136f20:	1004913a 	slli	r2,r2,4
  136f24:	1885883a 	add	r2,r3,r2
  136f28:	10800e04 	addi	r2,r2,56
  136f2c:	10c00017 	ldw	r3,0(r2)
  136f30:	e0bffe17 	ldw	r2,-8(fp)
  136f34:	10803f17 	ldw	r2,252(r2)
  136f38:	100b883a 	mov	r5,r2
  136f3c:	1809883a 	mov	r4,r3
  136f40:	01211b40 	call	1211b4 <__divsi3>
  136f44:	80800215 	stw	r2,8(r16)
  136f48:	e0bff717 	ldw	r2,-36(fp)
  136f4c:	1004913a 	slli	r2,r2,4
  136f50:	e0fffd17 	ldw	r3,-12(fp)
  136f54:	1885883a 	add	r2,r3,r2
  136f58:	e0fffe17 	ldw	r3,-8(fp)
  136f5c:	18c03f17 	ldw	r3,252(r3)
  136f60:	10c00315 	stw	r3,12(r2)
  136f64:	e0bff717 	ldw	r2,-36(fp)
  136f68:	10800044 	addi	r2,r2,1
  136f6c:	e0bff715 	stw	r2,-36(fp)
  136f70:	e0bffe17 	ldw	r2,-8(fp)
  136f74:	10803917 	ldw	r2,228(r2)
  136f78:	10800058 	cmpnei	r2,r2,1
  136f7c:	10002f1e 	bne	r2,zero,13703c <altera_onchip_flash_init+0x3dc>
  136f80:	e0bffb17 	ldw	r2,-20(fp)
  136f84:	10804020 	cmpeqi	r2,r2,256
  136f88:	10002c1e 	bne	r2,zero,13703c <altera_onchip_flash_init+0x3dc>
  136f8c:	e0bff717 	ldw	r2,-36(fp)
  136f90:	1004913a 	slli	r2,r2,4
  136f94:	e0fffd17 	ldw	r3,-12(fp)
  136f98:	1885883a 	add	r2,r3,r2
  136f9c:	e0fffe17 	ldw	r3,-8(fp)
  136fa0:	18c03a17 	ldw	r3,232(r3)
  136fa4:	10c00015 	stw	r3,0(r2)
  136fa8:	e0bff717 	ldw	r2,-36(fp)
  136fac:	1004913a 	slli	r2,r2,4
  136fb0:	e0fffd17 	ldw	r3,-12(fp)
  136fb4:	1885883a 	add	r2,r3,r2
  136fb8:	e0fffe17 	ldw	r3,-8(fp)
  136fbc:	19003b17 	ldw	r4,236(r3)
  136fc0:	e0fffe17 	ldw	r3,-8(fp)
  136fc4:	18c03a17 	ldw	r3,232(r3)
  136fc8:	20c7c83a 	sub	r3,r4,r3
  136fcc:	18c00044 	addi	r3,r3,1
  136fd0:	10c00115 	stw	r3,4(r2)
  136fd4:	e0bff717 	ldw	r2,-36(fp)
  136fd8:	1004913a 	slli	r2,r2,4
  136fdc:	e0fffd17 	ldw	r3,-12(fp)
  136fe0:	18a1883a 	add	r16,r3,r2
  136fe4:	e0fffe17 	ldw	r3,-8(fp)
  136fe8:	e0bff717 	ldw	r2,-36(fp)
  136fec:	1004913a 	slli	r2,r2,4
  136ff0:	1885883a 	add	r2,r3,r2
  136ff4:	10800e04 	addi	r2,r2,56
  136ff8:	10c00017 	ldw	r3,0(r2)
  136ffc:	e0bffe17 	ldw	r2,-8(fp)
  137000:	10803f17 	ldw	r2,252(r2)
  137004:	100b883a 	mov	r5,r2
  137008:	1809883a 	mov	r4,r3
  13700c:	01211b40 	call	1211b4 <__divsi3>
  137010:	80800215 	stw	r2,8(r16)
  137014:	e0bff717 	ldw	r2,-36(fp)
  137018:	1004913a 	slli	r2,r2,4
  13701c:	e0fffd17 	ldw	r3,-12(fp)
  137020:	1885883a 	add	r2,r3,r2
  137024:	e0fffe17 	ldw	r3,-8(fp)
  137028:	18c03f17 	ldw	r3,252(r3)
  13702c:	10c00315 	stw	r3,12(r2)
  137030:	e0bff717 	ldw	r2,-36(fp)
  137034:	10800044 	addi	r2,r2,1
  137038:	e0bff715 	stw	r2,-36(fp)
  13703c:	e0bffe17 	ldw	r2,-8(fp)
  137040:	10803c17 	ldw	r2,240(r2)
  137044:	10800058 	cmpnei	r2,r2,1
  137048:	10002f1e 	bne	r2,zero,137108 <altera_onchip_flash_init+0x4a8>
  13704c:	e0bffc17 	ldw	r2,-16(fp)
  137050:	10808020 	cmpeqi	r2,r2,512
  137054:	10002c1e 	bne	r2,zero,137108 <altera_onchip_flash_init+0x4a8>
  137058:	e0bff717 	ldw	r2,-36(fp)
  13705c:	1004913a 	slli	r2,r2,4
  137060:	e0fffd17 	ldw	r3,-12(fp)
  137064:	1885883a 	add	r2,r3,r2
  137068:	e0fffe17 	ldw	r3,-8(fp)
  13706c:	18c03d17 	ldw	r3,244(r3)
  137070:	10c00015 	stw	r3,0(r2)
  137074:	e0bff717 	ldw	r2,-36(fp)
  137078:	1004913a 	slli	r2,r2,4
  13707c:	e0fffd17 	ldw	r3,-12(fp)
  137080:	1885883a 	add	r2,r3,r2
  137084:	e0fffe17 	ldw	r3,-8(fp)
  137088:	19003e17 	ldw	r4,248(r3)
  13708c:	e0fffe17 	ldw	r3,-8(fp)
  137090:	18c03d17 	ldw	r3,244(r3)
  137094:	20c7c83a 	sub	r3,r4,r3
  137098:	18c00044 	addi	r3,r3,1
  13709c:	10c00115 	stw	r3,4(r2)
  1370a0:	e0bff717 	ldw	r2,-36(fp)
  1370a4:	1004913a 	slli	r2,r2,4
  1370a8:	e0fffd17 	ldw	r3,-12(fp)
  1370ac:	18a1883a 	add	r16,r3,r2
  1370b0:	e0fffe17 	ldw	r3,-8(fp)
  1370b4:	e0bff717 	ldw	r2,-36(fp)
  1370b8:	1004913a 	slli	r2,r2,4
  1370bc:	1885883a 	add	r2,r3,r2
  1370c0:	10800e04 	addi	r2,r2,56
  1370c4:	10c00017 	ldw	r3,0(r2)
  1370c8:	e0bffe17 	ldw	r2,-8(fp)
  1370cc:	10803f17 	ldw	r2,252(r2)
  1370d0:	100b883a 	mov	r5,r2
  1370d4:	1809883a 	mov	r4,r3
  1370d8:	01211b40 	call	1211b4 <__divsi3>
  1370dc:	80800215 	stw	r2,8(r16)
  1370e0:	e0bff717 	ldw	r2,-36(fp)
  1370e4:	1004913a 	slli	r2,r2,4
  1370e8:	e0fffd17 	ldw	r3,-12(fp)
  1370ec:	1885883a 	add	r2,r3,r2
  1370f0:	e0fffe17 	ldw	r3,-8(fp)
  1370f4:	18c03f17 	ldw	r3,252(r3)
  1370f8:	10c00315 	stw	r3,12(r2)
  1370fc:	e0bff717 	ldw	r2,-36(fp)
  137100:	10800044 	addi	r2,r2,1
  137104:	e0bff715 	stw	r2,-36(fp)
  137108:	e0bffe17 	ldw	r2,-8(fp)
  13710c:	e0fff717 	ldw	r3,-36(fp)
  137110:	10c00c15 	stw	r3,48(r2)
  137114:	e0bffe17 	ldw	r2,-8(fp)
  137118:	1009883a 	mov	r4,r2
  13711c:	01363ac0 	call	1363ac <alt_flash_device_register>
  137120:	0001883a 	nop
  137124:	e6ffff04 	addi	sp,fp,-4
  137128:	dfc00217 	ldw	ra,8(sp)
  13712c:	df000117 	ldw	fp,4(sp)
  137130:	dc000017 	ldw	r16,0(sp)
  137134:	dec00304 	addi	sp,sp,12
  137138:	f800283a 	ret

0013713c <alt_onchip_flash_poll_for_status_to_go_idle>:
  13713c:	defffa04 	addi	sp,sp,-24
  137140:	dfc00515 	stw	ra,20(sp)
  137144:	df000415 	stw	fp,16(sp)
  137148:	df000404 	addi	fp,sp,16
  13714c:	e13fff15 	stw	r4,-4(fp)
  137150:	e03ffc15 	stw	zero,-16(fp)
  137154:	008002f4 	movhi	r2,11
  137158:	10ab9804 	addi	r2,r2,-20896
  13715c:	e0bffe15 	stw	r2,-8(fp)
  137160:	008002f4 	movhi	r2,11
  137164:	10ab9804 	addi	r2,r2,-20896
  137168:	e0bffd15 	stw	r2,-12(fp)
  13716c:	00000c06 	br	1371a0 <alt_onchip_flash_poll_for_status_to_go_idle+0x64>
  137170:	01000044 	movi	r4,1
  137174:	01377c80 	call	1377c8 <alt_busy_sleep>
  137178:	e0bffe17 	ldw	r2,-8(fp)
  13717c:	10000826 	beq	r2,zero,1371a0 <alt_onchip_flash_poll_for_status_to_go_idle+0x64>
  137180:	e0bffd17 	ldw	r2,-12(fp)
  137184:	10bfffc4 	addi	r2,r2,-1
  137188:	e0bffd15 	stw	r2,-12(fp)
  13718c:	e0bffd17 	ldw	r2,-12(fp)
  137190:	1000031e 	bne	r2,zero,1371a0 <alt_onchip_flash_poll_for_status_to_go_idle+0x64>
  137194:	00bfe304 	movi	r2,-116
  137198:	e0bffc15 	stw	r2,-16(fp)
  13719c:	00000506 	br	1371b4 <alt_onchip_flash_poll_for_status_to_go_idle+0x78>
  1371a0:	e0bfff17 	ldw	r2,-4(fp)
  1371a4:	10802f17 	ldw	r2,188(r2)
  1371a8:	10800037 	ldwio	r2,0(r2)
  1371ac:	108000cc 	andi	r2,r2,3
  1371b0:	103fef1e 	bne	r2,zero,137170 <_gp+0xffff3a98>
  1371b4:	e0bffc17 	ldw	r2,-16(fp)
  1371b8:	e037883a 	mov	sp,fp
  1371bc:	dfc00117 	ldw	ra,4(sp)
  1371c0:	df000017 	ldw	fp,0(sp)
  1371c4:	dec00204 	addi	sp,sp,8
  1371c8:	f800283a 	ret

001371cc <alt_onchip_flash_poll_for_status_erase_passed>:
  1371cc:	defffa04 	addi	sp,sp,-24
  1371d0:	dfc00515 	stw	ra,20(sp)
  1371d4:	df000415 	stw	fp,16(sp)
  1371d8:	df000404 	addi	fp,sp,16
  1371dc:	e13fff15 	stw	r4,-4(fp)
  1371e0:	e03ffc15 	stw	zero,-16(fp)
  1371e4:	008002f4 	movhi	r2,11
  1371e8:	10ab9804 	addi	r2,r2,-20896
  1371ec:	e0bffe15 	stw	r2,-8(fp)
  1371f0:	008002f4 	movhi	r2,11
  1371f4:	10ab9804 	addi	r2,r2,-20896
  1371f8:	e0bffd15 	stw	r2,-12(fp)
  1371fc:	00000c06 	br	137230 <alt_onchip_flash_poll_for_status_erase_passed+0x64>
  137200:	01000044 	movi	r4,1
  137204:	01377c80 	call	1377c8 <alt_busy_sleep>
  137208:	e0bffe17 	ldw	r2,-8(fp)
  13720c:	10000826 	beq	r2,zero,137230 <alt_onchip_flash_poll_for_status_erase_passed+0x64>
  137210:	e0bffd17 	ldw	r2,-12(fp)
  137214:	10bfffc4 	addi	r2,r2,-1
  137218:	e0bffd15 	stw	r2,-12(fp)
  13721c:	e0bffd17 	ldw	r2,-12(fp)
  137220:	1000031e 	bne	r2,zero,137230 <alt_onchip_flash_poll_for_status_erase_passed+0x64>
  137224:	00bfe304 	movi	r2,-116
  137228:	e0bffc15 	stw	r2,-16(fp)
  13722c:	00000506 	br	137244 <alt_onchip_flash_poll_for_status_erase_passed+0x78>
  137230:	e0bfff17 	ldw	r2,-4(fp)
  137234:	10802f17 	ldw	r2,188(r2)
  137238:	10800037 	ldwio	r2,0(r2)
  13723c:	1080040c 	andi	r2,r2,16
  137240:	103fef26 	beq	r2,zero,137200 <_gp+0xffff3b28>
  137244:	e0bffc17 	ldw	r2,-16(fp)
  137248:	e037883a 	mov	sp,fp
  13724c:	dfc00117 	ldw	ra,4(sp)
  137250:	df000017 	ldw	fp,0(sp)
  137254:	dec00204 	addi	sp,sp,8
  137258:	f800283a 	ret

0013725c <alt_onchip_flash_poll_for_status_write_passed>:
  13725c:	defffa04 	addi	sp,sp,-24
  137260:	dfc00515 	stw	ra,20(sp)
  137264:	df000415 	stw	fp,16(sp)
  137268:	df000404 	addi	fp,sp,16
  13726c:	e13fff15 	stw	r4,-4(fp)
  137270:	e03ffc15 	stw	zero,-16(fp)
  137274:	008002f4 	movhi	r2,11
  137278:	10ab9804 	addi	r2,r2,-20896
  13727c:	e0bffe15 	stw	r2,-8(fp)
  137280:	008002f4 	movhi	r2,11
  137284:	10ab9804 	addi	r2,r2,-20896
  137288:	e0bffd15 	stw	r2,-12(fp)
  13728c:	00000c06 	br	1372c0 <alt_onchip_flash_poll_for_status_write_passed+0x64>
  137290:	01000044 	movi	r4,1
  137294:	01377c80 	call	1377c8 <alt_busy_sleep>
  137298:	e0bffe17 	ldw	r2,-8(fp)
  13729c:	10000826 	beq	r2,zero,1372c0 <alt_onchip_flash_poll_for_status_write_passed+0x64>
  1372a0:	e0bffd17 	ldw	r2,-12(fp)
  1372a4:	10bfffc4 	addi	r2,r2,-1
  1372a8:	e0bffd15 	stw	r2,-12(fp)
  1372ac:	e0bffd17 	ldw	r2,-12(fp)
  1372b0:	1000031e 	bne	r2,zero,1372c0 <alt_onchip_flash_poll_for_status_write_passed+0x64>
  1372b4:	00bfe304 	movi	r2,-116
  1372b8:	e0bffc15 	stw	r2,-16(fp)
  1372bc:	00000506 	br	1372d4 <alt_onchip_flash_poll_for_status_write_passed+0x78>
  1372c0:	e0bfff17 	ldw	r2,-4(fp)
  1372c4:	10802f17 	ldw	r2,188(r2)
  1372c8:	10800037 	ldwio	r2,0(r2)
  1372cc:	1080020c 	andi	r2,r2,8
  1372d0:	103fef26 	beq	r2,zero,137290 <_gp+0xffff3bb8>
  1372d4:	e0bffc17 	ldw	r2,-16(fp)
  1372d8:	e037883a 	mov	sp,fp
  1372dc:	dfc00117 	ldw	ra,4(sp)
  1372e0:	df000017 	ldw	fp,0(sp)
  1372e4:	dec00204 	addi	sp,sp,8
  1372e8:	f800283a 	ret

001372ec <alt_up_accelerometer_spi_open_dev>:
  1372ec:	defffc04 	addi	sp,sp,-16
  1372f0:	dfc00315 	stw	ra,12(sp)
  1372f4:	df000215 	stw	fp,8(sp)
  1372f8:	df000204 	addi	fp,sp,8
  1372fc:	e13fff15 	stw	r4,-4(fp)
  137300:	d1600b04 	addi	r5,gp,-32724
  137304:	e13fff17 	ldw	r4,-4(fp)
  137308:	0137b080 	call	137b08 <alt_find_dev>
  13730c:	e0bffe15 	stw	r2,-8(fp)
  137310:	e0bffe17 	ldw	r2,-8(fp)
  137314:	e037883a 	mov	sp,fp
  137318:	dfc00117 	ldw	ra,4(sp)
  13731c:	df000017 	ldw	fp,0(sp)
  137320:	dec00204 	addi	sp,sp,8
  137324:	f800283a 	ret

00137328 <alt_up_accelerometer_spi_read_address_register>:
  137328:	defffd04 	addi	sp,sp,-12
  13732c:	df000215 	stw	fp,8(sp)
  137330:	df000204 	addi	fp,sp,8
  137334:	e13ffe15 	stw	r4,-8(fp)
  137338:	e17fff15 	stw	r5,-4(fp)
  13733c:	e0bffe17 	ldw	r2,-8(fp)
  137340:	10800a17 	ldw	r2,40(r2)
  137344:	10800023 	ldbuio	r2,0(r2)
  137348:	10803fcc 	andi	r2,r2,255
  13734c:	1007883a 	mov	r3,r2
  137350:	e0bfff17 	ldw	r2,-4(fp)
  137354:	10c00005 	stb	r3,0(r2)
  137358:	0005883a 	mov	r2,zero
  13735c:	e037883a 	mov	sp,fp
  137360:	df000017 	ldw	fp,0(sp)
  137364:	dec00104 	addi	sp,sp,4
  137368:	f800283a 	ret

0013736c <alt_up_accelerometer_spi_read>:
  13736c:	defffc04 	addi	sp,sp,-16
  137370:	df000315 	stw	fp,12(sp)
  137374:	df000304 	addi	fp,sp,12
  137378:	e13ffd15 	stw	r4,-12(fp)
  13737c:	2805883a 	mov	r2,r5
  137380:	e1bfff15 	stw	r6,-4(fp)
  137384:	e0bffe05 	stb	r2,-8(fp)
  137388:	e0bffd17 	ldw	r2,-12(fp)
  13738c:	10800a17 	ldw	r2,40(r2)
  137390:	1007883a 	mov	r3,r2
  137394:	e0bffe03 	ldbu	r2,-8(fp)
  137398:	10800fcc 	andi	r2,r2,63
  13739c:	18800025 	stbio	r2,0(r3)
  1373a0:	e0bffd17 	ldw	r2,-12(fp)
  1373a4:	10800a17 	ldw	r2,40(r2)
  1373a8:	10800044 	addi	r2,r2,1
  1373ac:	10800023 	ldbuio	r2,0(r2)
  1373b0:	10803fcc 	andi	r2,r2,255
  1373b4:	1007883a 	mov	r3,r2
  1373b8:	e0bfff17 	ldw	r2,-4(fp)
  1373bc:	10c00005 	stb	r3,0(r2)
  1373c0:	0005883a 	mov	r2,zero
  1373c4:	e037883a 	mov	sp,fp
  1373c8:	df000017 	ldw	fp,0(sp)
  1373cc:	dec00104 	addi	sp,sp,4
  1373d0:	f800283a 	ret

001373d4 <alt_up_accelerometer_spi_write>:
  1373d4:	defffc04 	addi	sp,sp,-16
  1373d8:	df000315 	stw	fp,12(sp)
  1373dc:	df000304 	addi	fp,sp,12
  1373e0:	e13ffd15 	stw	r4,-12(fp)
  1373e4:	2807883a 	mov	r3,r5
  1373e8:	3005883a 	mov	r2,r6
  1373ec:	e0fffe05 	stb	r3,-8(fp)
  1373f0:	e0bfff05 	stb	r2,-4(fp)
  1373f4:	e0bffd17 	ldw	r2,-12(fp)
  1373f8:	10800a17 	ldw	r2,40(r2)
  1373fc:	1007883a 	mov	r3,r2
  137400:	e0bffe03 	ldbu	r2,-8(fp)
  137404:	10800fcc 	andi	r2,r2,63
  137408:	18800025 	stbio	r2,0(r3)
  13740c:	e0bffd17 	ldw	r2,-12(fp)
  137410:	10800a17 	ldw	r2,40(r2)
  137414:	10800044 	addi	r2,r2,1
  137418:	1007883a 	mov	r3,r2
  13741c:	e0bfff03 	ldbu	r2,-4(fp)
  137420:	18800025 	stbio	r2,0(r3)
  137424:	0005883a 	mov	r2,zero
  137428:	e037883a 	mov	sp,fp
  13742c:	df000017 	ldw	fp,0(sp)
  137430:	dec00104 	addi	sp,sp,4
  137434:	f800283a 	ret

00137438 <alt_up_accelerometer_spi_read_x_axis>:
  137438:	defffd04 	addi	sp,sp,-12
  13743c:	df000215 	stw	fp,8(sp)
  137440:	df000204 	addi	fp,sp,8
  137444:	e13ffe15 	stw	r4,-8(fp)
  137448:	e17fff15 	stw	r5,-4(fp)
  13744c:	e0bffe17 	ldw	r2,-8(fp)
  137450:	10800a17 	ldw	r2,40(r2)
  137454:	1007883a 	mov	r3,r2
  137458:	00800c84 	movi	r2,50
  13745c:	18800025 	stbio	r2,0(r3)
  137460:	e0bffe17 	ldw	r2,-8(fp)
  137464:	10800a17 	ldw	r2,40(r2)
  137468:	10800044 	addi	r2,r2,1
  13746c:	10800023 	ldbuio	r2,0(r2)
  137470:	10803fcc 	andi	r2,r2,255
  137474:	10ffffcc 	andi	r3,r2,65535
  137478:	e0bfff17 	ldw	r2,-4(fp)
  13747c:	10c00015 	stw	r3,0(r2)
  137480:	e0bffe17 	ldw	r2,-8(fp)
  137484:	10800a17 	ldw	r2,40(r2)
  137488:	1007883a 	mov	r3,r2
  13748c:	00800cc4 	movi	r2,51
  137490:	18800025 	stbio	r2,0(r3)
  137494:	e0bffe17 	ldw	r2,-8(fp)
  137498:	10800a17 	ldw	r2,40(r2)
  13749c:	10800044 	addi	r2,r2,1
  1374a0:	10800023 	ldbuio	r2,0(r2)
  1374a4:	10803fcc 	andi	r2,r2,255
  1374a8:	10bfffcc 	andi	r2,r2,65535
  1374ac:	1004923a 	slli	r2,r2,8
  1374b0:	e0ffff17 	ldw	r3,-4(fp)
  1374b4:	18c00017 	ldw	r3,0(r3)
  1374b8:	1885883a 	add	r2,r3,r2
  1374bc:	1007883a 	mov	r3,r2
  1374c0:	e0bfff17 	ldw	r2,-4(fp)
  1374c4:	10c00015 	stw	r3,0(r2)
  1374c8:	e0bfff17 	ldw	r2,-4(fp)
  1374cc:	10800017 	ldw	r2,0(r2)
  1374d0:	10a0000c 	andi	r2,r2,32768
  1374d4:	10000626 	beq	r2,zero,1374f0 <alt_up_accelerometer_spi_read_x_axis+0xb8>
  1374d8:	e0bfff17 	ldw	r2,-4(fp)
  1374dc:	10800017 	ldw	r2,0(r2)
  1374e0:	10bffff4 	orhi	r2,r2,65535
  1374e4:	1007883a 	mov	r3,r2
  1374e8:	e0bfff17 	ldw	r2,-4(fp)
  1374ec:	10c00015 	stw	r3,0(r2)
  1374f0:	0005883a 	mov	r2,zero
  1374f4:	e037883a 	mov	sp,fp
  1374f8:	df000017 	ldw	fp,0(sp)
  1374fc:	dec00104 	addi	sp,sp,4
  137500:	f800283a 	ret

00137504 <alt_up_accelerometer_spi_read_y_axis>:
  137504:	defffd04 	addi	sp,sp,-12
  137508:	df000215 	stw	fp,8(sp)
  13750c:	df000204 	addi	fp,sp,8
  137510:	e13ffe15 	stw	r4,-8(fp)
  137514:	e17fff15 	stw	r5,-4(fp)
  137518:	e0bffe17 	ldw	r2,-8(fp)
  13751c:	10800a17 	ldw	r2,40(r2)
  137520:	1007883a 	mov	r3,r2
  137524:	00800d04 	movi	r2,52
  137528:	18800025 	stbio	r2,0(r3)
  13752c:	e0bffe17 	ldw	r2,-8(fp)
  137530:	10800a17 	ldw	r2,40(r2)
  137534:	10800044 	addi	r2,r2,1
  137538:	10800023 	ldbuio	r2,0(r2)
  13753c:	10803fcc 	andi	r2,r2,255
  137540:	10ffffcc 	andi	r3,r2,65535
  137544:	e0bfff17 	ldw	r2,-4(fp)
  137548:	10c00015 	stw	r3,0(r2)
  13754c:	e0bffe17 	ldw	r2,-8(fp)
  137550:	10800a17 	ldw	r2,40(r2)
  137554:	1007883a 	mov	r3,r2
  137558:	00800d44 	movi	r2,53
  13755c:	18800025 	stbio	r2,0(r3)
  137560:	e0bffe17 	ldw	r2,-8(fp)
  137564:	10800a17 	ldw	r2,40(r2)
  137568:	10800044 	addi	r2,r2,1
  13756c:	10800023 	ldbuio	r2,0(r2)
  137570:	10803fcc 	andi	r2,r2,255
  137574:	10bfffcc 	andi	r2,r2,65535
  137578:	1004923a 	slli	r2,r2,8
  13757c:	e0ffff17 	ldw	r3,-4(fp)
  137580:	18c00017 	ldw	r3,0(r3)
  137584:	1885883a 	add	r2,r3,r2
  137588:	1007883a 	mov	r3,r2
  13758c:	e0bfff17 	ldw	r2,-4(fp)
  137590:	10c00015 	stw	r3,0(r2)
  137594:	e0bfff17 	ldw	r2,-4(fp)
  137598:	10800017 	ldw	r2,0(r2)
  13759c:	10a0000c 	andi	r2,r2,32768
  1375a0:	10000626 	beq	r2,zero,1375bc <alt_up_accelerometer_spi_read_y_axis+0xb8>
  1375a4:	e0bfff17 	ldw	r2,-4(fp)
  1375a8:	10800017 	ldw	r2,0(r2)
  1375ac:	10bffff4 	orhi	r2,r2,65535
  1375b0:	1007883a 	mov	r3,r2
  1375b4:	e0bfff17 	ldw	r2,-4(fp)
  1375b8:	10c00015 	stw	r3,0(r2)
  1375bc:	0005883a 	mov	r2,zero
  1375c0:	e037883a 	mov	sp,fp
  1375c4:	df000017 	ldw	fp,0(sp)
  1375c8:	dec00104 	addi	sp,sp,4
  1375cc:	f800283a 	ret

001375d0 <alt_up_accelerometer_spi_read_z_axis>:
  1375d0:	defffd04 	addi	sp,sp,-12
  1375d4:	df000215 	stw	fp,8(sp)
  1375d8:	df000204 	addi	fp,sp,8
  1375dc:	e13ffe15 	stw	r4,-8(fp)
  1375e0:	e17fff15 	stw	r5,-4(fp)
  1375e4:	e0bffe17 	ldw	r2,-8(fp)
  1375e8:	10800a17 	ldw	r2,40(r2)
  1375ec:	1007883a 	mov	r3,r2
  1375f0:	00800d84 	movi	r2,54
  1375f4:	18800025 	stbio	r2,0(r3)
  1375f8:	e0bffe17 	ldw	r2,-8(fp)
  1375fc:	10800a17 	ldw	r2,40(r2)
  137600:	10800044 	addi	r2,r2,1
  137604:	10800023 	ldbuio	r2,0(r2)
  137608:	10803fcc 	andi	r2,r2,255
  13760c:	10ffffcc 	andi	r3,r2,65535
  137610:	e0bfff17 	ldw	r2,-4(fp)
  137614:	10c00015 	stw	r3,0(r2)
  137618:	e0bffe17 	ldw	r2,-8(fp)
  13761c:	10800a17 	ldw	r2,40(r2)
  137620:	1007883a 	mov	r3,r2
  137624:	00800dc4 	movi	r2,55
  137628:	18800025 	stbio	r2,0(r3)
  13762c:	e0bffe17 	ldw	r2,-8(fp)
  137630:	10800a17 	ldw	r2,40(r2)
  137634:	10800044 	addi	r2,r2,1
  137638:	10800023 	ldbuio	r2,0(r2)
  13763c:	10803fcc 	andi	r2,r2,255
  137640:	10bfffcc 	andi	r2,r2,65535
  137644:	1004923a 	slli	r2,r2,8
  137648:	e0ffff17 	ldw	r3,-4(fp)
  13764c:	18c00017 	ldw	r3,0(r3)
  137650:	1885883a 	add	r2,r3,r2
  137654:	1007883a 	mov	r3,r2
  137658:	e0bfff17 	ldw	r2,-4(fp)
  13765c:	10c00015 	stw	r3,0(r2)
  137660:	e0bfff17 	ldw	r2,-4(fp)
  137664:	10800017 	ldw	r2,0(r2)
  137668:	10a0000c 	andi	r2,r2,32768
  13766c:	10000626 	beq	r2,zero,137688 <alt_up_accelerometer_spi_read_z_axis+0xb8>
  137670:	e0bfff17 	ldw	r2,-4(fp)
  137674:	10800017 	ldw	r2,0(r2)
  137678:	10bffff4 	orhi	r2,r2,65535
  13767c:	1007883a 	mov	r3,r2
  137680:	e0bfff17 	ldw	r2,-4(fp)
  137684:	10c00015 	stw	r3,0(r2)
  137688:	0005883a 	mov	r2,zero
  13768c:	e037883a 	mov	sp,fp
  137690:	df000017 	ldw	fp,0(sp)
  137694:	dec00104 	addi	sp,sp,4
  137698:	f800283a 	ret

0013769c <alt_alarm_start>:
  13769c:	defff504 	addi	sp,sp,-44
  1376a0:	df000a15 	stw	fp,40(sp)
  1376a4:	df000a04 	addi	fp,sp,40
  1376a8:	e13ffc15 	stw	r4,-16(fp)
  1376ac:	e17ffd15 	stw	r5,-12(fp)
  1376b0:	e1bffe15 	stw	r6,-8(fp)
  1376b4:	e1ffff15 	stw	r7,-4(fp)
  1376b8:	e03ff615 	stw	zero,-40(fp)
  1376bc:	d0a76317 	ldw	r2,-25204(gp)
  1376c0:	10003c26 	beq	r2,zero,1377b4 <alt_alarm_start+0x118>
  1376c4:	e0bffc17 	ldw	r2,-16(fp)
  1376c8:	10003826 	beq	r2,zero,1377ac <alt_alarm_start+0x110>
  1376cc:	e0bffc17 	ldw	r2,-16(fp)
  1376d0:	e0fffe17 	ldw	r3,-8(fp)
  1376d4:	10c00315 	stw	r3,12(r2)
  1376d8:	e0bffc17 	ldw	r2,-16(fp)
  1376dc:	e0ffff17 	ldw	r3,-4(fp)
  1376e0:	10c00515 	stw	r3,20(r2)
  1376e4:	0005303a 	rdctl	r2,status
  1376e8:	e0bff915 	stw	r2,-28(fp)
  1376ec:	e0fff917 	ldw	r3,-28(fp)
  1376f0:	00bfff84 	movi	r2,-2
  1376f4:	1884703a 	and	r2,r3,r2
  1376f8:	1001703a 	wrctl	status,r2
  1376fc:	e0bff917 	ldw	r2,-28(fp)
  137700:	e0bff815 	stw	r2,-32(fp)
  137704:	d0a76417 	ldw	r2,-25200(gp)
  137708:	e0bff615 	stw	r2,-40(fp)
  13770c:	e0fffd17 	ldw	r3,-12(fp)
  137710:	e0bff617 	ldw	r2,-40(fp)
  137714:	1885883a 	add	r2,r3,r2
  137718:	10c00044 	addi	r3,r2,1
  13771c:	e0bffc17 	ldw	r2,-16(fp)
  137720:	10c00215 	stw	r3,8(r2)
  137724:	e0bffc17 	ldw	r2,-16(fp)
  137728:	10c00217 	ldw	r3,8(r2)
  13772c:	e0bff617 	ldw	r2,-40(fp)
  137730:	1880042e 	bgeu	r3,r2,137744 <alt_alarm_start+0xa8>
  137734:	e0bffc17 	ldw	r2,-16(fp)
  137738:	00c00044 	movi	r3,1
  13773c:	10c00405 	stb	r3,16(r2)
  137740:	00000206 	br	13774c <alt_alarm_start+0xb0>
  137744:	e0bffc17 	ldw	r2,-16(fp)
  137748:	10000405 	stb	zero,16(r2)
  13774c:	e0bffc17 	ldw	r2,-16(fp)
  137750:	d0e01504 	addi	r3,gp,-32684
  137754:	e0fffa15 	stw	r3,-24(fp)
  137758:	e0bffb15 	stw	r2,-20(fp)
  13775c:	e0bffb17 	ldw	r2,-20(fp)
  137760:	e0fffa17 	ldw	r3,-24(fp)
  137764:	10c00115 	stw	r3,4(r2)
  137768:	e0bffa17 	ldw	r2,-24(fp)
  13776c:	10c00017 	ldw	r3,0(r2)
  137770:	e0bffb17 	ldw	r2,-20(fp)
  137774:	10c00015 	stw	r3,0(r2)
  137778:	e0bffa17 	ldw	r2,-24(fp)
  13777c:	10800017 	ldw	r2,0(r2)
  137780:	e0fffb17 	ldw	r3,-20(fp)
  137784:	10c00115 	stw	r3,4(r2)
  137788:	e0bffa17 	ldw	r2,-24(fp)
  13778c:	e0fffb17 	ldw	r3,-20(fp)
  137790:	10c00015 	stw	r3,0(r2)
  137794:	e0bff817 	ldw	r2,-32(fp)
  137798:	e0bff715 	stw	r2,-36(fp)
  13779c:	e0bff717 	ldw	r2,-36(fp)
  1377a0:	1001703a 	wrctl	status,r2
  1377a4:	0005883a 	mov	r2,zero
  1377a8:	00000306 	br	1377b8 <alt_alarm_start+0x11c>
  1377ac:	00bffa84 	movi	r2,-22
  1377b0:	00000106 	br	1377b8 <alt_alarm_start+0x11c>
  1377b4:	00bfde84 	movi	r2,-134
  1377b8:	e037883a 	mov	sp,fp
  1377bc:	df000017 	ldw	fp,0(sp)
  1377c0:	dec00104 	addi	sp,sp,4
  1377c4:	f800283a 	ret

001377c8 <alt_busy_sleep>:
  1377c8:	defffa04 	addi	sp,sp,-24
  1377cc:	dfc00515 	stw	ra,20(sp)
  1377d0:	df000415 	stw	fp,16(sp)
  1377d4:	df000404 	addi	fp,sp,16
  1377d8:	e13fff15 	stw	r4,-4(fp)
  1377dc:	00800244 	movi	r2,9
  1377e0:	e0bffd15 	stw	r2,-12(fp)
  1377e4:	014003f4 	movhi	r5,15
  1377e8:	29509004 	addi	r5,r5,16960
  1377ec:	e13ffd17 	ldw	r4,-12(fp)
  1377f0:	01213680 	call	121368 <__mulsi3>
  1377f4:	100b883a 	mov	r5,r2
  1377f8:	0100bef4 	movhi	r4,763
  1377fc:	213c2004 	addi	r4,r4,-3968
  137800:	01212ac0 	call	1212ac <__udivsi3>
  137804:	100b883a 	mov	r5,r2
  137808:	01200034 	movhi	r4,32768
  13780c:	213fffc4 	addi	r4,r4,-1
  137810:	01212ac0 	call	1212ac <__udivsi3>
  137814:	100b883a 	mov	r5,r2
  137818:	e13fff17 	ldw	r4,-4(fp)
  13781c:	01212ac0 	call	1212ac <__udivsi3>
  137820:	e0bffe15 	stw	r2,-8(fp)
  137824:	e0bffe17 	ldw	r2,-8(fp)
  137828:	10002a26 	beq	r2,zero,1378d4 <alt_busy_sleep+0x10c>
  13782c:	e03ffc15 	stw	zero,-16(fp)
  137830:	00001706 	br	137890 <alt_busy_sleep+0xc8>
  137834:	00a00034 	movhi	r2,32768
  137838:	10bfffc4 	addi	r2,r2,-1
  13783c:	10bfffc4 	addi	r2,r2,-1
  137840:	103ffe1e 	bne	r2,zero,13783c <_gp+0xffff4164>
  137844:	014003f4 	movhi	r5,15
  137848:	29509004 	addi	r5,r5,16960
  13784c:	e13ffd17 	ldw	r4,-12(fp)
  137850:	01213680 	call	121368 <__mulsi3>
  137854:	100b883a 	mov	r5,r2
  137858:	0100bef4 	movhi	r4,763
  13785c:	213c2004 	addi	r4,r4,-3968
  137860:	01212ac0 	call	1212ac <__udivsi3>
  137864:	100b883a 	mov	r5,r2
  137868:	01200034 	movhi	r4,32768
  13786c:	213fffc4 	addi	r4,r4,-1
  137870:	01212ac0 	call	1212ac <__udivsi3>
  137874:	1007883a 	mov	r3,r2
  137878:	e0bfff17 	ldw	r2,-4(fp)
  13787c:	10c5c83a 	sub	r2,r2,r3
  137880:	e0bfff15 	stw	r2,-4(fp)
  137884:	e0bffc17 	ldw	r2,-16(fp)
  137888:	10800044 	addi	r2,r2,1
  13788c:	e0bffc15 	stw	r2,-16(fp)
  137890:	e0fffc17 	ldw	r3,-16(fp)
  137894:	e0bffe17 	ldw	r2,-8(fp)
  137898:	18bfe616 	blt	r3,r2,137834 <_gp+0xffff415c>
  13789c:	014003f4 	movhi	r5,15
  1378a0:	29509004 	addi	r5,r5,16960
  1378a4:	e13ffd17 	ldw	r4,-12(fp)
  1378a8:	01213680 	call	121368 <__mulsi3>
  1378ac:	100b883a 	mov	r5,r2
  1378b0:	0100bef4 	movhi	r4,763
  1378b4:	213c2004 	addi	r4,r4,-3968
  1378b8:	01212ac0 	call	1212ac <__udivsi3>
  1378bc:	e17fff17 	ldw	r5,-4(fp)
  1378c0:	1009883a 	mov	r4,r2
  1378c4:	01213680 	call	121368 <__mulsi3>
  1378c8:	10bfffc4 	addi	r2,r2,-1
  1378cc:	103ffe1e 	bne	r2,zero,1378c8 <_gp+0xffff41f0>
  1378d0:	00000d06 	br	137908 <alt_busy_sleep+0x140>
  1378d4:	014003f4 	movhi	r5,15
  1378d8:	29509004 	addi	r5,r5,16960
  1378dc:	e13ffd17 	ldw	r4,-12(fp)
  1378e0:	01213680 	call	121368 <__mulsi3>
  1378e4:	100b883a 	mov	r5,r2
  1378e8:	0100bef4 	movhi	r4,763
  1378ec:	213c2004 	addi	r4,r4,-3968
  1378f0:	01212ac0 	call	1212ac <__udivsi3>
  1378f4:	e17fff17 	ldw	r5,-4(fp)
  1378f8:	1009883a 	mov	r4,r2
  1378fc:	01213680 	call	121368 <__mulsi3>
  137900:	10bfffc4 	addi	r2,r2,-1
  137904:	00bffe16 	blt	zero,r2,137900 <_gp+0xffff4228>
  137908:	0005883a 	mov	r2,zero
  13790c:	e037883a 	mov	sp,fp
  137910:	dfc00117 	ldw	ra,4(sp)
  137914:	df000017 	ldw	fp,0(sp)
  137918:	dec00204 	addi	sp,sp,8
  13791c:	f800283a 	ret

00137920 <alt_dcache_flush>:
  137920:	defffd04 	addi	sp,sp,-12
  137924:	df000215 	stw	fp,8(sp)
  137928:	df000204 	addi	fp,sp,8
  13792c:	e13ffe15 	stw	r4,-8(fp)
  137930:	e17fff15 	stw	r5,-4(fp)
  137934:	0001883a 	nop
  137938:	e037883a 	mov	sp,fp
  13793c:	df000017 	ldw	fp,0(sp)
  137940:	dec00104 	addi	sp,sp,4
  137944:	f800283a 	ret

00137948 <alt_dcache_flush_all>:
  137948:	deffff04 	addi	sp,sp,-4
  13794c:	df000015 	stw	fp,0(sp)
  137950:	d839883a 	mov	fp,sp
  137954:	0001883a 	nop
  137958:	e037883a 	mov	sp,fp
  13795c:	df000017 	ldw	fp,0(sp)
  137960:	dec00104 	addi	sp,sp,4
  137964:	f800283a 	ret

00137968 <alt_get_errno>:
  137968:	defffe04 	addi	sp,sp,-8
  13796c:	dfc00115 	stw	ra,4(sp)
  137970:	df000015 	stw	fp,0(sp)
  137974:	d839883a 	mov	fp,sp
  137978:	d0a00e17 	ldw	r2,-32712(gp)
  13797c:	10000326 	beq	r2,zero,13798c <alt_get_errno+0x24>
  137980:	d0a00e17 	ldw	r2,-32712(gp)
  137984:	103ee83a 	callr	r2
  137988:	00000106 	br	137990 <alt_get_errno+0x28>
  13798c:	d0a75804 	addi	r2,gp,-25248
  137990:	e037883a 	mov	sp,fp
  137994:	dfc00117 	ldw	ra,4(sp)
  137998:	df000017 	ldw	fp,0(sp)
  13799c:	dec00204 	addi	sp,sp,8
  1379a0:	f800283a 	ret

001379a4 <alt_dev_llist_insert>:
  1379a4:	defffa04 	addi	sp,sp,-24
  1379a8:	dfc00515 	stw	ra,20(sp)
  1379ac:	df000415 	stw	fp,16(sp)
  1379b0:	df000404 	addi	fp,sp,16
  1379b4:	e13ffe15 	stw	r4,-8(fp)
  1379b8:	e17fff15 	stw	r5,-4(fp)
  1379bc:	e0bffe17 	ldw	r2,-8(fp)
  1379c0:	10000326 	beq	r2,zero,1379d0 <alt_dev_llist_insert+0x2c>
  1379c4:	e0bffe17 	ldw	r2,-8(fp)
  1379c8:	10800217 	ldw	r2,8(r2)
  1379cc:	1000061e 	bne	r2,zero,1379e8 <alt_dev_llist_insert+0x44>
  1379d0:	01379680 	call	137968 <alt_get_errno>
  1379d4:	1007883a 	mov	r3,r2
  1379d8:	00800584 	movi	r2,22
  1379dc:	18800015 	stw	r2,0(r3)
  1379e0:	00bffa84 	movi	r2,-22
  1379e4:	00001306 	br	137a34 <alt_dev_llist_insert+0x90>
  1379e8:	e0bffe17 	ldw	r2,-8(fp)
  1379ec:	e0ffff17 	ldw	r3,-4(fp)
  1379f0:	e0fffc15 	stw	r3,-16(fp)
  1379f4:	e0bffd15 	stw	r2,-12(fp)
  1379f8:	e0bffd17 	ldw	r2,-12(fp)
  1379fc:	e0fffc17 	ldw	r3,-16(fp)
  137a00:	10c00115 	stw	r3,4(r2)
  137a04:	e0bffc17 	ldw	r2,-16(fp)
  137a08:	10c00017 	ldw	r3,0(r2)
  137a0c:	e0bffd17 	ldw	r2,-12(fp)
  137a10:	10c00015 	stw	r3,0(r2)
  137a14:	e0bffc17 	ldw	r2,-16(fp)
  137a18:	10800017 	ldw	r2,0(r2)
  137a1c:	e0fffd17 	ldw	r3,-12(fp)
  137a20:	10c00115 	stw	r3,4(r2)
  137a24:	e0bffc17 	ldw	r2,-16(fp)
  137a28:	e0fffd17 	ldw	r3,-12(fp)
  137a2c:	10c00015 	stw	r3,0(r2)
  137a30:	0005883a 	mov	r2,zero
  137a34:	e037883a 	mov	sp,fp
  137a38:	dfc00117 	ldw	ra,4(sp)
  137a3c:	df000017 	ldw	fp,0(sp)
  137a40:	dec00204 	addi	sp,sp,8
  137a44:	f800283a 	ret

00137a48 <_do_ctors>:
  137a48:	defffd04 	addi	sp,sp,-12
  137a4c:	dfc00215 	stw	ra,8(sp)
  137a50:	df000115 	stw	fp,4(sp)
  137a54:	df000104 	addi	fp,sp,4
  137a58:	00800534 	movhi	r2,20
  137a5c:	10a40c04 	addi	r2,r2,-28624
  137a60:	e0bfff15 	stw	r2,-4(fp)
  137a64:	00000606 	br	137a80 <_do_ctors+0x38>
  137a68:	e0bfff17 	ldw	r2,-4(fp)
  137a6c:	10800017 	ldw	r2,0(r2)
  137a70:	103ee83a 	callr	r2
  137a74:	e0bfff17 	ldw	r2,-4(fp)
  137a78:	10bfff04 	addi	r2,r2,-4
  137a7c:	e0bfff15 	stw	r2,-4(fp)
  137a80:	e0ffff17 	ldw	r3,-4(fp)
  137a84:	00800534 	movhi	r2,20
  137a88:	10a40d04 	addi	r2,r2,-28620
  137a8c:	18bff62e 	bgeu	r3,r2,137a68 <_gp+0xffff4390>
  137a90:	0001883a 	nop
  137a94:	e037883a 	mov	sp,fp
  137a98:	dfc00117 	ldw	ra,4(sp)
  137a9c:	df000017 	ldw	fp,0(sp)
  137aa0:	dec00204 	addi	sp,sp,8
  137aa4:	f800283a 	ret

00137aa8 <_do_dtors>:
  137aa8:	defffd04 	addi	sp,sp,-12
  137aac:	dfc00215 	stw	ra,8(sp)
  137ab0:	df000115 	stw	fp,4(sp)
  137ab4:	df000104 	addi	fp,sp,4
  137ab8:	00800534 	movhi	r2,20
  137abc:	10a40c04 	addi	r2,r2,-28624
  137ac0:	e0bfff15 	stw	r2,-4(fp)
  137ac4:	00000606 	br	137ae0 <_do_dtors+0x38>
  137ac8:	e0bfff17 	ldw	r2,-4(fp)
  137acc:	10800017 	ldw	r2,0(r2)
  137ad0:	103ee83a 	callr	r2
  137ad4:	e0bfff17 	ldw	r2,-4(fp)
  137ad8:	10bfff04 	addi	r2,r2,-4
  137adc:	e0bfff15 	stw	r2,-4(fp)
  137ae0:	e0ffff17 	ldw	r3,-4(fp)
  137ae4:	00800534 	movhi	r2,20
  137ae8:	10a40d04 	addi	r2,r2,-28620
  137aec:	18bff62e 	bgeu	r3,r2,137ac8 <_gp+0xffff43f0>
  137af0:	0001883a 	nop
  137af4:	e037883a 	mov	sp,fp
  137af8:	dfc00117 	ldw	ra,4(sp)
  137afc:	df000017 	ldw	fp,0(sp)
  137b00:	dec00204 	addi	sp,sp,8
  137b04:	f800283a 	ret

00137b08 <alt_find_dev>:
  137b08:	defffa04 	addi	sp,sp,-24
  137b0c:	dfc00515 	stw	ra,20(sp)
  137b10:	df000415 	stw	fp,16(sp)
  137b14:	df000404 	addi	fp,sp,16
  137b18:	e13ffe15 	stw	r4,-8(fp)
  137b1c:	e17fff15 	stw	r5,-4(fp)
  137b20:	e0bfff17 	ldw	r2,-4(fp)
  137b24:	10800017 	ldw	r2,0(r2)
  137b28:	e0bffc15 	stw	r2,-16(fp)
  137b2c:	e13ffe17 	ldw	r4,-8(fp)
  137b30:	01218f40 	call	1218f4 <strlen>
  137b34:	10800044 	addi	r2,r2,1
  137b38:	e0bffd15 	stw	r2,-12(fp)
  137b3c:	00000d06 	br	137b74 <alt_find_dev+0x6c>
  137b40:	e0bffc17 	ldw	r2,-16(fp)
  137b44:	10800217 	ldw	r2,8(r2)
  137b48:	e0fffd17 	ldw	r3,-12(fp)
  137b4c:	180d883a 	mov	r6,r3
  137b50:	e17ffe17 	ldw	r5,-8(fp)
  137b54:	1009883a 	mov	r4,r2
  137b58:	012841c0 	call	12841c <memcmp>
  137b5c:	1000021e 	bne	r2,zero,137b68 <alt_find_dev+0x60>
  137b60:	e0bffc17 	ldw	r2,-16(fp)
  137b64:	00000706 	br	137b84 <alt_find_dev+0x7c>
  137b68:	e0bffc17 	ldw	r2,-16(fp)
  137b6c:	10800017 	ldw	r2,0(r2)
  137b70:	e0bffc15 	stw	r2,-16(fp)
  137b74:	e0fffc17 	ldw	r3,-16(fp)
  137b78:	e0bfff17 	ldw	r2,-4(fp)
  137b7c:	18bff01e 	bne	r3,r2,137b40 <_gp+0xffff4468>
  137b80:	0005883a 	mov	r2,zero
  137b84:	e037883a 	mov	sp,fp
  137b88:	dfc00117 	ldw	ra,4(sp)
  137b8c:	df000017 	ldw	fp,0(sp)
  137b90:	dec00204 	addi	sp,sp,8
  137b94:	f800283a 	ret

00137b98 <alt_find_file>:
  137b98:	defffb04 	addi	sp,sp,-20
  137b9c:	dfc00415 	stw	ra,16(sp)
  137ba0:	df000315 	stw	fp,12(sp)
  137ba4:	df000304 	addi	fp,sp,12
  137ba8:	e13fff15 	stw	r4,-4(fp)
  137bac:	d0a00917 	ldw	r2,-32732(gp)
  137bb0:	e0bffd15 	stw	r2,-12(fp)
  137bb4:	00003106 	br	137c7c <alt_find_file+0xe4>
  137bb8:	e0bffd17 	ldw	r2,-12(fp)
  137bbc:	10800217 	ldw	r2,8(r2)
  137bc0:	1009883a 	mov	r4,r2
  137bc4:	01218f40 	call	1218f4 <strlen>
  137bc8:	e0bffe15 	stw	r2,-8(fp)
  137bcc:	e0bffd17 	ldw	r2,-12(fp)
  137bd0:	10c00217 	ldw	r3,8(r2)
  137bd4:	e0bffe17 	ldw	r2,-8(fp)
  137bd8:	10bfffc4 	addi	r2,r2,-1
  137bdc:	1885883a 	add	r2,r3,r2
  137be0:	10800003 	ldbu	r2,0(r2)
  137be4:	10803fcc 	andi	r2,r2,255
  137be8:	1080201c 	xori	r2,r2,128
  137bec:	10bfe004 	addi	r2,r2,-128
  137bf0:	10800bd8 	cmpnei	r2,r2,47
  137bf4:	1000031e 	bne	r2,zero,137c04 <alt_find_file+0x6c>
  137bf8:	e0bffe17 	ldw	r2,-8(fp)
  137bfc:	10bfffc4 	addi	r2,r2,-1
  137c00:	e0bffe15 	stw	r2,-8(fp)
  137c04:	e0bffe17 	ldw	r2,-8(fp)
  137c08:	e0ffff17 	ldw	r3,-4(fp)
  137c0c:	1885883a 	add	r2,r3,r2
  137c10:	10800003 	ldbu	r2,0(r2)
  137c14:	10803fcc 	andi	r2,r2,255
  137c18:	1080201c 	xori	r2,r2,128
  137c1c:	10bfe004 	addi	r2,r2,-128
  137c20:	10800be0 	cmpeqi	r2,r2,47
  137c24:	1000081e 	bne	r2,zero,137c48 <alt_find_file+0xb0>
  137c28:	e0bffe17 	ldw	r2,-8(fp)
  137c2c:	e0ffff17 	ldw	r3,-4(fp)
  137c30:	1885883a 	add	r2,r3,r2
  137c34:	10800003 	ldbu	r2,0(r2)
  137c38:	10803fcc 	andi	r2,r2,255
  137c3c:	1080201c 	xori	r2,r2,128
  137c40:	10bfe004 	addi	r2,r2,-128
  137c44:	10000a1e 	bne	r2,zero,137c70 <alt_find_file+0xd8>
  137c48:	e0bffd17 	ldw	r2,-12(fp)
  137c4c:	10800217 	ldw	r2,8(r2)
  137c50:	e0fffe17 	ldw	r3,-8(fp)
  137c54:	180d883a 	mov	r6,r3
  137c58:	e17fff17 	ldw	r5,-4(fp)
  137c5c:	1009883a 	mov	r4,r2
  137c60:	012841c0 	call	12841c <memcmp>
  137c64:	1000021e 	bne	r2,zero,137c70 <alt_find_file+0xd8>
  137c68:	e0bffd17 	ldw	r2,-12(fp)
  137c6c:	00000706 	br	137c8c <alt_find_file+0xf4>
  137c70:	e0bffd17 	ldw	r2,-12(fp)
  137c74:	10800017 	ldw	r2,0(r2)
  137c78:	e0bffd15 	stw	r2,-12(fp)
  137c7c:	e0fffd17 	ldw	r3,-12(fp)
  137c80:	d0a00904 	addi	r2,gp,-32732
  137c84:	18bfcc1e 	bne	r3,r2,137bb8 <_gp+0xffff44e0>
  137c88:	0005883a 	mov	r2,zero
  137c8c:	e037883a 	mov	sp,fp
  137c90:	dfc00117 	ldw	ra,4(sp)
  137c94:	df000017 	ldw	fp,0(sp)
  137c98:	dec00204 	addi	sp,sp,8
  137c9c:	f800283a 	ret

00137ca0 <alt_flash_open_dev>:
  137ca0:	defffc04 	addi	sp,sp,-16
  137ca4:	dfc00315 	stw	ra,12(sp)
  137ca8:	df000215 	stw	fp,8(sp)
  137cac:	df000204 	addi	fp,sp,8
  137cb0:	e13fff15 	stw	r4,-4(fp)
  137cb4:	d1601304 	addi	r5,gp,-32692
  137cb8:	e13fff17 	ldw	r4,-4(fp)
  137cbc:	0137b080 	call	137b08 <alt_find_dev>
  137cc0:	e0bffe15 	stw	r2,-8(fp)
  137cc4:	e0bffe17 	ldw	r2,-8(fp)
  137cc8:	10000926 	beq	r2,zero,137cf0 <alt_flash_open_dev+0x50>
  137ccc:	e0bffe17 	ldw	r2,-8(fp)
  137cd0:	10800317 	ldw	r2,12(r2)
  137cd4:	10000626 	beq	r2,zero,137cf0 <alt_flash_open_dev+0x50>
  137cd8:	e0bffe17 	ldw	r2,-8(fp)
  137cdc:	10800317 	ldw	r2,12(r2)
  137ce0:	e17fff17 	ldw	r5,-4(fp)
  137ce4:	e13ffe17 	ldw	r4,-8(fp)
  137ce8:	103ee83a 	callr	r2
  137cec:	00000106 	br	137cf4 <alt_flash_open_dev+0x54>
  137cf0:	e0bffe17 	ldw	r2,-8(fp)
  137cf4:	e037883a 	mov	sp,fp
  137cf8:	dfc00117 	ldw	ra,4(sp)
  137cfc:	df000017 	ldw	fp,0(sp)
  137d00:	dec00204 	addi	sp,sp,8
  137d04:	f800283a 	ret

00137d08 <alt_flash_close_dev>:
  137d08:	defffd04 	addi	sp,sp,-12
  137d0c:	dfc00215 	stw	ra,8(sp)
  137d10:	df000115 	stw	fp,4(sp)
  137d14:	df000104 	addi	fp,sp,4
  137d18:	e13fff15 	stw	r4,-4(fp)
  137d1c:	e0bfff17 	ldw	r2,-4(fp)
  137d20:	10000826 	beq	r2,zero,137d44 <alt_flash_close_dev+0x3c>
  137d24:	e0bfff17 	ldw	r2,-4(fp)
  137d28:	10800417 	ldw	r2,16(r2)
  137d2c:	10000526 	beq	r2,zero,137d44 <alt_flash_close_dev+0x3c>
  137d30:	e0bfff17 	ldw	r2,-4(fp)
  137d34:	10800417 	ldw	r2,16(r2)
  137d38:	e13fff17 	ldw	r4,-4(fp)
  137d3c:	103ee83a 	callr	r2
  137d40:	0001883a 	nop
  137d44:	0001883a 	nop
  137d48:	e037883a 	mov	sp,fp
  137d4c:	dfc00117 	ldw	ra,4(sp)
  137d50:	df000017 	ldw	fp,0(sp)
  137d54:	dec00204 	addi	sp,sp,8
  137d58:	f800283a 	ret

00137d5c <alt_get_fd>:
  137d5c:	defffa04 	addi	sp,sp,-24
  137d60:	dfc00515 	stw	ra,20(sp)
  137d64:	df000415 	stw	fp,16(sp)
  137d68:	dc000315 	stw	r16,12(sp)
  137d6c:	df000404 	addi	fp,sp,16
  137d70:	e13ffe15 	stw	r4,-8(fp)
  137d74:	00bffa04 	movi	r2,-24
  137d78:	e0bffd15 	stw	r2,-12(fp)
  137d7c:	e03ffc15 	stw	zero,-16(fp)
  137d80:	00001d06 	br	137df8 <alt_get_fd+0x9c>
  137d84:	04000534 	movhi	r16,20
  137d88:	8428c204 	addi	r16,r16,-23800
  137d8c:	e0bffc17 	ldw	r2,-16(fp)
  137d90:	01400304 	movi	r5,12
  137d94:	1009883a 	mov	r4,r2
  137d98:	01213680 	call	121368 <__mulsi3>
  137d9c:	8085883a 	add	r2,r16,r2
  137da0:	10800017 	ldw	r2,0(r2)
  137da4:	1000111e 	bne	r2,zero,137dec <alt_get_fd+0x90>
  137da8:	04000534 	movhi	r16,20
  137dac:	8428c204 	addi	r16,r16,-23800
  137db0:	e0bffc17 	ldw	r2,-16(fp)
  137db4:	01400304 	movi	r5,12
  137db8:	1009883a 	mov	r4,r2
  137dbc:	01213680 	call	121368 <__mulsi3>
  137dc0:	8085883a 	add	r2,r16,r2
  137dc4:	e0fffe17 	ldw	r3,-8(fp)
  137dc8:	10c00015 	stw	r3,0(r2)
  137dcc:	d0e00d17 	ldw	r3,-32716(gp)
  137dd0:	e0bffc17 	ldw	r2,-16(fp)
  137dd4:	1880020e 	bge	r3,r2,137de0 <alt_get_fd+0x84>
  137dd8:	e0bffc17 	ldw	r2,-16(fp)
  137ddc:	d0a00d15 	stw	r2,-32716(gp)
  137de0:	e0bffc17 	ldw	r2,-16(fp)
  137de4:	e0bffd15 	stw	r2,-12(fp)
  137de8:	00000606 	br	137e04 <alt_get_fd+0xa8>
  137dec:	e0bffc17 	ldw	r2,-16(fp)
  137df0:	10800044 	addi	r2,r2,1
  137df4:	e0bffc15 	stw	r2,-16(fp)
  137df8:	e0bffc17 	ldw	r2,-16(fp)
  137dfc:	10800810 	cmplti	r2,r2,32
  137e00:	103fe01e 	bne	r2,zero,137d84 <_gp+0xffff46ac>
  137e04:	e0bffd17 	ldw	r2,-12(fp)
  137e08:	e6ffff04 	addi	sp,fp,-4
  137e0c:	dfc00217 	ldw	ra,8(sp)
  137e10:	df000117 	ldw	fp,4(sp)
  137e14:	dc000017 	ldw	r16,0(sp)
  137e18:	dec00304 	addi	sp,sp,12
  137e1c:	f800283a 	ret

00137e20 <alt_icache_flush_all>:
  137e20:	deffff04 	addi	sp,sp,-4
  137e24:	df000015 	stw	fp,0(sp)
  137e28:	d839883a 	mov	fp,sp
  137e2c:	0001883a 	nop
  137e30:	e037883a 	mov	sp,fp
  137e34:	df000017 	ldw	fp,0(sp)
  137e38:	dec00104 	addi	sp,sp,4
  137e3c:	f800283a 	ret

00137e40 <alt_open_fd>:
  137e40:	defff804 	addi	sp,sp,-32
  137e44:	dfc00715 	stw	ra,28(sp)
  137e48:	df000615 	stw	fp,24(sp)
  137e4c:	dc000515 	stw	r16,20(sp)
  137e50:	df000604 	addi	fp,sp,24
  137e54:	e13ffb15 	stw	r4,-20(fp)
  137e58:	e17ffc15 	stw	r5,-16(fp)
  137e5c:	e1bffd15 	stw	r6,-12(fp)
  137e60:	e1fffe15 	stw	r7,-8(fp)
  137e64:	e1bffe17 	ldw	r6,-8(fp)
  137e68:	e17ffd17 	ldw	r5,-12(fp)
  137e6c:	e13ffc17 	ldw	r4,-16(fp)
  137e70:	01349380 	call	134938 <open>
  137e74:	e0bffa15 	stw	r2,-24(fp)
  137e78:	e0bffa17 	ldw	r2,-24(fp)
  137e7c:	10002216 	blt	r2,zero,137f08 <alt_open_fd+0xc8>
  137e80:	04000534 	movhi	r16,20
  137e84:	8428c204 	addi	r16,r16,-23800
  137e88:	e0bffa17 	ldw	r2,-24(fp)
  137e8c:	01400304 	movi	r5,12
  137e90:	1009883a 	mov	r4,r2
  137e94:	01213680 	call	121368 <__mulsi3>
  137e98:	8085883a 	add	r2,r16,r2
  137e9c:	10c00017 	ldw	r3,0(r2)
  137ea0:	e0bffb17 	ldw	r2,-20(fp)
  137ea4:	10c00015 	stw	r3,0(r2)
  137ea8:	04000534 	movhi	r16,20
  137eac:	8428c204 	addi	r16,r16,-23800
  137eb0:	e0bffa17 	ldw	r2,-24(fp)
  137eb4:	01400304 	movi	r5,12
  137eb8:	1009883a 	mov	r4,r2
  137ebc:	01213680 	call	121368 <__mulsi3>
  137ec0:	8085883a 	add	r2,r16,r2
  137ec4:	10800104 	addi	r2,r2,4
  137ec8:	10c00017 	ldw	r3,0(r2)
  137ecc:	e0bffb17 	ldw	r2,-20(fp)
  137ed0:	10c00115 	stw	r3,4(r2)
  137ed4:	04000534 	movhi	r16,20
  137ed8:	8428c204 	addi	r16,r16,-23800
  137edc:	e0bffa17 	ldw	r2,-24(fp)
  137ee0:	01400304 	movi	r5,12
  137ee4:	1009883a 	mov	r4,r2
  137ee8:	01213680 	call	121368 <__mulsi3>
  137eec:	8085883a 	add	r2,r16,r2
  137ef0:	10800204 	addi	r2,r2,8
  137ef4:	10c00017 	ldw	r3,0(r2)
  137ef8:	e0bffb17 	ldw	r2,-20(fp)
  137efc:	10c00215 	stw	r3,8(r2)
  137f00:	e13ffa17 	ldw	r4,-24(fp)
  137f04:	0134c100 	call	134c10 <alt_release_fd>
  137f08:	0001883a 	nop
  137f0c:	e6ffff04 	addi	sp,fp,-4
  137f10:	dfc00217 	ldw	ra,8(sp)
  137f14:	df000117 	ldw	fp,4(sp)
  137f18:	dc000017 	ldw	r16,0(sp)
  137f1c:	dec00304 	addi	sp,sp,12
  137f20:	f800283a 	ret

00137f24 <alt_io_redirect>:
  137f24:	defffb04 	addi	sp,sp,-20
  137f28:	dfc00415 	stw	ra,16(sp)
  137f2c:	df000315 	stw	fp,12(sp)
  137f30:	df000304 	addi	fp,sp,12
  137f34:	e13ffd15 	stw	r4,-12(fp)
  137f38:	e17ffe15 	stw	r5,-8(fp)
  137f3c:	e1bfff15 	stw	r6,-4(fp)
  137f40:	01c07fc4 	movi	r7,511
  137f44:	01800044 	movi	r6,1
  137f48:	e17ffd17 	ldw	r5,-12(fp)
  137f4c:	01000534 	movhi	r4,20
  137f50:	2128c504 	addi	r4,r4,-23788
  137f54:	0137e400 	call	137e40 <alt_open_fd>
  137f58:	01c07fc4 	movi	r7,511
  137f5c:	000d883a 	mov	r6,zero
  137f60:	e17ffe17 	ldw	r5,-8(fp)
  137f64:	01000534 	movhi	r4,20
  137f68:	2128c204 	addi	r4,r4,-23800
  137f6c:	0137e400 	call	137e40 <alt_open_fd>
  137f70:	01c07fc4 	movi	r7,511
  137f74:	01800044 	movi	r6,1
  137f78:	e17fff17 	ldw	r5,-4(fp)
  137f7c:	01000534 	movhi	r4,20
  137f80:	2128c804 	addi	r4,r4,-23776
  137f84:	0137e400 	call	137e40 <alt_open_fd>
  137f88:	0001883a 	nop
  137f8c:	e037883a 	mov	sp,fp
  137f90:	dfc00117 	ldw	ra,4(sp)
  137f94:	df000017 	ldw	fp,0(sp)
  137f98:	dec00204 	addi	sp,sp,8
  137f9c:	f800283a 	ret

00137fa0 <alt_alarm_stop>:
  137fa0:	defffa04 	addi	sp,sp,-24
  137fa4:	df000515 	stw	fp,20(sp)
  137fa8:	df000504 	addi	fp,sp,20
  137fac:	e13fff15 	stw	r4,-4(fp)
  137fb0:	0005303a 	rdctl	r2,status
  137fb4:	e0bffc15 	stw	r2,-16(fp)
  137fb8:	e0fffc17 	ldw	r3,-16(fp)
  137fbc:	00bfff84 	movi	r2,-2
  137fc0:	1884703a 	and	r2,r3,r2
  137fc4:	1001703a 	wrctl	status,r2
  137fc8:	e0bffc17 	ldw	r2,-16(fp)
  137fcc:	e0bffb15 	stw	r2,-20(fp)
  137fd0:	e0bfff17 	ldw	r2,-4(fp)
  137fd4:	e0bffd15 	stw	r2,-12(fp)
  137fd8:	e0bffd17 	ldw	r2,-12(fp)
  137fdc:	10800017 	ldw	r2,0(r2)
  137fe0:	e0fffd17 	ldw	r3,-12(fp)
  137fe4:	18c00117 	ldw	r3,4(r3)
  137fe8:	10c00115 	stw	r3,4(r2)
  137fec:	e0bffd17 	ldw	r2,-12(fp)
  137ff0:	10800117 	ldw	r2,4(r2)
  137ff4:	e0fffd17 	ldw	r3,-12(fp)
  137ff8:	18c00017 	ldw	r3,0(r3)
  137ffc:	10c00015 	stw	r3,0(r2)
  138000:	e0bffd17 	ldw	r2,-12(fp)
  138004:	e0fffd17 	ldw	r3,-12(fp)
  138008:	10c00115 	stw	r3,4(r2)
  13800c:	e0bffd17 	ldw	r2,-12(fp)
  138010:	e0fffd17 	ldw	r3,-12(fp)
  138014:	10c00015 	stw	r3,0(r2)
  138018:	e0bffb17 	ldw	r2,-20(fp)
  13801c:	e0bffe15 	stw	r2,-8(fp)
  138020:	e0bffe17 	ldw	r2,-8(fp)
  138024:	1001703a 	wrctl	status,r2
  138028:	0001883a 	nop
  13802c:	e037883a 	mov	sp,fp
  138030:	df000017 	ldw	fp,0(sp)
  138034:	dec00104 	addi	sp,sp,4
  138038:	f800283a 	ret

0013803c <alt_tick>:
  13803c:	defffb04 	addi	sp,sp,-20
  138040:	dfc00415 	stw	ra,16(sp)
  138044:	df000315 	stw	fp,12(sp)
  138048:	df000304 	addi	fp,sp,12
  13804c:	d0a01517 	ldw	r2,-32684(gp)
  138050:	e0bffd15 	stw	r2,-12(fp)
  138054:	d0a76417 	ldw	r2,-25200(gp)
  138058:	10800044 	addi	r2,r2,1
  13805c:	d0a76415 	stw	r2,-25200(gp)
  138060:	00002e06 	br	13811c <alt_tick+0xe0>
  138064:	e0bffd17 	ldw	r2,-12(fp)
  138068:	10800017 	ldw	r2,0(r2)
  13806c:	e0bffe15 	stw	r2,-8(fp)
  138070:	e0bffd17 	ldw	r2,-12(fp)
  138074:	10800403 	ldbu	r2,16(r2)
  138078:	10803fcc 	andi	r2,r2,255
  13807c:	10000426 	beq	r2,zero,138090 <alt_tick+0x54>
  138080:	d0a76417 	ldw	r2,-25200(gp)
  138084:	1000021e 	bne	r2,zero,138090 <alt_tick+0x54>
  138088:	e0bffd17 	ldw	r2,-12(fp)
  13808c:	10000405 	stb	zero,16(r2)
  138090:	e0bffd17 	ldw	r2,-12(fp)
  138094:	10800217 	ldw	r2,8(r2)
  138098:	d0e76417 	ldw	r3,-25200(gp)
  13809c:	18801d36 	bltu	r3,r2,138114 <alt_tick+0xd8>
  1380a0:	e0bffd17 	ldw	r2,-12(fp)
  1380a4:	10800403 	ldbu	r2,16(r2)
  1380a8:	10803fcc 	andi	r2,r2,255
  1380ac:	1000191e 	bne	r2,zero,138114 <alt_tick+0xd8>
  1380b0:	e0bffd17 	ldw	r2,-12(fp)
  1380b4:	10800317 	ldw	r2,12(r2)
  1380b8:	e0fffd17 	ldw	r3,-12(fp)
  1380bc:	18c00517 	ldw	r3,20(r3)
  1380c0:	1809883a 	mov	r4,r3
  1380c4:	103ee83a 	callr	r2
  1380c8:	e0bfff15 	stw	r2,-4(fp)
  1380cc:	e0bfff17 	ldw	r2,-4(fp)
  1380d0:	1000031e 	bne	r2,zero,1380e0 <alt_tick+0xa4>
  1380d4:	e13ffd17 	ldw	r4,-12(fp)
  1380d8:	0137fa00 	call	137fa0 <alt_alarm_stop>
  1380dc:	00000d06 	br	138114 <alt_tick+0xd8>
  1380e0:	e0bffd17 	ldw	r2,-12(fp)
  1380e4:	10c00217 	ldw	r3,8(r2)
  1380e8:	e0bfff17 	ldw	r2,-4(fp)
  1380ec:	1887883a 	add	r3,r3,r2
  1380f0:	e0bffd17 	ldw	r2,-12(fp)
  1380f4:	10c00215 	stw	r3,8(r2)
  1380f8:	e0bffd17 	ldw	r2,-12(fp)
  1380fc:	10c00217 	ldw	r3,8(r2)
  138100:	d0a76417 	ldw	r2,-25200(gp)
  138104:	1880032e 	bgeu	r3,r2,138114 <alt_tick+0xd8>
  138108:	e0bffd17 	ldw	r2,-12(fp)
  13810c:	00c00044 	movi	r3,1
  138110:	10c00405 	stb	r3,16(r2)
  138114:	e0bffe17 	ldw	r2,-8(fp)
  138118:	e0bffd15 	stw	r2,-12(fp)
  13811c:	e0fffd17 	ldw	r3,-12(fp)
  138120:	d0a01504 	addi	r2,gp,-32684
  138124:	18bfcf1e 	bne	r3,r2,138064 <_gp+0xffff498c>
  138128:	0001883a 	nop
  13812c:	0001883a 	nop
  138130:	e037883a 	mov	sp,fp
  138134:	dfc00117 	ldw	ra,4(sp)
  138138:	df000017 	ldw	fp,0(sp)
  13813c:	dec00204 	addi	sp,sp,8
  138140:	f800283a 	ret

00138144 <altera_nios2_gen2_irq_init>:
  138144:	deffff04 	addi	sp,sp,-4
  138148:	df000015 	stw	fp,0(sp)
  13814c:	d839883a 	mov	fp,sp
  138150:	000170fa 	wrctl	ienable,zero
  138154:	0001883a 	nop
  138158:	e037883a 	mov	sp,fp
  13815c:	df000017 	ldw	fp,0(sp)
  138160:	dec00104 	addi	sp,sp,4
  138164:	f800283a 	ret

00138168 <alt_exception_cause_generated_bad_addr>:
  138168:	defffe04 	addi	sp,sp,-8
  13816c:	df000115 	stw	fp,4(sp)
  138170:	df000104 	addi	fp,sp,4
  138174:	e13fff15 	stw	r4,-4(fp)
  138178:	e0bfff17 	ldw	r2,-4(fp)
  13817c:	10bffe84 	addi	r2,r2,-6
  138180:	10c00428 	cmpgeui	r3,r2,16
  138184:	18001a1e 	bne	r3,zero,1381f0 <alt_exception_cause_generated_bad_addr+0x88>
  138188:	100690ba 	slli	r3,r2,2
  13818c:	00800534 	movhi	r2,20
  138190:	10a06804 	addi	r2,r2,-32352
  138194:	1885883a 	add	r2,r3,r2
  138198:	10800017 	ldw	r2,0(r2)
  13819c:	1000683a 	jmp	r2
  1381a0:	001381e0 	cmpeqi	zero,zero,19975
  1381a4:	001381e0 	cmpeqi	zero,zero,19975
  1381a8:	001381f0 	cmpltui	zero,zero,19975
  1381ac:	001381f0 	cmpltui	zero,zero,19975
  1381b0:	001381f0 	cmpltui	zero,zero,19975
  1381b4:	001381e0 	cmpeqi	zero,zero,19975
  1381b8:	001381e8 	cmpgeui	zero,zero,19975
  1381bc:	001381f0 	cmpltui	zero,zero,19975
  1381c0:	001381e0 	cmpeqi	zero,zero,19975
  1381c4:	001381e0 	cmpeqi	zero,zero,19975
  1381c8:	001381f0 	cmpltui	zero,zero,19975
  1381cc:	001381e0 	cmpeqi	zero,zero,19975
  1381d0:	001381e8 	cmpgeui	zero,zero,19975
  1381d4:	001381f0 	cmpltui	zero,zero,19975
  1381d8:	001381f0 	cmpltui	zero,zero,19975
  1381dc:	001381e0 	cmpeqi	zero,zero,19975
  1381e0:	00800044 	movi	r2,1
  1381e4:	00000306 	br	1381f4 <alt_exception_cause_generated_bad_addr+0x8c>
  1381e8:	0005883a 	mov	r2,zero
  1381ec:	00000106 	br	1381f4 <alt_exception_cause_generated_bad_addr+0x8c>
  1381f0:	0005883a 	mov	r2,zero
  1381f4:	e037883a 	mov	sp,fp
  1381f8:	df000017 	ldw	fp,0(sp)
  1381fc:	dec00104 	addi	sp,sp,4
  138200:	f800283a 	ret

00138204 <atexit>:
  138204:	200b883a 	mov	r5,r4
  138208:	000f883a 	mov	r7,zero
  13820c:	000d883a 	mov	r6,zero
  138210:	0009883a 	mov	r4,zero
  138214:	01389201 	jmpi	138920 <__register_exitproc>

00138218 <exit>:
  138218:	defffe04 	addi	sp,sp,-8
  13821c:	000b883a 	mov	r5,zero
  138220:	dc000015 	stw	r16,0(sp)
  138224:	dfc00115 	stw	ra,4(sp)
  138228:	2021883a 	mov	r16,r4
  13822c:	0138a380 	call	138a38 <__call_exitprocs>
  138230:	00800534 	movhi	r2,20
  138234:	10adb904 	addi	r2,r2,-18716
  138238:	11000017 	ldw	r4,0(r2)
  13823c:	20800f17 	ldw	r2,60(r4)
  138240:	10000126 	beq	r2,zero,138248 <exit+0x30>
  138244:	103ee83a 	callr	r2
  138248:	8009883a 	mov	r4,r16
  13824c:	0138e240 	call	138e24 <_exit>

00138250 <_fputs_r>:
  138250:	defff804 	addi	sp,sp,-32
  138254:	dc400615 	stw	r17,24(sp)
  138258:	2023883a 	mov	r17,r4
  13825c:	2809883a 	mov	r4,r5
  138260:	dc000515 	stw	r16,20(sp)
  138264:	dfc00715 	stw	ra,28(sp)
  138268:	3021883a 	mov	r16,r6
  13826c:	d9400315 	stw	r5,12(sp)
  138270:	01218f40 	call	1218f4 <strlen>
  138274:	d8800215 	stw	r2,8(sp)
  138278:	d8800415 	stw	r2,16(sp)
  13827c:	d8800304 	addi	r2,sp,12
  138280:	d8800015 	stw	r2,0(sp)
  138284:	00800044 	movi	r2,1
  138288:	d8800115 	stw	r2,4(sp)
  13828c:	88000226 	beq	r17,zero,138298 <_fputs_r+0x48>
  138290:	88800e17 	ldw	r2,56(r17)
  138294:	10001226 	beq	r2,zero,1382e0 <_fputs_r+0x90>
  138298:	8080030b 	ldhu	r2,12(r16)
  13829c:	10c8000c 	andi	r3,r2,8192
  1382a0:	1800061e 	bne	r3,zero,1382bc <_fputs_r+0x6c>
  1382a4:	81001917 	ldw	r4,100(r16)
  1382a8:	00f7ffc4 	movi	r3,-8193
  1382ac:	10880014 	ori	r2,r2,8192
  1382b0:	20c6703a 	and	r3,r4,r3
  1382b4:	8080030d 	sth	r2,12(r16)
  1382b8:	80c01915 	stw	r3,100(r16)
  1382bc:	d80d883a 	mov	r6,sp
  1382c0:	800b883a 	mov	r5,r16
  1382c4:	8809883a 	mov	r4,r17
  1382c8:	01383040 	call	138304 <__sfvwrite_r>
  1382cc:	dfc00717 	ldw	ra,28(sp)
  1382d0:	dc400617 	ldw	r17,24(sp)
  1382d4:	dc000517 	ldw	r16,20(sp)
  1382d8:	dec00804 	addi	sp,sp,32
  1382dc:	f800283a 	ret
  1382e0:	8809883a 	mov	r4,r17
  1382e4:	012eeb40 	call	12eeb4 <__sinit>
  1382e8:	003feb06 	br	138298 <_gp+0xffff4bc0>

001382ec <fputs>:
  1382ec:	00800534 	movhi	r2,20
  1382f0:	10adba04 	addi	r2,r2,-18712
  1382f4:	280d883a 	mov	r6,r5
  1382f8:	200b883a 	mov	r5,r4
  1382fc:	11000017 	ldw	r4,0(r2)
  138300:	01382501 	jmpi	138250 <_fputs_r>

00138304 <__sfvwrite_r>:
  138304:	30800217 	ldw	r2,8(r6)
  138308:	10006726 	beq	r2,zero,1384a8 <__sfvwrite_r+0x1a4>
  13830c:	28c0030b 	ldhu	r3,12(r5)
  138310:	defff404 	addi	sp,sp,-48
  138314:	dd400715 	stw	r21,28(sp)
  138318:	dd000615 	stw	r20,24(sp)
  13831c:	dc000215 	stw	r16,8(sp)
  138320:	dfc00b15 	stw	ra,44(sp)
  138324:	df000a15 	stw	fp,40(sp)
  138328:	ddc00915 	stw	r23,36(sp)
  13832c:	dd800815 	stw	r22,32(sp)
  138330:	dcc00515 	stw	r19,20(sp)
  138334:	dc800415 	stw	r18,16(sp)
  138338:	dc400315 	stw	r17,12(sp)
  13833c:	1880020c 	andi	r2,r3,8
  138340:	2821883a 	mov	r16,r5
  138344:	202b883a 	mov	r21,r4
  138348:	3029883a 	mov	r20,r6
  13834c:	10002726 	beq	r2,zero,1383ec <__sfvwrite_r+0xe8>
  138350:	28800417 	ldw	r2,16(r5)
  138354:	10002526 	beq	r2,zero,1383ec <__sfvwrite_r+0xe8>
  138358:	1880008c 	andi	r2,r3,2
  13835c:	a4400017 	ldw	r17,0(r20)
  138360:	10002a26 	beq	r2,zero,13840c <__sfvwrite_r+0x108>
  138364:	05a00034 	movhi	r22,32768
  138368:	0027883a 	mov	r19,zero
  13836c:	0025883a 	mov	r18,zero
  138370:	b5bf0004 	addi	r22,r22,-1024
  138374:	980d883a 	mov	r6,r19
  138378:	a809883a 	mov	r4,r21
  13837c:	90004626 	beq	r18,zero,138498 <__sfvwrite_r+0x194>
  138380:	900f883a 	mov	r7,r18
  138384:	b480022e 	bgeu	r22,r18,138390 <__sfvwrite_r+0x8c>
  138388:	01e00034 	movhi	r7,32768
  13838c:	39ff0004 	addi	r7,r7,-1024
  138390:	80800917 	ldw	r2,36(r16)
  138394:	81400717 	ldw	r5,28(r16)
  138398:	103ee83a 	callr	r2
  13839c:	00805a0e 	bge	zero,r2,138508 <__sfvwrite_r+0x204>
  1383a0:	a0c00217 	ldw	r3,8(r20)
  1383a4:	98a7883a 	add	r19,r19,r2
  1383a8:	90a5c83a 	sub	r18,r18,r2
  1383ac:	1885c83a 	sub	r2,r3,r2
  1383b0:	a0800215 	stw	r2,8(r20)
  1383b4:	103fef1e 	bne	r2,zero,138374 <_gp+0xffff4c9c>
  1383b8:	0005883a 	mov	r2,zero
  1383bc:	dfc00b17 	ldw	ra,44(sp)
  1383c0:	df000a17 	ldw	fp,40(sp)
  1383c4:	ddc00917 	ldw	r23,36(sp)
  1383c8:	dd800817 	ldw	r22,32(sp)
  1383cc:	dd400717 	ldw	r21,28(sp)
  1383d0:	dd000617 	ldw	r20,24(sp)
  1383d4:	dcc00517 	ldw	r19,20(sp)
  1383d8:	dc800417 	ldw	r18,16(sp)
  1383dc:	dc400317 	ldw	r17,12(sp)
  1383e0:	dc000217 	ldw	r16,8(sp)
  1383e4:	dec00c04 	addi	sp,sp,48
  1383e8:	f800283a 	ret
  1383ec:	800b883a 	mov	r5,r16
  1383f0:	a809883a 	mov	r4,r21
  1383f4:	01387cc0 	call	1387cc <__swsetup_r>
  1383f8:	1000ee1e 	bne	r2,zero,1387b4 <__sfvwrite_r+0x4b0>
  1383fc:	80c0030b 	ldhu	r3,12(r16)
  138400:	a4400017 	ldw	r17,0(r20)
  138404:	1880008c 	andi	r2,r3,2
  138408:	103fd61e 	bne	r2,zero,138364 <_gp+0xffff4c8c>
  13840c:	1880004c 	andi	r2,r3,1
  138410:	1000421e 	bne	r2,zero,13851c <__sfvwrite_r+0x218>
  138414:	0039883a 	mov	fp,zero
  138418:	0025883a 	mov	r18,zero
  13841c:	90001a26 	beq	r18,zero,138488 <__sfvwrite_r+0x184>
  138420:	1880800c 	andi	r2,r3,512
  138424:	84c00217 	ldw	r19,8(r16)
  138428:	10002126 	beq	r2,zero,1384b0 <__sfvwrite_r+0x1ac>
  13842c:	982f883a 	mov	r23,r19
  138430:	94c09636 	bltu	r18,r19,13868c <__sfvwrite_r+0x388>
  138434:	1881200c 	andi	r2,r3,1152
  138438:	1000a11e 	bne	r2,zero,1386c0 <__sfvwrite_r+0x3bc>
  13843c:	81000017 	ldw	r4,0(r16)
  138440:	b80d883a 	mov	r6,r23
  138444:	e00b883a 	mov	r5,fp
  138448:	013006c0 	call	13006c <memmove>
  13844c:	80c00217 	ldw	r3,8(r16)
  138450:	81000017 	ldw	r4,0(r16)
  138454:	9005883a 	mov	r2,r18
  138458:	1ce7c83a 	sub	r19,r3,r19
  13845c:	25cf883a 	add	r7,r4,r23
  138460:	84c00215 	stw	r19,8(r16)
  138464:	81c00015 	stw	r7,0(r16)
  138468:	a0c00217 	ldw	r3,8(r20)
  13846c:	e0b9883a 	add	fp,fp,r2
  138470:	90a5c83a 	sub	r18,r18,r2
  138474:	18a7c83a 	sub	r19,r3,r2
  138478:	a4c00215 	stw	r19,8(r20)
  13847c:	983fce26 	beq	r19,zero,1383b8 <_gp+0xffff4ce0>
  138480:	80c0030b 	ldhu	r3,12(r16)
  138484:	903fe61e 	bne	r18,zero,138420 <_gp+0xffff4d48>
  138488:	8f000017 	ldw	fp,0(r17)
  13848c:	8c800117 	ldw	r18,4(r17)
  138490:	8c400204 	addi	r17,r17,8
  138494:	003fe106 	br	13841c <_gp+0xffff4d44>
  138498:	8cc00017 	ldw	r19,0(r17)
  13849c:	8c800117 	ldw	r18,4(r17)
  1384a0:	8c400204 	addi	r17,r17,8
  1384a4:	003fb306 	br	138374 <_gp+0xffff4c9c>
  1384a8:	0005883a 	mov	r2,zero
  1384ac:	f800283a 	ret
  1384b0:	81000017 	ldw	r4,0(r16)
  1384b4:	80800417 	ldw	r2,16(r16)
  1384b8:	11005a36 	bltu	r2,r4,138624 <__sfvwrite_r+0x320>
  1384bc:	85c00517 	ldw	r23,20(r16)
  1384c0:	95c05836 	bltu	r18,r23,138624 <__sfvwrite_r+0x320>
  1384c4:	00a00034 	movhi	r2,32768
  1384c8:	10bfffc4 	addi	r2,r2,-1
  1384cc:	9009883a 	mov	r4,r18
  1384d0:	1480012e 	bgeu	r2,r18,1384d8 <__sfvwrite_r+0x1d4>
  1384d4:	1009883a 	mov	r4,r2
  1384d8:	b80b883a 	mov	r5,r23
  1384dc:	01211b40 	call	1211b4 <__divsi3>
  1384e0:	b80b883a 	mov	r5,r23
  1384e4:	1009883a 	mov	r4,r2
  1384e8:	01213680 	call	121368 <__mulsi3>
  1384ec:	81400717 	ldw	r5,28(r16)
  1384f0:	80c00917 	ldw	r3,36(r16)
  1384f4:	100f883a 	mov	r7,r2
  1384f8:	e00d883a 	mov	r6,fp
  1384fc:	a809883a 	mov	r4,r21
  138500:	183ee83a 	callr	r3
  138504:	00bfd816 	blt	zero,r2,138468 <_gp+0xffff4d90>
  138508:	8080030b 	ldhu	r2,12(r16)
  13850c:	10801014 	ori	r2,r2,64
  138510:	8080030d 	sth	r2,12(r16)
  138514:	00bfffc4 	movi	r2,-1
  138518:	003fa806 	br	1383bc <_gp+0xffff4ce4>
  13851c:	0027883a 	mov	r19,zero
  138520:	0011883a 	mov	r8,zero
  138524:	0039883a 	mov	fp,zero
  138528:	0025883a 	mov	r18,zero
  13852c:	90001f26 	beq	r18,zero,1385ac <__sfvwrite_r+0x2a8>
  138530:	40005a26 	beq	r8,zero,13869c <__sfvwrite_r+0x398>
  138534:	982d883a 	mov	r22,r19
  138538:	94c0012e 	bgeu	r18,r19,138540 <__sfvwrite_r+0x23c>
  13853c:	902d883a 	mov	r22,r18
  138540:	81000017 	ldw	r4,0(r16)
  138544:	80800417 	ldw	r2,16(r16)
  138548:	b02f883a 	mov	r23,r22
  13854c:	81c00517 	ldw	r7,20(r16)
  138550:	1100032e 	bgeu	r2,r4,138560 <__sfvwrite_r+0x25c>
  138554:	80c00217 	ldw	r3,8(r16)
  138558:	38c7883a 	add	r3,r7,r3
  13855c:	1d801816 	blt	r3,r22,1385c0 <__sfvwrite_r+0x2bc>
  138560:	b1c03e16 	blt	r22,r7,13865c <__sfvwrite_r+0x358>
  138564:	80800917 	ldw	r2,36(r16)
  138568:	81400717 	ldw	r5,28(r16)
  13856c:	e00d883a 	mov	r6,fp
  138570:	da000115 	stw	r8,4(sp)
  138574:	a809883a 	mov	r4,r21
  138578:	103ee83a 	callr	r2
  13857c:	102f883a 	mov	r23,r2
  138580:	da000117 	ldw	r8,4(sp)
  138584:	00bfe00e 	bge	zero,r2,138508 <_gp+0xffff4e30>
  138588:	9de7c83a 	sub	r19,r19,r23
  13858c:	98001f26 	beq	r19,zero,13860c <__sfvwrite_r+0x308>
  138590:	a0800217 	ldw	r2,8(r20)
  138594:	e5f9883a 	add	fp,fp,r23
  138598:	95e5c83a 	sub	r18,r18,r23
  13859c:	15efc83a 	sub	r23,r2,r23
  1385a0:	a5c00215 	stw	r23,8(r20)
  1385a4:	b83f8426 	beq	r23,zero,1383b8 <_gp+0xffff4ce0>
  1385a8:	903fe11e 	bne	r18,zero,138530 <_gp+0xffff4e58>
  1385ac:	8f000017 	ldw	fp,0(r17)
  1385b0:	8c800117 	ldw	r18,4(r17)
  1385b4:	0011883a 	mov	r8,zero
  1385b8:	8c400204 	addi	r17,r17,8
  1385bc:	003fdb06 	br	13852c <_gp+0xffff4e54>
  1385c0:	180d883a 	mov	r6,r3
  1385c4:	e00b883a 	mov	r5,fp
  1385c8:	da000115 	stw	r8,4(sp)
  1385cc:	d8c00015 	stw	r3,0(sp)
  1385d0:	013006c0 	call	13006c <memmove>
  1385d4:	d8c00017 	ldw	r3,0(sp)
  1385d8:	80800017 	ldw	r2,0(r16)
  1385dc:	800b883a 	mov	r5,r16
  1385e0:	a809883a 	mov	r4,r21
  1385e4:	10c5883a 	add	r2,r2,r3
  1385e8:	80800015 	stw	r2,0(r16)
  1385ec:	d8c00015 	stw	r3,0(sp)
  1385f0:	012eac80 	call	12eac8 <_fflush_r>
  1385f4:	d8c00017 	ldw	r3,0(sp)
  1385f8:	da000117 	ldw	r8,4(sp)
  1385fc:	103fc21e 	bne	r2,zero,138508 <_gp+0xffff4e30>
  138600:	182f883a 	mov	r23,r3
  138604:	9de7c83a 	sub	r19,r19,r23
  138608:	983fe11e 	bne	r19,zero,138590 <_gp+0xffff4eb8>
  13860c:	800b883a 	mov	r5,r16
  138610:	a809883a 	mov	r4,r21
  138614:	012eac80 	call	12eac8 <_fflush_r>
  138618:	103fbb1e 	bne	r2,zero,138508 <_gp+0xffff4e30>
  13861c:	0011883a 	mov	r8,zero
  138620:	003fdb06 	br	138590 <_gp+0xffff4eb8>
  138624:	94c0012e 	bgeu	r18,r19,13862c <__sfvwrite_r+0x328>
  138628:	9027883a 	mov	r19,r18
  13862c:	980d883a 	mov	r6,r19
  138630:	e00b883a 	mov	r5,fp
  138634:	013006c0 	call	13006c <memmove>
  138638:	80800217 	ldw	r2,8(r16)
  13863c:	80c00017 	ldw	r3,0(r16)
  138640:	14c5c83a 	sub	r2,r2,r19
  138644:	1cc7883a 	add	r3,r3,r19
  138648:	80800215 	stw	r2,8(r16)
  13864c:	80c00015 	stw	r3,0(r16)
  138650:	10004326 	beq	r2,zero,138760 <__sfvwrite_r+0x45c>
  138654:	9805883a 	mov	r2,r19
  138658:	003f8306 	br	138468 <_gp+0xffff4d90>
  13865c:	b00d883a 	mov	r6,r22
  138660:	e00b883a 	mov	r5,fp
  138664:	da000115 	stw	r8,4(sp)
  138668:	013006c0 	call	13006c <memmove>
  13866c:	80800217 	ldw	r2,8(r16)
  138670:	80c00017 	ldw	r3,0(r16)
  138674:	da000117 	ldw	r8,4(sp)
  138678:	1585c83a 	sub	r2,r2,r22
  13867c:	1dad883a 	add	r22,r3,r22
  138680:	80800215 	stw	r2,8(r16)
  138684:	85800015 	stw	r22,0(r16)
  138688:	003fbf06 	br	138588 <_gp+0xffff4eb0>
  13868c:	81000017 	ldw	r4,0(r16)
  138690:	9027883a 	mov	r19,r18
  138694:	902f883a 	mov	r23,r18
  138698:	003f6906 	br	138440 <_gp+0xffff4d68>
  13869c:	900d883a 	mov	r6,r18
  1386a0:	01400284 	movi	r5,10
  1386a4:	e009883a 	mov	r4,fp
  1386a8:	01283380 	call	128338 <memchr>
  1386ac:	10003e26 	beq	r2,zero,1387a8 <__sfvwrite_r+0x4a4>
  1386b0:	10800044 	addi	r2,r2,1
  1386b4:	1727c83a 	sub	r19,r2,fp
  1386b8:	02000044 	movi	r8,1
  1386bc:	003f9d06 	br	138534 <_gp+0xffff4e5c>
  1386c0:	80800517 	ldw	r2,20(r16)
  1386c4:	81400417 	ldw	r5,16(r16)
  1386c8:	81c00017 	ldw	r7,0(r16)
  1386cc:	10a7883a 	add	r19,r2,r2
  1386d0:	9885883a 	add	r2,r19,r2
  1386d4:	1026d7fa 	srli	r19,r2,31
  1386d8:	396dc83a 	sub	r22,r7,r5
  1386dc:	b1000044 	addi	r4,r22,1
  1386e0:	9885883a 	add	r2,r19,r2
  1386e4:	1027d07a 	srai	r19,r2,1
  1386e8:	2485883a 	add	r2,r4,r18
  1386ec:	980d883a 	mov	r6,r19
  1386f0:	9880022e 	bgeu	r19,r2,1386fc <__sfvwrite_r+0x3f8>
  1386f4:	1027883a 	mov	r19,r2
  1386f8:	100d883a 	mov	r6,r2
  1386fc:	18c1000c 	andi	r3,r3,1024
  138700:	18001c26 	beq	r3,zero,138774 <__sfvwrite_r+0x470>
  138704:	300b883a 	mov	r5,r6
  138708:	a809883a 	mov	r4,r21
  13870c:	01279080 	call	127908 <_malloc_r>
  138710:	102f883a 	mov	r23,r2
  138714:	10002926 	beq	r2,zero,1387bc <__sfvwrite_r+0x4b8>
  138718:	81400417 	ldw	r5,16(r16)
  13871c:	b00d883a 	mov	r6,r22
  138720:	1009883a 	mov	r4,r2
  138724:	01213900 	call	121390 <memcpy>
  138728:	8080030b 	ldhu	r2,12(r16)
  13872c:	00fedfc4 	movi	r3,-1153
  138730:	10c4703a 	and	r2,r2,r3
  138734:	10802014 	ori	r2,r2,128
  138738:	8080030d 	sth	r2,12(r16)
  13873c:	bd89883a 	add	r4,r23,r22
  138740:	9d8fc83a 	sub	r7,r19,r22
  138744:	85c00415 	stw	r23,16(r16)
  138748:	84c00515 	stw	r19,20(r16)
  13874c:	81000015 	stw	r4,0(r16)
  138750:	9027883a 	mov	r19,r18
  138754:	81c00215 	stw	r7,8(r16)
  138758:	902f883a 	mov	r23,r18
  13875c:	003f3806 	br	138440 <_gp+0xffff4d68>
  138760:	800b883a 	mov	r5,r16
  138764:	a809883a 	mov	r4,r21
  138768:	012eac80 	call	12eac8 <_fflush_r>
  13876c:	103fb926 	beq	r2,zero,138654 <_gp+0xffff4f7c>
  138770:	003f6506 	br	138508 <_gp+0xffff4e30>
  138774:	a809883a 	mov	r4,r21
  138778:	01301c80 	call	1301c8 <_realloc_r>
  13877c:	102f883a 	mov	r23,r2
  138780:	103fee1e 	bne	r2,zero,13873c <_gp+0xffff5064>
  138784:	81400417 	ldw	r5,16(r16)
  138788:	a809883a 	mov	r4,r21
  13878c:	012f0280 	call	12f028 <_free_r>
  138790:	8080030b 	ldhu	r2,12(r16)
  138794:	00ffdfc4 	movi	r3,-129
  138798:	1884703a 	and	r2,r3,r2
  13879c:	00c00304 	movi	r3,12
  1387a0:	a8c00015 	stw	r3,0(r21)
  1387a4:	003f5906 	br	13850c <_gp+0xffff4e34>
  1387a8:	94c00044 	addi	r19,r18,1
  1387ac:	02000044 	movi	r8,1
  1387b0:	003f6006 	br	138534 <_gp+0xffff4e5c>
  1387b4:	00bfffc4 	movi	r2,-1
  1387b8:	003f0006 	br	1383bc <_gp+0xffff4ce4>
  1387bc:	00800304 	movi	r2,12
  1387c0:	a8800015 	stw	r2,0(r21)
  1387c4:	8080030b 	ldhu	r2,12(r16)
  1387c8:	003f5006 	br	13850c <_gp+0xffff4e34>

001387cc <__swsetup_r>:
  1387cc:	00800534 	movhi	r2,20
  1387d0:	defffd04 	addi	sp,sp,-12
  1387d4:	10adba04 	addi	r2,r2,-18712
  1387d8:	dc400115 	stw	r17,4(sp)
  1387dc:	2023883a 	mov	r17,r4
  1387e0:	11000017 	ldw	r4,0(r2)
  1387e4:	dc000015 	stw	r16,0(sp)
  1387e8:	dfc00215 	stw	ra,8(sp)
  1387ec:	2821883a 	mov	r16,r5
  1387f0:	20000226 	beq	r4,zero,1387fc <__swsetup_r+0x30>
  1387f4:	20800e17 	ldw	r2,56(r4)
  1387f8:	10003126 	beq	r2,zero,1388c0 <__swsetup_r+0xf4>
  1387fc:	8080030b 	ldhu	r2,12(r16)
  138800:	10c0020c 	andi	r3,r2,8
  138804:	1009883a 	mov	r4,r2
  138808:	18000f26 	beq	r3,zero,138848 <__swsetup_r+0x7c>
  13880c:	80c00417 	ldw	r3,16(r16)
  138810:	18001526 	beq	r3,zero,138868 <__swsetup_r+0x9c>
  138814:	1100004c 	andi	r4,r2,1
  138818:	20001c1e 	bne	r4,zero,13888c <__swsetup_r+0xc0>
  13881c:	1080008c 	andi	r2,r2,2
  138820:	1000291e 	bne	r2,zero,1388c8 <__swsetup_r+0xfc>
  138824:	80800517 	ldw	r2,20(r16)
  138828:	80800215 	stw	r2,8(r16)
  13882c:	18001c26 	beq	r3,zero,1388a0 <__swsetup_r+0xd4>
  138830:	0005883a 	mov	r2,zero
  138834:	dfc00217 	ldw	ra,8(sp)
  138838:	dc400117 	ldw	r17,4(sp)
  13883c:	dc000017 	ldw	r16,0(sp)
  138840:	dec00304 	addi	sp,sp,12
  138844:	f800283a 	ret
  138848:	2080040c 	andi	r2,r4,16
  13884c:	10002e26 	beq	r2,zero,138908 <__swsetup_r+0x13c>
  138850:	2080010c 	andi	r2,r4,4
  138854:	10001e1e 	bne	r2,zero,1388d0 <__swsetup_r+0x104>
  138858:	80c00417 	ldw	r3,16(r16)
  13885c:	20800214 	ori	r2,r4,8
  138860:	8080030d 	sth	r2,12(r16)
  138864:	183feb1e 	bne	r3,zero,138814 <_gp+0xffff513c>
  138868:	1100a00c 	andi	r4,r2,640
  13886c:	01408004 	movi	r5,512
  138870:	217fe826 	beq	r4,r5,138814 <_gp+0xffff513c>
  138874:	800b883a 	mov	r5,r16
  138878:	8809883a 	mov	r4,r17
  13887c:	0138bb80 	call	138bb8 <__smakebuf_r>
  138880:	8080030b 	ldhu	r2,12(r16)
  138884:	80c00417 	ldw	r3,16(r16)
  138888:	003fe206 	br	138814 <_gp+0xffff513c>
  13888c:	80800517 	ldw	r2,20(r16)
  138890:	80000215 	stw	zero,8(r16)
  138894:	0085c83a 	sub	r2,zero,r2
  138898:	80800615 	stw	r2,24(r16)
  13889c:	183fe41e 	bne	r3,zero,138830 <_gp+0xffff5158>
  1388a0:	80c0030b 	ldhu	r3,12(r16)
  1388a4:	0005883a 	mov	r2,zero
  1388a8:	1900200c 	andi	r4,r3,128
  1388ac:	203fe126 	beq	r4,zero,138834 <_gp+0xffff515c>
  1388b0:	18c01014 	ori	r3,r3,64
  1388b4:	80c0030d 	sth	r3,12(r16)
  1388b8:	00bfffc4 	movi	r2,-1
  1388bc:	003fdd06 	br	138834 <_gp+0xffff515c>
  1388c0:	012eeb40 	call	12eeb4 <__sinit>
  1388c4:	003fcd06 	br	1387fc <_gp+0xffff5124>
  1388c8:	0005883a 	mov	r2,zero
  1388cc:	003fd606 	br	138828 <_gp+0xffff5150>
  1388d0:	81400c17 	ldw	r5,48(r16)
  1388d4:	28000626 	beq	r5,zero,1388f0 <__swsetup_r+0x124>
  1388d8:	80801004 	addi	r2,r16,64
  1388dc:	28800326 	beq	r5,r2,1388ec <__swsetup_r+0x120>
  1388e0:	8809883a 	mov	r4,r17
  1388e4:	012f0280 	call	12f028 <_free_r>
  1388e8:	8100030b 	ldhu	r4,12(r16)
  1388ec:	80000c15 	stw	zero,48(r16)
  1388f0:	80c00417 	ldw	r3,16(r16)
  1388f4:	00bff6c4 	movi	r2,-37
  1388f8:	1108703a 	and	r4,r2,r4
  1388fc:	80000115 	stw	zero,4(r16)
  138900:	80c00015 	stw	r3,0(r16)
  138904:	003fd506 	br	13885c <_gp+0xffff5184>
  138908:	00800244 	movi	r2,9
  13890c:	88800015 	stw	r2,0(r17)
  138910:	20801014 	ori	r2,r4,64
  138914:	8080030d 	sth	r2,12(r16)
  138918:	00bfffc4 	movi	r2,-1
  13891c:	003fc506 	br	138834 <_gp+0xffff515c>

00138920 <__register_exitproc>:
  138920:	defffa04 	addi	sp,sp,-24
  138924:	dc000315 	stw	r16,12(sp)
  138928:	04000534 	movhi	r16,20
  13892c:	842db904 	addi	r16,r16,-18716
  138930:	80c00017 	ldw	r3,0(r16)
  138934:	dc400415 	stw	r17,16(sp)
  138938:	dfc00515 	stw	ra,20(sp)
  13893c:	18805217 	ldw	r2,328(r3)
  138940:	2023883a 	mov	r17,r4
  138944:	10003726 	beq	r2,zero,138a24 <__register_exitproc+0x104>
  138948:	10c00117 	ldw	r3,4(r2)
  13894c:	010007c4 	movi	r4,31
  138950:	20c00e16 	blt	r4,r3,13898c <__register_exitproc+0x6c>
  138954:	1a000044 	addi	r8,r3,1
  138958:	8800221e 	bne	r17,zero,1389e4 <__register_exitproc+0xc4>
  13895c:	18c00084 	addi	r3,r3,2
  138960:	18c7883a 	add	r3,r3,r3
  138964:	18c7883a 	add	r3,r3,r3
  138968:	12000115 	stw	r8,4(r2)
  13896c:	10c7883a 	add	r3,r2,r3
  138970:	19400015 	stw	r5,0(r3)
  138974:	0005883a 	mov	r2,zero
  138978:	dfc00517 	ldw	ra,20(sp)
  13897c:	dc400417 	ldw	r17,16(sp)
  138980:	dc000317 	ldw	r16,12(sp)
  138984:	dec00604 	addi	sp,sp,24
  138988:	f800283a 	ret
  13898c:	00800034 	movhi	r2,0
  138990:	10800004 	addi	r2,r2,0
  138994:	10002626 	beq	r2,zero,138a30 <__register_exitproc+0x110>
  138998:	01006404 	movi	r4,400
  13899c:	d9400015 	stw	r5,0(sp)
  1389a0:	d9800115 	stw	r6,4(sp)
  1389a4:	d9c00215 	stw	r7,8(sp)
  1389a8:	00000000 	call	0 <__alt_mem_onchip_flash_data-0x80000>
  1389ac:	d9400017 	ldw	r5,0(sp)
  1389b0:	d9800117 	ldw	r6,4(sp)
  1389b4:	d9c00217 	ldw	r7,8(sp)
  1389b8:	10001d26 	beq	r2,zero,138a30 <__register_exitproc+0x110>
  1389bc:	81000017 	ldw	r4,0(r16)
  1389c0:	10000115 	stw	zero,4(r2)
  1389c4:	02000044 	movi	r8,1
  1389c8:	22405217 	ldw	r9,328(r4)
  1389cc:	0007883a 	mov	r3,zero
  1389d0:	12400015 	stw	r9,0(r2)
  1389d4:	20805215 	stw	r2,328(r4)
  1389d8:	10006215 	stw	zero,392(r2)
  1389dc:	10006315 	stw	zero,396(r2)
  1389e0:	883fde26 	beq	r17,zero,13895c <_gp+0xffff5284>
  1389e4:	18c9883a 	add	r4,r3,r3
  1389e8:	2109883a 	add	r4,r4,r4
  1389ec:	1109883a 	add	r4,r2,r4
  1389f0:	21802215 	stw	r6,136(r4)
  1389f4:	01800044 	movi	r6,1
  1389f8:	12406217 	ldw	r9,392(r2)
  1389fc:	30cc983a 	sll	r6,r6,r3
  138a00:	4992b03a 	or	r9,r9,r6
  138a04:	12406215 	stw	r9,392(r2)
  138a08:	21c04215 	stw	r7,264(r4)
  138a0c:	01000084 	movi	r4,2
  138a10:	893fd21e 	bne	r17,r4,13895c <_gp+0xffff5284>
  138a14:	11006317 	ldw	r4,396(r2)
  138a18:	218cb03a 	or	r6,r4,r6
  138a1c:	11806315 	stw	r6,396(r2)
  138a20:	003fce06 	br	13895c <_gp+0xffff5284>
  138a24:	18805304 	addi	r2,r3,332
  138a28:	18805215 	stw	r2,328(r3)
  138a2c:	003fc606 	br	138948 <_gp+0xffff5270>
  138a30:	00bfffc4 	movi	r2,-1
  138a34:	003fd006 	br	138978 <_gp+0xffff52a0>

00138a38 <__call_exitprocs>:
  138a38:	defff504 	addi	sp,sp,-44
  138a3c:	df000915 	stw	fp,36(sp)
  138a40:	dd400615 	stw	r21,24(sp)
  138a44:	dc800315 	stw	r18,12(sp)
  138a48:	dfc00a15 	stw	ra,40(sp)
  138a4c:	ddc00815 	stw	r23,32(sp)
  138a50:	dd800715 	stw	r22,28(sp)
  138a54:	dd000515 	stw	r20,20(sp)
  138a58:	dcc00415 	stw	r19,16(sp)
  138a5c:	dc400215 	stw	r17,8(sp)
  138a60:	dc000115 	stw	r16,4(sp)
  138a64:	d9000015 	stw	r4,0(sp)
  138a68:	2839883a 	mov	fp,r5
  138a6c:	04800044 	movi	r18,1
  138a70:	057fffc4 	movi	r21,-1
  138a74:	00800534 	movhi	r2,20
  138a78:	10adb904 	addi	r2,r2,-18716
  138a7c:	12000017 	ldw	r8,0(r2)
  138a80:	45005217 	ldw	r20,328(r8)
  138a84:	44c05204 	addi	r19,r8,328
  138a88:	a0001c26 	beq	r20,zero,138afc <__call_exitprocs+0xc4>
  138a8c:	a0800117 	ldw	r2,4(r20)
  138a90:	15ffffc4 	addi	r23,r2,-1
  138a94:	b8000d16 	blt	r23,zero,138acc <__call_exitprocs+0x94>
  138a98:	14000044 	addi	r16,r2,1
  138a9c:	8421883a 	add	r16,r16,r16
  138aa0:	8421883a 	add	r16,r16,r16
  138aa4:	84402004 	addi	r17,r16,128
  138aa8:	a463883a 	add	r17,r20,r17
  138aac:	a421883a 	add	r16,r20,r16
  138ab0:	e0001e26 	beq	fp,zero,138b2c <__call_exitprocs+0xf4>
  138ab4:	80804017 	ldw	r2,256(r16)
  138ab8:	e0801c26 	beq	fp,r2,138b2c <__call_exitprocs+0xf4>
  138abc:	bdffffc4 	addi	r23,r23,-1
  138ac0:	843fff04 	addi	r16,r16,-4
  138ac4:	8c7fff04 	addi	r17,r17,-4
  138ac8:	bd7ff91e 	bne	r23,r21,138ab0 <_gp+0xffff53d8>
  138acc:	00800034 	movhi	r2,0
  138ad0:	10800004 	addi	r2,r2,0
  138ad4:	10000926 	beq	r2,zero,138afc <__call_exitprocs+0xc4>
  138ad8:	a0800117 	ldw	r2,4(r20)
  138adc:	1000301e 	bne	r2,zero,138ba0 <__call_exitprocs+0x168>
  138ae0:	a0800017 	ldw	r2,0(r20)
  138ae4:	10003226 	beq	r2,zero,138bb0 <__call_exitprocs+0x178>
  138ae8:	a009883a 	mov	r4,r20
  138aec:	98800015 	stw	r2,0(r19)
  138af0:	00000000 	call	0 <__alt_mem_onchip_flash_data-0x80000>
  138af4:	9d000017 	ldw	r20,0(r19)
  138af8:	a03fe41e 	bne	r20,zero,138a8c <_gp+0xffff53b4>
  138afc:	dfc00a17 	ldw	ra,40(sp)
  138b00:	df000917 	ldw	fp,36(sp)
  138b04:	ddc00817 	ldw	r23,32(sp)
  138b08:	dd800717 	ldw	r22,28(sp)
  138b0c:	dd400617 	ldw	r21,24(sp)
  138b10:	dd000517 	ldw	r20,20(sp)
  138b14:	dcc00417 	ldw	r19,16(sp)
  138b18:	dc800317 	ldw	r18,12(sp)
  138b1c:	dc400217 	ldw	r17,8(sp)
  138b20:	dc000117 	ldw	r16,4(sp)
  138b24:	dec00b04 	addi	sp,sp,44
  138b28:	f800283a 	ret
  138b2c:	a0800117 	ldw	r2,4(r20)
  138b30:	80c00017 	ldw	r3,0(r16)
  138b34:	10bfffc4 	addi	r2,r2,-1
  138b38:	15c01426 	beq	r2,r23,138b8c <__call_exitprocs+0x154>
  138b3c:	80000015 	stw	zero,0(r16)
  138b40:	183fde26 	beq	r3,zero,138abc <_gp+0xffff53e4>
  138b44:	95c8983a 	sll	r4,r18,r23
  138b48:	a0806217 	ldw	r2,392(r20)
  138b4c:	a5800117 	ldw	r22,4(r20)
  138b50:	2084703a 	and	r2,r4,r2
  138b54:	10000b26 	beq	r2,zero,138b84 <__call_exitprocs+0x14c>
  138b58:	a0806317 	ldw	r2,396(r20)
  138b5c:	2088703a 	and	r4,r4,r2
  138b60:	20000c1e 	bne	r4,zero,138b94 <__call_exitprocs+0x15c>
  138b64:	89400017 	ldw	r5,0(r17)
  138b68:	d9000017 	ldw	r4,0(sp)
  138b6c:	183ee83a 	callr	r3
  138b70:	a0800117 	ldw	r2,4(r20)
  138b74:	15bfbf1e 	bne	r2,r22,138a74 <_gp+0xffff539c>
  138b78:	98800017 	ldw	r2,0(r19)
  138b7c:	153fcf26 	beq	r2,r20,138abc <_gp+0xffff53e4>
  138b80:	003fbc06 	br	138a74 <_gp+0xffff539c>
  138b84:	183ee83a 	callr	r3
  138b88:	003ff906 	br	138b70 <_gp+0xffff5498>
  138b8c:	a5c00115 	stw	r23,4(r20)
  138b90:	003feb06 	br	138b40 <_gp+0xffff5468>
  138b94:	89000017 	ldw	r4,0(r17)
  138b98:	183ee83a 	callr	r3
  138b9c:	003ff406 	br	138b70 <_gp+0xffff5498>
  138ba0:	a0800017 	ldw	r2,0(r20)
  138ba4:	a027883a 	mov	r19,r20
  138ba8:	1029883a 	mov	r20,r2
  138bac:	003fb606 	br	138a88 <_gp+0xffff53b0>
  138bb0:	0005883a 	mov	r2,zero
  138bb4:	003ffb06 	br	138ba4 <_gp+0xffff54cc>

00138bb8 <__smakebuf_r>:
  138bb8:	2880030b 	ldhu	r2,12(r5)
  138bbc:	10c0008c 	andi	r3,r2,2
  138bc0:	1800411e 	bne	r3,zero,138cc8 <__smakebuf_r+0x110>
  138bc4:	deffec04 	addi	sp,sp,-80
  138bc8:	dc000f15 	stw	r16,60(sp)
  138bcc:	2821883a 	mov	r16,r5
  138bd0:	2940038f 	ldh	r5,14(r5)
  138bd4:	dc401015 	stw	r17,64(sp)
  138bd8:	dfc01315 	stw	ra,76(sp)
  138bdc:	dcc01215 	stw	r19,72(sp)
  138be0:	dc801115 	stw	r18,68(sp)
  138be4:	2023883a 	mov	r17,r4
  138be8:	28001c16 	blt	r5,zero,138c5c <__smakebuf_r+0xa4>
  138bec:	d80d883a 	mov	r6,sp
  138bf0:	0138d740 	call	138d74 <_fstat_r>
  138bf4:	10001816 	blt	r2,zero,138c58 <__smakebuf_r+0xa0>
  138bf8:	d8800117 	ldw	r2,4(sp)
  138bfc:	00e00014 	movui	r3,32768
  138c00:	10bc000c 	andi	r2,r2,61440
  138c04:	14c80020 	cmpeqi	r19,r2,8192
  138c08:	10c03726 	beq	r2,r3,138ce8 <__smakebuf_r+0x130>
  138c0c:	80c0030b 	ldhu	r3,12(r16)
  138c10:	18c20014 	ori	r3,r3,2048
  138c14:	80c0030d 	sth	r3,12(r16)
  138c18:	00c80004 	movi	r3,8192
  138c1c:	10c0521e 	bne	r2,r3,138d68 <__smakebuf_r+0x1b0>
  138c20:	8140038f 	ldh	r5,14(r16)
  138c24:	8809883a 	mov	r4,r17
  138c28:	0138dd00 	call	138dd0 <_isatty_r>
  138c2c:	10004c26 	beq	r2,zero,138d60 <__smakebuf_r+0x1a8>
  138c30:	8080030b 	ldhu	r2,12(r16)
  138c34:	80c010c4 	addi	r3,r16,67
  138c38:	80c00015 	stw	r3,0(r16)
  138c3c:	10800054 	ori	r2,r2,1
  138c40:	8080030d 	sth	r2,12(r16)
  138c44:	00800044 	movi	r2,1
  138c48:	80c00415 	stw	r3,16(r16)
  138c4c:	80800515 	stw	r2,20(r16)
  138c50:	04810004 	movi	r18,1024
  138c54:	00000706 	br	138c74 <__smakebuf_r+0xbc>
  138c58:	8080030b 	ldhu	r2,12(r16)
  138c5c:	10c0200c 	andi	r3,r2,128
  138c60:	18001f1e 	bne	r3,zero,138ce0 <__smakebuf_r+0x128>
  138c64:	04810004 	movi	r18,1024
  138c68:	10820014 	ori	r2,r2,2048
  138c6c:	8080030d 	sth	r2,12(r16)
  138c70:	0027883a 	mov	r19,zero
  138c74:	900b883a 	mov	r5,r18
  138c78:	8809883a 	mov	r4,r17
  138c7c:	01279080 	call	127908 <_malloc_r>
  138c80:	10002c26 	beq	r2,zero,138d34 <__smakebuf_r+0x17c>
  138c84:	80c0030b 	ldhu	r3,12(r16)
  138c88:	010004f4 	movhi	r4,19
  138c8c:	213ad704 	addi	r4,r4,-5284
  138c90:	89000f15 	stw	r4,60(r17)
  138c94:	18c02014 	ori	r3,r3,128
  138c98:	80c0030d 	sth	r3,12(r16)
  138c9c:	80800015 	stw	r2,0(r16)
  138ca0:	80800415 	stw	r2,16(r16)
  138ca4:	84800515 	stw	r18,20(r16)
  138ca8:	98001a1e 	bne	r19,zero,138d14 <__smakebuf_r+0x15c>
  138cac:	dfc01317 	ldw	ra,76(sp)
  138cb0:	dcc01217 	ldw	r19,72(sp)
  138cb4:	dc801117 	ldw	r18,68(sp)
  138cb8:	dc401017 	ldw	r17,64(sp)
  138cbc:	dc000f17 	ldw	r16,60(sp)
  138cc0:	dec01404 	addi	sp,sp,80
  138cc4:	f800283a 	ret
  138cc8:	288010c4 	addi	r2,r5,67
  138ccc:	28800015 	stw	r2,0(r5)
  138cd0:	28800415 	stw	r2,16(r5)
  138cd4:	00800044 	movi	r2,1
  138cd8:	28800515 	stw	r2,20(r5)
  138cdc:	f800283a 	ret
  138ce0:	04801004 	movi	r18,64
  138ce4:	003fe006 	br	138c68 <_gp+0xffff5590>
  138ce8:	81000a17 	ldw	r4,40(r16)
  138cec:	00c004b4 	movhi	r3,18
  138cf0:	18c62404 	addi	r3,r3,6288
  138cf4:	20ffc51e 	bne	r4,r3,138c0c <_gp+0xffff5534>
  138cf8:	8080030b 	ldhu	r2,12(r16)
  138cfc:	04810004 	movi	r18,1024
  138d00:	84801315 	stw	r18,76(r16)
  138d04:	1484b03a 	or	r2,r2,r18
  138d08:	8080030d 	sth	r2,12(r16)
  138d0c:	0027883a 	mov	r19,zero
  138d10:	003fd806 	br	138c74 <_gp+0xffff559c>
  138d14:	8140038f 	ldh	r5,14(r16)
  138d18:	8809883a 	mov	r4,r17
  138d1c:	0138dd00 	call	138dd0 <_isatty_r>
  138d20:	103fe226 	beq	r2,zero,138cac <_gp+0xffff55d4>
  138d24:	8080030b 	ldhu	r2,12(r16)
  138d28:	10800054 	ori	r2,r2,1
  138d2c:	8080030d 	sth	r2,12(r16)
  138d30:	003fde06 	br	138cac <_gp+0xffff55d4>
  138d34:	8080030b 	ldhu	r2,12(r16)
  138d38:	10c0800c 	andi	r3,r2,512
  138d3c:	183fdb1e 	bne	r3,zero,138cac <_gp+0xffff55d4>
  138d40:	10800094 	ori	r2,r2,2
  138d44:	80c010c4 	addi	r3,r16,67
  138d48:	8080030d 	sth	r2,12(r16)
  138d4c:	00800044 	movi	r2,1
  138d50:	80c00015 	stw	r3,0(r16)
  138d54:	80c00415 	stw	r3,16(r16)
  138d58:	80800515 	stw	r2,20(r16)
  138d5c:	003fd306 	br	138cac <_gp+0xffff55d4>
  138d60:	04810004 	movi	r18,1024
  138d64:	003fc306 	br	138c74 <_gp+0xffff559c>
  138d68:	0027883a 	mov	r19,zero
  138d6c:	04810004 	movi	r18,1024
  138d70:	003fc006 	br	138c74 <_gp+0xffff559c>

00138d74 <_fstat_r>:
  138d74:	defffd04 	addi	sp,sp,-12
  138d78:	2805883a 	mov	r2,r5
  138d7c:	dc000015 	stw	r16,0(sp)
  138d80:	04000534 	movhi	r16,20
  138d84:	dc400115 	stw	r17,4(sp)
  138d88:	84350e04 	addi	r16,r16,-11208
  138d8c:	2023883a 	mov	r17,r4
  138d90:	300b883a 	mov	r5,r6
  138d94:	1009883a 	mov	r4,r2
  138d98:	dfc00215 	stw	ra,8(sp)
  138d9c:	80000015 	stw	zero,0(r16)
  138da0:	0138e940 	call	138e94 <fstat>
  138da4:	00ffffc4 	movi	r3,-1
  138da8:	10c00526 	beq	r2,r3,138dc0 <_fstat_r+0x4c>
  138dac:	dfc00217 	ldw	ra,8(sp)
  138db0:	dc400117 	ldw	r17,4(sp)
  138db4:	dc000017 	ldw	r16,0(sp)
  138db8:	dec00304 	addi	sp,sp,12
  138dbc:	f800283a 	ret
  138dc0:	80c00017 	ldw	r3,0(r16)
  138dc4:	183ff926 	beq	r3,zero,138dac <_gp+0xffff56d4>
  138dc8:	88c00015 	stw	r3,0(r17)
  138dcc:	003ff706 	br	138dac <_gp+0xffff56d4>

00138dd0 <_isatty_r>:
  138dd0:	defffd04 	addi	sp,sp,-12
  138dd4:	dc000015 	stw	r16,0(sp)
  138dd8:	04000534 	movhi	r16,20
  138ddc:	dc400115 	stw	r17,4(sp)
  138de0:	84350e04 	addi	r16,r16,-11208
  138de4:	2023883a 	mov	r17,r4
  138de8:	2809883a 	mov	r4,r5
  138dec:	dfc00215 	stw	ra,8(sp)
  138df0:	80000015 	stw	zero,0(r16)
  138df4:	0138f880 	call	138f88 <isatty>
  138df8:	00ffffc4 	movi	r3,-1
  138dfc:	10c00526 	beq	r2,r3,138e14 <_isatty_r+0x44>
  138e00:	dfc00217 	ldw	ra,8(sp)
  138e04:	dc400117 	ldw	r17,4(sp)
  138e08:	dc000017 	ldw	r16,0(sp)
  138e0c:	dec00304 	addi	sp,sp,12
  138e10:	f800283a 	ret
  138e14:	80c00017 	ldw	r3,0(r16)
  138e18:	183ff926 	beq	r3,zero,138e00 <_gp+0xffff5728>
  138e1c:	88c00015 	stw	r3,0(r17)
  138e20:	003ff706 	br	138e00 <_gp+0xffff5728>

00138e24 <_exit>:
  138e24:	defffd04 	addi	sp,sp,-12
  138e28:	df000215 	stw	fp,8(sp)
  138e2c:	df000204 	addi	fp,sp,8
  138e30:	e13fff15 	stw	r4,-4(fp)
  138e34:	0001883a 	nop
  138e38:	e0bfff17 	ldw	r2,-4(fp)
  138e3c:	e0bffe15 	stw	r2,-8(fp)
  138e40:	e0bffe17 	ldw	r2,-8(fp)
  138e44:	10000226 	beq	r2,zero,138e50 <_exit+0x2c>
  138e48:	002af070 	cmpltui	zero,zero,43969
  138e4c:	00000106 	br	138e54 <_exit+0x30>
  138e50:	002af0b0 	cmpltui	zero,zero,43970
  138e54:	003fff06 	br	138e54 <_gp+0xffff577c>

00138e58 <alt_get_errno>:
  138e58:	defffe04 	addi	sp,sp,-8
  138e5c:	dfc00115 	stw	ra,4(sp)
  138e60:	df000015 	stw	fp,0(sp)
  138e64:	d839883a 	mov	fp,sp
  138e68:	d0a00e17 	ldw	r2,-32712(gp)
  138e6c:	10000326 	beq	r2,zero,138e7c <alt_get_errno+0x24>
  138e70:	d0a00e17 	ldw	r2,-32712(gp)
  138e74:	103ee83a 	callr	r2
  138e78:	00000106 	br	138e80 <alt_get_errno+0x28>
  138e7c:	d0a75804 	addi	r2,gp,-25248
  138e80:	e037883a 	mov	sp,fp
  138e84:	dfc00117 	ldw	ra,4(sp)
  138e88:	df000017 	ldw	fp,0(sp)
  138e8c:	dec00204 	addi	sp,sp,8
  138e90:	f800283a 	ret

00138e94 <fstat>:
  138e94:	defffb04 	addi	sp,sp,-20
  138e98:	dfc00415 	stw	ra,16(sp)
  138e9c:	df000315 	stw	fp,12(sp)
  138ea0:	df000304 	addi	fp,sp,12
  138ea4:	e13ffe15 	stw	r4,-8(fp)
  138ea8:	e17fff15 	stw	r5,-4(fp)
  138eac:	e0bffe17 	ldw	r2,-8(fp)
  138eb0:	10000816 	blt	r2,zero,138ed4 <fstat+0x40>
  138eb4:	01400304 	movi	r5,12
  138eb8:	e13ffe17 	ldw	r4,-8(fp)
  138ebc:	01213680 	call	121368 <__mulsi3>
  138ec0:	1007883a 	mov	r3,r2
  138ec4:	00800534 	movhi	r2,20
  138ec8:	10a8c204 	addi	r2,r2,-23800
  138ecc:	1885883a 	add	r2,r3,r2
  138ed0:	00000106 	br	138ed8 <fstat+0x44>
  138ed4:	0005883a 	mov	r2,zero
  138ed8:	e0bffd15 	stw	r2,-12(fp)
  138edc:	e0bffd17 	ldw	r2,-12(fp)
  138ee0:	10001026 	beq	r2,zero,138f24 <fstat+0x90>
  138ee4:	e0bffd17 	ldw	r2,-12(fp)
  138ee8:	10800017 	ldw	r2,0(r2)
  138eec:	10800817 	ldw	r2,32(r2)
  138ef0:	10000726 	beq	r2,zero,138f10 <fstat+0x7c>
  138ef4:	e0bffd17 	ldw	r2,-12(fp)
  138ef8:	10800017 	ldw	r2,0(r2)
  138efc:	10800817 	ldw	r2,32(r2)
  138f00:	e17fff17 	ldw	r5,-4(fp)
  138f04:	e13ffd17 	ldw	r4,-12(fp)
  138f08:	103ee83a 	callr	r2
  138f0c:	00000a06 	br	138f38 <fstat+0xa4>
  138f10:	e0bfff17 	ldw	r2,-4(fp)
  138f14:	00c80004 	movi	r3,8192
  138f18:	10c00115 	stw	r3,4(r2)
  138f1c:	0005883a 	mov	r2,zero
  138f20:	00000506 	br	138f38 <fstat+0xa4>
  138f24:	0138e580 	call	138e58 <alt_get_errno>
  138f28:	1007883a 	mov	r3,r2
  138f2c:	00801444 	movi	r2,81
  138f30:	18800015 	stw	r2,0(r3)
  138f34:	00bfffc4 	movi	r2,-1
  138f38:	e037883a 	mov	sp,fp
  138f3c:	dfc00117 	ldw	ra,4(sp)
  138f40:	df000017 	ldw	fp,0(sp)
  138f44:	dec00204 	addi	sp,sp,8
  138f48:	f800283a 	ret

00138f4c <alt_get_errno>:
  138f4c:	defffe04 	addi	sp,sp,-8
  138f50:	dfc00115 	stw	ra,4(sp)
  138f54:	df000015 	stw	fp,0(sp)
  138f58:	d839883a 	mov	fp,sp
  138f5c:	d0a00e17 	ldw	r2,-32712(gp)
  138f60:	10000326 	beq	r2,zero,138f70 <alt_get_errno+0x24>
  138f64:	d0a00e17 	ldw	r2,-32712(gp)
  138f68:	103ee83a 	callr	r2
  138f6c:	00000106 	br	138f74 <alt_get_errno+0x28>
  138f70:	d0a75804 	addi	r2,gp,-25248
  138f74:	e037883a 	mov	sp,fp
  138f78:	dfc00117 	ldw	ra,4(sp)
  138f7c:	df000017 	ldw	fp,0(sp)
  138f80:	dec00204 	addi	sp,sp,8
  138f84:	f800283a 	ret

00138f88 <isatty>:
  138f88:	deffed04 	addi	sp,sp,-76
  138f8c:	dfc01215 	stw	ra,72(sp)
  138f90:	df001115 	stw	fp,68(sp)
  138f94:	df001104 	addi	fp,sp,68
  138f98:	e13fff15 	stw	r4,-4(fp)
  138f9c:	e0bfff17 	ldw	r2,-4(fp)
  138fa0:	10000816 	blt	r2,zero,138fc4 <isatty+0x3c>
  138fa4:	01400304 	movi	r5,12
  138fa8:	e13fff17 	ldw	r4,-4(fp)
  138fac:	01213680 	call	121368 <__mulsi3>
  138fb0:	1007883a 	mov	r3,r2
  138fb4:	00800534 	movhi	r2,20
  138fb8:	10a8c204 	addi	r2,r2,-23800
  138fbc:	1885883a 	add	r2,r3,r2
  138fc0:	00000106 	br	138fc8 <isatty+0x40>
  138fc4:	0005883a 	mov	r2,zero
  138fc8:	e0bfef15 	stw	r2,-68(fp)
  138fcc:	e0bfef17 	ldw	r2,-68(fp)
  138fd0:	10000e26 	beq	r2,zero,13900c <isatty+0x84>
  138fd4:	e0bfef17 	ldw	r2,-68(fp)
  138fd8:	10800017 	ldw	r2,0(r2)
  138fdc:	10800817 	ldw	r2,32(r2)
  138fe0:	1000021e 	bne	r2,zero,138fec <isatty+0x64>
  138fe4:	00800044 	movi	r2,1
  138fe8:	00000d06 	br	139020 <isatty+0x98>
  138fec:	e0bff004 	addi	r2,fp,-64
  138ff0:	100b883a 	mov	r5,r2
  138ff4:	e13fff17 	ldw	r4,-4(fp)
  138ff8:	0138e940 	call	138e94 <fstat>
  138ffc:	e0bff117 	ldw	r2,-60(fp)
  139000:	10880020 	cmpeqi	r2,r2,8192
  139004:	10803fcc 	andi	r2,r2,255
  139008:	00000506 	br	139020 <isatty+0x98>
  13900c:	0138f4c0 	call	138f4c <alt_get_errno>
  139010:	1007883a 	mov	r3,r2
  139014:	00801444 	movi	r2,81
  139018:	18800015 	stw	r2,0(r3)
  13901c:	0005883a 	mov	r2,zero
  139020:	e037883a 	mov	sp,fp
  139024:	dfc00117 	ldw	ra,4(sp)
  139028:	df000017 	ldw	fp,0(sp)
  13902c:	dec00204 	addi	sp,sp,8
  139030:	f800283a 	ret
